(dp1
S'files'
p2
(dp3
S'create_views_quests_tests_test_add_tag_view'
p4
(dp5
S'index'
p6
(dp7
S'html_filename'
p8
S'create_views_quests_tests_test_add_tag_view.html'
p9
sS'name'
p10
S'create/views/quests/tests/test_add_tag_view'
p11
sS'nums'
p12
ccopy_reg
_reconstructor
p13
(ccoverage.results
Numbers
p14
c__builtin__
object
p15
NtRp16
(dp17
S'n_files'
p18
I1
sS'n_branches'
p19
I0
sS'n_statements'
p20
I35
sS'n_excluded'
p21
I0
sS'n_partial_branches'
p22
I0
sS'n_missing'
p23
I0
sS'n_missing_branches'
p24
I0
sbssS'hash'
p25
S'o\xbe\xf1\xf9\x80\xe5|\xbab\xcc\xe2F=\x1e\xacp'
p26
ssS'user_system_models_users_teacher_profile_model'
p27
(dp28
g6
(dp29
g8
S'user_system_models_users_teacher_profile_model.html'
p30
sg10
S'user_system/models/users/teacher_profile_model'
p31
sg12
g13
(g14
g15
NtRp32
(dp33
g18
I1
sg19
I0
sg20
I27
sg21
I0
sg22
I0
sg23
I0
sg24
I0
sbssg25
S'x\x9e\x06\xe6\x8d\x87\xed\xaf\x91\x87\x16\xfc"\x96\xf2\xfc'
p34
ssS'user_system_views_signups_facebook_signup_view'
p35
(dp36
g6
(dp37
g8
S'user_system_views_signups_facebook_signup_view.html'
p38
sg10
S'user_system/views/signups/facebook_signup_view'
p39
sg12
g13
(g14
g15
NtRp40
(dp41
g18
I1
sg19
I8
sg20
I38
sg21
I0
sg22
I0
sg23
I0
sg24
I0
sbssg25
S'\x04E\'\x17r8\x14\xf6 \x98\xb5\xa0sx"@'
p42
ssS'create_models_books_book_history_model'
p43
(dp44
g6
(dp45
g8
S'create_models_books_book_history_model.html'
p46
sg10
S'create/models/books/book_history_model'
p47
sg12
g13
(g14
g15
NtRp48
(dp49
g18
I1
sg19
I4
sg20
I43
sg21
I0
sg22
I1
sg23
I0
sg24
I1
sbssg25
S'\xd71\x9e\xd0\x9bqR\xb9(!\x9f2\x10O|\xeb'
p50
ssS'teach_models_teacher_tags___init__'
p51
(dp52
g6
(dp53
g8
S'teach_models_teacher_tags___init__.html'
p54
sg10
S'teach/models/teacher_tags/__init__'
p55
sg12
g13
(g14
g15
NtRp56
(dp57
g18
I1
sg19
I0
sg20
I1
sg21
I0
sg22
I0
sg23
I0
sg24
I0
sbssg25
S"\x15#y\x16\x1a\x9d\xc6mE\xccg]\x07\xb9'\xe0"
p58
ssS'user_system_models_users_user_facebook_model'
p59
(dp60
g6
(dp61
g8
S'user_system_models_users_user_facebook_model.html'
p62
sg10
S'user_system/models/users/user_facebook_model'
p63
sg12
g13
(g14
g15
NtRp64
(dp65
g18
I1
sg19
I0
sg20
I22
sg21
I0
sg22
I0
sg23
I0
sg24
I0
sbssg25
S'!d\xff\xbcl0O(`\x1b1\xf7\xb3*{X'
p66
ssS'teach_models_teacher_chapters___init__'
p67
(dp68
g6
(dp69
g8
S'teach_models_teacher_chapters___init__.html'
p70
sg10
S'teach/models/teacher_chapters/__init__'
p71
sg12
g13
(g14
g15
NtRp72
(dp73
g18
I1
sg19
I0
sg20
I1
sg21
I0
sg22
I0
sg23
I0
sg24
I0
sbssg25
S'\xfa\xce(\x03\x8d\xd7\xc1h\xedT\xf9d\xae\x03w^'
p74
ssS'user_system_views_logins_facebook_login_view'
p75
(dp76
g6
(dp77
g8
S'user_system_views_logins_facebook_login_view.html'
p78
sg10
S'user_system/views/logins/facebook_login_view'
p79
sg12
g13
(g14
g15
NtRp80
(dp81
g18
I1
sg19
I4
sg20
I24
sg21
I0
sg22
I0
sg23
I0
sg24
I0
sbssg25
S',\xf8~\x8d\x9b\xfe\xa6wQ5\x92t\x15\xe5\x95\x8d'
p82
ssS'create_serializers_questions_question_history_serializer'
p83
(dp84
g6
(dp85
g8
S'create_serializers_questions_question_history_serializer.html'
p86
sg10
S'create/serializers/questions/question_history_serializer'
p87
sg12
g13
(g14
g15
NtRp88
(dp89
g18
I1
sg19
I2
sg20
I30
sg21
I0
sg22
I1
sg23
I2
sg24
I1
sbssg25
S'C\x93,\xa4\xac3\xb6\xb8\xca\x076\xae\x14\x15\xc0J'
p90
ssS'create_serializers_quests_quest_history_serializer'
p91
(dp92
g6
(dp93
g8
S'create_serializers_quests_quest_history_serializer.html'
p94
sg10
S'create/serializers/quests/quest_history_serializer'
p95
sg12
g13
(g14
g15
NtRp96
(dp97
g18
I1
sg19
I0
sg20
I38
sg21
I0
sg22
I0
sg23
I15
sg24
I0
sbssg25
S'\x0c\x10\x81\x11\xc3\xff\x01\x8d<#\xe5~\x84\xec\x18\xfd'
p98
ssS'learn_views_daily_quests_student_submission_view'
p99
(dp100
g6
(dp101
g8
S'learn_views_daily_quests_student_submission_view.html'
p102
sg10
S'learn/views/daily_quests/student_submission_view'
p103
sg12
g13
(g14
g15
NtRp104
(dp105
g18
I1
sg19
I10
sg20
I39
sg21
I0
sg22
I0
sg23
I22
sg24
I10
sbssg25
S'\xa1\xb8\xa5\x15\xe6;\xce4\xd7\x05\x02\xc5]N\x7f\x91'
p106
ssS'user_system_models_users_tests_test_student_profile_request_model'
p107
(dp108
g6
(dp109
g8
S'user_system_models_users_tests_test_student_profile_request_model.html'
p110
sg10
S'user_system/models/users/tests/test_student_profile_request_model'
p111
sg12
g13
(g14
g15
NtRp112
(dp113
g18
I1
sg19
I0
sg20
I42
sg21
I0
sg22
I0
sg23
I0
sg24
I0
sbssg25
S'\x0c4FG\x9bD\x9e\xaa\xb9a\xd6\xee\xc6&0T'
p114
ssS'create_views_books_tests_test_add_chapter_view'
p115
(dp116
g6
(dp117
g8
S'create_views_books_tests_test_add_chapter_view.html'
p118
sg10
S'create/views/books/tests/test_add_chapter_view'
p119
sg12
g13
(g14
g15
NtRp120
(dp121
g18
I1
sg19
I0
sg20
I69
sg21
I0
sg22
I0
sg23
I0
sg24
I0
sbssg25
S'\xea\xcd\x81\xff\xe6p74\xe3\xab\xc2R\x1aZ#Y'
p122
ssS'teach_models_teacher_chapters_tests_test_teacher_chapter_model'
p123
(dp124
g6
(dp125
g8
S'teach_models_teacher_chapters_tests_test_teacher_chapter_model.html'
p126
sg10
S'teach/models/teacher_chapters/tests/test_teacher_chapter_model'
p127
sg12
g13
(g14
g15
NtRp128
(dp129
g18
I1
sg19
I0
sg20
I28
sg21
I0
sg22
I0
sg23
I0
sg24
I0
sbssg25
S'm\xb2B\x1a\x04\xa5\x94N\xbe\xb6\xfa\xa9\x16J\x10\x92'
p130
ssS'create_serializers_question_datasets___init__'
p131
(dp132
g6
(dp133
g8
S'create_serializers_question_datasets___init__.html'
p134
sg10
S'create/serializers/question_datasets/__init__'
p135
sg12
g13
(g14
g15
NtRp136
(dp137
g18
I1
sg19
I0
sg20
I1
sg21
I0
sg22
I0
sg23
I0
sg24
I0
sbssg25
S'Z\xf8\x02Tc\xc1C;<_\x87\xc6\xc2H\xa6\xdc'
p138
ssS'user_system_models_users_user_profile_model'
p139
(dp140
g6
(dp141
g8
S'user_system_models_users_user_profile_model.html'
p142
sg10
S'user_system/models/users/user_profile_model'
p143
sg12
g13
(g14
g15
NtRp144
(dp145
g18
I1
sg19
I48
sg20
I178
sg21
I0
sg22
I0
sg23
I24
sg24
I6
sbssg25
S'\xf2\xb8\xecp\xaf\xff\n\xe3b\x06\xe8\xc3p\xf9\xe4W'
p146
ssS'create_models_question_datasets_tests_test_question_dataset_model'
p147
(dp148
g6
(dp149
g8
S'create_models_question_datasets_tests_test_question_dataset_model.html'
p150
sg10
S'create/models/question_datasets/tests/test_question_dataset_model'
p151
sg12
g13
(g14
g15
NtRp152
(dp153
g18
I1
sg19
I2
sg20
I39
sg21
I0
sg22
I0
sg23
I0
sg24
I0
sbssg25
S'!\t\x88\xfc\x0f\xaa\x0c\x88\xe3\xf9\x04\xd1\\0w\xf1'
p154
ssS'create_views_books_tests_test_remove_tag_from_subchapter_view'
p155
(dp156
g6
(dp157
g8
S'create_views_books_tests_test_remove_tag_from_subchapter_view.html'
p158
sg10
S'create/views/books/tests/test_remove_tag_from_subchapter_view'
p159
sg12
g13
(g14
g15
NtRp160
(dp161
g18
I1
sg19
I0
sg20
I40
sg21
I0
sg22
I0
sg23
I0
sg24
I0
sbssg25
S"(Vo#\xdd\x9a\xbc\x11\xff\xd6'\xd7\xeb\xca\x1aM"
p162
ssS'teach_urls'
p163
(dp164
g6
(dp165
g8
S'teach_urls.html'
p166
sg10
S'teach/urls'
p167
sg12
g13
(g14
g15
NtRp168
(dp169
g18
I1
sg19
I0
sg20
I15
sg21
I0
sg22
I0
sg23
I0
sg24
I0
sbssg25
S'\xdf\xeb\xd5b\xe0\xd9\x18\xe1V\xa1\xd3\x1d\x96\xb4\xb5\x12'
p170
ssS'create_serializers_questions_question_template_serializer'
p171
(dp172
g6
(dp173
g8
S'create_serializers_questions_question_template_serializer.html'
p174
sg10
S'create/serializers/questions/question_template_serializer'
p175
sg12
g13
(g14
g15
NtRp176
(dp177
g18
I1
sg19
I0
sg20
I43
sg21
I0
sg22
I0
sg23
I9
sg24
I0
sbssg25
S'\x1a\x149\xdb\xb8\xc7\xfc\xb6\xbc\x8b\xfe\x8e~N\xb9J'
p178
ssS'user_system_models_schools___init__'
p179
(dp180
g6
(dp181
g8
S'user_system_models_schools___init__.html'
p182
sg10
S'user_system/models/schools/__init__'
p183
sg12
g13
(g14
g15
NtRp184
(dp185
g18
I1
sg19
I0
sg20
I6
sg21
I0
sg22
I0
sg23
I0
sg24
I0
sbssg25
S'\xbe\xc9\xb2f\x05\x1f\xe6\xee\xef\x01#\xe8\x16\xc2\x83\xdb'
p186
ssS'create_views_questions_tests_test_remove_tag_view'
p187
(dp188
g6
(dp189
g8
S'create_views_questions_tests_test_remove_tag_view.html'
p190
sg10
S'create/views/questions/tests/test_remove_tag_view'
p191
sg12
g13
(g14
g15
NtRp192
(dp193
g18
I1
sg19
I0
sg20
I36
sg21
I0
sg22
I0
sg23
I0
sg24
I0
sbssg25
S'\xbdV1EN\xfe\x8e;\xe4\x92\x91r\xd6Q\x03\x80'
p194
ssS'user_system_models_users_tests_test_student_profile_model'
p195
(dp196
g6
(dp197
g8
S'user_system_models_users_tests_test_student_profile_model.html'
p198
sg10
S'user_system/models/users/tests/test_student_profile_model'
p199
sg12
g13
(g14
g15
NtRp200
(dp201
g18
I1
sg19
I0
sg20
I48
sg21
I0
sg22
I0
sg23
I0
sg24
I0
sbssg25
S'\n_\xb5B0\x1dR\x0b\x16i\x1fy.Z\x14#'
p202
ssS'learn___init__'
p203
(dp204
g6
(dp205
g8
S'learn___init__.html'
p206
sg10
S'learn/__init__'
p207
sg12
g13
(g14
g15
NtRp208
(dp209
g18
I1
sg19
I0
sg20
I0
sg21
I0
sg22
I0
sg23
I0
sg24
I0
sbssg25
S'\x19g\xdfM\x1a\x019\xaf\x1baIeR\xe5u\xa7'
p210
ssS'api_logging_urls'
p211
(dp212
g6
(dp213
g8
S'api_logging_urls.html'
p214
sg10
S'api_logging/urls'
p215
sg12
g13
(g14
g15
NtRp216
(dp217
g18
I1
sg19
I0
sg20
I14
sg21
I0
sg22
I0
sg23
I0
sg24
I0
sbssg25
S'\x89\xca#\xfe\xc8\xc0\xbfd\xd8>\x1c/\xbbdMP'
p218
ssS'teach_views_teacher_chapters___init__'
p219
(dp220
g6
(dp221
g8
S'teach_views_teacher_chapters___init__.html'
p222
sg10
S'teach/views/teacher_chapters/__init__'
p223
sg12
g13
(g14
g15
NtRp224
(dp225
g18
I1
sg19
I0
sg20
I1
sg21
I0
sg22
I0
sg23
I0
sg24
I0
sbssg25
S'\x10AP\xc9\nC\xd2REz\xf6\xe5\xd2(\xee`'
p226
ssS'user_system_models_users_student_profile_request_model'
p227
(dp228
g6
(dp229
g8
S'user_system_models_users_student_profile_request_model.html'
p230
sg10
S'user_system/models/users/student_profile_request_model'
p231
sg12
g13
(g14
g15
NtRp232
(dp233
g18
I1
sg19
I0
sg20
I45
sg21
I0
sg22
I0
sg23
I0
sg24
I0
sbssg25
S'\xeeZA}\xa0\xf5\x88k0a2\x9fS\xf3}\x05'
p234
ssS'privilege_models___init__'
p235
(dp236
g6
(dp237
g8
S'privilege_models___init__.html'
p238
sg10
S'privilege/models/__init__'
p239
sg12
g13
(g14
g15
NtRp240
(dp241
g18
I1
sg19
I0
sg20
I1
sg21
I0
sg22
I0
sg23
I0
sg24
I0
sbssg25
S'\x13V\xca}S\xd3\x98Rp?\xb0\xe1\x904>b'
p242
ssS'user_system_views_users_teacher_mapping_view'
p243
(dp244
g6
(dp245
g8
S'user_system_views_users_teacher_mapping_view.html'
p246
sg10
S'user_system/views/users/teacher_mapping_view'
p247
sg12
g13
(g14
g15
NtRp248
(dp249
g18
I1
sg19
I0
sg20
I14
sg21
I0
sg22
I0
sg23
I0
sg24
I0
sbssg25
S'B\x04t\x93Z\x86Q.\x17\xf9\xa0*\xf6\x86\xcf\x10'
p250
ssS'create_views_tags_tests_test_search_tag_view'
p251
(dp252
g6
(dp253
g8
S'create_views_tags_tests_test_search_tag_view.html'
p254
sg10
S'create/views/tags/tests/test_search_tag_view'
p255
sg12
g13
(g14
g15
NtRp256
(dp257
g18
I1
sg19
I0
sg20
I22
sg21
I0
sg22
I0
sg23
I0
sg24
I0
sbssg25
S'\rh\xcb\xb3g\x15\x9c\xe3hR\xc5r\xb9\x9c\xb2\x1f'
p258
ssS'create_views_questions_tests_test_hide_question_view'
p259
(dp260
g6
(dp261
g8
S'create_views_questions_tests_test_hide_question_view.html'
p262
sg10
S'create/views/questions/tests/test_hide_question_view'
p263
sg12
g13
(g14
g15
NtRp264
(dp265
g18
I1
sg19
I0
sg20
I30
sg21
I0
sg22
I0
sg23
I0
sg24
I0
sbssg25
S'\xb3\x10S\x8a\x9b\xecw\xaa\xd3\x81\x1b\xf2\xab\xb2QG'
p266
ssS'user_system_serializers_users_student_profile_request_serializer'
p267
(dp268
g6
(dp269
g8
S'user_system_serializers_users_student_profile_request_serializer.html'
p270
sg10
S'user_system/serializers/users/student_profile_request_serializer'
p271
sg12
g13
(g14
g15
NtRp272
(dp273
g18
I1
sg19
I0
sg20
I8
sg21
I0
sg22
I0
sg23
I0
sg24
I0
sbssg25
S'\xa9VJ\x07M\x02\xee$\t\xc8O\xc43$\x1a-'
p274
ssS'user_system_models_users_tests_test_teacher_profile_model'
p275
(dp276
g6
(dp277
g8
S'user_system_models_users_tests_test_teacher_profile_model.html'
p278
sg10
S'user_system/models/users/tests/test_teacher_profile_model'
p279
sg12
g13
(g14
g15
NtRp280
(dp281
g18
I1
sg19
I0
sg20
I32
sg21
I0
sg22
I0
sg23
I0
sg24
I0
sbssg25
S'\xe7n\x9a\x17\x9d0\x01\xa6\x0f\x18\x10l\x8ckmy'
p282
ssS'teach_models_campaigns___init__'
p283
(dp284
g6
(dp285
g8
S'teach_models_campaigns___init__.html'
p286
sg10
S'teach/models/campaigns/__init__'
p287
sg12
g13
(g14
g15
NtRp288
(dp289
g18
I1
sg19
I0
sg20
I1
sg21
I0
sg22
I0
sg23
I0
sg24
I0
sbssg25
S'\xba\x82\x818\x88\xe0\xf2#\xe9\x89\xffso\xdc\xe6\xd4'
p290
ssS'create_serializers_books_book_chapter_serializer'
p291
(dp292
g6
(dp293
g8
S'create_serializers_books_book_chapter_serializer.html'
p294
sg10
S'create/serializers/books/book_chapter_serializer'
p295
sg12
g13
(g14
g15
NtRp296
(dp297
g18
I1
sg19
I0
sg20
I23
sg21
I0
sg22
I0
sg23
I3
sg24
I0
sbssg25
S'\xf1~, f\x89\xad\xc8p\xcc\xd4E_\x0b3\x06'
p298
ssS'api_logging_models_api_logging_api_logging_model'
p299
(dp300
g6
(dp301
g8
S'api_logging_models_api_logging_api_logging_model.html'
p302
sg10
S'api_logging/models/api_logging/api_logging_model'
p303
sg12
g13
(g14
g15
NtRp304
(dp305
g18
I1
sg19
I0
sg20
I21
sg21
I0
sg22
I0
sg23
I0
sg24
I0
sbssg25
S'\x0c\x96WFX%\xe9\xcf+\xcf\xc2s\xa7a1\xbd'
p306
ssS'privilege_models_privileges_tests_test_user_privilege_model'
p307
(dp308
g6
(dp309
g8
S'privilege_models_privileges_tests_test_user_privilege_model.html'
p310
sg10
S'privilege/models/privileges/tests/test_user_privilege_model'
p311
sg12
g13
(g14
g15
NtRp312
(dp313
g18
I1
sg19
I0
sg20
I19
sg21
I0
sg22
I0
sg23
I0
sg24
I0
sbssg25
S'\xcd\xf2\x96G\xfe\xbc/\xb5\x15\xceNf\x0f\x0b5\xd4'
p314
ssS'user_system_urls'
p315
(dp316
g6
(dp317
g8
S'user_system_urls.html'
p318
sg10
S'user_system/urls'
p319
sg12
g13
(g14
g15
NtRp320
(dp321
g18
I1
sg19
I0
sg20
I21
sg21
I0
sg22
I0
sg23
I0
sg24
I0
sbssg25
S'm:T\x0e\x95\x83\x84\x9f\xc3#7a\xc8E\xc02'
p322
ssS'create_models_tags_tests_test_tag_type_model'
p323
(dp324
g6
(dp325
g8
S'create_models_tags_tests_test_tag_type_model.html'
p326
sg10
S'create/models/tags/tests/test_tag_type_model'
p327
sg12
g13
(g14
g15
NtRp328
(dp329
g18
I1
sg19
I0
sg20
I17
sg21
I0
sg22
I0
sg23
I0
sg24
I0
sbssg25
S'?6\xfcg\xce\x11\x1a7E\xaf\xb2\x02\t"\xddA'
p330
ssS'create_models_quests_quest_history_model'
p331
(dp332
g6
(dp333
g8
S'create_models_quests_quest_history_model.html'
p334
sg10
S'create/models/quests/quest_history_model'
p335
sg12
g13
(g14
g15
NtRp336
(dp337
g18
I1
sg19
I8
sg20
I75
sg21
I0
sg22
I3
sg23
I4
sg24
I3
sbssg25
S'@\xe7\xfa\x02?w\xe7\x93\xa3\x85\x0f\x0fz\xf0\xdbR'
p338
ssS'learn_models_daily_quests_tests_test_daily_quest_question_history_model'
p339
(dp340
g6
(dp341
g8
S'learn_models_daily_quests_tests_test_daily_quest_question_history_model.html'
p342
sg10
S'learn/models/daily_quests/tests/test_daily_quest_question_history_model'
p343
sg12
g13
(g14
g15
NtRp344
(dp345
g18
I1
sg19
I0
sg20
I202
sg21
I0
sg22
I0
sg23
I0
sg24
I0
sbssg25
S"(\xfe\xfc\x9b\xd9\xaf\n\x08\x83_\xc9Ko'\xc4\xb9"
p346
ssS'create_models_daily_quest_copies_daily_quest_copy_model'
p347
(dp348
g6
(dp349
g8
S'create_models_daily_quest_copies_daily_quest_copy_model.html'
p350
sg10
S'create/models/daily_quest_copies/daily_quest_copy_model'
p351
sg12
g13
(g14
g15
NtRp352
(dp353
g18
I1
sg19
I6
sg20
I47
sg21
I0
sg22
I0
sg23
I14
sg24
I6
sbssg25
S'\x90\xa7\xba\xee\x88\xf84\xf7\xd1B\x9b9@\\\x80P'
p354
ssS'user_system_views_logins_tests_test_facebook_login_view'
p355
(dp356
g6
(dp357
g8
S'user_system_views_logins_tests_test_facebook_login_view.html'
p358
sg10
S'user_system/views/logins/tests/test_facebook_login_view'
p359
sg12
g13
(g14
g15
NtRp360
(dp361
g18
I1
sg19
I0
sg20
I51
sg21
I0
sg22
I0
sg23
I0
sg24
I0
sbssg25
S'\x8eg\xfbA\xbdf+\x81\xe9\x8a\x16\x82\xe9\xe3\xc0\xf4'
p362
ssS'create_views_tags_tests___init__'
p363
(dp364
g6
(dp365
g8
S'create_views_tags_tests___init__.html'
p366
sg10
S'create/views/tags/tests/__init__'
p367
sg12
g13
(g14
g15
NtRp368
(dp369
g18
I1
sg19
I0
sg20
I0
sg21
I0
sg22
I0
sg23
I0
sg24
I0
sbssg25
S'\x19g\xdfM\x1a\x019\xaf\x1baIeR\xe5u\xa7'
p370
ssS'create_views_tags_tests_test_create_tag_view'
p371
(dp372
g6
(dp373
g8
S'create_views_tags_tests_test_create_tag_view.html'
p374
sg10
S'create/views/tags/tests/test_create_tag_view'
p375
sg12
g13
(g14
g15
NtRp376
(dp377
g18
I1
sg19
I0
sg20
I33
sg21
I0
sg22
I0
sg23
I0
sg24
I0
sbssg25
S'\\\x91{\x1a ;Qg\xbd\x81\xe2\xaf\xa41\xac\x1b'
p378
ssS'user_system_views_apps_tests___init__'
p379
(dp380
g6
(dp381
g8
S'user_system_views_apps_tests___init__.html'
p382
sg10
S'user_system/views/apps/tests/__init__'
p383
sg12
g13
(g14
g15
NtRp384
(dp385
g18
I1
sg19
I0
sg20
I0
sg21
I0
sg22
I0
sg23
I0
sg24
I0
sbssg25
S'\x19g\xdfM\x1a\x019\xaf\x1baIeR\xe5u\xa7'
p386
ssS'privilege___init__'
p387
(dp388
g6
(dp389
g8
S'privilege___init__.html'
p390
sg10
S'privilege/__init__'
p391
sg12
g13
(g14
g15
NtRp392
(dp393
g18
I1
sg19
I0
sg20
I0
sg21
I0
sg22
I0
sg23
I0
sg24
I0
sbssg25
S'\x19g\xdfM\x1a\x019\xaf\x1baIeR\xe5u\xa7'
p394
ssS'create_views_books___init__'
p395
(dp396
g6
(dp397
g8
S'create_views_books___init__.html'
p398
sg10
S'create/views/books/__init__'
p399
sg12
g13
(g14
g15
NtRp400
(dp401
g18
I1
sg19
I0
sg20
I3
sg21
I0
sg22
I0
sg23
I0
sg24
I0
sbssg25
S'\xce\x13\xc8S|wF\xe3\x148\xa0?ez,\xc4'
p402
ssS'create_models_books_book_chapter_model'
p403
(dp404
g6
(dp405
g8
S'create_models_books_book_chapter_model.html'
p406
sg10
S'create/models/books/book_chapter_model'
p407
sg12
g13
(g14
g15
NtRp408
(dp409
g18
I1
sg19
I8
sg20
I58
sg21
I0
sg22
I1
sg23
I3
sg24
I3
sbssg25
S'5h\xa3E\x99\xf4H\x97\xbf\x08?=+K\xe7\xad'
p410
ssS'user_system_admin'
p411
(dp412
g6
(dp413
g8
S'user_system_admin.html'
p414
sg10
S'user_system/admin'
p415
sg12
g13
(g14
g15
NtRp416
(dp417
g18
I1
sg19
I0
sg20
I25
sg21
I0
sg22
I0
sg23
I0
sg24
I0
sbssg25
S',\xc1@k;\x98\x80\xb5\xbc\xab\x11\xf3\xdc\x0b\xd1U'
p418
ssS'user_system_serializers_users_teacher_profile_serializer'
p419
(dp420
g6
(dp421
g8
S'user_system_serializers_users_teacher_profile_serializer.html'
p422
sg10
S'user_system/serializers/users/teacher_profile_serializer'
p423
sg12
g13
(g14
g15
NtRp424
(dp425
g18
I1
sg19
I4
sg20
I20
sg21
I0
sg22
I0
sg23
I9
sg24
I4
sbssg25
S'\xe2\xa5\xba\xd6e\xc2\x88\xab\xaes\x15\x08\xa9ta\xd6'
p426
ssS'user_system_models_users_tests___init__'
p427
(dp428
g6
(dp429
g8
S'user_system_models_users_tests___init__.html'
p430
sg10
S'user_system/models/users/tests/__init__'
p431
sg12
g13
(g14
g15
NtRp432
(dp433
g18
I1
sg19
I0
sg20
I0
sg21
I0
sg22
I0
sg23
I0
sg24
I0
sbssg25
S'\x19g\xdfM\x1a\x019\xaf\x1baIeR\xe5u\xa7'
p434
ssS'user_system_models_users_user_profile_picture_model'
p435
(dp436
g6
(dp437
g8
S'user_system_models_users_user_profile_picture_model.html'
p438
sg10
S'user_system/models/users/user_profile_picture_model'
p439
sg12
g13
(g14
g15
NtRp440
(dp441
g18
I1
sg19
I0
sg20
I18
sg21
I0
sg22
I0
sg23
I0
sg24
I0
sbssg25
S'$E\xff\xf5f,\xb2\xc7\xb4\x9b*\x0es|s\xcc'
p442
ssS'teach_models_teacher_tags_teacher_tag_model'
p443
(dp444
g6
(dp445
g8
S'teach_models_teacher_tags_teacher_tag_model.html'
p446
sg10
S'teach/models/teacher_tags/teacher_tag_model'
p447
sg12
g13
(g14
g15
NtRp448
(dp449
g18
I1
sg19
I0
sg20
I30
sg21
I0
sg22
I0
sg23
I0
sg24
I0
sbssg25
S'\\\xb6A\xa8\xa7\x93\x16K\xceQ>\xe8t\xdb<#'
p450
ssS'teach_models_daily_quest_templates_daily_quest_template_model'
p451
(dp452
g6
(dp453
g8
S'teach_models_daily_quest_templates_daily_quest_template_model.html'
p454
sg10
S'teach/models/daily_quest_templates/daily_quest_template_model'
p455
sg12
g13
(g14
g15
NtRp456
(dp457
g18
I1
sg19
I0
sg20
I32
sg21
I0
sg22
I0
sg23
I0
sg24
I0
sbssg25
S'\xd8?/FZ\xe7\xb6\xa6E&6\x86\xa5\x93\x7f='
p458
ssS'create_views_books_tests_test_add_subchapter_view'
p459
(dp460
g6
(dp461
g8
S'create_views_books_tests_test_add_subchapter_view.html'
p462
sg10
S'create/views/books/tests/test_add_subchapter_view'
p463
sg12
g13
(g14
g15
NtRp464
(dp465
g18
I1
sg19
I0
sg20
I60
sg21
I0
sg22
I0
sg23
I0
sg24
I0
sbssg25
S"\xcc^2\xc4\xf2\xb1\xdc\xe8\xf0t\xb6\xcc\x1f\xce\xf1'"
p466
ssS'create_models_quests_quest_model'
p467
(dp468
g6
(dp469
g8
S'create_models_quests_quest_model.html'
p470
sg10
S'create/models/quests/quest_model'
p471
sg12
g13
(g14
g15
NtRp472
(dp473
g18
I1
sg19
I4
sg20
I59
sg21
I0
sg22
I0
sg23
I13
sg24
I4
sbssg25
S'^g\x1e\x82\xee1[\xc0\xbe\x04\xca\xb1`M\xe7\xe9'
p474
ssS'user_system_views_roles_user_role_view'
p475
(dp476
g6
(dp477
g8
S'user_system_views_roles_user_role_view.html'
p478
sg10
S'user_system/views/roles/user_role_view'
p479
sg12
g13
(g14
g15
NtRp480
(dp481
g18
I1
sg19
I8
sg20
I31
sg21
I0
sg22
I0
sg23
I0
sg24
I0
sbssg25
S'S@\xea\xb7\xd6\xe1\x1b\x1dU\x18a\x9d\x80\xe3A\xb9'
p482
ssS'learn_views_daily_quests_daily_quest_view'
p483
(dp484
g6
(dp485
g8
S'learn_views_daily_quests_daily_quest_view.html'
p486
sg10
S'learn/views/daily_quests/daily_quest_view'
p487
sg12
g13
(g14
g15
NtRp488
(dp489
g18
I1
sg19
I16
sg20
I61
sg21
I0
sg22
I0
sg23
I40
sg24
I16
sbssg25
S'\xceiA\x93\xcd>Y\x85L\x07Oz\x9aw\xae;'
p490
ssS'create_models_tags_tests_test_tag_history_model'
p491
(dp492
g6
(dp493
g8
S'create_models_tags_tests_test_tag_history_model.html'
p494
sg10
S'create/models/tags/tests/test_tag_history_model'
p495
sg12
g13
(g14
g15
NtRp496
(dp497
g18
I1
sg19
I0
sg20
I58
sg21
I0
sg22
I0
sg23
I0
sg24
I0
sbssg25
S"\x05Y\xa9\xba\xf0\xa8\xd2*7_\xcb]\xfb*#'"
p498
ssS'teach_views_teacher_news_feed___init__'
p499
(dp500
g6
(dp501
g8
S'teach_views_teacher_news_feed___init__.html'
p502
sg10
S'teach/views/teacher_news_feed/__init__'
p503
sg12
g13
(g14
g15
NtRp504
(dp505
g18
I1
sg19
I0
sg20
I1
sg21
I0
sg22
I0
sg23
I0
sg24
I0
sbssg25
S'\xe8\xcd\xf3\x9f\xa3=;`\xf0oZ\xcb!\x98\xac\x1c'
p506
ssS'create_models_questions_question_history_remark_model'
p507
(dp508
g6
(dp509
g8
S'create_models_questions_question_history_remark_model.html'
p510
sg10
S'create/models/questions/question_history_remark_model'
p511
sg12
g13
(g14
g15
NtRp512
(dp513
g18
I1
sg19
I0
sg20
I27
sg21
I0
sg22
I0
sg23
I0
sg24
I0
sbssg25
S'\xac"G5\x1c\xf2\xef\xa9\x1dUd\xce4.\xac\xa4'
p514
ssS'learn_serializers___init__'
p515
(dp516
g6
(dp517
g8
S'learn_serializers___init__.html'
p518
sg10
S'learn/serializers/__init__'
p519
sg12
g13
(g14
g15
NtRp520
(dp521
g18
I1
sg19
I0
sg20
I1
sg21
I0
sg22
I0
sg23
I0
sg24
I0
sbssg25
S'cLP\xd9\xc0\x91mD\xa3\xd2\xbczr\xdak\xf4'
p522
ssS'user_system_views_schools___init__'
p523
(dp524
g6
(dp525
g8
S'user_system_views_schools___init__.html'
p526
sg10
S'user_system/views/schools/__init__'
p527
sg12
g13
(g14
g15
NtRp528
(dp529
g18
I1
sg19
I0
sg20
I4
sg21
I0
sg22
I0
sg23
I0
sg24
I0
sbssg25
S'\xb7\x05\xb1\x95\xf1V\x04[\x0e\xa0\xf7\x96.@Iw'
p530
ssS'create_views_quests___init__'
p531
(dp532
g6
(dp533
g8
S'create_views_quests___init__.html'
p534
sg10
S'create/views/quests/__init__'
p535
sg12
g13
(g14
g15
NtRp536
(dp537
g18
I1
sg19
I0
sg20
I1
sg21
I0
sg22
I0
sg23
I0
sg24
I0
sbssg25
S'\x8d\x97\x8c^6\xf0o\xc3_\x8dRQ}\xd2]a'
p538
ssS'user_system_models_schools_tests_test_course_model'
p539
(dp540
g6
(dp541
g8
S'user_system_models_schools_tests_test_course_model.html'
p542
sg10
S'user_system/models/schools/tests/test_course_model'
p543
sg12
g13
(g14
g15
NtRp544
(dp545
g18
I1
sg19
I8
sg20
I50
sg21
I0
sg22
I0
sg23
I0
sg24
I0
sbssg25
S'\xd7va\xe6uR6*v\xca\x885\xf3]$1'
p546
ssS'create_models_question_datasets_tests___init__'
p547
(dp548
g6
(dp549
g8
S'create_models_question_datasets_tests___init__.html'
p550
sg10
S'create/models/question_datasets/tests/__init__'
p551
sg12
g13
(g14
g15
NtRp552
(dp553
g18
I1
sg19
I0
sg20
I0
sg21
I0
sg22
I0
sg23
I0
sg24
I0
sbssg25
S'\x19g\xdfM\x1a\x019\xaf\x1baIeR\xe5u\xa7'
p554
ssS'api_logging_models_modal_logging_modal_model'
p555
(dp556
g6
(dp557
g8
S'api_logging_models_modal_logging_modal_model.html'
p558
sg10
S'api_logging/models/modal_logging/modal_model'
p559
sg12
g13
(g14
g15
NtRp560
(dp561
g18
I1
sg19
I0
sg20
I19
sg21
I0
sg22
I0
sg23
I5
sg24
I0
sbssg25
S'\x0f\x1e\xac\x00_hQ\xcb\xa2\xa8\xf4@\xb9\x97\x9c\x1e'
p562
ssS'user_system_views_signups_hardcoded_test_account_view'
p563
(dp564
g6
(dp565
g8
S'user_system_views_signups_hardcoded_test_account_view.html'
p566
sg10
S'user_system/views/signups/hardcoded/test_account_view'
p567
sg12
g13
(g14
g15
NtRp568
(dp569
g18
I1
sg19
I2
sg20
I18
sg21
I0
sg22
I0
sg23
I0
sg24
I0
sbssg25
S"\xb4\xf1\xfdH\x8f\xf1QX7'\\\xd3\xab.\xbc\x80"
p570
ssS'user_system_views_users_create_student_view'
p571
(dp572
g6
(dp573
g8
S'user_system_views_users_create_student_view.html'
p574
sg10
S'user_system/views/users/create_student_view'
p575
sg12
g13
(g14
g15
NtRp576
(dp577
g18
I1
sg19
I2
sg20
I37
sg21
I0
sg22
I0
sg23
I24
sg24
I2
sbssg25
S'\x8e\xce\xac\xe9\xe3J4\xbb\x88$\xefFS\x06Ow'
p578
ssS'teach_serializers_teacher_tags___init__'
p579
(dp580
g6
(dp581
g8
S'teach_serializers_teacher_tags___init__.html'
p582
sg10
S'teach/serializers/teacher_tags/__init__'
p583
sg12
g13
(g14
g15
NtRp584
(dp585
g18
I1
sg19
I0
sg20
I1
sg21
I0
sg22
I0
sg23
I0
sg24
I0
sbssg25
S'Q\xc1\xe2\xf5*\x8fJ\xddv\xe7\x91\xd1S\xf5\xa9\xa3'
p586
ssS'learn_models_daily_quests_tests___init__'
p587
(dp588
g6
(dp589
g8
S'learn_models_daily_quests_tests___init__.html'
p590
sg10
S'learn/models/daily_quests/tests/__init__'
p591
sg12
g13
(g14
g15
NtRp592
(dp593
g18
I1
sg19
I0
sg20
I1
sg21
I0
sg22
I0
sg23
I0
sg24
I0
sbssg25
S'\xbc\xd6\xeb\xb3\xba\xcaz\xf7{\xd4B\xb5}l\xdf\x96'
p594
ssS'user_system_views_signups___init__'
p595
(dp596
g6
(dp597
g8
S'user_system_views_signups___init__.html'
p598
sg10
S'user_system/views/signups/__init__'
p599
sg12
g13
(g14
g15
NtRp600
(dp601
g18
I1
sg19
I0
sg20
I5
sg21
I0
sg22
I0
sg23
I0
sg24
I0
sbssg25
S'\xad\xb5\x1c"8P^k\xe3\xaa\x7fv\xbc\xc9\xc6\x01'
p602
ssS'create_views_tags_tag_view'
p603
(dp604
g6
(dp605
g8
S'create_views_tags_tag_view.html'
p606
sg10
S'create/views/tags/tag_view'
p607
sg12
g13
(g14
g15
NtRp608
(dp609
g18
I1
sg19
I32
sg20
I92
sg21
I0
sg22
I8
sg23
I13
sg24
I16
sbssg25
S'\xd5\xd6\xf9\xa6U<\xf82\xe0xx\x06}\xa5\xeb\xe7'
p610
ssS'learn_models_daily_quests_daily_quest_model'
p611
(dp612
g6
(dp613
g8
S'learn_models_daily_quests_daily_quest_model.html'
p614
sg10
S'learn/models/daily_quests/daily_quest_model'
p615
sg12
g13
(g14
g15
NtRp616
(dp617
g18
I1
sg19
I30
sg20
I148
sg21
I0
sg22
I3
sg23
I29
sg24
I13
sbssg25
S'\xb2JcHS\xad\xe0\x0eP\xc35<~\xa4Kn'
p618
ssS'teach_models_campaigns_campaign_model'
p619
(dp620
g6
(dp621
g8
S'teach_models_campaigns_campaign_model.html'
p622
sg10
S'teach/models/campaigns/campaign_model'
p623
sg12
g13
(g14
g15
NtRp624
(dp625
g18
I1
sg19
I0
sg20
I40
sg21
I0
sg22
I0
sg23
I0
sg24
I0
sbssg25
S'>\xc8\xe2\xfb\xdd\xc1"@\xea/\xe1\xbb\xf1\xa4\x80\x0f'
p626
ssS'create_views_tags_tests_test_add_prerequisite_view'
p627
(dp628
g6
(dp629
g8
S'create_views_tags_tests_test_add_prerequisite_view.html'
p630
sg10
S'create/views/tags/tests/test_add_prerequisite_view'
p631
sg12
g13
(g14
g15
NtRp632
(dp633
g18
I1
sg19
I0
sg20
I26
sg21
I0
sg22
I0
sg23
I0
sg24
I0
sbssg25
S'\xd2\xef\x02\xe1{\xbc\x9b\xf3\x8b\xbd\xf0\xd2\xe7\xcc\xb5\xa4'
p634
ssS'create_models_tags___init__'
p635
(dp636
g6
(dp637
g8
S'create_models_tags___init__.html'
p638
sg10
S'create/models/tags/__init__'
p639
sg12
g13
(g14
g15
NtRp640
(dp641
g18
I1
sg19
I0
sg20
I5
sg21
I0
sg22
I0
sg23
I0
sg24
I0
sbssg25
S'\xcck\xb0R5)\xa8c\xdb\xa6\xfb\xec\x18 \xde}'
p642
ssS'teach_models_campaigns_tests___init__'
p643
(dp644
g6
(dp645
g8
S'teach_models_campaigns_tests___init__.html'
p646
sg10
S'teach/models/campaigns/tests/__init__'
p647
sg12
g13
(g14
g15
NtRp648
(dp649
g18
I1
sg19
I0
sg20
I0
sg21
I0
sg22
I0
sg23
I0
sg24
I0
sbssg25
S'\x19g\xdfM\x1a\x019\xaf\x1baIeR\xe5u\xa7'
p650
ssS'learn_views_student_news_feed___init__'
p651
(dp652
g6
(dp653
g8
S'learn_views_student_news_feed___init__.html'
p654
sg10
S'learn/views/student_news_feed/__init__'
p655
sg12
g13
(g14
g15
NtRp656
(dp657
g18
I1
sg19
I0
sg20
I1
sg21
I0
sg22
I0
sg23
I0
sg24
I0
sbssg25
S'\xc5\x87\xccQ|\xa2\xee\x11p\x84\xfe\xed\xe3W\xfa\x07'
p658
ssS'teach_views_teacher_chapters_teacher_chapter_view'
p659
(dp660
g6
(dp661
g8
S'teach_views_teacher_chapters_teacher_chapter_view.html'
p662
sg10
S'teach/views/teacher_chapters/teacher_chapter_view'
p663
sg12
g13
(g14
g15
NtRp664
(dp665
g18
I1
sg19
I12
sg20
I44
sg21
I0
sg22
I0
sg23
I25
sg24
I12
sbssg25
S'Z\xc5\n\xdb\xe5!2~7\xe3i\xa7j\xd4\x10\x8c'
p666
ssS'create_serializers_tags_concept_serializer'
p667
(dp668
g6
(dp669
g8
S'create_serializers_tags_concept_serializer.html'
p670
sg10
S'create/serializers/tags/concept_serializer'
p671
sg12
g13
(g14
g15
NtRp672
(dp673
g18
I1
sg19
I0
sg20
I6
sg21
I0
sg22
I0
sg23
I0
sg24
I0
sbssg25
S'\xf1\xe0\xc7%%\xbd\xfc@\x12\x02\x96\xbb\x0c\xbf\x9fq'
p674
ssS'create_serializers_questions_question_history_remark_serializer'
p675
(dp676
g6
(dp677
g8
S'create_serializers_questions_question_history_remark_serializer.html'
p678
sg10
S'create/serializers/questions/question_history_remark_serializer'
p679
sg12
g13
(g14
g15
NtRp680
(dp681
g18
I1
sg19
I0
sg20
I6
sg21
I0
sg22
I0
sg23
I0
sg24
I0
sbssg25
S'\xb53\t\x11\xa6\x1b\xf7!D"\xc8\xa3\xcb41\x9d'
p682
ssS'user_system_models_roles_tests___init__'
p683
(dp684
g6
(dp685
g8
S'user_system_models_roles_tests___init__.html'
p686
sg10
S'user_system/models/roles/tests/__init__'
p687
sg12
g13
(g14
g15
NtRp688
(dp689
g18
I1
sg19
I0
sg20
I0
sg21
I0
sg22
I0
sg23
I0
sg24
I0
sbssg25
S'\x19g\xdfM\x1a\x019\xaf\x1baIeR\xe5u\xa7'
p690
ssS'create_serializers_tags___init__'
p691
(dp692
g6
(dp693
g8
S'create_serializers_tags___init__.html'
p694
sg10
S'create/serializers/tags/__init__'
p695
sg12
g13
(g14
g15
NtRp696
(dp697
g18
I1
sg19
I0
sg20
I0
sg21
I0
sg22
I0
sg23
I0
sg24
I0
sbssg25
S'\x19g\xdfM\x1a\x019\xaf\x1baIeR\xe5u\xa7'
p698
ssS'privilege_urls'
p699
(dp700
g6
(dp701
g8
S'privilege_urls.html'
p702
sg10
S'privilege/urls'
p703
sg12
g13
(g14
g15
NtRp704
(dp705
g18
I1
sg19
I0
sg20
I7
sg21
I0
sg22
I0
sg23
I0
sg24
I0
sbssg25
S'\x86\xbf\xcdE\x8fy\xc9\xd5\x13I\x11#-J.\xe8'
p706
ssS'flipped_helpers_time_helper'
p707
(dp708
g6
(dp709
g8
S'flipped_helpers_time_helper.html'
p710
sg10
S'flipped/helpers/time_helper'
p711
sg12
g13
(g14
g15
NtRp712
(dp713
g18
I1
sg19
I2
sg20
I31
sg21
I0
sg22
I0
sg23
I19
sg24
I2
sbssg25
S'\xca\x92a\xc5\xd9\xf1\xd2\xa6H\x16\xd9\xed\xcdv&\xdb'
p714
ssS'user_system_serializers_users_teacher_mapping_serializer'
p715
(dp716
g6
(dp717
g8
S'user_system_serializers_users_teacher_mapping_serializer.html'
p718
sg10
S'user_system/serializers/users/teacher_mapping_serializer'
p719
sg12
g13
(g14
g15
NtRp720
(dp721
g18
I1
sg19
I0
sg20
I7
sg21
I0
sg22
I0
sg23
I0
sg24
I0
sbssg25
S'\x13\xf7\x06\xcfN\x17?&3\xc5\xf6]6uj\xc1'
p722
ssS'api_logging_views_LoggingView'
p723
(dp724
g6
(dp725
g8
S'api_logging_views_LoggingView.html'
p726
sg10
S'api_logging/views/LoggingView'
p727
sg12
g13
(g14
g15
NtRp728
(dp729
g18
I1
sg19
I8
sg20
I41
sg21
I0
sg22
I0
sg23
I27
sg24
I8
sbssg25
S'\xe3\xefQ\x1e\x9e\xec\xea\xa7\xc5\x05\xb9\x90\xf6\xf3\x88\x9b'
p730
ssS'create_models_books_book_model'
p731
(dp732
g6
(dp733
g8
S'create_models_books_book_model.html'
p734
sg10
S'create/models/books/book_model'
p735
sg12
g13
(g14
g15
NtRp736
(dp737
g18
I1
sg19
I4
sg20
I37
sg21
I0
sg22
I0
sg23
I0
sg24
I0
sbssg25
S'Z\x88%\xfa\x8c7\x1e\xf9\x06qW\x80O\xe1\x85.'
p738
ssS'teach_models___init__'
p739
(dp740
g6
(dp741
g8
S'teach_models___init__.html'
p742
sg10
S'teach/models/__init__'
p743
sg12
g13
(g14
g15
NtRp744
(dp745
g18
I1
sg19
I0
sg20
I4
sg21
I0
sg22
I0
sg23
I0
sg24
I0
sbssg25
S'\x18\xb4\x9a\xf6\x89\xe4oR\x81\xdbb\xf7E\xf9\x92\xb7'
p746
ssS'create_models_tags_skill_model'
p747
(dp748
g6
(dp749
g8
S'create_models_tags_skill_model.html'
p750
sg10
S'create/models/tags/skill_model'
p751
sg12
g13
(g14
g15
NtRp752
(dp753
g18
I1
sg19
I0
sg20
I10
sg21
I0
sg22
I0
sg23
I0
sg24
I0
sbssg25
S'B&\x06S\xb6\x85A\xdbx\xd4\xc7#]\x13\xe1\xca'
p754
ssS'learn_views_daily_quests_daily_quest_history_date_group_view'
p755
(dp756
g6
(dp757
g8
S'learn_views_daily_quests_daily_quest_history_date_group_view.html'
p758
sg10
S'learn/views/daily_quests/daily_quest_history_date_group_view'
p759
sg12
g13
(g14
g15
NtRp760
(dp761
g18
I1
sg19
I36
sg20
I94
sg21
I0
sg22
I0
sg23
I71
sg24
I36
sbssg25
S'N}\x1am\x00\xe8_\xd4\xa8T\xd2R\xf7l^\xd3'
p762
ssS'learn_tests'
p763
(dp764
g6
(dp765
g8
S'learn_tests.html'
p766
sg10
S'learn/tests'
p767
sg12
g13
(g14
g15
NtRp768
(dp769
g18
I1
sg19
I0
sg20
I1
sg21
I0
sg22
I0
sg23
I0
sg24
I0
sbssg25
S'\xe3\x7f\x86\xaa\x99\xac\xc8\x80\xdblE4\x0f\xe7\x1d\xfc'
p770
ssS'api_logging_managers'
p771
(dp772
g6
(dp773
g8
S'api_logging_managers.html'
p774
sg10
S'api_logging/managers'
p775
sg12
g13
(g14
g15
NtRp776
(dp777
g18
I1
sg19
I0
sg20
I4
sg21
I0
sg22
I0
sg23
I0
sg24
I0
sbssg25
S'\xef\xaf\x98\xcd63\x10\x1c\xc1\xfcP\x12\xc1\xe7\xa5\xc7'
p778
ssS'api_logging_views___init__'
p779
(dp780
g6
(dp781
g8
S'api_logging_views___init__.html'
p782
sg10
S'api_logging/views/__init__'
p783
sg12
g13
(g14
g15
NtRp784
(dp785
g18
I1
sg19
I0
sg20
I5
sg21
I0
sg22
I0
sg23
I0
sg24
I0
sbssg25
S'E\xf0\xc8*y9Q5\x96\xa8]\xdf\x95Zq\xed'
p786
ssS'create_models_books___init__'
p787
(dp788
g6
(dp789
g8
S'create_models_books___init__.html'
p790
sg10
S'create/models/books/__init__'
p791
sg12
g13
(g14
g15
NtRp792
(dp793
g18
I1
sg19
I0
sg20
I4
sg21
I0
sg22
I0
sg23
I0
sg24
I0
sbssg25
S'\xba\x14\x87u\xc0\x80\x96\x82s\x8d\x8bU)\x1c\xc3\x91'
p794
ssS'api_logging_views_query_stat_query_stat_view'
p795
(dp796
g6
(dp797
g8
S'api_logging_views_query_stat_query_stat_view.html'
p798
sg10
S'api_logging/views/query_stat/query_stat_view'
p799
sg12
g13
(g14
g15
NtRp800
(dp801
g18
I1
sg19
I2
sg20
I57
sg21
I0
sg22
I0
sg23
I32
sg24
I2
sbssg25
S'\xb5\xf2e\xa5XF\xc0\xef\xc1\xdf!c\x99\xfe}j'
p802
ssS'create_models_quests_tests_test_quest_model'
p803
(dp804
g6
(dp805
g8
S'create_models_quests_tests_test_quest_model.html'
p806
sg10
S'create/models/quests/tests/test_quest_model'
p807
sg12
g13
(g14
g15
NtRp808
(dp809
g18
I1
sg19
I4
sg20
I48
sg21
I0
sg22
I0
sg23
I0
sg24
I0
sbssg25
S'\xcdF\x98\xd0k\x14\x9e\xe4\x90\x96\x03\xddNdiH'
p810
ssS'privilege_views_privileges_user_privilege_view'
p811
(dp812
g6
(dp813
g8
S'privilege_views_privileges_user_privilege_view.html'
p814
sg10
S'privilege/views/privileges/user_privilege_view'
p815
sg12
g13
(g14
g15
NtRp816
(dp817
g18
I1
sg19
I10
sg20
I38
sg21
I0
sg22
I0
sg23
I22
sg24
I10
sbssg25
S'\xf699\xa5A\xca\x9e\x91,l\xf8\x8dI[PR'
p818
ssS'learn_models_daily_quests_tests_test_daily_quest_model'
p819
(dp820
g6
(dp821
g8
S'learn_models_daily_quests_tests_test_daily_quest_model.html'
p822
sg10
S'learn/models/daily_quests/tests/test_daily_quest_model'
p823
sg12
g13
(g14
g15
NtRp824
(dp825
g18
I1
sg19
I12
sg20
I249
sg21
I0
sg22
I0
sg23
I0
sg24
I0
sbssg25
S'+\xfc\x0c\xee\x10\x00\x0f+\xad\x07l\xcf\x8b\xac\xefF'
p826
ssS'user_system_views_roles_tests___init__'
p827
(dp828
g6
(dp829
g8
S'user_system_views_roles_tests___init__.html'
p830
sg10
S'user_system/views/roles/tests/__init__'
p831
sg12
g13
(g14
g15
NtRp832
(dp833
g18
I1
sg19
I0
sg20
I0
sg21
I0
sg22
I0
sg23
I0
sg24
I0
sbssg25
S'\x19g\xdfM\x1a\x019\xaf\x1baIeR\xe5u\xa7'
p834
ssS'teach_views_daily_quest_templates_daily_quest_template_view'
p835
(dp836
g6
(dp837
g8
S'teach_views_daily_quest_templates_daily_quest_template_view.html'
p838
sg10
S'teach/views/daily_quest_templates/daily_quest_template_view'
p839
sg12
g13
(g14
g15
NtRp840
(dp841
g18
I1
sg19
I18
sg20
I54
sg21
I0
sg22
I0
sg23
I33
sg24
I18
sbssg25
S'\x97J\xccM\x9b\xcd1\xaf\x95\xea\xd8\x8d\xdc(\x89['
p842
ssS'api_logging_views_summary___init__'
p843
(dp844
g6
(dp845
g8
S'api_logging_views_summary___init__.html'
p846
sg10
S'api_logging/views/summary/__init__'
p847
sg12
g13
(g14
g15
NtRp848
(dp849
g18
I1
sg19
I0
sg20
I1
sg21
I0
sg22
I0
sg23
I0
sg24
I0
sbssg25
S'\x04\x12bh\x96\xc5j\x88dm\x0e\xd7\xe1\x94Lq'
p850
ssS'privilege_serializers___init__'
p851
(dp852
g6
(dp853
g8
S'privilege_serializers___init__.html'
p854
sg10
S'privilege/serializers/__init__'
p855
sg12
g13
(g14
g15
NtRp856
(dp857
g18
I1
sg19
I0
sg20
I1
sg21
I0
sg22
I0
sg23
I0
sg24
I0
sbssg25
S'\x13V\xca}S\xd3\x98Rp?\xb0\xe1\x904>b'
p858
ssS'create_models_books_tests_test_book_subchapter_model'
p859
(dp860
g6
(dp861
g8
S'create_models_books_tests_test_book_subchapter_model.html'
p862
sg10
S'create/models/books/tests/test_book_subchapter_model'
p863
sg12
g13
(g14
g15
NtRp864
(dp865
g18
I1
sg19
I0
sg20
I42
sg21
I0
sg22
I0
sg23
I0
sg24
I0
sbssg25
S'\xe3*\xba\x94d#\xcd\t\xc9\xb8\x05w\nz\xb8\xc0'
p866
ssS'learn_models_daily_quests___init__'
p867
(dp868
g6
(dp869
g8
S'learn_models_daily_quests___init__.html'
p870
sg10
S'learn/models/daily_quests/__init__'
p871
sg12
g13
(g14
g15
NtRp872
(dp873
g18
I1
sg19
I0
sg20
I3
sg21
I0
sg22
I0
sg23
I0
sg24
I0
sbssg25
S"\xa4)\xb2\xc3\xc4X\x7f\xd1\x8f\x8c\xd1l'ge%"
p874
ssS'create_models_tags_tag_model'
p875
(dp876
g6
(dp877
g8
S'create_models_tags_tag_model.html'
p878
sg10
S'create/models/tags/tag_model'
p879
sg12
g13
(g14
g15
NtRp880
(dp881
g18
I1
sg19
I0
sg20
I37
sg21
I0
sg22
I0
sg23
I0
sg24
I0
sbssg25
S'rJ0\x91]\xe5\xfc\xa8\x8c\x00}RI\x18\xf0\x07'
p882
ssS'create_views_tags___init__'
p883
(dp884
g6
(dp885
g8
S'create_views_tags___init__.html'
p886
sg10
S'create/views/tags/__init__'
p887
sg12
g13
(g14
g15
NtRp888
(dp889
g18
I1
sg19
I0
sg20
I1
sg21
I0
sg22
I0
sg23
I0
sg24
I0
sbssg25
S'|r<\xaap\x01\xb1\xbc"\xe5\xbb\xd8\x87\xa5\xd2H'
p890
ssS'api_logging_models_query_stat___init__'
p891
(dp892
g6
(dp893
g8
S'api_logging_models_query_stat___init__.html'
p894
sg10
S'api_logging/models/query_stat/__init__'
p895
sg12
g13
(g14
g15
NtRp896
(dp897
g18
I1
sg19
I0
sg20
I1
sg21
I0
sg22
I0
sg23
I0
sg24
I0
sbssg25
S'lAVjsm\xf3\xa0\xf4\x14\x8bL\xb9S\xd6\xe6'
p898
ssS'create_serializers_tags_skill_serializer'
p899
(dp900
g6
(dp901
g8
S'create_serializers_tags_skill_serializer.html'
p902
sg10
S'create/serializers/tags/skill_serializer'
p903
sg12
g13
(g14
g15
NtRp904
(dp905
g18
I1
sg19
I0
sg20
I6
sg21
I0
sg22
I0
sg23
I0
sg24
I0
sbssg25
S'\x1b\x10O\xca\xd5i\\\x06C\x00q}\xf43\xcb\xa6'
p906
ssS'create_views_questions_question_history_remark_view'
p907
(dp908
g6
(dp909
g8
S'create_views_questions_question_history_remark_view.html'
p910
sg10
S'create/views/questions/question_history_remark_view'
p911
sg12
g13
(g14
g15
NtRp912
(dp913
g18
I1
sg19
I0
sg20
I14
sg21
I0
sg22
I0
sg23
I0
sg24
I0
sbssg25
S'{4O\x0e\xb3\xad\xc8\xb72\x8f\x1f\x11\xc0\x9e\xa0\xd6'
p914
ssS'create_serializers_tags_tag_type_serializer'
p915
(dp916
g6
(dp917
g8
S'create_serializers_tags_tag_type_serializer.html'
p918
sg10
S'create/serializers/tags/tag_type_serializer'
p919
sg12
g13
(g14
g15
NtRp920
(dp921
g18
I1
sg19
I0
sg20
I6
sg21
I0
sg22
I0
sg23
I0
sg24
I0
sbssg25
S'\xc3\xfd\x81\x18{\x97,\xb1\xb6\x9f\xee\xf2kZ\x1e\x02'
p922
ssS'learn_models_points_tests_test_point_history_model'
p923
(dp924
g6
(dp925
g8
S'learn_models_points_tests_test_point_history_model.html'
p926
sg10
S'learn/models/points/tests/test_point_history_model'
p927
sg12
g13
(g14
g15
NtRp928
(dp929
g18
I1
sg19
I0
sg20
I22
sg21
I0
sg22
I0
sg23
I0
sg24
I0
sbssg25
S"\x8d\xd7\x96\xe4\x1b\xf6\xc4\xed:B\x13\xa9MA'\x99"
p930
ssS'learn_serializers_daily_quests_daily_quest_serializer'
p931
(dp932
g6
(dp933
g8
S'learn_serializers_daily_quests_daily_quest_serializer.html'
p934
sg10
S'learn/serializers/daily_quests/daily_quest_serializer'
p935
sg12
g13
(g14
g15
NtRp936
(dp937
g18
I1
sg19
I0
sg20
I59
sg21
I0
sg22
I0
sg23
I23
sg24
I0
sbssg25
S'\rf\xa2\x81\xd4WL\x18\x9c\x80\x05\xd3\xe8\x1aT1'
p938
ssS'api_logging_mixins'
p939
(dp940
g6
(dp941
g8
S'api_logging_mixins.html'
p942
sg10
S'api_logging/mixins'
p943
sg12
g13
(g14
g15
NtRp944
(dp945
g18
I1
sg19
I4
sg20
I26
sg21
I0
sg22
I2
sg23
I2
sg24
I2
sbssg25
S'w\xa7\xcf,\xf7\x87[\xb0\xc5\xb2\x1f\xa5+\x1dSF'
p946
ssS'teach_views_teacher_news_feed_teacher_news_feed_view'
p947
(dp948
g6
(dp949
g8
S'teach_views_teacher_news_feed_teacher_news_feed_view.html'
p950
sg10
S'teach/views/teacher_news_feed/teacher_news_feed_view'
p951
sg12
g13
(g14
g15
NtRp952
(dp953
g18
I1
sg19
I8
sg20
I60
sg21
I0
sg22
I0
sg23
I38
sg24
I8
sbssg25
S'\n]Y\xde\x93\x8f\xd7O\x05\xcd\x92\x98!=\xcdd'
p954
ssS'user_system_serializers_schools_organization_serializer'
p955
(dp956
g6
(dp957
g8
S'user_system_serializers_schools_organization_serializer.html'
p958
sg10
S'user_system/serializers/schools/organization_serializer'
p959
sg12
g13
(g14
g15
NtRp960
(dp961
g18
I1
sg19
I0
sg20
I7
sg21
I0
sg22
I0
sg23
I0
sg24
I0
sbssg25
S'90~\xe3\x8f\x8e\xd9m\xb4\nInn\x03(\xdb'
p962
ssS'create_models_books_book_subchapter_model'
p963
(dp964
g6
(dp965
g8
S'create_models_books_book_subchapter_model.html'
p966
sg10
S'create/models/books/book_subchapter_model'
p967
sg12
g13
(g14
g15
NtRp968
(dp969
g18
I1
sg19
I2
sg20
I45
sg21
I0
sg22
I0
sg23
I0
sg24
I0
sbssg25
S'\xbc\xee\x91\x7f;\xa9\x15\xeaau\xef\x82\x07"\x02\xd3'
p970
ssS'teach_views_summaries_leaderboard_view'
p971
(dp972
g6
(dp973
g8
S'teach_views_summaries_leaderboard_view.html'
p974
sg10
S'teach/views/summaries/leaderboard_view'
p975
sg12
g13
(g14
g15
NtRp976
(dp977
g18
I1
sg19
I64
sg20
I159
sg21
I0
sg22
I0
sg23
I129
sg24
I64
sbssg25
S'\xc4A\xb6\x15>\xf4\xb1\x89\x13Ef?r\x92\xab\xac'
p978
ssS'api_logging_serializers_modal_loggings_modal_user_history_serializer'
p979
(dp980
g6
(dp981
g8
S'api_logging_serializers_modal_loggings_modal_user_history_serializer.html'
p982
sg10
S'api_logging/serializers/modal_loggings/modal_user_history_serializer'
p983
sg12
g13
(g14
g15
NtRp984
(dp985
g18
I1
sg19
I0
sg20
I7
sg21
I0
sg22
I0
sg23
I0
sg24
I0
sbssg25
S'\xc2\x8f\x89\xe8$\x9c~\x81\xa9\xca\xf8h\x80\xb7hp'
p986
ssS'learn_models_points___init__'
p987
(dp988
g6
(dp989
g8
S'learn_models_points___init__.html'
p990
sg10
S'learn/models/points/__init__'
p991
sg12
g13
(g14
g15
NtRp992
(dp993
g18
I1
sg19
I0
sg20
I2
sg21
I0
sg22
I0
sg23
I0
sg24
I0
sbssg25
S'\x1d_\xe1\xcei\x14zD\xd7\x8e\xa1\xf55\x1f\xd1\xd5'
p994
ssS'api_logging_models___init__'
p995
(dp996
g6
(dp997
g8
S'api_logging_models___init__.html'
p998
sg10
S'api_logging/models/__init__'
p999
sg12
g13
(g14
g15
NtRp1000
(dp1001
g18
I1
sg19
I0
sg20
I4
sg21
I0
sg22
I0
sg23
I0
sg24
I0
sbssg25
S'\x1e\xe1SC\x84\x0bP\xec\xc0\xa61\xf48)\xde\xbb'
p1002
ssS'teach_serializers___init__'
p1003
(dp1004
g6
(dp1005
g8
S'teach_serializers___init__.html'
p1006
sg10
S'teach/serializers/__init__'
p1007
sg12
g13
(g14
g15
NtRp1008
(dp1009
g18
I1
sg19
I0
sg20
I3
sg21
I0
sg22
I0
sg23
I0
sg24
I0
sbssg25
S'3\x13\x12&\xcb\xecC\xee\xa8lR\x1a\x1d\xb9M\xba'
p1010
ssS'user_system_views_batch_processing___init__'
p1011
(dp1012
g6
(dp1013
g8
S'user_system_views_batch_processing___init__.html'
p1014
sg10
S'user_system/views/batch_processing/__init__'
p1015
sg12
g13
(g14
g15
NtRp1016
(dp1017
g18
I1
sg19
I0
sg20
I1
sg21
I0
sg22
I0
sg23
I0
sg24
I0
sbssg25
S'\x11\xaa\xa5O\xecz\xb9\x06\xf9\x1bZ\xd3\xf3\x8bm]'
p1018
ssS'api_logging_models_api_logging___init__'
p1019
(dp1020
g6
(dp1021
g8
S'api_logging_models_api_logging___init__.html'
p1022
sg10
S'api_logging/models/api_logging/__init__'
p1023
sg12
g13
(g14
g15
NtRp1024
(dp1025
g18
I1
sg19
I0
sg20
I1
sg21
I0
sg22
I0
sg23
I0
sg24
I0
sbssg25
S'C\xe8\xcf\x97-\xc6\xd3j\xcb\x90*\xea\xd3w\x83\xe0'
p1026
ssS'user_system_views_signups_email_signup_view'
p1027
(dp1028
g6
(dp1029
g8
S'user_system_views_signups_email_signup_view.html'
p1030
sg10
S'user_system/views/signups/email_signup_view'
p1031
sg12
g13
(g14
g15
NtRp1032
(dp1033
g18
I1
sg19
I8
sg20
I44
sg21
I0
sg22
I0
sg23
I0
sg24
I0
sbssg25
S'&G\xd1\xc4{\x9b\xbf\x14\x92F\xbe\x13\xeer\x84\x1b'
p1034
ssS'teach_views_teacher_tags___init__'
p1035
(dp1036
g6
(dp1037
g8
S'teach_views_teacher_tags___init__.html'
p1038
sg10
S'teach/views/teacher_tags/__init__'
p1039
sg12
g13
(g14
g15
NtRp1040
(dp1041
g18
I1
sg19
I0
sg20
I1
sg21
I0
sg22
I0
sg23
I0
sg24
I0
sbssg25
S'cp\x00\xdc\x00\xe5M\x9f\x1f\xaa\xb2Y\xd9%\x1d"'
p1042
ssS'flipped_helpers_success_response_helper'
p1043
(dp1044
g6
(dp1045
g8
S'flipped_helpers_success_response_helper.html'
p1046
sg10
S'flipped/helpers/success_response_helper'
p1047
sg12
g13
(g14
g15
NtRp1048
(dp1049
g18
I1
sg19
I2
sg20
I4
sg21
I0
sg22
I0
sg23
I0
sg24
I0
sbssg25
S"'Bp\xbe\xd9\xfa\x92\xa4;\xb6\t\xa8\xfe<\x9d\xa5"
p1050
ssS'create_models_questions_question_model'
p1051
(dp1052
g6
(dp1053
g8
S'create_models_questions_question_model.html'
p1054
sg10
S'create/models/questions/question_model'
p1055
sg12
g13
(g14
g15
NtRp1056
(dp1057
g18
I1
sg19
I0
sg20
I48
sg21
I0
sg22
I0
sg23
I0
sg24
I0
sbssg25
S'\tGy\xb6\x10\x17dQ\xd7\xd8N>\xd5\x96R\x82'
p1058
ssS'user_system_models_roles___init__'
p1059
(dp1060
g6
(dp1061
g8
S'user_system_models_roles___init__.html'
p1062
sg10
S'user_system/models/roles/__init__'
p1063
sg12
g13
(g14
g15
NtRp1064
(dp1065
g18
I1
sg19
I0
sg20
I2
sg21
I0
sg22
I0
sg23
I0
sg24
I0
sbssg25
S'\xa3\xc2\r\x1b\x1bC\x85\xa5\xads\x7fl\xab`*1'
p1066
ssS'create_models_questions_question_history_model'
p1067
(dp1068
g6
(dp1069
g8
S'create_models_questions_question_history_model.html'
p1070
sg10
S'create/models/questions/question_history_model'
p1071
sg12
g13
(g14
g15
NtRp1072
(dp1073
g18
I1
sg19
I8
sg20
I68
sg21
I0
sg22
I2
sg23
I2
sg24
I2
sbssg25
S'\xd0\xe9\x0bm$j\x15\x9b@\x93\xe5C\xa7\x97\xfd\xf4'
p1074
ssS'user_system_views_signups_tests_test_facebook_signup_view'
p1075
(dp1076
g6
(dp1077
g8
S'user_system_views_signups_tests_test_facebook_signup_view.html'
p1078
sg10
S'user_system/views/signups/tests/test_facebook_signup_view'
p1079
sg12
g13
(g14
g15
NtRp1080
(dp1081
g18
I1
sg19
I0
sg20
I60
sg21
I0
sg22
I0
sg23
I0
sg24
I0
sbssg25
S'\x93<\xc8]\x14\t\xa8/\xdd\xd1\xa4]\xfbp!\xbd'
p1082
ssS'user_system_models_users_tests_test_teacher_mapping_model'
p1083
(dp1084
g6
(dp1085
g8
S'user_system_models_users_tests_test_teacher_mapping_model.html'
p1086
sg10
S'user_system/models/users/tests/test_teacher_mapping_model'
p1087
sg12
g13
(g14
g15
NtRp1088
(dp1089
g18
I1
sg19
I4
sg20
I35
sg21
I0
sg22
I0
sg23
I0
sg24
I0
sbssg25
S'\x96\x93\xca\x00>\xf7\xc8\xe6:\xb8\x7f\xf5q:\xb6\xaa'
p1090
ssS'user_system_models_users___init__'
p1091
(dp1092
g6
(dp1093
g8
S'user_system_models_users___init__.html'
p1094
sg10
S'user_system/models/users/__init__'
p1095
sg12
g13
(g14
g15
NtRp1096
(dp1097
g18
I1
sg19
I0
sg20
I11
sg21
I0
sg22
I0
sg23
I0
sg24
I0
sbssg25
S'\x81\xefKrW:\x98\xa0\xfbl\x17\xe1E\xb8..'
p1098
ssS'teach_views_summaries_class_ranking_view'
p1099
(dp1100
g6
(dp1101
g8
S'teach_views_summaries_class_ranking_view.html'
p1102
sg10
S'teach/views/summaries/class_ranking_view'
p1103
sg12
g13
(g14
g15
NtRp1104
(dp1105
g18
I1
sg19
I22
sg20
I82
sg21
I0
sg22
I0
sg23
I59
sg24
I22
sbssg25
S'\xce\x9f\x94\rO\x92\x17\x1b\xc0\xd3\xcf\xf2"T\x1e\x7f'
p1106
ssS'privilege_models_privileges_tests___init__'
p1107
(dp1108
g6
(dp1109
g8
S'privilege_models_privileges_tests___init__.html'
p1110
sg10
S'privilege/models/privileges/tests/__init__'
p1111
sg12
g13
(g14
g15
NtRp1112
(dp1113
g18
I1
sg19
I0
sg20
I0
sg21
I0
sg22
I0
sg23
I0
sg24
I0
sbssg25
S'\x19g\xdfM\x1a\x019\xaf\x1baIeR\xe5u\xa7'
p1114
ssS'teach_serializers_teacher_chapters___init__'
p1115
(dp1116
g6
(dp1117
g8
S'teach_serializers_teacher_chapters___init__.html'
p1118
sg10
S'teach/serializers/teacher_chapters/__init__'
p1119
sg12
g13
(g14
g15
NtRp1120
(dp1121
g18
I1
sg19
I0
sg20
I1
sg21
I0
sg22
I0
sg23
I0
sg24
I0
sbssg25
S'\xfe\x88\xda\x10\xec!\x99\xb7-\x8d\x90E\xe18K\xb1'
p1122
ssS'api_logging_admin'
p1123
(dp1124
g6
(dp1125
g8
S'api_logging_admin.html'
p1126
sg10
S'api_logging/admin'
p1127
sg12
g13
(g14
g15
NtRp1128
(dp1129
g18
I1
sg19
I0
sg20
I12
sg21
I0
sg22
I0
sg23
I0
sg24
I0
sbssg25
S'!\xbak\xf6\xdb\xef\xb4\xc9ra$\xb3\x10\xed\xbf\x8f'
p1130
ssS'user_system_models_users_user_streak_history_model'
p1131
(dp1132
g6
(dp1133
g8
S'user_system_models_users_user_streak_history_model.html'
p1134
sg10
S'user_system/models/users/user_streak_history_model'
p1135
sg12
g13
(g14
g15
NtRp1136
(dp1137
g18
I1
sg19
I0
sg20
I28
sg21
I0
sg22
I0
sg23
I0
sg24
I0
sbssg25
S'w\x85uw\r5\x1a\xa5\xea>\xdaqki`p'
p1138
ssS'create_models_tags_tests_test_concept_model'
p1139
(dp1140
g6
(dp1141
g8
S'create_models_tags_tests_test_concept_model.html'
p1142
sg10
S'create/models/tags/tests/test_concept_model'
p1143
sg12
g13
(g14
g15
NtRp1144
(dp1145
g18
I1
sg19
I0
sg20
I12
sg21
I0
sg22
I0
sg23
I0
sg24
I0
sbssg25
S'@\x95\xd9\xf7\xa5\xc4\x0c\xb1\xad\xa4\xf5p\x95\x06!N'
p1146
ssS'privilege_models_privileges_privilege_model'
p1147
(dp1148
g6
(dp1149
g8
S'privilege_models_privileges_privilege_model.html'
p1150
sg10
S'privilege/models/privileges/privilege_model'
p1151
sg12
g13
(g14
g15
NtRp1152
(dp1153
g18
I1
sg19
I0
sg20
I29
sg21
I0
sg22
I0
sg23
I0
sg24
I0
sbssg25
S'\xa3\xbf\x7fn\x8c\xe8#\xf8\xa9\x95#\xc7\xdb\xf0Y\xe6'
p1154
ssS'create_models_questions_tests_test_question_choice_model'
p1155
(dp1156
g6
(dp1157
g8
S'create_models_questions_tests_test_question_choice_model.html'
p1158
sg10
S'create/models/questions/tests/test_question_choice_model'
p1159
sg12
g13
(g14
g15
NtRp1160
(dp1161
g18
I1
sg19
I0
sg20
I46
sg21
I0
sg22
I0
sg23
I0
sg24
I0
sbssg25
S'$\x08N\xfb\nW\n\xecG\x9a[\xb7\xe2\xc1\xbd\x06'
p1162
ssS'user_system_views_users_tests_test_get_user_by_id_view'
p1163
(dp1164
g6
(dp1165
g8
S'user_system_views_users_tests_test_get_user_by_id_view.html'
p1166
sg10
S'user_system/views/users/tests/test_get_user_by_id_view'
p1167
sg12
g13
(g14
g15
NtRp1168
(dp1169
g18
I1
sg19
I0
sg20
I27
sg21
I0
sg22
I0
sg23
I0
sg24
I0
sbssg25
S'\xd7\x7f\x0c\xb9\xda.\xf1\x82\xb4\xdf*z\x10(o)'
p1170
ssS'create_models___init__'
p1171
(dp1172
g6
(dp1173
g8
S'create_models___init__.html'
p1174
sg10
S'create/models/__init__'
p1175
sg12
g13
(g14
g15
NtRp1176
(dp1177
g18
I1
sg19
I0
sg20
I6
sg21
I0
sg22
I0
sg23
I0
sg24
I0
sbssg25
S'\x1a\xde\xff\xb8/\x08R\x8e\xff\x13\x8b\xeb`\xfd\x98\xf8'
p1178
ssS'create_serializers_tags_tag_history_serializer'
p1179
(dp1180
g6
(dp1181
g8
S'create_serializers_tags_tag_history_serializer.html'
p1182
sg10
S'create/serializers/tags/tag_history_serializer'
p1183
sg12
g13
(g14
g15
NtRp1184
(dp1185
g18
I1
sg19
I0
sg20
I14
sg21
I0
sg22
I0
sg23
I0
sg24
I0
sbssg25
S'\xc1"\xf9l4\xe66\x8a\xd0)r!\x05Y+\xd2'
p1186
ssS'user_system_views_apps_tests_test_get_app_by_id_view'
p1187
(dp1188
g6
(dp1189
g8
S'user_system_views_apps_tests_test_get_app_by_id_view.html'
p1190
sg10
S'user_system/views/apps/tests/test_get_app_by_id_view'
p1191
sg12
g13
(g14
g15
NtRp1192
(dp1193
g18
I1
sg19
I0
sg20
I17
sg21
I0
sg22
I0
sg23
I0
sg24
I0
sbssg25
S"\xa2\x1eG%r{-~\xc5=\x8aj\x99X!'"
p1194
ssS'create_views_books_tests_test_get_book_by_id_view'
p1195
(dp1196
g6
(dp1197
g8
S'create_views_books_tests_test_get_book_by_id_view.html'
p1198
sg10
S'create/views/books/tests/test_get_book_by_id_view'
p1199
sg12
g13
(g14
g15
NtRp1200
(dp1201
g18
I1
sg19
I0
sg20
I20
sg21
I0
sg22
I0
sg23
I0
sg24
I0
sbssg25
S'\xc88x\xaf\x84e\xaa6\x17\xdf\x0e\x8c`\xcaAO'
p1202
ssS'user_system_serializers___init__'
p1203
(dp1204
g6
(dp1205
g8
S'user_system_serializers___init__.html'
p1206
sg10
S'user_system/serializers/__init__'
p1207
sg12
g13
(g14
g15
NtRp1208
(dp1209
g18
I1
sg19
I0
sg20
I3
sg21
I0
sg22
I0
sg23
I0
sg24
I0
sbssg25
S'\x85\x12\xbd.\x85L4\xea\t4\x9c\xcf\xb5 \x81\xb4'
p1210
ssS'teach_models_daily_quest_templates_tests___init__'
p1211
(dp1212
g6
(dp1213
g8
S'teach_models_daily_quest_templates_tests___init__.html'
p1214
sg10
S'teach/models/daily_quest_templates/tests/__init__'
p1215
sg12
g13
(g14
g15
NtRp1216
(dp1217
g18
I1
sg19
I0
sg20
I0
sg21
I0
sg22
I0
sg23
I0
sg24
I0
sbssg25
S'\x19g\xdfM\x1a\x019\xaf\x1baIeR\xe5u\xa7'
p1218
ssS'user_system_serializers_schools_grade_serializer'
p1219
(dp1220
g6
(dp1221
g8
S'user_system_serializers_schools_grade_serializer.html'
p1222
sg10
S'user_system/serializers/schools/grade_serializer'
p1223
sg12
g13
(g14
g15
NtRp1224
(dp1225
g18
I1
sg19
I0
sg20
I9
sg21
I0
sg22
I0
sg23
I0
sg24
I0
sbssg25
S"()\x18t._h'\x1c\x9bV\x14KS\xf6,"
p1226
ssS'create_models_questions_tests___init__'
p1227
(dp1228
g6
(dp1229
g8
S'create_models_questions_tests___init__.html'
p1230
sg10
S'create/models/questions/tests/__init__'
p1231
sg12
g13
(g14
g15
NtRp1232
(dp1233
g18
I1
sg19
I0
sg20
I0
sg21
I0
sg22
I0
sg23
I0
sg24
I0
sbssg25
S'\x19g\xdfM\x1a\x019\xaf\x1baIeR\xe5u\xa7'
p1234
ssS'teach_views___init__'
p1235
(dp1236
g6
(dp1237
g8
S'teach_views___init__.html'
p1238
sg10
S'teach/views/__init__'
p1239
sg12
g13
(g14
g15
NtRp1240
(dp1241
g18
I1
sg19
I0
sg20
I4
sg21
I0
sg22
I0
sg23
I0
sg24
I0
sbssg25
S'\xbb\xd5\x19}\x18\xa2M\x81f\xac\xd2>+1\xda@'
p1242
ssS'privilege_admin'
p1243
(dp1244
g6
(dp1245
g8
S'privilege_admin.html'
p1246
sg10
S'privilege/admin'
p1247
sg12
g13
(g14
g15
NtRp1248
(dp1249
g18
I1
sg19
I0
sg20
I4
sg21
I0
sg22
I0
sg23
I0
sg24
I0
sbssg25
S'\xa1\x9fb^\xc7l\x00\x1f\x0e\x9c\x06\x08\x99Kx\x94'
p1250
ssS'teach_models_teacher_tags_tests_test_teacher_tag_model'
p1251
(dp1252
g6
(dp1253
g8
S'teach_models_teacher_tags_tests_test_teacher_tag_model.html'
p1254
sg10
S'teach/models/teacher_tags/tests/test_teacher_tag_model'
p1255
sg12
g13
(g14
g15
NtRp1256
(dp1257
g18
I1
sg19
I0
sg20
I30
sg21
I0
sg22
I0
sg23
I0
sg24
I0
sbssg25
S'\xf3\x06\xd8\xd6\x93V\xab\xdc\x87\x05\xf6vJ\xa9`\xe6'
p1258
ssS'user_system_models_schools_academic_year_model'
p1259
(dp1260
g6
(dp1261
g8
S'user_system_models_schools_academic_year_model.html'
p1262
sg10
S'user_system/models/schools/academic_year_model'
p1263
sg12
g13
(g14
g15
NtRp1264
(dp1265
g18
I1
sg19
I0
sg20
I23
sg21
I0
sg22
I0
sg23
I0
sg24
I0
sbssg25
S'\xf1Zl\xd3\xdd4\xdcX&\xdf\xf0<.\x11FY'
p1266
ssS'learn_models___init__'
p1267
(dp1268
g6
(dp1269
g8
S'learn_models___init__.html'
p1270
sg10
S'learn/models/__init__'
p1271
sg12
g13
(g14
g15
NtRp1272
(dp1273
g18
I1
sg19
I0
sg20
I2
sg21
I0
sg22
I0
sg23
I0
sg24
I0
sbssg25
S'J\x07\xbfU\xe2\xd2\xed\xadY\xe2o$\x84\x86bd'
p1274
ssS'user_system_models_users_student_profile_model'
p1275
(dp1276
g6
(dp1277
g8
S'user_system_models_users_student_profile_model.html'
p1278
sg10
S'user_system/models/users/student_profile_model'
p1279
sg12
g13
(g14
g15
NtRp1280
(dp1281
g18
I1
sg19
I2
sg20
I41
sg21
I0
sg22
I0
sg23
I0
sg24
I0
sbssg25
S'q\x83gLh\x1e\xeb\xb5+w&@\xe2"=\xb8'
p1282
ssS'user_system_models_schools_organization_model'
p1283
(dp1284
g6
(dp1285
g8
S'user_system_models_schools_organization_model.html'
p1286
sg10
S'user_system/models/schools/organization_model'
p1287
sg12
g13
(g14
g15
NtRp1288
(dp1289
g18
I1
sg19
I0
sg20
I28
sg21
I0
sg22
I0
sg23
I0
sg24
I0
sbssg25
S']\xd3\xfd\x922s\xeb0\xfd\x8a\x88\xfe"\xbd<h'
p1290
ssS'create_views_books_tests_test_hide_book_view'
p1291
(dp1292
g6
(dp1293
g8
S'create_views_books_tests_test_hide_book_view.html'
p1294
sg10
S'create/views/books/tests/test_hide_book_view'
p1295
sg12
g13
(g14
g15
NtRp1296
(dp1297
g18
I1
sg19
I0
sg20
I25
sg21
I0
sg22
I0
sg23
I0
sg24
I0
sbssg25
S'\xe1\x17\x16\xca\x8a\xc5c\x1b\xce\xab\xb8\xf9G\x03\x9dQ'
p1298
ssS'teach_serializers_teacher_tags_teacher_tag_serializer'
p1299
(dp1300
g6
(dp1301
g8
S'teach_serializers_teacher_tags_teacher_tag_serializer.html'
p1302
sg10
S'teach/serializers/teacher_tags/teacher_tag_serializer'
p1303
sg12
g13
(g14
g15
NtRp1304
(dp1305
g18
I1
sg19
I2
sg20
I26
sg21
I0
sg22
I0
sg23
I9
sg24
I2
sbssg25
S'\x07C\xdf\xcd\x92\x1eS\x1a#\x8e\x9d\x88Dj\n\x12'
p1306
ssS'create_admin'
p1307
(dp1308
g6
(dp1309
g8
S'create_admin.html'
p1310
sg10
S'create/admin'
p1311
sg12
g13
(g14
g15
NtRp1312
(dp1313
g18
I1
sg19
I0
sg20
I20
sg21
I0
sg22
I0
sg23
I0
sg24
I0
sbssg25
S'\x03\xe6\xc2\xd5\xa8\xb1\x92\xa5/8\x0fZCN\r\x08'
p1314
ssS'create_views_questions_tests_test_get_question_list_view'
p1315
(dp1316
g6
(dp1317
g8
S'create_views_questions_tests_test_get_question_list_view.html'
p1318
sg10
S'create/views/questions/tests/test_get_question_list_view'
p1319
sg12
g13
(g14
g15
NtRp1320
(dp1321
g18
I1
sg19
I0
sg20
I32
sg21
I0
sg22
I0
sg23
I0
sg24
I0
sbssg25
S'\xa2&\x88;1\\\xa2 \xb4&ejB\xd1%\x06'
p1322
ssS'user_system_views_batch_processing_update_user_streak_view'
p1323
(dp1324
g6
(dp1325
g8
S'user_system_views_batch_processing_update_user_streak_view.html'
p1326
sg10
S'user_system/views/batch_processing/update_user_streak_view'
p1327
sg12
g13
(g14
g15
NtRp1328
(dp1329
g18
I1
sg19
I4
sg20
I26
sg21
I0
sg22
I0
sg23
I13
sg24
I4
sbssg25
S'\x0c\xa4\xfc<-\xca\x06\xe7\x99B\xd5\x0bFC\x94c'
p1330
ssS'user_system_views_logins___init__'
p1331
(dp1332
g6
(dp1333
g8
S'user_system_views_logins___init__.html'
p1334
sg10
S'user_system/views/logins/__init__'
p1335
sg12
g13
(g14
g15
NtRp1336
(dp1337
g18
I1
sg19
I0
sg20
I2
sg21
I0
sg22
I0
sg23
I0
sg24
I0
sbssg25
S'\xa0\xd3\xaas\xc2\xb93+ED.\xe5\xfe\xf2\xad\x87'
p1338
ssS'create_views_daily_quest_copies___init__'
p1339
(dp1340
g6
(dp1341
g8
S'create_views_daily_quest_copies___init__.html'
p1342
sg10
S'create/views/daily_quest_copies/__init__'
p1343
sg12
g13
(g14
g15
NtRp1344
(dp1345
g18
I1
sg19
I0
sg20
I1
sg21
I0
sg22
I0
sg23
I0
sg24
I0
sbssg25
S"'\xb6_z\x90s\x92\xdd\xc7\xb2\x87d\xba\xe24X"
p1346
ssS'create_views_quests_tests_test_hide_quest_view'
p1347
(dp1348
g6
(dp1349
g8
S'create_views_quests_tests_test_hide_quest_view.html'
p1350
sg10
S'create/views/quests/tests/test_hide_quest_view'
p1351
sg12
g13
(g14
g15
NtRp1352
(dp1353
g18
I1
sg19
I0
sg20
I26
sg21
I0
sg22
I0
sg23
I0
sg24
I0
sbssg25
S'G\xcb\xcf\xbb~*\xa2i\xd2\xff\x81\x81\xf0)G\xda'
p1354
ssS'create_views_books_tests_test_add_tag_to_subchapter_view'
p1355
(dp1356
g6
(dp1357
g8
S'create_views_books_tests_test_add_tag_to_subchapter_view.html'
p1358
sg10
S'create/views/books/tests/test_add_tag_to_subchapter_view'
p1359
sg12
g13
(g14
g15
NtRp1360
(dp1361
g18
I1
sg19
I0
sg20
I40
sg21
I0
sg22
I0
sg23
I0
sg24
I0
sbssg25
S'\xb78\xf4p\xcd\xec\xca\xaa\x93\xb9\xda\xa8Yo37'
p1362
ssS'api_logging_models_modal_logging_modal_user_history_model'
p1363
(dp1364
g6
(dp1365
g8
S'api_logging_models_modal_logging_modal_user_history_model.html'
p1366
sg10
S'api_logging/models/modal_logging/modal_user_history_model'
p1367
sg12
g13
(g14
g15
NtRp1368
(dp1369
g18
I1
sg19
I0
sg20
I15
sg21
I0
sg22
I0
sg23
I3
sg24
I0
sbssg25
S'\xabX\xd42<$9z\xc1]\xc12\xe9\xd8\xbf\xd2'
p1370
ssS'user_system_views_schools_classroom_view'
p1371
(dp1372
g6
(dp1373
g8
S'user_system_views_schools_classroom_view.html'
p1374
sg10
S'user_system/views/schools/classroom_view'
p1375
sg12
g13
(g14
g15
NtRp1376
(dp1377
g18
I1
sg19
I2
sg20
I25
sg21
I0
sg22
I0
sg23
I6
sg24
I2
sbssg25
S'\xc5\x9bb\xc9\x83\xc2\x88\xd8,\x01\xeb\x94.\x8b\xf7\xd6'
p1378
ssS'user_system_managers_user_manager'
p1379
(dp1380
g6
(dp1381
g8
S'user_system_managers_user_manager.html'
p1382
sg10
S'user_system/managers/user_manager'
p1383
sg12
g13
(g14
g15
NtRp1384
(dp1385
g18
I1
sg19
I28
sg20
I64
sg21
I0
sg22
I1
sg23
I0
sg24
I1
sbssg25
S'\xb9U\xa3],\xb4\xc8\xd1iE\xf6\x04;\xf0-h'
p1386
ssS'create_models_quests_tests___init__'
p1387
(dp1388
g6
(dp1389
g8
S'create_models_quests_tests___init__.html'
p1390
sg10
S'create/models/quests/tests/__init__'
p1391
sg12
g13
(g14
g15
NtRp1392
(dp1393
g18
I1
sg19
I0
sg20
I1
sg21
I0
sg22
I0
sg23
I0
sg24
I0
sbssg25
S'\xbc\xd6\xeb\xb3\xba\xcaz\xf7{\xd4B\xb5}l\xdf\x96'
p1394
ssS'create_views_questions___init__'
p1395
(dp1396
g6
(dp1397
g8
S'create_views_questions___init__.html'
p1398
sg10
S'create/views/questions/__init__'
p1399
sg12
g13
(g14
g15
NtRp1400
(dp1401
g18
I1
sg19
I0
sg20
I3
sg21
I0
sg22
I0
sg23
I0
sg24
I0
sbssg25
S'h\x154\xc5\xe58\xa8\xc8\xa9\xa6\xbea?\xcf?i'
p1402
ssS'user_system_views_users_create_teacher_view'
p1403
(dp1404
g6
(dp1405
g8
S'user_system_views_users_create_teacher_view.html'
p1406
sg10
S'user_system/views/users/create_teacher_view'
p1407
sg12
g13
(g14
g15
NtRp1408
(dp1409
g18
I1
sg19
I2
sg20
I34
sg21
I0
sg22
I0
sg23
I21
sg24
I2
sbssg25
S'=\xee\xed^jo\xc1\xebz\xedP\xf9\x91n\xec\x8d'
p1410
ssS'user_system_models_apps_tests___init__'
p1411
(dp1412
g6
(dp1413
g8
S'user_system_models_apps_tests___init__.html'
p1414
sg10
S'user_system/models/apps/tests/__init__'
p1415
sg12
g13
(g14
g15
NtRp1416
(dp1417
g18
I1
sg19
I0
sg20
I0
sg21
I0
sg22
I0
sg23
I0
sg24
I0
sbssg25
S'\x19g\xdfM\x1a\x019\xaf\x1baIeR\xe5u\xa7'
p1418
ssS'privilege_serializers_privileges_user_privilege_serializer'
p1419
(dp1420
g6
(dp1421
g8
S'privilege_serializers_privileges_user_privilege_serializer.html'
p1422
sg10
S'privilege/serializers/privileges/user_privilege_serializer'
p1423
sg12
g13
(g14
g15
NtRp1424
(dp1425
g18
I1
sg19
I0
sg20
I9
sg21
I0
sg22
I0
sg23
I0
sg24
I0
sbssg25
S'#\xe5\xcc\x9as5y,\xa1HiQ\xa2c\xdb2'
p1426
ssS'teach_views_summaries_daily_quest_daily_summary_view'
p1427
(dp1428
g6
(dp1429
g8
S'teach_views_summaries_daily_quest_daily_summary_view.html'
p1430
sg10
S'teach/views/summaries/daily_quest_daily_summary_view'
p1431
sg12
g13
(g14
g15
NtRp1432
(dp1433
g18
I1
sg19
I12
sg20
I61
sg21
I0
sg22
I0
sg23
I39
sg24
I12
sbssg25
S'\x06\\F.\x8c\xd3M\x8e\xc5\xc9\xd5<\x13V\xd6C'
p1434
ssS'create_views_summary___init__'
p1435
(dp1436
g6
(dp1437
g8
S'create_views_summary___init__.html'
p1438
sg10
S'create/views/summary/__init__'
p1439
sg12
g13
(g14
g15
NtRp1440
(dp1441
g18
I1
sg19
I0
sg20
I1
sg21
I0
sg22
I0
sg23
I0
sg24
I0
sbssg25
S'#\xb7\xbd\xa1M\xe4\xa0\x05\xf5x\x057hU[\xca'
p1442
ssS'create_views_tags_tests_test_get_tag_by_id_view'
p1443
(dp1444
g6
(dp1445
g8
S'create_views_tags_tests_test_get_tag_by_id_view.html'
p1446
sg10
S'create/views/tags/tests/test_get_tag_by_id_view'
p1447
sg12
g13
(g14
g15
NtRp1448
(dp1449
g18
I1
sg19
I0
sg20
I20
sg21
I0
sg22
I0
sg23
I0
sg24
I0
sbssg25
S'T\xd5\xd7\xd9\xb8\x12\x81xj\xca\x90\xa41\xcf\x02]'
p1450
ssS'api_logging_models_user_activities___init__'
p1451
(dp1452
g6
(dp1453
g8
S'api_logging_models_user_activities___init__.html'
p1454
sg10
S'api_logging/models/user_activities/__init__'
p1455
sg12
g13
(g14
g15
NtRp1456
(dp1457
g18
I1
sg19
I0
sg20
I2
sg21
I0
sg22
I0
sg23
I0
sg24
I0
sbssg25
S'[5wJ\x18h\x1e\xbf>\xcd\x82\x04\xf1,\xd1\xde'
p1458
ssS'user_system_models_users_tests_test_user_profile_model'
p1459
(dp1460
g6
(dp1461
g8
S'user_system_models_users_tests_test_user_profile_model.html'
p1462
sg10
S'user_system/models/users/tests/test_user_profile_model'
p1463
sg12
g13
(g14
g15
NtRp1464
(dp1465
g18
I1
sg19
I0
sg20
I142
sg21
I0
sg22
I0
sg23
I0
sg24
I0
sbssg25
S'\x00\xb8\xc5\xc0\xcb\xb1\xcaP@!\x086\x84\x1d\xd5\xed'
p1466
ssS'user_system_views_users_user_streak_history_view'
p1467
(dp1468
g6
(dp1469
g8
S'user_system_views_users_user_streak_history_view.html'
p1470
sg10
S'user_system/views/users/user_streak_history_view'
p1471
sg12
g13
(g14
g15
NtRp1472
(dp1473
g18
I1
sg19
I0
sg20
I15
sg21
I0
sg22
I0
sg23
I0
sg24
I0
sbssg25
S'\x82\xa4:\x84\x8dJE7\xc0"\xbb\xceU\xa9\xd6\x07'
p1474
ssS'user_system_views_roles_tests_test_user_role_view'
p1475
(dp1476
g6
(dp1477
g8
S'user_system_views_roles_tests_test_user_role_view.html'
p1478
sg10
S'user_system/views/roles/tests/test_user_role_view'
p1479
sg12
g13
(g14
g15
NtRp1480
(dp1481
g18
I1
sg19
I0
sg20
I41
sg21
I0
sg22
I0
sg23
I0
sg24
I0
sbssg25
S'\xaf \x02-\xd3\xa9\xee\x1e7\x87\xa8[\xd9\xd8V\xd8'
p1482
ssS'user_system_views_apps_tests_test_get_apps_list_view'
p1483
(dp1484
g6
(dp1485
g8
S'user_system_views_apps_tests_test_get_apps_list_view.html'
p1486
sg10
S'user_system/views/apps/tests/test_get_apps_list_view'
p1487
sg12
g13
(g14
g15
NtRp1488
(dp1489
g18
I1
sg19
I0
sg20
I18
sg21
I0
sg22
I0
sg23
I0
sg24
I0
sbssg25
S'\x87\xab;"\x01p\xf9\xe5\xa6\xb1\xaej\x8egl\x99'
p1490
ssS'api_logging_models_user_activities_user_activity_model'
p1491
(dp1492
g6
(dp1493
g8
S'api_logging_models_user_activities_user_activity_model.html'
p1494
sg10
S'api_logging/models/user_activities/user_activity_model'
p1495
sg12
g13
(g14
g15
NtRp1496
(dp1497
g18
I1
sg19
I0
sg20
I11
sg21
I0
sg22
I0
sg23
I0
sg24
I0
sbssg25
S'f\xe2(\xd3\xddS\xfd\x1e\xf0d\xb2,\xb2\x8f\x8c\x18'
p1498
ssS'create_views_books_tests_test_create_new_book'
p1499
(dp1500
g6
(dp1501
g8
S'create_views_books_tests_test_create_new_book.html'
p1502
sg10
S'create/views/books/tests/test_create_new_book'
p1503
sg12
g13
(g14
g15
NtRp1504
(dp1505
g18
I1
sg19
I0
sg20
I18
sg21
I0
sg22
I0
sg23
I0
sg24
I0
sbssg25
S'\xe3\xaew\xf8\xd7\x8f\xc5 \x85\xc1\xb6I\x82X(-'
p1506
ssS'create_serializers_questions_question_type_serializer'
p1507
(dp1508
g6
(dp1509
g8
S'create_serializers_questions_question_type_serializer.html'
p1510
sg10
S'create/serializers/questions/question_type_serializer'
p1511
sg12
g13
(g14
g15
NtRp1512
(dp1513
g18
I1
sg19
I0
sg20
I6
sg21
I0
sg22
I0
sg23
I0
sg24
I0
sbssg25
S'!\x8a\x91KA:\x92\x13/\xdd\xd9\xc2?\x8b\xe1\xc6'
p1514
ssS'create_models_books_tests_test_book_model'
p1515
(dp1516
g6
(dp1517
g8
S'create_models_books_tests_test_book_model.html'
p1518
sg10
S'create/models/books/tests/test_book_model'
p1519
sg12
g13
(g14
g15
NtRp1520
(dp1521
g18
I1
sg19
I6
sg20
I44
sg21
I0
sg22
I0
sg23
I0
sg24
I0
sbssg25
S'\xff\x88\xcd\xb0\x80\xb2\x9d\xf7\xf9G\xb1.\xaf\xdd\x07\xd7'
p1522
ssS'create_models_questions_question_choice_model'
p1523
(dp1524
g6
(dp1525
g8
S'create_models_questions_question_choice_model.html'
p1526
sg10
S'create/models/questions/question_choice_model'
p1527
sg12
g13
(g14
g15
NtRp1528
(dp1529
g18
I1
sg19
I0
sg20
I42
sg21
I0
sg22
I0
sg23
I0
sg24
I0
sbssg25
S'\xd7\xd8\x1f\xbf<\xee\xdd?}\xfe>\x82\\\x97\x15)'
p1530
ssS'flipped_helpers_tests___init__'
p1531
(dp1532
g6
(dp1533
g8
S'flipped_helpers_tests___init__.html'
p1534
sg10
S'flipped/helpers/tests/__init__'
p1535
sg12
g13
(g14
g15
NtRp1536
(dp1537
g18
I1
sg19
I0
sg20
I0
sg21
I0
sg22
I0
sg23
I0
sg24
I0
sbssg25
S'\x19g\xdfM\x1a\x019\xaf\x1baIeR\xe5u\xa7'
p1538
ssS'user_system_models_roles_role_app_model'
p1539
(dp1540
g6
(dp1541
g8
S'user_system_models_roles_role_app_model.html'
p1542
sg10
S'user_system/models/roles/role_app_model'
p1543
sg12
g13
(g14
g15
NtRp1544
(dp1545
g18
I1
sg19
I0
sg20
I18
sg21
I0
sg22
I0
sg23
I0
sg24
I0
sbssg25
S'\x8d\xa3&\x03\x9d\x1cO|\xces.\x11/\x8f`\xcc'
p1546
ssS'create_views_books_book_view'
p1547
(dp1548
g6
(dp1549
g8
S'create_views_books_book_view.html'
p1550
sg10
S'create/views/books/book_view'
p1551
sg12
g13
(g14
g15
NtRp1552
(dp1553
g18
I1
sg19
I34
sg20
I124
sg21
I0
sg22
I3
sg23
I8
sg24
I5
sbssg25
S'%\x96\xb2\x15\x98\xef\x0fL\xc0&\xf9\x18\x91-\xb28'
p1554
ssS'create_views_tags_tests_test_remove_prerequisite_view'
p1555
(dp1556
g6
(dp1557
g8
S'create_views_tags_tests_test_remove_prerequisite_view.html'
p1558
sg10
S'create/views/tags/tests/test_remove_prerequisite_view'
p1559
sg12
g13
(g14
g15
NtRp1560
(dp1561
g18
I1
sg19
I0
sg20
I31
sg21
I0
sg22
I0
sg23
I0
sg24
I0
sbssg25
S'\x8e\x8c~\xff\x85\x94\x8c~T\x7f\x80\x82W\x96\x19\x9c'
p1562
ssS'learn_models_points_tests_test_point_type_model'
p1563
(dp1564
g6
(dp1565
g8
S'learn_models_points_tests_test_point_type_model.html'
p1566
sg10
S'learn/models/points/tests/test_point_type_model'
p1567
sg12
g13
(g14
g15
NtRp1568
(dp1569
g18
I1
sg19
I0
sg20
I20
sg21
I0
sg22
I0
sg23
I0
sg24
I0
sbssg25
S'\x8a\x938\x82k\xa7\x10\xf1\x95\x07\xc4\xb2\x9d\n\xc6\x1f'
p1570
ssS'api_logging_views_user_activities___init__'
p1571
(dp1572
g6
(dp1573
g8
S'api_logging_views_user_activities___init__.html'
p1574
sg10
S'api_logging/views/user_activities/__init__'
p1575
sg12
g13
(g14
g15
NtRp1576
(dp1577
g18
I1
sg19
I0
sg20
I1
sg21
I0
sg22
I0
sg23
I0
sg24
I0
sbssg25
S'\xbc\x87\xa7&\xe2B=>v\tt\x06,\x1d<['
p1578
ssS'teach_serializers_teacher_chapters_teacher_chapter_serializer'
p1579
(dp1580
g6
(dp1581
g8
S'teach_serializers_teacher_chapters_teacher_chapter_serializer.html'
p1582
sg10
S'teach/serializers/teacher_chapters/teacher_chapter_serializer'
p1583
sg12
g13
(g14
g15
NtRp1584
(dp1585
g18
I1
sg19
I0
sg20
I12
sg21
I0
sg22
I0
sg23
I0
sg24
I0
sbssg25
S'\xac\x9b\xf1Q\x91\xf4J\x03y\xc4\xa7\x9c\x996\x13a'
p1586
ssS'user_system_serializers_app_serializer'
p1587
(dp1588
g6
(dp1589
g8
S'user_system_serializers_app_serializer.html'
p1590
sg10
S'user_system/serializers/app_serializer'
p1591
sg12
g13
(g14
g15
NtRp1592
(dp1593
g18
I1
sg19
I0
sg20
I7
sg21
I0
sg22
I0
sg23
I0
sg24
I0
sbssg25
S'\xc1\x87\xd6\x1b\xbe\x8f\xfb\xdd\x1a\xa9\x92A\xe2\xc3\xe2\xf1'
p1594
ssS'learn_views_daily_quests___init__'
p1595
(dp1596
g6
(dp1597
g8
S'learn_views_daily_quests___init__.html'
p1598
sg10
S'learn/views/daily_quests/__init__'
p1599
sg12
g13
(g14
g15
NtRp1600
(dp1601
g18
I1
sg19
I0
sg20
I3
sg21
I0
sg22
I0
sg23
I0
sg24
I0
sbssg25
S'\xabgT\x8f\xf6_\xecD=h\x94\xa6\x8fk\x9b\xd1'
p1602
ssS'api_logging_serializers_user_activities___init__'
p1603
(dp1604
g6
(dp1605
g8
S'api_logging_serializers_user_activities___init__.html'
p1606
sg10
S'api_logging/serializers/user_activities/__init__'
p1607
sg12
g13
(g14
g15
NtRp1608
(dp1609
g18
I1
sg19
I0
sg20
I1
sg21
I0
sg22
I0
sg23
I0
sg24
I0
sbssg25
S'Lrk4\xf7\x16t\xe2\x9f\xd6\xf5t\x0cO>\xdf'
p1610
ssS'teach_models_teacher_chapters_tests___init__'
p1611
(dp1612
g6
(dp1613
g8
S'teach_models_teacher_chapters_tests___init__.html'
p1614
sg10
S'teach/models/teacher_chapters/tests/__init__'
p1615
sg12
g13
(g14
g15
NtRp1616
(dp1617
g18
I1
sg19
I0
sg20
I0
sg21
I0
sg22
I0
sg23
I0
sg24
I0
sbssg25
S'\x19g\xdfM\x1a\x019\xaf\x1baIeR\xe5u\xa7'
p1618
ssS'create_views_quests_tests_test_remove_tag_view'
p1619
(dp1620
g6
(dp1621
g8
S'create_views_quests_tests_test_remove_tag_view.html'
p1622
sg10
S'create/views/quests/tests/test_remove_tag_view'
p1623
sg12
g13
(g14
g15
NtRp1624
(dp1625
g18
I1
sg19
I0
sg20
I0
sg21
I0
sg22
I0
sg23
I0
sg24
I0
sbssg25
S'\x19g\xdfM\x1a\x019\xaf\x1baIeR\xe5u\xa7'
p1626
ssS'create_models_questions_tests_test_question_type_model'
p1627
(dp1628
g6
(dp1629
g8
S'create_models_questions_tests_test_question_type_model.html'
p1630
sg10
S'create/models/questions/tests/test_question_type_model'
p1631
sg12
g13
(g14
g15
NtRp1632
(dp1633
g18
I1
sg19
I0
sg20
I17
sg21
I0
sg22
I0
sg23
I0
sg24
I0
sbssg25
S'e\x1b\x19\xbb)\x89\xff\xfa\xe5\xca\xde\x08\x08CUL'
p1634
ssS'create_views_books_tests_test_remove_chapter_view'
p1635
(dp1636
g6
(dp1637
g8
S'create_views_books_tests_test_remove_chapter_view.html'
p1638
sg10
S'create/views/books/tests/test_remove_chapter_view'
p1639
sg12
g13
(g14
g15
NtRp1640
(dp1641
g18
I1
sg19
I0
sg20
I39
sg21
I0
sg22
I0
sg23
I0
sg24
I0
sbssg25
S'lJ\xdc\xbe\xe2>\x9d\xde\xb5+ia5;\x042'
p1642
ssS'create_models_question_datasets___init__'
p1643
(dp1644
g6
(dp1645
g8
S'create_models_question_datasets___init__.html'
p1646
sg10
S'create/models/question_datasets/__init__'
p1647
sg12
g13
(g14
g15
NtRp1648
(dp1649
g18
I1
sg19
I0
sg20
I1
sg21
I0
sg22
I0
sg23
I0
sg24
I0
sbssg25
S'\xeb\xb7>&t\x02-\xeaaJ,\x8a\xae\xc3\x1a]'
p1650
ssS'privilege_views___init__'
p1651
(dp1652
g6
(dp1653
g8
S'privilege_views___init__.html'
p1654
sg10
S'privilege/views/__init__'
p1655
sg12
g13
(g14
g15
NtRp1656
(dp1657
g18
I1
sg19
I0
sg20
I0
sg21
I0
sg22
I0
sg23
I0
sg24
I0
sbssg25
S'\x19g\xdfM\x1a\x019\xaf\x1baIeR\xe5u\xa7'
p1658
ssS'api_logging_views_query_stat___init__'
p1659
(dp1660
g6
(dp1661
g8
S'api_logging_views_query_stat___init__.html'
p1662
sg10
S'api_logging/views/query_stat/__init__'
p1663
sg12
g13
(g14
g15
NtRp1664
(dp1665
g18
I1
sg19
I0
sg20
I1
sg21
I0
sg22
I0
sg23
I0
sg24
I0
sbssg25
S'\xbe{\x9f#C\x83\xe9\xa5\xf6B\xf2\xd6\x8a\x0eB\xd0'
p1666
ssS'user_system_views_users_tests___init__'
p1667
(dp1668
g6
(dp1669
g8
S'user_system_views_users_tests___init__.html'
p1670
sg10
S'user_system/views/users/tests/__init__'
p1671
sg12
g13
(g14
g15
NtRp1672
(dp1673
g18
I1
sg19
I0
sg20
I0
sg21
I0
sg22
I0
sg23
I0
sg24
I0
sbssg25
S'\x19g\xdfM\x1a\x019\xaf\x1baIeR\xe5u\xa7'
p1674
ssS'create_models_tags_tests_test_skill_model'
p1675
(dp1676
g6
(dp1677
g8
S'create_models_tags_tests_test_skill_model.html'
p1678
sg10
S'create/models/tags/tests/test_skill_model'
p1679
sg12
g13
(g14
g15
NtRp1680
(dp1681
g18
I1
sg19
I0
sg20
I12
sg21
I0
sg22
I0
sg23
I0
sg24
I0
sbssg25
S'\x08\x9e\x87e#\x02\x06O\x02l!\x0e\xe8\xeb\xc0.'
p1682
ssS'user_system_views_signups_hardcoded___init__'
p1683
(dp1684
g6
(dp1685
g8
S'user_system_views_signups_hardcoded___init__.html'
p1686
sg10
S'user_system/views/signups/hardcoded/__init__'
p1687
sg12
g13
(g14
g15
NtRp1688
(dp1689
g18
I1
sg19
I0
sg20
I1
sg21
I0
sg22
I0
sg23
I0
sg24
I0
sbssg25
S'?\xfac\x0c\x91\xa4\xd6\xd4\x1d\xe4\x99\xc2[\x83\xfc\xdf'
p1690
ssS'create_models_books_tests_test_book_chapter_model'
p1691
(dp1692
g6
(dp1693
g8
S'create_models_books_tests_test_book_chapter_model.html'
p1694
sg10
S'create/models/books/tests/test_book_chapter_model'
p1695
sg12
g13
(g14
g15
NtRp1696
(dp1697
g18
I1
sg19
I8
sg20
I55
sg21
I0
sg22
I0
sg23
I0
sg24
I0
sbssg25
S'\xc4\x1a\xd7\x12s\xd3V\xef\xac\xa7%\x0c\xdc\x17\x05c'
p1698
ssS'user_system_views_signups_tests_test_verify_email_view'
p1699
(dp1700
g6
(dp1701
g8
S'user_system_views_signups_tests_test_verify_email_view.html'
p1702
sg10
S'user_system/views/signups/tests/test_verify_email_view'
p1703
sg12
g13
(g14
g15
NtRp1704
(dp1705
g18
I1
sg19
I0
sg20
I51
sg21
I0
sg22
I0
sg23
I0
sg24
I0
sbssg25
S'\x81\xacj\x9d\x1f\xa9o\xcc\x1e\xa3\xe59^YT\x9e'
p1706
ssS'teach_models_daily_quest_templates___init__'
p1707
(dp1708
g6
(dp1709
g8
S'teach_models_daily_quest_templates___init__.html'
p1710
sg10
S'teach/models/daily_quest_templates/__init__'
p1711
sg12
g13
(g14
g15
NtRp1712
(dp1713
g18
I1
sg19
I0
sg20
I1
sg21
I0
sg22
I0
sg23
I0
sg24
I0
sbssg25
S'\x12\x89x\xb9F\xfb=b\x04\xddy\xb4\xccZb\xb8'
p1714
ssS'teach_serializers_daily_quest_templates_daily_quest_template_serializer'
p1715
(dp1716
g6
(dp1717
g8
S'teach_serializers_daily_quest_templates_daily_quest_template_serializer.html'
p1718
sg10
S'teach/serializers/daily_quest_templates/daily_quest_template_serializer'
p1719
sg12
g13
(g14
g15
NtRp1720
(dp1721
g18
I1
sg19
I0
sg20
I12
sg21
I0
sg22
I0
sg23
I0
sg24
I0
sbssg25
S"\xd9\x0bcm\x95?'mB\xf9\xdd\xa1\xfc>:="
p1722
ssS'create_views_questions_tests_test_add_tag_view'
p1723
(dp1724
g6
(dp1725
g8
S'create_views_questions_tests_test_add_tag_view.html'
p1726
sg10
S'create/views/questions/tests/test_add_tag_view'
p1727
sg12
g13
(g14
g15
NtRp1728
(dp1729
g18
I1
sg19
I0
sg20
I35
sg21
I0
sg22
I0
sg23
I0
sg24
I0
sbssg25
S'\x8e\x13\xdd\xbd\xba\r&,-|&W-a`\x7f'
p1730
ssS'create_views_quests_quest_view'
p1731
(dp1732
g6
(dp1733
g8
S'create_views_quests_quest_view.html'
p1734
sg10
S'create/views/quests/quest_view'
p1735
sg12
g13
(g14
g15
NtRp1736
(dp1737
g18
I1
sg19
I84
sg20
I249
sg21
I0
sg22
I0
sg23
I178
sg24
I78
sbssg25
S'(\xa2UK\xe2}\xa8\xe0\xc9 3#\xec\x01\xfd\x16'
p1738
ssS'privilege_models_privileges_tests_test_privilege_model'
p1739
(dp1740
g6
(dp1741
g8
S'privilege_models_privileges_tests_test_privilege_model.html'
p1742
sg10
S'privilege/models/privileges/tests/test_privilege_model'
p1743
sg12
g13
(g14
g15
NtRp1744
(dp1745
g18
I1
sg19
I0
sg20
I30
sg21
I0
sg22
I0
sg23
I0
sg24
I0
sbssg25
S'\xe0^\x80\xd5+a\xd9\xc4\xeabB\xc5\x142;\xc9'
p1746
ssS'flipped_helpers___init__'
p1747
(dp1748
g6
(dp1749
g8
S'flipped_helpers___init__.html'
p1750
sg10
S'flipped/helpers/__init__'
p1751
sg12
g13
(g14
g15
NtRp1752
(dp1753
g18
I1
sg19
I0
sg20
I5
sg21
I0
sg22
I0
sg23
I0
sg24
I0
sbssg25
S'\x8d&\xda\xf5\x1f\xe2\xe9/Cb\xfb\x88\x04UM6'
p1754
ssS'user_system_models_schools_tests_test_grade_model'
p1755
(dp1756
g6
(dp1757
g8
S'user_system_models_schools_tests_test_grade_model.html'
p1758
sg10
S'user_system/models/schools/tests/test_grade_model'
p1759
sg12
g13
(g14
g15
NtRp1760
(dp1761
g18
I1
sg19
I0
sg20
I28
sg21
I0
sg22
I0
sg23
I0
sg24
I0
sbssg25
S'\x1fm\x16s\xe7\xd2\x91\xda`\xab\xe0\x7f\x9dy\xcbd'
p1762
ssS'user_system_models_apps_tests_test_app_model'
p1763
(dp1764
g6
(dp1765
g8
S'user_system_models_apps_tests_test_app_model.html'
p1766
sg10
S'user_system/models/apps/tests/test_app_model'
p1767
sg12
g13
(g14
g15
NtRp1768
(dp1769
g18
I1
sg19
I0
sg20
I18
sg21
I0
sg22
I0
sg23
I0
sg24
I0
sbssg25
S'\xfb\xfc\xe0#\xe2\n\x8e\x9e\x94\xa8\x83\xc5\xb1U\xa3a'
p1770
ssS'user_system_views_signups_tests_test_email_signup_view'
p1771
(dp1772
g6
(dp1773
g8
S'user_system_views_signups_tests_test_email_signup_view.html'
p1774
sg10
S'user_system/views/signups/tests/test_email_signup_view'
p1775
sg12
g13
(g14
g15
NtRp1776
(dp1777
g18
I1
sg19
I0
sg20
I51
sg21
I0
sg22
I0
sg23
I0
sg24
I0
sbssg25
S'\xa3\xb2\xaf-\x99\xe3]\xcc\xe6\x8b\xeb\xf63=I\xb4'
p1778
ssS'user_system_models_schools_tests_test_organization_model'
p1779
(dp1780
g6
(dp1781
g8
S'user_system_models_schools_tests_test_organization_model.html'
p1782
sg10
S'user_system/models/schools/tests/test_organization_model'
p1783
sg12
g13
(g14
g15
NtRp1784
(dp1785
g18
I1
sg19
I0
sg20
I27
sg21
I0
sg22
I0
sg23
I0
sg24
I0
sbssg25
S"\xa3'h\xadZ,\x82G\xbc\x08wON /j"
p1786
ssS'create_serializers_books_book_subchapter_serializer'
p1787
(dp1788
g6
(dp1789
g8
S'create_serializers_books_book_subchapter_serializer.html'
p1790
sg10
S'create/serializers/books/book_subchapter_serializer'
p1791
sg12
g13
(g14
g15
NtRp1792
(dp1793
g18
I1
sg19
I0
sg20
I18
sg21
I0
sg22
I0
sg23
I3
sg24
I0
sbssg25
S'89\x89\x89\xd8\x94\xd2l\x98G]\xad\xe1\xf7\x93\xfc'
p1794
ssS'create_views_books_book_subchapter_view'
p1795
(dp1796
g6
(dp1797
g8
S'create_views_books_book_subchapter_view.html'
p1798
sg10
S'create/views/books/book_subchapter_view'
p1799
sg12
g13
(g14
g15
NtRp1800
(dp1801
g18
I1
sg19
I8
sg20
I46
sg21
I0
sg22
I0
sg23
I0
sg24
I0
sbssg25
S'\x0e\xa6\x19V\xf0\xf3;\xa2\x8d \xd8i\xb7*D\x87'
p1802
ssS'user_system_models_roles_tests_test_role_model'
p1803
(dp1804
g6
(dp1805
g8
S'user_system_models_roles_tests_test_role_model.html'
p1806
sg10
S'user_system/models/roles/tests/test_role_model'
p1807
sg12
g13
(g14
g15
NtRp1808
(dp1809
g18
I1
sg19
I0
sg20
I20
sg21
I0
sg22
I0
sg23
I0
sg24
I0
sbssg25
S'\xef\xba\x956\x96\xbc:\xa0\x0f\x00\x84\x80\x0elh\xed'
p1810
ssS'user_system_views_signups_verify_email_view'
p1811
(dp1812
g6
(dp1813
g8
S'user_system_views_signups_verify_email_view.html'
p1814
sg10
S'user_system/views/signups/verify_email_view'
p1815
sg12
g13
(g14
g15
NtRp1816
(dp1817
g18
I1
sg19
I6
sg20
I26
sg21
I0
sg22
I0
sg23
I0
sg24
I0
sbssg25
S"B+;\xbf\xb1A\x1f\n\x94\x0e\xeb\xd0\xf1Y'l"
p1818
ssS'user_system_views_logins_email_login_view'
p1819
(dp1820
g6
(dp1821
g8
S'user_system_views_logins_email_login_view.html'
p1822
sg10
S'user_system/views/logins/email_login_view'
p1823
sg12
g13
(g14
g15
NtRp1824
(dp1825
g18
I1
sg19
I8
sg20
I35
sg21
I0
sg22
I0
sg23
I0
sg24
I0
sbssg25
S'\x9e\xe3\x8e\xf9o\x8aYC\xa2\xcb\xe7\xbd\x94\xe1O\x1a'
p1826
ssS'user_system_serializers_users_list_user_serializer'
p1827
(dp1828
g6
(dp1829
g8
S'user_system_serializers_users_list_user_serializer.html'
p1830
sg10
S'user_system/serializers/users/list_user_serializer'
p1831
sg12
g13
(g14
g15
NtRp1832
(dp1833
g18
I1
sg19
I0
sg20
I18
sg21
I0
sg22
I0
sg23
I0
sg24
I0
sbssg25
S'\xdfK>6\xe0\x8d\xcd\xd4/O\xef\xaa\xd0\x9efX'
p1834
ssS'create_views_question_datasets_question_dataset_view'
p1835
(dp1836
g6
(dp1837
g8
S'create_views_question_datasets_question_dataset_view.html'
p1838
sg10
S'create/views/question_datasets/question_dataset_view'
p1839
sg12
g13
(g14
g15
NtRp1840
(dp1841
g18
I1
sg19
I4
sg20
I20
sg21
I0
sg22
I0
sg23
I5
sg24
I4
sbssg25
S'\x01\xfb\xf2\x86m\xd4\xf9\xc3\xe6\xb6\x11\x96u;\x1ez'
p1842
ssS'create_views_quests_tests_test_remove_question_template_view'
p1843
(dp1844
g6
(dp1845
g8
S'create_views_quests_tests_test_remove_question_template_view.html'
p1846
sg10
S'create/views/quests/tests/test_remove_question_template_view'
p1847
sg12
g13
(g14
g15
NtRp1848
(dp1849
g18
I1
sg19
I0
sg20
I0
sg21
I0
sg22
I0
sg23
I0
sg24
I0
sbssg25
S'\x19g\xdfM\x1a\x019\xaf\x1baIeR\xe5u\xa7'
p1850
ssS'user_system_serializers_users_user_profile_update_request_serializer'
p1851
(dp1852
g6
(dp1853
g8
S'user_system_serializers_users_user_profile_update_request_serializer.html'
p1854
sg10
S'user_system/serializers/users/user_profile_update_request_serializer'
p1855
sg12
g13
(g14
g15
NtRp1856
(dp1857
g18
I1
sg19
I0
sg20
I20
sg21
I0
sg22
I0
sg23
I2
sg24
I0
sbssg25
S'\x19EO\xe6\xb5\xdbWY\xb8\xd9\x1cP&\xe3\xc4\xca'
p1858
ssS'create_views_books_tests_test_get_books_list_view'
p1859
(dp1860
g6
(dp1861
g8
S'create_views_books_tests_test_get_books_list_view.html'
p1862
sg10
S'create/views/books/tests/test_get_books_list_view'
p1863
sg12
g13
(g14
g15
NtRp1864
(dp1865
g18
I1
sg19
I0
sg20
I21
sg21
I0
sg22
I0
sg23
I0
sg24
I0
sbssg25
S'\x16\x8f\xf1\x81>\x0f\xb4S\x19\xff\xcd\xc1Y\xe9;\x98'
p1866
ssS'user_system_serializers_schools_classroom_serializer'
p1867
(dp1868
g6
(dp1869
g8
S'user_system_serializers_schools_classroom_serializer.html'
p1870
sg10
S'user_system/serializers/schools/classroom_serializer'
p1871
sg12
g13
(g14
g15
NtRp1872
(dp1873
g18
I1
sg19
I0
sg20
I13
sg21
I0
sg22
I0
sg23
I2
sg24
I0
sbssg25
S'\\\x02 #\xfc|[\xb1g\x7f\x83+\xb6\xaa\x13\x01'
p1874
ssS'create_models_daily_quest_copies_tests___init__'
p1875
(dp1876
g6
(dp1877
g8
S'create_models_daily_quest_copies_tests___init__.html'
p1878
sg10
S'create/models/daily_quest_copies/tests/__init__'
p1879
sg12
g13
(g14
g15
NtRp1880
(dp1881
g18
I1
sg19
I0
sg20
I0
sg21
I0
sg22
I0
sg23
I0
sg24
I0
sbssg25
S'\x19g\xdfM\x1a\x019\xaf\x1baIeR\xe5u\xa7'
p1882
ssS'user_system_serializers_users_user_streak_history_serializer'
p1883
(dp1884
g6
(dp1885
g8
S'user_system_serializers_users_user_streak_history_serializer.html'
p1886
sg10
S'user_system/serializers/users/user_streak_history_serializer'
p1887
sg12
g13
(g14
g15
NtRp1888
(dp1889
g18
I1
sg19
I0
sg20
I7
sg21
I0
sg22
I0
sg23
I0
sg24
I0
sbssg25
S'\xc8\x05\x87\xf4N\xc27/(.\xaf\xf4NliE'
p1890
ssS'create_urls'
p1891
(dp1892
g6
(dp1893
g8
S'create_urls.html'
p1894
sg10
S'create/urls'
p1895
sg12
g13
(g14
g15
NtRp1896
(dp1897
g18
I1
sg19
I0
sg20
I22
sg21
I0
sg22
I0
sg23
I0
sg24
I0
sbssg25
S"k/4\x8e_h\xf3)p'\x8e\x80v\x1e\xbdg"
p1898
ssS'create_views_tags_tests_test_get_tags_list_view'
p1899
(dp1900
g6
(dp1901
g8
S'create_views_tags_tests_test_get_tags_list_view.html'
p1902
sg10
S'create/views/tags/tests/test_get_tags_list_view'
p1903
sg12
g13
(g14
g15
NtRp1904
(dp1905
g18
I1
sg19
I0
sg20
I21
sg21
I0
sg22
I0
sg23
I0
sg24
I0
sbssg25
S'F\xf6yk?\xb2\xc12\x93\x8b\xe6Bx\xa09\x89'
p1906
ssS'create_serializers_tags_tag_serializer'
p1907
(dp1908
g6
(dp1909
g8
S'create_serializers_tags_tag_serializer.html'
p1910
sg10
S'create/serializers/tags/tag_serializer'
p1911
sg12
g13
(g14
g15
NtRp1912
(dp1913
g18
I1
sg19
I0
sg20
I38
sg21
I0
sg22
I0
sg23
I0
sg24
I0
sbssg25
S'\xf7\xa8n\xd6\xf1\xe1\xf8\xaedX\x8e\xfe\ry\xd4\xc3'
p1914
ssS'user_system_models_users_teacher_mapping_model'
p1915
(dp1916
g6
(dp1917
g8
S'user_system_models_users_teacher_mapping_model.html'
p1918
sg10
S'user_system/models/users/teacher_mapping_model'
p1919
sg12
g13
(g14
g15
NtRp1920
(dp1921
g18
I1
sg19
I4
sg20
I26
sg21
I0
sg22
I0
sg23
I0
sg24
I0
sbssg25
S'\xbe\xceOL\xe0\x1eu?\xb0\x7f\x95\x03;\xe1\x12>'
p1922
ssS'create_models_questions___init__'
p1923
(dp1924
g6
(dp1925
g8
S'create_models_questions___init__.html'
p1926
sg10
S'create/models/questions/__init__'
p1927
sg12
g13
(g14
g15
NtRp1928
(dp1929
g18
I1
sg19
I0
sg20
I6
sg21
I0
sg22
I0
sg23
I0
sg24
I0
sbssg25
S'\xd4\xfd\xae\xf0N\xdd-\x07$U\xac\xf1\xc2\x0f\xa5H'
p1930
ssS'create_models_tags_tag_type_model'
p1931
(dp1932
g6
(dp1933
g8
S'create_models_tags_tag_type_model.html'
p1934
sg10
S'create/models/tags/tag_type_model'
p1935
sg12
g13
(g14
g15
NtRp1936
(dp1937
g18
I1
sg19
I0
sg20
I15
sg21
I0
sg22
I0
sg23
I0
sg24
I0
sbssg25
S'\x89\x07\x8e\xc7^0\x96Do\xbf\xa5\xca5\xe4\x92\xeb'
p1938
ssS'create_serializers___init__'
p1939
(dp1940
g6
(dp1941
g8
S'create_serializers___init__.html'
p1942
sg10
S'create/serializers/__init__'
p1943
sg12
g13
(g14
g15
NtRp1944
(dp1945
g18
I1
sg19
I0
sg20
I6
sg21
I0
sg22
I0
sg23
I0
sg24
I0
sbssg25
S'\x97\xc3"\xfe\x83V\xc1w\xa6r\x02s qES'
p1946
ssS'create_serializers_books_book_history_serializer'
p1947
(dp1948
g6
(dp1949
g8
S'create_serializers_books_book_history_serializer.html'
p1950
sg10
S'create/serializers/books/book_history_serializer'
p1951
sg12
g13
(g14
g15
NtRp1952
(dp1953
g18
I1
sg19
I0
sg20
I14
sg21
I0
sg22
I0
sg23
I0
sg24
I0
sbssg25
S'|g\x1e1\xcdq*ob~B\xca\xd92\x8b\x01'
p1954
ssS'teach_views_daily_quest_templates___init__'
p1955
(dp1956
g6
(dp1957
g8
S'teach_views_daily_quest_templates___init__.html'
p1958
sg10
S'teach/views/daily_quest_templates/__init__'
p1959
sg12
g13
(g14
g15
NtRp1960
(dp1961
g18
I1
sg19
I0
sg20
I1
sg21
I0
sg22
I0
sg23
I0
sg24
I0
sbssg25
S'\xc1b\x1f\x95\xabR`C\xe80\xb9tNC\r3'
p1962
ssS'teach___init__'
p1963
(dp1964
g6
(dp1965
g8
S'teach___init__.html'
p1966
sg10
S'teach/__init__'
p1967
sg12
g13
(g14
g15
NtRp1968
(dp1969
g18
I1
sg19
I0
sg20
I0
sg21
I0
sg22
I0
sg23
I0
sg24
I0
sbssg25
S'\x19g\xdfM\x1a\x019\xaf\x1baIeR\xe5u\xa7'
p1970
ssS'user_system_views_users___init__'
p1971
(dp1972
g6
(dp1973
g8
S'user_system_views_users___init__.html'
p1974
sg10
S'user_system/views/users/__init__'
p1975
sg12
g13
(g14
g15
NtRp1976
(dp1977
g18
I1
sg19
I0
sg20
I7
sg21
I0
sg22
I0
sg23
I0
sg24
I0
sbssg25
S']\x15\xfe\xc7\xefw\x97\xcc\x87v\xa2Z\x9b\xb1\x91\xaf'
p1978
ssS'teach_serializers_campaigns___init__'
p1979
(dp1980
g6
(dp1981
g8
S'teach_serializers_campaigns___init__.html'
p1982
sg10
S'teach/serializers/campaigns/__init__'
p1983
sg12
g13
(g14
g15
NtRp1984
(dp1985
g18
I1
sg19
I0
sg20
I1
sg21
I0
sg22
I0
sg23
I0
sg24
I0
sbssg25
S'\x01\xc4\xca\xda\xe9\x9e\x9d%\xea\xa8u\x92u\xc0Yo'
p1986
ssS'api_logging_views_summary_user_activity_summary_view'
p1987
(dp1988
g6
(dp1989
g8
S'api_logging_views_summary_user_activity_summary_view.html'
p1990
sg10
S'api_logging/views/summary/user_activity_summary_view'
p1991
sg12
g13
(g14
g15
NtRp1992
(dp1993
g18
I1
sg19
I8
sg20
I27
sg21
I0
sg22
I0
sg23
I13
sg24
I8
sbssg25
S'\x99\xfc\\\x0e\x10\x840(\x94\xd3(k\x9f\xb4\xd9M'
p1994
ssS'flipped_helpers_tests_test_email_helper'
p1995
(dp1996
g6
(dp1997
g8
S'flipped_helpers_tests_test_email_helper.html'
p1998
sg10
S'flipped/helpers/tests/test_email_helper'
p1999
sg12
g13
(g14
g15
NtRp2000
(dp2001
g18
I1
sg19
I0
sg20
I13
sg21
I0
sg22
I0
sg23
I0
sg24
I0
sbssg25
S'\x13\xee\xcb^E:3A\xff)v\x7f\xd3\xa7\xa2\xaa'
p2002
ssS'user_system_serializers_users___init__'
p2003
(dp2004
g6
(dp2005
g8
S'user_system_serializers_users___init__.html'
p2006
sg10
S'user_system/serializers/users/__init__'
p2007
sg12
g13
(g14
g15
NtRp2008
(dp2009
g18
I1
sg19
I0
sg20
I8
sg21
I0
sg22
I0
sg23
I0
sg24
I0
sbssg25
S'\xb6(Qu\xed\x1eu\xb3\x15,\xae\x0c\xe6>\xe2\x80'
p2010
ssS'user_system_models_schools_tests_test_semester_model'
p2011
(dp2012
g6
(dp2013
g8
S'user_system_models_schools_tests_test_semester_model.html'
p2014
sg10
S'user_system/models/schools/tests/test_semester_model'
p2015
sg12
g13
(g14
g15
NtRp2016
(dp2017
g18
I1
sg19
I0
sg20
I29
sg21
I0
sg22
I0
sg23
I0
sg24
I0
sbssg25
S'\xe9\xd9\xdc\\\xb9\x93\xb1\x93Q\x02\xe9\xb7Y,\xa6w'
p2018
ssS'create_views_quests_tests___init__'
p2019
(dp2020
g6
(dp2021
g8
S'create_views_quests_tests___init__.html'
p2022
sg10
S'create/views/quests/tests/__init__'
p2023
sg12
g13
(g14
g15
NtRp2024
(dp2025
g18
I1
sg19
I0
sg20
I0
sg21
I0
sg22
I0
sg23
I0
sg24
I0
sbssg25
S'\x19g\xdfM\x1a\x019\xaf\x1baIeR\xe5u\xa7'
p2026
ssS'user_system_serializers_schools_course_serializer'
p2027
(dp2028
g6
(dp2029
g8
S'user_system_serializers_schools_course_serializer.html'
p2030
sg10
S'user_system/serializers/schools/course_serializer'
p2031
sg12
g13
(g14
g15
NtRp2032
(dp2033
g18
I1
sg19
I0
sg20
I16
sg21
I0
sg22
I0
sg23
I2
sg24
I0
sbssg25
S'\xb0\xa8O3\x01\xce\xfe3\x12\x94\xc0\xc4\xe0@\xafJ'
p2034
ssS'user_system_views_schools_course_view'
p2035
(dp2036
g6
(dp2037
g8
S'user_system_views_schools_course_view.html'
p2038
sg10
S'user_system/views/schools/course_view'
p2039
sg12
g13
(g14
g15
NtRp2040
(dp2041
g18
I1
sg19
I0
sg20
I17
sg21
I0
sg22
I0
sg23
I0
sg24
I0
sbssg25
S'\xd7\xc8\x06z,\xe1\xceN\xa2.OL]\xcd\xb1\x83'
p2042
ssS'user_system_views_users_tests_test_delete_user_view'
p2043
(dp2044
g6
(dp2045
g8
S'user_system_views_users_tests_test_delete_user_view.html'
p2046
sg10
S'user_system/views/users/tests/test_delete_user_view'
p2047
sg12
g13
(g14
g15
NtRp2048
(dp2049
g18
I1
sg19
I0
sg20
I22
sg21
I0
sg22
I0
sg23
I0
sg24
I0
sbssg25
S'\xe4S$\xa1t\xc6\xbe\xc7\xb9^Y\x05{\x92KQ'
p2050
ssS'learn_models_daily_quests_daily_quest_question_history_model'
p2051
(dp2052
g6
(dp2053
g8
S'learn_models_daily_quests_daily_quest_question_history_model.html'
p2054
sg10
S'learn/models/daily_quests/daily_quest_question_history_model'
p2055
sg12
g13
(g14
g15
NtRp2056
(dp2057
g18
I1
sg19
I8
sg20
I74
sg21
I0
sg22
I1
sg23
I5
sg24
I3
sbssg25
S'\xae\x13\x1b\xcf\xd8xv\xf1\xef\x18\xd4\xe8\xc9fX\xa5'
p2058
ssS'user_system_models_users_user_profile_update_request_model'
p2059
(dp2060
g6
(dp2061
g8
S'user_system_models_users_user_profile_update_request_model.html'
p2062
sg10
S'user_system/models/users/user_profile_update_request_model'
p2063
sg12
g13
(g14
g15
NtRp2064
(dp2065
g18
I1
sg19
I0
sg20
I58
sg21
I0
sg22
I0
sg23
I0
sg24
I0
sbssg25
S'\xc8t\x16>\xb9"\xff\x93\xe3\x00\xa5z0[\xacM'
p2066
ssS'create_models_tags_tag_history_model'
p2067
(dp2068
g6
(dp2069
g8
S'create_models_tags_tag_history_model.html'
p2070
sg10
S'create/models/tags/tag_history_model'
p2071
sg12
g13
(g14
g15
NtRp2072
(dp2073
g18
I1
sg19
I0
sg20
I37
sg21
I0
sg22
I0
sg23
I0
sg24
I0
sbssg25
S'\xae\xc8g\xc1\xf5l<\x1f\x9c\xaf\x17\xf98\r\xa1\xe2'
p2074
ssS'create_models_questions_tests_test_question_template_model'
p2075
(dp2076
g6
(dp2077
g8
S'create_models_questions_tests_test_question_template_model.html'
p2078
sg10
S'create/models/questions/tests/test_question_template_model'
p2079
sg12
g13
(g14
g15
NtRp2080
(dp2081
g18
I1
sg19
I8
sg20
I74
sg21
I0
sg22
I0
sg23
I0
sg24
I0
sbssg25
S"~\xca\x9c'\x89\x11\x82V\xb3v\x0c4]\x9c\xce4"
p2082
ssS'user_system_models_schools_course_model'
p2083
(dp2084
g6
(dp2085
g8
S'user_system_models_schools_course_model.html'
p2086
sg10
S'user_system/models/schools/course_model'
p2087
sg12
g13
(g14
g15
NtRp2088
(dp2089
g18
I1
sg19
I6
sg20
I37
sg21
I0
sg22
I0
sg23
I0
sg24
I0
sbssg25
S']\xfb\xca\\\xbf\x86n\xc3fj\xc2\x1ej\\q\x14'
p2090
ssS'create_models_daily_quest_copies_tests_test_daily_quest_copy_model'
p2091
(dp2092
g6
(dp2093
g8
S'create_models_daily_quest_copies_tests_test_daily_quest_copy_model.html'
p2094
sg10
S'create/models/daily_quest_copies/tests/test_daily_quest_copy_model'
p2095
sg12
g13
(g14
g15
NtRp2096
(dp2097
g18
I1
sg19
I4
sg20
I45
sg21
I0
sg22
I0
sg23
I0
sg24
I0
sbssg25
S'\xcd\xeeU\x8a\xd7\x95\x9e5E\xd0\xaf\xd07\x80\x85\xe0'
p2098
ssS'privilege_views_privileges___init__'
p2099
(dp2100
g6
(dp2101
g8
S'privilege_views_privileges___init__.html'
p2102
sg10
S'privilege/views/privileges/__init__'
p2103
sg12
g13
(g14
g15
NtRp2104
(dp2105
g18
I1
sg19
I0
sg20
I1
sg21
I0
sg22
I0
sg23
I0
sg24
I0
sbssg25
S']\x14S\xdf\xb4:Tx\xb9\x98\x89\xe7\x01%DZ'
p2106
ssS'teach_models_teacher_chapters_teacher_chapter_model'
p2107
(dp2108
g6
(dp2109
g8
S'teach_models_teacher_chapters_teacher_chapter_model.html'
p2110
sg10
S'teach/models/teacher_chapters/teacher_chapter_model'
p2111
sg12
g13
(g14
g15
NtRp2112
(dp2113
g18
I1
sg19
I0
sg20
I23
sg21
I0
sg22
I0
sg23
I0
sg24
I0
sbssg25
S'\x97T&\xd0\x81q\xc2M\xc3\x03\x01U\xf5S!h'
p2114
ssS'create_models_questions_question_template_model'
p2115
(dp2116
g6
(dp2117
g8
S'create_models_questions_question_template_model.html'
p2118
sg10
S'create/models/questions/question_template_model'
p2119
sg12
g13
(g14
g15
NtRp2120
(dp2121
g18
I1
sg19
I0
sg20
I40
sg21
I0
sg22
I0
sg23
I0
sg24
I0
sbssg25
S'\x845gz\x1d\x17\x1dv\x81\n\x96G\x99pE\\'
p2122
ssS'create_views_questions_tests_test_get_question_by_id_view'
p2123
(dp2124
g6
(dp2125
g8
S'create_views_questions_tests_test_get_question_by_id_view.html'
p2126
sg10
S'create/views/questions/tests/test_get_question_by_id_view'
p2127
sg12
g13
(g14
g15
NtRp2128
(dp2129
g18
I1
sg19
I0
sg20
I24
sg21
I0
sg22
I0
sg23
I0
sg24
I0
sbssg25
S'\xa7[\x91\xa9\xa6\xb4\xbd&n$O^O\xec\xf2X'
p2130
ssS'teach_models_teacher_tags_tests___init__'
p2131
(dp2132
g6
(dp2133
g8
S'teach_models_teacher_tags_tests___init__.html'
p2134
sg10
S'teach/models/teacher_tags/tests/__init__'
p2135
sg12
g13
(g14
g15
NtRp2136
(dp2137
g18
I1
sg19
I0
sg20
I0
sg21
I0
sg22
I0
sg23
I0
sg24
I0
sbssg25
S'\x19g\xdfM\x1a\x019\xaf\x1baIeR\xe5u\xa7'
p2138
ssS'create_serializers_quests___init__'
p2139
(dp2140
g6
(dp2141
g8
S'create_serializers_quests___init__.html'
p2142
sg10
S'create/serializers/quests/__init__'
p2143
sg12
g13
(g14
g15
NtRp2144
(dp2145
g18
I1
sg19
I0
sg20
I2
sg21
I0
sg22
I0
sg23
I0
sg24
I0
sbssg25
S'\xc0,Fh\xaf\xa0(\x8f\xde\x02{\x88!\x04\x7f\xb6'
p2146
ssS'api_logging_serializers_LoggingSerializer'
p2147
(dp2148
g6
(dp2149
g8
S'api_logging_serializers_LoggingSerializer.html'
p2150
sg10
S'api_logging/serializers/LoggingSerializer'
p2151
sg12
g13
(g14
g15
NtRp2152
(dp2153
g18
I1
sg19
I0
sg20
I12
sg21
I0
sg22
I0
sg23
I0
sg24
I0
sbssg25
S'1\xdb}\x8eJ\x1a\xe6@D\xcc}\xf4\x11(\x11\xb0'
p2154
ssS'create_views_books_tests_test_remove_subchapter_view'
p2155
(dp2156
g6
(dp2157
g8
S'create_views_books_tests_test_remove_subchapter_view.html'
p2158
sg10
S'create/views/books/tests/test_remove_subchapter_view'
p2159
sg12
g13
(g14
g15
NtRp2160
(dp2161
g18
I1
sg19
I0
sg20
I44
sg21
I0
sg22
I0
sg23
I0
sg24
I0
sbssg25
S'\x0b\xddi\xaa_d\x8c\xf3b\xa2\x12\xbc\xce\xa5\xbf\x8b'
p2162
ssS'create_models_quests_tests_test_quest_history_model'
p2163
(dp2164
g6
(dp2165
g8
S'create_models_quests_tests_test_quest_history_model.html'
p2166
sg10
S'create/models/quests/tests/test_quest_history_model'
p2167
sg12
g13
(g14
g15
NtRp2168
(dp2169
g18
I1
sg19
I8
sg20
I79
sg21
I0
sg22
I0
sg23
I0
sg24
I0
sbssg25
S'##\xeax]g;Ka\xb3\xc0Py,oE'
p2170
ssS'learn_models_points_point_history_model'
p2171
(dp2172
g6
(dp2173
g8
S'learn_models_points_point_history_model.html'
p2174
sg10
S'learn/models/points/point_history_model'
p2175
sg12
g13
(g14
g15
NtRp2176
(dp2177
g18
I1
sg19
I0
sg20
I16
sg21
I0
sg22
I0
sg23
I0
sg24
I0
sbssg25
S'\xa8\xbaH\x19\x11\xbeT\xe2N=\xfe\xed\x9d\xd4\x83\x1e'
p2178
ssS'user_system___init__'
p2179
(dp2180
g6
(dp2181
g8
S'user_system___init__.html'
p2182
sg10
S'user_system/__init__'
p2183
sg12
g13
(g14
g15
NtRp2184
(dp2185
g18
I1
sg19
I0
sg20
I0
sg21
I0
sg22
I0
sg23
I0
sg24
I0
sbssg25
S'\x19g\xdfM\x1a\x019\xaf\x1baIeR\xe5u\xa7'
p2186
ssS'create_models_question_datasets_question_dataset_model'
p2187
(dp2188
g6
(dp2189
g8
S'create_models_question_datasets_question_dataset_model.html'
p2190
sg10
S'create/models/question_datasets/question_dataset_model'
p2191
sg12
g13
(g14
g15
NtRp2192
(dp2193
g18
I1
sg19
I0
sg20
I25
sg21
I0
sg22
I0
sg23
I0
sg24
I0
sbssg25
S'\x9e\x8d\xc6\xe6\xe4\x9f#\xfdc\xc9q\r\x17Y\x8e\xb1'
p2194
ssS'create_views_question_datasets___init__'
p2195
(dp2196
g6
(dp2197
g8
S'create_views_question_datasets___init__.html'
p2198
sg10
S'create/views/question_datasets/__init__'
p2199
sg12
g13
(g14
g15
NtRp2200
(dp2201
g18
I1
sg19
I0
sg20
I1
sg21
I0
sg22
I0
sg23
I0
sg24
I0
sbssg25
S'\x87x\xd1\xbe\x15\xd3\xbc\x99\x86\x08\xf8\x06S\xcf\x00\x87'
p2202
ssS'teach_serializers_daily_quest_templates___init__'
p2203
(dp2204
g6
(dp2205
g8
S'teach_serializers_daily_quest_templates___init__.html'
p2206
sg10
S'teach/serializers/daily_quest_templates/__init__'
p2207
sg12
g13
(g14
g15
NtRp2208
(dp2209
g18
I1
sg19
I0
sg20
I1
sg21
I0
sg22
I0
sg23
I0
sg24
I0
sbssg25
S'\xa2\xd34\x1b\xe2+\x16\xa9un\x8f\xa5\xe6\xc4\\p'
p2210
ssS'learn_models_daily_quests_daily_quest_history_date_group_model'
p2211
(dp2212
g6
(dp2213
g8
S'learn_models_daily_quests_daily_quest_history_date_group_model.html'
p2214
sg10
S'learn/models/daily_quests/daily_quest_history_date_group_model'
p2215
sg12
g13
(g14
g15
NtRp2216
(dp2217
g18
I1
sg19
I0
sg20
I16
sg21
I0
sg22
I0
sg23
I0
sg24
I0
sbssg25
S'\xb5Y\x104a\x19\x18|M\xdd\xbe`bHf\x13'
p2218
ssS'flipped_helpers_email_helper'
p2219
(dp2220
g6
(dp2221
g8
S'flipped_helpers_email_helper.html'
p2222
sg10
S'flipped/helpers/email_helper'
p2223
sg12
g13
(g14
g15
NtRp2224
(dp2225
g18
I1
sg19
I2
sg20
I9
sg21
I0
sg22
I0
sg23
I0
sg24
I0
sbssg25
S"\xeal\t\x03)\xcc\xc4\x0b\r\xe2&\x83a'I\xad"
p2226
ssS'flipped_urls'
p2227
(dp2228
g6
(dp2229
g8
S'flipped_urls.html'
p2230
sg10
S'flipped/urls'
p2231
sg12
g13
(g14
g15
NtRp2232
(dp2233
g18
I1
sg19
I0
sg20
I9
sg21
I0
sg22
I0
sg23
I0
sg24
I0
sbssg25
S'\xcbN{\xd0A\x0b\xa0\xc3\xd4\x8cr\xe3\x1e\x12\x1e\xb0'
p2234
ssS'api_logging_views_user_activities_user_agent_view'
p2235
(dp2236
g6
(dp2237
g8
S'api_logging_views_user_activities_user_agent_view.html'
p2238
sg10
S'api_logging/views/user_activities/user_agent_view'
p2239
sg12
g13
(g14
g15
NtRp2240
(dp2241
g18
I1
sg19
I26
sg20
I68
sg21
I0
sg22
I0
sg23
I50
sg24
I26
sbssg25
S'\xc4\xc5\xa3P\xc7\xa8\xdc\x1b#\x14\xe4\xe7o\x17\xba\x82'
p2242
ssS'teach_views_summaries_daily_quest_summary_view'
p2243
(dp2244
g6
(dp2245
g8
S'teach_views_summaries_daily_quest_summary_view.html'
p2246
sg10
S'teach/views/summaries/daily_quest_summary_view'
p2247
sg12
g13
(g14
g15
NtRp2248
(dp2249
g18
I1
sg19
I28
sg20
I80
sg21
I0
sg22
I0
sg23
I59
sg24
I28
sbssg25
S'\x9fe\xf9\x1c\x8a\xe2\xf4dr\xd6i\xd4\x89\xae\x1b\xf6'
p2250
ssS'user_system_views_users_student_profile_request_view'
p2251
(dp2252
g6
(dp2253
g8
S'user_system_views_users_student_profile_request_view.html'
p2254
sg10
S'user_system/views/users/student_profile_request_view'
p2255
sg12
g13
(g14
g15
NtRp2256
(dp2257
g18
I1
sg19
I0
sg20
I14
sg21
I0
sg22
I0
sg23
I0
sg24
I0
sbssg25
S'\x87:\xd0\xef\x04\xf3-q\r\xe7\xec \xceS\xee<'
p2258
ssS'user_system_views_logins_tests___init__'
p2259
(dp2260
g6
(dp2261
g8
S'user_system_views_logins_tests___init__.html'
p2262
sg10
S'user_system/views/logins/tests/__init__'
p2263
sg12
g13
(g14
g15
NtRp2264
(dp2265
g18
I1
sg19
I0
sg20
I1
sg21
I0
sg22
I0
sg23
I0
sg24
I0
sbssg25
S'\xbc\xd6\xeb\xb3\xba\xcaz\xf7{\xd4B\xb5}l\xdf\x96'
p2266
ssS'api_logging_views_modal_loggings___init__'
p2267
(dp2268
g6
(dp2269
g8
S'api_logging_views_modal_loggings___init__.html'
p2270
sg10
S'api_logging/views/modal_loggings/__init__'
p2271
sg12
g13
(g14
g15
NtRp2272
(dp2273
g18
I1
sg19
I0
sg20
I1
sg21
I0
sg22
I0
sg23
I0
sg24
I0
sbssg25
S'\xf1\x0fWK\x0c\x9eD\xe8\x12\xaf\x93\xfa\xd7q\xa8\x91'
p2274
ssS'user_system_views_users_tests_test_get_users_by_signup_type_view'
p2275
(dp2276
g6
(dp2277
g8
S'user_system_views_users_tests_test_get_users_by_signup_type_view.html'
p2278
sg10
S'user_system/views/users/tests/test_get_users_by_signup_type_view'
p2279
sg12
g13
(g14
g15
NtRp2280
(dp2281
g18
I1
sg19
I0
sg20
I44
sg21
I0
sg22
I0
sg23
I0
sg24
I0
sbssg25
S'T/\xf9\xf8\x94\xd6Lm\x89o\xb6\x99/Z\xc1]'
p2282
ssS'user_system_serializers_users_user_serializer'
p2283
(dp2284
g6
(dp2285
g8
S'user_system_serializers_users_user_serializer.html'
p2286
sg10
S'user_system/serializers/users/user_serializer'
p2287
sg12
g13
(g14
g15
NtRp2288
(dp2289
g18
I1
sg19
I8
sg20
I46
sg21
I0
sg22
I2
sg23
I8
sg24
I6
sbssg25
S'\xb2\xee\xa4\xa6\x8b\xe1\xe1\xce\xaa\xe6\xdd\xbd\xb3\xf2\x81/'
p2290
ssS'create_serializers_daily_quest_copies_daily_quest_copy_serializer'
p2291
(dp2292
g6
(dp2293
g8
S'create_serializers_daily_quest_copies_daily_quest_copy_serializer.html'
p2294
sg10
S'create/serializers/daily_quest_copies/daily_quest_copy_serializer'
p2295
sg12
g13
(g14
g15
NtRp2296
(dp2297
g18
I1
sg19
I0
sg20
I18
sg21
I0
sg22
I0
sg23
I3
sg24
I0
sbssg25
S'\xb6\xc6tAeANu\xae\n4T\xc1.\xe2\xfd'
p2298
ssS'create_models_books_tests_test_book_history_model'
p2299
(dp2300
g6
(dp2301
g8
S'create_models_books_tests_test_book_history_model.html'
p2302
sg10
S'create/models/books/tests/test_book_history_model'
p2303
sg12
g13
(g14
g15
NtRp2304
(dp2305
g18
I1
sg19
I0
sg20
I65
sg21
I0
sg22
I0
sg23
I0
sg24
I0
sbssg25
S'\xedQI\xf5\x17. 8I\x938\xca4\x05=\xf3'
p2306
ssS'user_system_managers_tests_test_user_manager'
p2307
(dp2308
g6
(dp2309
g8
S'user_system_managers_tests_test_user_manager.html'
p2310
sg10
S'user_system/managers/tests/test_user_manager'
p2311
sg12
g13
(g14
g15
NtRp2312
(dp2313
g18
I1
sg19
I22
sg20
I99
sg21
I0
sg22
I1
sg23
I0
sg24
I1
sbssg25
S'ns\xdd\x8c\x1c\x1a\x12Q5\x15\x132\x836o\xe1'
p2314
ssS'create_views_quests_tests_test_remove_question_view'
p2315
(dp2316
g6
(dp2317
g8
S'create_views_quests_tests_test_remove_question_view.html'
p2318
sg10
S'create/views/quests/tests/test_remove_question_view'
p2319
sg12
g13
(g14
g15
NtRp2320
(dp2321
g18
I1
sg19
I0
sg20
I0
sg21
I0
sg22
I0
sg23
I0
sg24
I0
sbssg25
S'\x19g\xdfM\x1a\x019\xaf\x1baIeR\xe5u\xa7'
p2322
ssS'user_system_managers___init__'
p2323
(dp2324
g6
(dp2325
g8
S'user_system_managers___init__.html'
p2326
sg10
S'user_system/managers/__init__'
p2327
sg12
g13
(g14
g15
NtRp2328
(dp2329
g18
I1
sg19
I0
sg20
I2
sg21
I0
sg22
I0
sg23
I0
sg24
I0
sbssg25
S'\xa5\xc9\x8d9\xe4\xb5\xce\xe3R\xccW\x976\xcdI\xa4'
p2330
ssS'teach_models_campaigns_tests_test_campaign_model'
p2331
(dp2332
g6
(dp2333
g8
S'teach_models_campaigns_tests_test_campaign_model.html'
p2334
sg10
S'teach/models/campaigns/tests/test_campaign_model'
p2335
sg12
g13
(g14
g15
NtRp2336
(dp2337
g18
I1
sg19
I0
sg20
I43
sg21
I0
sg22
I0
sg23
I0
sg24
I0
sbssg25
S"\x1b\xbbi{\xe8\xa9o\xd3w\xfb'\x1e\xca\x1b\xd9\xc7"
p2338
ssS'api_logging_views_modal_loggings_modal_user_history_view'
p2339
(dp2340
g6
(dp2341
g8
S'api_logging_views_modal_loggings_modal_user_history_view.html'
p2342
sg10
S'api_logging/views/modal_loggings/modal_user_history_view'
p2343
sg12
g13
(g14
g15
NtRp2344
(dp2345
g18
I1
sg19
I0
sg20
I12
sg21
I0
sg22
I0
sg23
I0
sg24
I0
sbssg25
S'\xe0g\x1c\xea/\xf3m\xa8\x9d\x1f7\xba\x82w\x88\x9c'
p2346
ssS'user_system_views_logins_tests_test_email_login_view'
p2347
(dp2348
g6
(dp2349
g8
S'user_system_views_logins_tests_test_email_login_view.html'
p2350
sg10
S'user_system/views/logins/tests/test_email_login_view'
p2351
sg12
g13
(g14
g15
NtRp2352
(dp2353
g18
I1
sg19
I0
sg20
I61
sg21
I0
sg22
I0
sg23
I0
sg24
I0
sbssg25
S'\x926\xe8\xcdL\xf3U\xc1C\x1b\x0f\xaf\xf0c\x9b\xd0'
p2354
ssS'create_views_books_book_chapter_view'
p2355
(dp2356
g6
(dp2357
g8
S'create_views_books_book_chapter_view.html'
p2358
sg10
S'create/views/books/book_chapter_view'
p2359
sg12
g13
(g14
g15
NtRp2360
(dp2361
g18
I1
sg19
I12
sg20
I44
sg21
I0
sg22
I0
sg23
I22
sg24
I12
sbssg25
S'\x0b3\xd8 \xe1\x08#79\x0c\x7f\x1f6\xad0\xe9'
p2362
ssS'create_views___init__'
p2363
(dp2364
g6
(dp2365
g8
S'create_views___init__.html'
p2366
sg10
S'create/views/__init__'
p2367
sg12
g13
(g14
g15
NtRp2368
(dp2369
g18
I1
sg19
I0
sg20
I7
sg21
I0
sg22
I0
sg23
I0
sg24
I0
sbssg25
S'\x8f\x98\x9b$~\xde\xc2\xfc\x97/\x14^\xe8\xf8\x10M'
p2370
ssS'api_logging_serializers_user_activities_user_agent_serializer'
p2371
(dp2372
g6
(dp2373
g8
S'api_logging_serializers_user_activities_user_agent_serializer.html'
p2374
sg10
S'api_logging/serializers/user_activities/user_agent_serializer'
p2375
sg12
g13
(g14
g15
NtRp2376
(dp2377
g18
I1
sg19
I0
sg20
I7
sg21
I0
sg22
I0
sg23
I0
sg24
I0
sbssg25
S'\x03\x03.3u\r\xc1\x91\xbc\xba/Kv4\xa5\x85'
p2378
ssS'user_system_serializers_users_student_profile_serializer'
p2379
(dp2380
g6
(dp2381
g8
S'user_system_serializers_users_student_profile_serializer.html'
p2382
sg10
S'user_system/serializers/users/student_profile_serializer'
p2383
sg12
g13
(g14
g15
NtRp2384
(dp2385
g18
I1
sg19
I0
sg20
I17
sg21
I0
sg22
I0
sg23
I4
sg24
I0
sbssg25
S'\xc4\x88\x8d\xdd\xa1\xf5H \xfeB\xa4<!8\x8c\x9e'
p2386
ssS'api_logging_models_modal_logging___init__'
p2387
(dp2388
g6
(dp2389
g8
S'api_logging_models_modal_logging___init__.html'
p2390
sg10
S'api_logging/models/modal_logging/__init__'
p2391
sg12
g13
(g14
g15
NtRp2392
(dp2393
g18
I1
sg19
I0
sg20
I2
sg21
I0
sg22
I0
sg23
I0
sg24
I0
sbssg25
S"+\x16\xa4\xd1\xf5m\xa9\x9e*\xd0\xa23O'}-"
p2394
ssS'flipped_helpers_errors_helper'
p2395
(dp2396
g6
(dp2397
g8
S'flipped_helpers_errors_helper.html'
p2398
sg10
S'flipped/helpers/errors_helper'
p2399
sg12
g13
(g14
g15
NtRp2400
(dp2401
g18
I1
sg19
I0
sg20
I5
sg21
I0
sg22
I0
sg23
I0
sg24
I0
sbssg25
S'\x91\x04\x1c\xf86c\xad\xf7\xe3\xf13\xf5n8eP'
p2402
ssS'teach_views_teacher_tags_teacher_tag_view'
p2403
(dp2404
g6
(dp2405
g8
S'teach_views_teacher_tags_teacher_tag_view.html'
p2406
sg10
S'teach/views/teacher_tags/teacher_tag_view'
p2407
sg12
g13
(g14
g15
NtRp2408
(dp2409
g18
I1
sg19
I20
sg20
I55
sg21
I0
sg22
I2
sg23
I30
sg24
I18
sbssg25
S'\xd6\xdf\xb7\xf7\xc0\x9b\xae\x8c\x81\x0f\x89C\xb0k\xaf\xd5'
p2410
ssS'create_models_questions_tests_test_question_history_model'
p2411
(dp2412
g6
(dp2413
g8
S'create_models_questions_tests_test_question_history_model.html'
p2414
sg10
S'create/models/questions/tests/test_question_history_model'
p2415
sg12
g13
(g14
g15
NtRp2416
(dp2417
g18
I1
sg19
I2
sg20
I73
sg21
I0
sg22
I0
sg23
I0
sg24
I0
sbssg25
S'i\xd4 \xdcI\x9f\xbc\x0c|\x95\x15wW\xb4\xa9\x15'
p2418
ssS'user_system_models_apps_app_model'
p2419
(dp2420
g6
(dp2421
g8
S'user_system_models_apps_app_model.html'
p2422
sg10
S'user_system/models/apps/app_model'
p2423
sg12
g13
(g14
g15
NtRp2424
(dp2425
g18
I1
sg19
I0
sg20
I16
sg21
I0
sg22
I0
sg23
I0
sg24
I0
sbssg25
S',\x89\x9d;<\xa3\xdc\x92@\xa5\x9c\x7fcg\x05?'
p2426
ssS'create_views_questions_tests___init__'
p2427
(dp2428
g6
(dp2429
g8
S'create_views_questions_tests___init__.html'
p2430
sg10
S'create/views/questions/tests/__init__'
p2431
sg12
g13
(g14
g15
NtRp2432
(dp2433
g18
I1
sg19
I0
sg20
I0
sg21
I0
sg22
I0
sg23
I0
sg24
I0
sbssg25
S'\x19g\xdfM\x1a\x019\xaf\x1baIeR\xe5u\xa7'
p2434
ssS'flipped___init__'
p2435
(dp2436
g6
(dp2437
g8
S'flipped___init__.html'
p2438
sg10
S'flipped/__init__'
p2439
sg12
g13
(g14
g15
NtRp2440
(dp2441
g18
I1
sg19
I0
sg20
I0
sg21
I0
sg22
I0
sg23
I0
sg24
I0
sbssg25
S'\x19g\xdfM\x1a\x019\xaf\x1baIeR\xe5u\xa7'
p2442
ssS'user_system_views_roles___init__'
p2443
(dp2444
g6
(dp2445
g8
S'user_system_views_roles___init__.html'
p2446
sg10
S'user_system/views/roles/__init__'
p2447
sg12
g13
(g14
g15
NtRp2448
(dp2449
g18
I1
sg19
I0
sg20
I1
sg21
I0
sg22
I0
sg23
I0
sg24
I0
sbssg25
S'\xeb\x15\r\x85I\x9e<\xbc\x15\xd1P\xef\x16\x8c\xe0l'
p2450
ssS'teach_views_summaries___init__'
p2451
(dp2452
g6
(dp2453
g8
S'teach_views_summaries___init__.html'
p2454
sg10
S'teach/views/summaries/__init__'
p2455
sg12
g13
(g14
g15
NtRp2456
(dp2457
g18
I1
sg19
I0
sg20
I6
sg21
I0
sg22
I0
sg23
I0
sg24
I0
sbssg25
S'\xf1\xa7@\xae\xc1+T\x8d\tr\xacb\x91s,\xbf'
p2458
ssS'user_system_models_users_user_profile_history_model'
p2459
(dp2460
g6
(dp2461
g8
S'user_system_models_users_user_profile_history_model.html'
p2462
sg10
S'user_system/models/users/user_profile_history_model'
p2463
sg12
g13
(g14
g15
NtRp2464
(dp2465
g18
I1
sg19
I4
sg20
I72
sg21
I0
sg22
I2
sg23
I12
sg24
I2
sbssg25
S'\x9a\x0c\xe2p\x8b\xee\x01\x87\xfd\x81\xb4\x9bzp\x90\xb6'
p2466
ssS'teach_admin'
p2467
(dp2468
g6
(dp2469
g8
S'teach_admin.html'
p2470
sg10
S'teach/admin'
p2471
sg12
g13
(g14
g15
NtRp2472
(dp2473
g18
I1
sg19
I0
sg20
I6
sg21
I0
sg22
I0
sg23
I0
sg24
I0
sbssg25
S'\xa5$\xa3\xb8$\xe4Z\x9b\xcbO\x9f\xc1\x02b\x95N'
p2474
ssS'user_system_views_users_user_view'
p2475
(dp2476
g6
(dp2477
g8
S'user_system_views_users_user_view.html'
p2478
sg10
S'user_system/views/users/user_view'
p2479
sg12
g13
(g14
g15
NtRp2480
(dp2481
g18
I1
sg19
I66
sg20
I191
sg21
I0
sg22
I0
sg23
I110
sg24
I44
sbssg25
S'\xc15\x8d)\x8f\xca@r\xd5%m#\x11{\x13\x9b'
p2482
ssS'teach_views_campaigns___init__'
p2483
(dp2484
g6
(dp2485
g8
S'teach_views_campaigns___init__.html'
p2486
sg10
S'teach/views/campaigns/__init__'
p2487
sg12
g13
(g14
g15
NtRp2488
(dp2489
g18
I1
sg19
I0
sg20
I1
sg21
I0
sg22
I0
sg23
I0
sg24
I0
sbssg25
S'\xdd3^z\xa4\xd5\x95X\x1fk\x83<\xed@\x053'
p2490
ssS'teach_models_daily_quest_templates_tests_test_daily_quest_template_model'
p2491
(dp2492
g6
(dp2493
g8
S'teach_models_daily_quest_templates_tests_test_daily_quest_template_model.html'
p2494
sg10
S'teach/models/daily_quest_templates/tests/test_daily_quest_template_model'
p2495
sg12
g13
(g14
g15
NtRp2496
(dp2497
g18
I1
sg19
I0
sg20
I37
sg21
I0
sg22
I0
sg23
I0
sg24
I0
sbssg25
S'\x01\x04)\xffw\x13\x9aqx\xb2\x9f\x02\xb0\x90\xf3\xa5'
p2498
ssS'user_system_views_apps___init__'
p2499
(dp2500
g6
(dp2501
g8
S'user_system_views_apps___init__.html'
p2502
sg10
S'user_system/views/apps/__init__'
p2503
sg12
g13
(g14
g15
NtRp2504
(dp2505
g18
I1
sg19
I0
sg20
I1
sg21
I0
sg22
I0
sg23
I0
sg24
I0
sbssg25
S'?:\xf2A\xfa^]\xc5NR\xc9\x13\xb0\xe4\xfa\x9e'
p2506
ssS'user_system_views_users_tests_test_get_users_list_view'
p2507
(dp2508
g6
(dp2509
g8
S'user_system_views_users_tests_test_get_users_list_view.html'
p2510
sg10
S'user_system/views/users/tests/test_get_users_list_view'
p2511
sg12
g13
(g14
g15
NtRp2512
(dp2513
g18
I1
sg19
I0
sg20
I34
sg21
I0
sg22
I0
sg23
I0
sg24
I0
sbssg25
S'\xf5\xe3\x1a\x14e\xf8\xc2\xf0\xa8^$\xf7\x9dv\xb8f'
p2514
ssS'create_models_questions_question_type_model'
p2515
(dp2516
g6
(dp2517
g8
S'create_models_questions_question_type_model.html'
p2518
sg10
S'create/models/questions/question_type_model'
p2519
sg12
g13
(g14
g15
NtRp2520
(dp2521
g18
I1
sg19
I0
sg20
I19
sg21
I0
sg22
I0
sg23
I0
sg24
I0
sbssg25
S'\xb9\xe7I\x93\x8b\xa8\xa8H\x80\x02_\xf9\x87\xa2\xe7\xa5'
p2522
ssS'user_system_managers_tests___init__'
p2523
(dp2524
g6
(dp2525
g8
S'user_system_managers_tests___init__.html'
p2526
sg10
S'user_system/managers/tests/__init__'
p2527
sg12
g13
(g14
g15
NtRp2528
(dp2529
g18
I1
sg19
I0
sg20
I0
sg21
I0
sg22
I0
sg23
I0
sg24
I0
sbssg25
S'\x19g\xdfM\x1a\x019\xaf\x1baIeR\xe5u\xa7'
p2530
ssS'privilege_models_privileges___init__'
p2531
(dp2532
g6
(dp2533
g8
S'privilege_models_privileges___init__.html'
p2534
sg10
S'privilege/models/privileges/__init__'
p2535
sg12
g13
(g14
g15
NtRp2536
(dp2537
g18
I1
sg19
I0
sg20
I2
sg21
I0
sg22
I0
sg23
I0
sg24
I0
sbssg25
S'\x14\x97Z\xa7<\xbd\xe6Z\xa0jIA\xc0I\xfd"'
p2538
ssS'teach_views_summaries_student_list_summary'
p2539
(dp2540
g6
(dp2541
g8
S'teach_views_summaries_student_list_summary.html'
p2542
sg10
S'teach/views/summaries/student_list_summary'
p2543
sg12
g13
(g14
g15
NtRp2544
(dp2545
g18
I1
sg19
I26
sg20
I81
sg21
I0
sg22
I0
sg23
I63
sg24
I26
sbssg25
S'\xda\xf7OS:~\xa2A*P\xcb5B_\xa5\xac'
p2546
ssS'user_system_models_schools_tests_test_classroom_model'
p2547
(dp2548
g6
(dp2549
g8
S'user_system_models_schools_tests_test_classroom_model.html'
p2550
sg10
S'user_system/models/schools/tests/test_classroom_model'
p2551
sg12
g13
(g14
g15
NtRp2552
(dp2553
g18
I1
sg19
I0
sg20
I31
sg21
I0
sg22
I0
sg23
I0
sg24
I0
sbssg25
S'\xfd\xfd\xa2\x92;\xc3\xaa\x06D\x93\xddbD\xda\xa2\x1e'
p2554
ssS'user_system_views_schools_school_view'
p2555
(dp2556
g6
(dp2557
g8
S'user_system_views_schools_school_view.html'
p2558
sg10
S'user_system/views/schools/school_view'
p2559
sg12
g13
(g14
g15
NtRp2560
(dp2561
g18
I1
sg19
I0
sg20
I16
sg21
I0
sg22
I0
sg23
I0
sg24
I0
sbssg25
S'\xc8\x0b\xef\x9e86\xe5\x19\xaa\x9e\x93+\x03\xfb\x98\x99'
p2562
ssS'learn_models_points_point_type_model'
p2563
(dp2564
g6
(dp2565
g8
S'learn_models_points_point_type_model.html'
p2566
sg10
S'learn/models/points/point_type_model'
p2567
sg12
g13
(g14
g15
NtRp2568
(dp2569
g18
I1
sg19
I0
sg20
I20
sg21
I0
sg22
I0
sg23
I0
sg24
I0
sbssg25
S'\x84\x1b\x18\n\xa9\xae\xe5\xd57\xa7}h\xdaD\x19+'
p2570
ssS'user_system_models_roles_tests_test_role_app_model'
p2571
(dp2572
g6
(dp2573
g8
S'user_system_models_roles_tests_test_role_app_model.html'
p2574
sg10
S'user_system/models/roles/tests/test_role_app_model'
p2575
sg12
g13
(g14
g15
NtRp2576
(dp2577
g18
I1
sg19
I0
sg20
I21
sg21
I0
sg22
I0
sg23
I0
sg24
I0
sbssg25
S"\x80\xd7v\xbb\xe5d.\xeb\xfd\xc4\x04\xb2\x04'\xc6V"
p2578
ssS'user_system_views_schools_grade_view'
p2579
(dp2580
g6
(dp2581
g8
S'user_system_views_schools_grade_view.html'
p2582
sg10
S'user_system/views/schools/grade_view'
p2583
sg12
g13
(g14
g15
NtRp2584
(dp2585
g18
I1
sg19
I0
sg20
I16
sg21
I0
sg22
I0
sg23
I0
sg24
I0
sbssg25
S'_i&b\x01\x08$\xe7\xbe\nW\x92\x80\x97\xf1Q'
p2586
ssS'create_serializers_question_datasets_question_dataset_serializer'
p2587
(dp2588
g6
(dp2589
g8
S'create_serializers_question_datasets_question_dataset_serializer.html'
p2590
sg10
S'create/serializers/question_datasets/question_dataset_serializer'
p2591
sg12
g13
(g14
g15
NtRp2592
(dp2593
g18
I1
sg19
I0
sg20
I6
sg21
I0
sg22
I0
sg23
I0
sg24
I0
sbssg25
S'\x1e}6\x82\x0c\x96\xdb\x00{jK\xdb\xc0\x8c\x97\xcd'
p2594
ssS'privilege_models_privileges_user_privilege_model'
p2595
(dp2596
g6
(dp2597
g8
S'privilege_models_privileges_user_privilege_model.html'
p2598
sg10
S'privilege/models/privileges/user_privilege_model'
p2599
sg12
g13
(g14
g15
NtRp2600
(dp2601
g18
I1
sg19
I0
sg20
I17
sg21
I0
sg22
I0
sg23
I1
sg24
I0
sbssg25
S'\xe4\xbfo\xb6Sy\xef\x85\xf2\xf3=\xf3\xc3\xc0\xc9\xc6'
p2602
ssS'create_views_questions_question_template_view'
p2603
(dp2604
g6
(dp2605
g8
S'create_views_questions_question_template_view.html'
p2606
sg10
S'create/views/questions/question_template_view'
p2607
sg12
g13
(g14
g15
NtRp2608
(dp2609
g18
I1
sg19
I40
sg20
I115
sg21
I0
sg22
I0
sg23
I86
sg24
I40
sbssg25
S'\x15\xd2EN\xe9c\xe5\x17\xc5Fh\x02\x1a\xd3\xc4*'
p2610
ssS'create_serializers_quests_quest_serializer'
p2611
(dp2612
g6
(dp2613
g8
S'create_serializers_quests_quest_serializer.html'
p2614
sg10
S'create/serializers/quests/quest_serializer'
p2615
sg12
g13
(g14
g15
NtRp2616
(dp2617
g18
I1
sg19
I0
sg20
I50
sg21
I0
sg22
I0
sg23
I15
sg24
I0
sbssg25
S'\x96:\xdf\x9a\x02\xee\xf5\x97F[z\x16p\x8f\x08\xb2'
p2618
ssS'create_views_summary_create_summary_view'
p2619
(dp2620
g6
(dp2621
g8
S'create_views_summary_create_summary_view.html'
p2622
sg10
S'create/views/summary/create_summary_view'
p2623
sg12
g13
(g14
g15
NtRp2624
(dp2625
g18
I1
sg19
I0
sg20
I59
sg21
I0
sg22
I0
sg23
I48
sg24
I0
sbssg25
S"'\xfe\xf4\x8c\xed2\xc3\x18\xf6\x85\x1f\xb0\xf0G\xb7\x8f"
p2626
ssS'create_serializers_books_book_serializer'
p2627
(dp2628
g6
(dp2629
g8
S'create_serializers_books_book_serializer.html'
p2630
sg10
S'create/serializers/books/book_serializer'
p2631
sg12
g13
(g14
g15
NtRp2632
(dp2633
g18
I1
sg19
I0
sg20
I25
sg21
I0
sg22
I0
sg23
I0
sg24
I0
sbssg25
S"o\r\r\x1e8\xe6\xa9\xd1\x83X.\xcf1\x98\xa3'"
p2634
ssS'user_system_models_schools_tests___init__'
p2635
(dp2636
g6
(dp2637
g8
S'user_system_models_schools_tests___init__.html'
p2638
sg10
S'user_system/models/schools/tests/__init__'
p2639
sg12
g13
(g14
g15
NtRp2640
(dp2641
g18
I1
sg19
I0
sg20
I0
sg21
I0
sg22
I0
sg23
I0
sg24
I0
sbssg25
S'\x19g\xdfM\x1a\x019\xaf\x1baIeR\xe5u\xa7'
p2642
ssS'user_system_models_users_tests_test_user_profile_picture_model'
p2643
(dp2644
g6
(dp2645
g8
S'user_system_models_users_tests_test_user_profile_picture_model.html'
p2646
sg10
S'user_system/models/users/tests/test_user_profile_picture_model'
p2647
sg12
g13
(g14
g15
NtRp2648
(dp2649
g18
I1
sg19
I0
sg20
I21
sg21
I0
sg22
I0
sg23
I0
sg24
I0
sbssg25
S'\xbc/\x93\xf6\x8a\x1eC\x99t\xd0\xdc\x96\xf8\x970\xc9'
p2650
ssS'privilege_serializers_privileges___init__'
p2651
(dp2652
g6
(dp2653
g8
S'privilege_serializers_privileges___init__.html'
p2654
sg10
S'privilege/serializers/privileges/__init__'
p2655
sg12
g13
(g14
g15
NtRp2656
(dp2657
g18
I1
sg19
I0
sg20
I2
sg21
I0
sg22
I0
sg23
I0
sg24
I0
sbssg25
S'\x1f\xd4u<\xf4\x9bW\xb0\xa9\xd2\xc1\x06\x14`C\xc6'
p2658
ssS'create___init__'
p2659
(dp2660
g6
(dp2661
g8
S'create___init__.html'
p2662
sg10
S'create/__init__'
p2663
sg12
g13
(g14
g15
NtRp2664
(dp2665
g18
I1
sg19
I0
sg20
I0
sg21
I0
sg22
I0
sg23
I0
sg24
I0
sbssg25
S'\x19g\xdfM\x1a\x019\xaf\x1baIeR\xe5u\xa7'
p2666
ssS'user_system_serializers_schools_school_serializer'
p2667
(dp2668
g6
(dp2669
g8
S'user_system_serializers_schools_school_serializer.html'
p2670
sg10
S'user_system/serializers/schools/school_serializer'
p2671
sg12
g13
(g14
g15
NtRp2672
(dp2673
g18
I1
sg19
I0
sg20
I9
sg21
I0
sg22
I0
sg23
I0
sg24
I0
sbssg25
S'_\x0c\x17V\x00H\x8f\xc9x\xe5I\xcb\t\x08\xb9/'
p2674
ssS'user_system_models_users_tests_test_user_profile_update_request_model'
p2675
(dp2676
g6
(dp2677
g8
S'user_system_models_users_tests_test_user_profile_update_request_model.html'
p2678
sg10
S'user_system/models/users/tests/test_user_profile_update_request_model'
p2679
sg12
g13
(g14
g15
NtRp2680
(dp2681
g18
I1
sg19
I0
sg20
I56
sg21
I0
sg22
I0
sg23
I0
sg24
I0
sbssg25
S'U\ng\x0eY\xe2\xc0a\x07f\xb4\x9bFP\x14\x86'
p2682
ssS'user_system_views_users_tests_test_add_role_view'
p2683
(dp2684
g6
(dp2685
g8
S'user_system_views_users_tests_test_add_role_view.html'
p2686
sg10
S'user_system/views/users/tests/test_add_role_view'
p2687
sg12
g13
(g14
g15
NtRp2688
(dp2689
g18
I1
sg19
I0
sg20
I36
sg21
I0
sg22
I0
sg23
I0
sg24
I0
sbssg25
S'\x0eh\xf7\xba\x08_N\xdeM\xdf\x03\xbd\x8c\x8a\x89\xd0'
p2690
ssS'learn_urls'
p2691
(dp2692
g6
(dp2693
g8
S'learn_urls.html'
p2694
sg10
S'learn/urls'
p2695
sg12
g13
(g14
g15
NtRp2696
(dp2697
g18
I1
sg19
I0
sg20
I9
sg21
I0
sg22
I0
sg23
I0
sg24
I0
sbssg25
S'l\xce\xea\r\x18\x86\xf7\x9f\xb7]\xc1\x1d\xf0\x1a\xa2x'
p2698
ssS'api_logging___init__'
p2699
(dp2700
g6
(dp2701
g8
S'api_logging___init__.html'
p2702
sg10
S'api_logging/__init__'
p2703
sg12
g13
(g14
g15
NtRp2704
(dp2705
g18
I1
sg19
I0
sg20
I0
sg21
I0
sg22
I0
sg23
I0
sg24
I0
sbssg25
S'\x19g\xdfM\x1a\x019\xaf\x1baIeR\xe5u\xa7'
p2706
ssS'learn_serializers_daily_quests___init__'
p2707
(dp2708
g6
(dp2709
g8
S'learn_serializers_daily_quests___init__.html'
p2710
sg10
S'learn/serializers/daily_quests/__init__'
p2711
sg12
g13
(g14
g15
NtRp2712
(dp2713
g18
I1
sg19
I0
sg20
I3
sg21
I0
sg22
I0
sg23
I0
sg24
I0
sbssg25
S'\xbdN\xd5Q7o\x96QS\xc9E\xb9%\\\xb41'
p2714
ssS'create_views_questions_question_view'
p2715
(dp2716
g6
(dp2717
g8
S'create_views_questions_question_view.html'
p2718
sg10
S'create/views/questions/question_view'
p2719
sg12
g13
(g14
g15
NtRp2720
(dp2721
g18
I1
sg19
I34
sg20
I113
sg21
I0
sg22
I1
sg23
I40
sg24
I21
sbssg25
S'x\x1b\xf3\x9b\x13Z\xdalU\x8bJ\x89\xb3qc\x8d'
p2722
ssS'create_views_quests_tests_test_add_question_view'
p2723
(dp2724
g6
(dp2725
g8
S'create_views_quests_tests_test_add_question_view.html'
p2726
sg10
S'create/views/quests/tests/test_add_question_view'
p2727
sg12
g13
(g14
g15
NtRp2728
(dp2729
g18
I1
sg19
I0
sg20
I0
sg21
I0
sg22
I0
sg23
I0
sg24
I0
sbssg25
S'\x19g\xdfM\x1a\x019\xaf\x1baIeR\xe5u\xa7'
p2730
ssS'create_models_daily_quest_copies___init__'
p2731
(dp2732
g6
(dp2733
g8
S'create_models_daily_quest_copies___init__.html'
p2734
sg10
S'create/models/daily_quest_copies/__init__'
p2735
sg12
g13
(g14
g15
NtRp2736
(dp2737
g18
I1
sg19
I0
sg20
I1
sg21
I0
sg22
I0
sg23
I0
sg24
I0
sbssg25
S'\xee\xef\xb8!Z;\x9e_\xb5g4\xe9\xac@l\xe6'
p2738
ssS'create_models_books_tests___init__'
p2739
(dp2740
g6
(dp2741
g8
S'create_models_books_tests___init__.html'
p2742
sg10
S'create/models/books/tests/__init__'
p2743
sg12
g13
(g14
g15
NtRp2744
(dp2745
g18
I1
sg19
I0
sg20
I0
sg21
I0
sg22
I0
sg23
I0
sg24
I0
sbssg25
S'\x19g\xdfM\x1a\x019\xaf\x1baIeR\xe5u\xa7'
p2746
ssS'user_system_views_apps_app_view'
p2747
(dp2748
g6
(dp2749
g8
S'user_system_views_apps_app_view.html'
p2750
sg10
S'user_system/views/apps/app_view'
p2751
sg12
g13
(g14
g15
NtRp2752
(dp2753
g18
I1
sg19
I0
sg20
I13
sg21
I0
sg22
I0
sg23
I0
sg24
I0
sbssg25
S'\xf7n\xffX\xe7\xd2\xb6\xa5\xc5\xe5\x96\x13\xf4\x9c\xac\x1e'
p2754
ssS'learn_serializers_daily_quests_daily_quest_history_date_group_serializer'
p2755
(dp2756
g6
(dp2757
g8
S'learn_serializers_daily_quests_daily_quest_history_date_group_serializer.html'
p2758
sg10
S'learn/serializers/daily_quests/daily_quest_history_date_group_serializer'
p2759
sg12
g13
(g14
g15
NtRp2760
(dp2761
g18
I1
sg19
I0
sg20
I19
sg21
I0
sg22
I0
sg23
I0
sg24
I0
sbssg25
S'\x88\xa94\xf4l\xe7\x98\xab\x84\xebTm\xe8\xdag\x17'
p2762
ssS'user_system_managers_streak_manager'
p2763
(dp2764
g6
(dp2765
g8
S'user_system_managers_streak_manager.html'
p2766
sg10
S'user_system/managers/streak_manager'
p2767
sg12
g13
(g14
g15
NtRp2768
(dp2769
g18
I1
sg19
I30
sg20
I66
sg21
I0
sg22
I2
sg23
I48
sg24
I28
sbssg25
S'9\x9e\xa2\xbd\x80\x8b\xa4\xb3N>\xb8ZsW\xe8\xd0'
p2770
ssS'user_system_views_signups_map_demo_signup_view'
p2771
(dp2772
g6
(dp2773
g8
S'user_system_views_signups_map_demo_signup_view.html'
p2774
sg10
S'user_system/views/signups/map_demo_signup_view'
p2775
sg12
g13
(g14
g15
NtRp2776
(dp2777
g18
I1
sg19
I18
sg20
I134
sg21
I0
sg22
I0
sg23
I115
sg24
I18
sbssg25
S"\xc8(\xb1Q\xfb\xb0\xdfc\x94\xe2\x99\r\xb4'G["
p2778
ssS'learn_views_student_news_feed_student_news_feed_view'
p2779
(dp2780
g6
(dp2781
g8
S'learn_views_student_news_feed_student_news_feed_view.html'
p2782
sg10
S'learn/views/student_news_feed/student_news_feed_view'
p2783
sg12
g13
(g14
g15
NtRp2784
(dp2785
g18
I1
sg19
I14
sg20
I64
sg21
I0
sg22
I0
sg23
I43
sg24
I14
sbssg25
S'$\x9f\xf4\xd0\x91\x0e\xf7\xe7\xb3\x8b\x1f\x87S:\xa0\xec'
p2786
ssS'user_system_models_schools_tests_test_academic_year_model'
p2787
(dp2788
g6
(dp2789
g8
S'user_system_models_schools_tests_test_academic_year_model.html'
p2790
sg10
S'user_system/models/schools/tests/test_academic_year_model'
p2791
sg12
g13
(g14
g15
NtRp2792
(dp2793
g18
I1
sg19
I0
sg20
I28
sg21
I0
sg22
I0
sg23
I0
sg24
I0
sbssg25
S'{=\xee\xbc8\xbd\xa7\xdd\x0f!3\xf8\xf0os\xe2'
p2794
ssS'learn_serializers_daily_quests_daily_quest_question_history_serializer'
p2795
(dp2796
g6
(dp2797
g8
S'learn_serializers_daily_quests_daily_quest_question_history_serializer.html'
p2798
sg10
S'learn/serializers/daily_quests/daily_quest_question_history_serializer'
p2799
sg12
g13
(g14
g15
NtRp2800
(dp2801
g18
I1
sg19
I0
sg20
I8
sg21
I0
sg22
I0
sg23
I0
sg24
I0
sbssg25
S'q$\xc8~\x9a\xbb\x03\x1a\x12[aG\x9a\x87\xc6\x0c'
p2802
ssS'api_logging_serializers_modal_loggings___init__'
p2803
(dp2804
g6
(dp2805
g8
S'api_logging_serializers_modal_loggings___init__.html'
p2806
sg10
S'api_logging/serializers/modal_loggings/__init__'
p2807
sg12
g13
(g14
g15
NtRp2808
(dp2809
g18
I1
sg19
I0
sg20
I1
sg21
I0
sg22
I0
sg23
I0
sg24
I0
sbssg25
S'\xff)\x01pU0i\x848\xea\xfc\x08\x0b\x0bS\xa4'
p2810
ssS'user_system_models_schools_grade_model'
p2811
(dp2812
g6
(dp2813
g8
S'user_system_models_schools_grade_model.html'
p2814
sg10
S'user_system/models/schools/grade_model'
p2815
sg12
g13
(g14
g15
NtRp2816
(dp2817
g18
I1
sg19
I0
sg20
I29
sg21
I0
sg22
I0
sg23
I0
sg24
I0
sbssg25
S'\xc4\x17\xf7\xf5n\x1b\x199\xa5j\xf1\x14\xd0\xbb Z'
p2818
ssS'user_system_serializers_schools___init__'
p2819
(dp2820
g6
(dp2821
g8
S'user_system_serializers_schools___init__.html'
p2822
sg10
S'user_system/serializers/schools/__init__'
p2823
sg12
g13
(g14
g15
NtRp2824
(dp2825
g18
I1
sg19
I0
sg20
I5
sg21
I0
sg22
I0
sg23
I0
sg24
I0
sbssg25
S'8yN\xa2\x98\xe3%\xd4\xe2\xfd\xf2@\xcc\xa7\x02\xdb'
p2826
ssS'create_serializers_questions_question_choice_serializer'
p2827
(dp2828
g6
(dp2829
g8
S'create_serializers_questions_question_choice_serializer.html'
p2830
sg10
S'create/serializers/questions/question_choice_serializer'
p2831
sg12
g13
(g14
g15
NtRp2832
(dp2833
g18
I1
sg19
I0
sg20
I10
sg21
I0
sg22
I0
sg23
I0
sg24
I0
sbssg25
S'\xe4\xc0O\xa2\x80M\x05Wf\xdeO=\xf7\xaaT\x95'
p2834
ssS'teach_views_summaries_top_answered_questions_summary_view'
p2835
(dp2836
g6
(dp2837
g8
S'teach_views_summaries_top_answered_questions_summary_view.html'
p2838
sg10
S'teach/views/summaries/top_answered_questions_summary_view'
p2839
sg12
g13
(g14
g15
NtRp2840
(dp2841
g18
I1
sg19
I34
sg20
I77
sg21
I0
sg22
I0
sg23
I54
sg24
I34
sbssg25
S'\x9e\xb0khf9\xceHZ\x1e\x91\x1ac,\x8c\x0c'
p2842
ssS'user_system_models_apps___init__'
p2843
(dp2844
g6
(dp2845
g8
S'user_system_models_apps___init__.html'
p2846
sg10
S'user_system/models/apps/__init__'
p2847
sg12
g13
(g14
g15
NtRp2848
(dp2849
g18
I1
sg19
I0
sg20
I1
sg21
I0
sg22
I0
sg23
I0
sg24
I0
sbssg25
S'\n\xe9\xce\x15)\x8d\xc6\xdd\xe0\x9b\x990[\xae\x8cl'
p2850
ssS'create_models_tags_tests_test_tag_model'
p2851
(dp2852
g6
(dp2853
g8
S'create_models_tags_tests_test_tag_model.html'
p2854
sg10
S'create/models/tags/tests/test_tag_model'
p2855
sg12
g13
(g14
g15
NtRp2856
(dp2857
g18
I1
sg19
I6
sg20
I52
sg21
I0
sg22
I0
sg23
I0
sg24
I0
sbssg25
S'1\x992\xc0\xbb\xb6d *5\xfa\xd2\xdc1\xb2\x92'
p2858
ssS'create_models_quests___init__'
p2859
(dp2860
g6
(dp2861
g8
S'create_models_quests___init__.html'
p2862
sg10
S'create/models/quests/__init__'
p2863
sg12
g13
(g14
g15
NtRp2864
(dp2865
g18
I1
sg19
I0
sg20
I2
sg21
I0
sg22
I0
sg23
I0
sg24
I0
sbssg25
S'\x1e\x87\x83\xe2\x04\x1d\xcd:`\x99V\x85#\xca\x12^'
p2866
ssS'privilege_serializers_privileges_privilege_serializer'
p2867
(dp2868
g6
(dp2869
g8
S'privilege_serializers_privileges_privilege_serializer.html'
p2870
sg10
S'privilege/serializers/privileges/privilege_serializer'
p2871
sg12
g13
(g14
g15
NtRp2872
(dp2873
g18
I1
sg19
I0
sg20
I7
sg21
I0
sg22
I0
sg23
I0
sg24
I0
sbssg25
S'?v\x87\xf3\x00\x8cw`\xd8\x0b\xeb\x98\x18\xbd\x1dR'
p2874
ssS'user_system_views_signups_hardcoded_tests_test_test_account_view'
p2875
(dp2876
g6
(dp2877
g8
S'user_system_views_signups_hardcoded_tests_test_test_account_view.html'
p2878
sg10
S'user_system/views/signups/hardcoded/tests/test_test_account_view'
p2879
sg12
g13
(g14
g15
NtRp2880
(dp2881
g18
I1
sg19
I0
sg20
I24
sg21
I0
sg22
I0
sg23
I0
sg24
I0
sbssg25
S'@\xc3::\xf8h\x1aT\x9f\x83\xee1\xb7\x9a\xe0\xf9'
p2882
ssS'api_logging_models_query_stat_query_stat_model'
p2883
(dp2884
g6
(dp2885
g8
S'api_logging_models_query_stat_query_stat_model.html'
p2886
sg10
S'api_logging/models/query_stat/query_stat_model'
p2887
sg12
g13
(g14
g15
NtRp2888
(dp2889
g18
I1
sg19
I0
sg20
I16
sg21
I0
sg22
I0
sg23
I3
sg24
I0
sbssg25
S'\xa3=\x10\x13c\x11z=\xd9\x93q\x14\x17\x00\x0e\x8a'
p2890
ssS'create_models_tags_concept_model'
p2891
(dp2892
g6
(dp2893
g8
S'create_models_tags_concept_model.html'
p2894
sg10
S'create/models/tags/concept_model'
p2895
sg12
g13
(g14
g15
NtRp2896
(dp2897
g18
I1
sg19
I0
sg20
I10
sg21
I0
sg22
I0
sg23
I0
sg24
I0
sbssg25
S'@vb\xbd\xcay\xb1b\x9e\xaf\xc0v/\xd6\x13\xd3'
p2898
ssS'create_models_tags_tests___init__'
p2899
(dp2900
g6
(dp2901
g8
S'create_models_tags_tests___init__.html'
p2902
sg10
S'create/models/tags/tests/__init__'
p2903
sg12
g13
(g14
g15
NtRp2904
(dp2905
g18
I1
sg19
I0
sg20
I1
sg21
I0
sg22
I0
sg23
I0
sg24
I0
sbssg25
S'\xbc\xd6\xeb\xb3\xba\xcaz\xf7{\xd4B\xb5}l\xdf\x96'
p2906
ssS'learn_admin'
p2907
(dp2908
g6
(dp2909
g8
S'learn_admin.html'
p2910
sg10
S'learn/admin'
p2911
sg12
g13
(g14
g15
NtRp2912
(dp2913
g18
I1
sg19
I0
sg20
I9
sg21
I0
sg22
I0
sg23
I0
sg24
I0
sbssg25
S'x\x01B\xa4Q:G\x8dZ4\xff7\xa96\xaa\x1f'
p2914
ssS'user_system_models_schools_classroom_model'
p2915
(dp2916
g6
(dp2917
g8
S'user_system_models_schools_classroom_model.html'
p2918
sg10
S'user_system/models/schools/classroom_model'
p2919
sg12
g13
(g14
g15
NtRp2920
(dp2921
g18
I1
sg19
I2
sg20
I25
sg21
I0
sg22
I0
sg23
I0
sg24
I0
sbssg25
S'4\xd4E/\xd8\xd6\xca\xde\xb8\xfa\x1e\xd4\xcd\x12\xafQ'
p2922
ssS'teach_views_campaigns_campaign_view'
p2923
(dp2924
g6
(dp2925
g8
S'teach_views_campaigns_campaign_view.html'
p2926
sg10
S'teach/views/campaigns/campaign_view'
p2927
sg12
g13
(g14
g15
NtRp2928
(dp2929
g18
I1
sg19
I4
sg20
I32
sg21
I0
sg22
I0
sg23
I12
sg24
I4
sbssg25
S'\xb5\xbcP\n\xf1\xe8z\x0bC`h\xbf\x08\x16\x16\x17'
p2930
ssS'user_system_models_schools_semester_model'
p2931
(dp2932
g6
(dp2933
g8
S'user_system_models_schools_semester_model.html'
p2934
sg10
S'user_system/models/schools/semester_model'
p2935
sg12
g13
(g14
g15
NtRp2936
(dp2937
g18
I1
sg19
I0
sg20
I23
sg21
I0
sg22
I0
sg23
I0
sg24
I0
sbssg25
S'\x9f&7d<%\x13 \xcaht\xc4\xd4N\xee&'
p2938
ssS'create_views_daily_quest_copies_daily_quest_copy_view'
p2939
(dp2940
g6
(dp2941
g8
S'create_views_daily_quest_copies_daily_quest_copy_view.html'
p2942
sg10
S'create/views/daily_quest_copies/daily_quest_copy_view'
p2943
sg12
g13
(g14
g15
NtRp2944
(dp2945
g18
I1
sg19
I0
sg20
I14
sg21
I0
sg22
I0
sg23
I0
sg24
I0
sbssg25
S'?\x95&\\\xae\xf0@\xfc\x96\xc15\xc9\x13\xf6_R'
p2946
ssS'flipped_helpers_parameters_helper'
p2947
(dp2948
g6
(dp2949
g8
S'flipped_helpers_parameters_helper.html'
p2950
sg10
S'flipped/helpers/parameters_helper'
p2951
sg12
g13
(g14
g15
NtRp2952
(dp2953
g18
I1
sg19
I14
sg20
I22
sg21
I0
sg22
I1
sg23
I4
sg24
I3
sbssg25
S'v\xe1\xf5\xb3r\x1f\xae\xee\x872U\xa1I\xf8\xef\x00'
p2954
ssS'user_system_models___init__'
p2955
(dp2956
g6
(dp2957
g8
S'user_system_models___init__.html'
p2958
sg10
S'user_system/models/__init__'
p2959
sg12
g13
(g14
g15
NtRp2960
(dp2961
g18
I1
sg19
I0
sg20
I4
sg21
I0
sg22
I0
sg23
I0
sg24
I0
sbssg25
S"\xe9'\xed1xn\xd7\xe4\x91\x8ei\xc0\x0f\x1b\x9eY"
p2962
ssS'create_models_questions_tests_test_question_model'
p2963
(dp2964
g6
(dp2965
g8
S'create_models_questions_tests_test_question_model.html'
p2966
sg10
S'create/models/questions/tests/test_question_model'
p2967
sg12
g13
(g14
g15
NtRp2968
(dp2969
g18
I1
sg19
I8
sg20
I58
sg21
I0
sg22
I0
sg23
I0
sg24
I0
sbssg25
S'l\x9e\xee!<,L\xbf\xa0\xe6\r\xd7W\xc9tu'
p2970
ssS'user_system_models_users_tests_test_user_profile_history_model'
p2971
(dp2972
g6
(dp2973
g8
S'user_system_models_users_tests_test_user_profile_history_model.html'
p2974
sg10
S'user_system/models/users/tests/test_user_profile_history_model'
p2975
sg12
g13
(g14
g15
NtRp2976
(dp2977
g18
I1
sg19
I0
sg20
I54
sg21
I0
sg22
I0
sg23
I0
sg24
I0
sbssg25
S'<IT\xa7\x05\xe0ML\xb0gu{\xd2>\xc8$'
p2978
ssS'learn_views___init__'
p2979
(dp2980
g6
(dp2981
g8
S'learn_views___init__.html'
p2982
sg10
S'learn/views/__init__'
p2983
sg12
g13
(g14
g15
NtRp2984
(dp2985
g18
I1
sg19
I0
sg20
I2
sg21
I0
sg22
I0
sg23
I0
sg24
I0
sbssg25
S"?\xc0'\xcb\x1c\xf1\xaa\xf0\x9d\xc7\x0e\xf1\xda\x0eU\x17"
p2986
ssS'create_serializers_questions___init__'
p2987
(dp2988
g6
(dp2989
g8
S'create_serializers_questions___init__.html'
p2990
sg10
S'create/serializers/questions/__init__'
p2991
sg12
g13
(g14
g15
NtRp2992
(dp2993
g18
I1
sg19
I0
sg20
I5
sg21
I0
sg22
I0
sg23
I0
sg24
I0
sbssg25
S'\xe6(4O\xf6\xd4\xe4\x154\xe9\xa1;\x0cD\x90\t'
p2994
ssS'user_system_views_signups_hardcoded_tests___init__'
p2995
(dp2996
g6
(dp2997
g8
S'user_system_views_signups_hardcoded_tests___init__.html'
p2998
sg10
S'user_system/views/signups/hardcoded/tests/__init__'
p2999
sg12
g13
(g14
g15
NtRp3000
(dp3001
g18
I1
sg19
I0
sg20
I0
sg21
I0
sg22
I0
sg23
I0
sg24
I0
sbssg25
S'\x19g\xdfM\x1a\x019\xaf\x1baIeR\xe5u\xa7'
p3002
ssS'create_serializers_questions_question_serializer'
p3003
(dp3004
g6
(dp3005
g8
S'create_serializers_questions_question_serializer.html'
p3006
sg10
S'create/serializers/questions/question_serializer'
p3007
sg12
g13
(g14
g15
NtRp3008
(dp3009
g18
I1
sg19
I0
sg20
I59
sg21
I0
sg22
I0
sg23
I11
sg24
I0
sbssg25
S'\xd6f\xc4\xe6\x97\xe4~\xa4n\xcc+|\xcc\xdayh'
p3010
ssS'user_system_views___init__'
p3011
(dp3012
g6
(dp3013
g8
S'user_system_views___init__.html'
p3014
sg10
S'user_system/views/__init__'
p3015
sg12
g13
(g14
g15
NtRp3016
(dp3017
g18
I1
sg19
I0
sg20
I6
sg21
I0
sg22
I0
sg23
I0
sg24
I0
sbssg25
S'F\xa0L<\x89\xf6\x17C\x98\xb9\xf9\x9c\x08\xff\x8d\x8a'
p3018
ssS'user_system_views_users_user_profile_update_request_view'
p3019
(dp3020
g6
(dp3021
g8
S'user_system_views_users_user_profile_update_request_view.html'
p3022
sg10
S'user_system/views/users/user_profile_update_request_view'
p3023
sg12
g13
(g14
g15
NtRp3024
(dp3025
g18
I1
sg19
I24
sg20
I70
sg21
I0
sg22
I0
sg23
I51
sg24
I24
sbssg25
S"\x04\xfd\x81?\x1e<^\xb0%\xad\xa6'\xcf\xa1\xc3)"
p3026
ssS'user_system_models_roles_role_model'
p3027
(dp3028
g6
(dp3029
g8
S'user_system_models_roles_role_model.html'
p3030
sg10
S'user_system/models/roles/role_model'
p3031
sg12
g13
(g14
g15
NtRp3032
(dp3033
g18
I1
sg19
I0
sg20
I16
sg21
I0
sg22
I0
sg23
I0
sg24
I0
sbssg25
S'\x180j\xc8\x05 \xa05\xa7\xffj\x1dJ\x8a6\xcb'
p3034
ssS'user_system_views_users_tests_test_remove_role_view'
p3035
(dp3036
g6
(dp3037
g8
S'user_system_views_users_tests_test_remove_role_view.html'
p3038
sg10
S'user_system/views/users/tests/test_remove_role_view'
p3039
sg12
g13
(g14
g15
NtRp3040
(dp3041
g18
I1
sg19
I0
sg20
I42
sg21
I0
sg22
I0
sg23
I0
sg24
I0
sbssg25
S'\xfb\x9b\xa3\xe5\x90\xe7q99\x19\x10"<@L\x8c'
p3042
ssS'create_models_questions_tests_test_question_history_remark_model'
p3043
(dp3044
g6
(dp3045
g8
S'create_models_questions_tests_test_question_history_remark_model.html'
p3046
sg10
S'create/models/questions/tests/test_question_history_remark_model'
p3047
sg12
g13
(g14
g15
NtRp3048
(dp3049
g18
I1
sg19
I0
sg20
I30
sg21
I0
sg22
I0
sg23
I0
sg24
I0
sbssg25
S'K>pG_\xbd\x15\x8b\xd8\x05\xd4\x15\xb3\x9b\xcaP'
p3050
ssS'api_logging_serializers___init__'
p3051
(dp3052
g6
(dp3053
g8
S'api_logging_serializers___init__.html'
p3054
sg10
S'api_logging/serializers/__init__'
p3055
sg12
g13
(g14
g15
NtRp3056
(dp3057
g18
I1
sg19
I0
sg20
I3
sg21
I0
sg22
I0
sg23
I0
sg24
I0
sbssg25
S'k\xcf\xab\xc1\x97\xc9\x1a\x1f\xc7f\x86\xc9\x05S\xc4\x15'
p3058
ssS'user_system_models_users_tests_test_user_facebook_model'
p3059
(dp3060
g6
(dp3061
g8
S'user_system_models_users_tests_test_user_facebook_model.html'
p3062
sg10
S'user_system/models/users/tests/test_user_facebook_model'
p3063
sg12
g13
(g14
g15
NtRp3064
(dp3065
g18
I1
sg19
I0
sg20
I29
sg21
I0
sg22
I0
sg23
I0
sg24
I0
sbssg25
S'B\xac\x06Z\x1f7\xba2\x81\xd7\xb4\x17\xaf\x84u+'
p3066
ssS'user_system_models_users_user_credentials_model'
p3067
(dp3068
g6
(dp3069
g8
S'user_system_models_users_user_credentials_model.html'
p3070
sg10
S'user_system/models/users/user_credentials_model'
p3071
sg12
g13
(g14
g15
NtRp3072
(dp3073
g18
I1
sg19
I0
sg20
I7
sg21
I0
sg22
I0
sg23
I0
sg24
I0
sbssg25
S'g\x10U/\x1f\x83\x0bO\x95o\x9c9\xefV\x81\x8e'
p3074
ssS'create_serializers_books___init__'
p3075
(dp3076
g6
(dp3077
g8
S'create_serializers_books___init__.html'
p3078
sg10
S'create/serializers/books/__init__'
p3079
sg12
g13
(g14
g15
NtRp3080
(dp3081
g18
I1
sg19
I0
sg20
I0
sg21
I0
sg22
I0
sg23
I0
sg24
I0
sbssg25
S'\x19g\xdfM\x1a\x019\xaf\x1baIeR\xe5u\xa7'
p3082
ssS'api_logging_models_user_activities_user_agent_model'
p3083
(dp3084
g6
(dp3085
g8
S'api_logging_models_user_activities_user_agent_model.html'
p3086
sg10
S'api_logging/models/user_activities/user_agent_model'
p3087
sg12
g13
(g14
g15
NtRp3088
(dp3089
g18
I1
sg19
I0
sg20
I14
sg21
I0
sg22
I0
sg23
I3
sg24
I0
sbssg25
S'\xff%\xca\x02Mb5a\xf8Qr\x85\x95|\xa4\x95'
p3090
ssS'create_serializers_daily_quest_copies___init__'
p3091
(dp3092
g6
(dp3093
g8
S'create_serializers_daily_quest_copies___init__.html'
p3094
sg10
S'create/serializers/daily_quest_copies/__init__'
p3095
sg12
g13
(g14
g15
NtRp3096
(dp3097
g18
I1
sg19
I0
sg20
I1
sg21
I0
sg22
I0
sg23
I0
sg24
I0
sbssg25
S'\nX]\x85Nc\xb8\xc0\xe1\xaf\xa0\xda_\x9e\xb9u'
p3098
ssS'create_views_quests_tests_test_add_question_template_view'
p3099
(dp3100
g6
(dp3101
g8
S'create_views_quests_tests_test_add_question_template_view.html'
p3102
sg10
S'create/views/quests/tests/test_add_question_template_view'
p3103
sg12
g13
(g14
g15
NtRp3104
(dp3105
g18
I1
sg19
I0
sg20
I0
sg21
I0
sg22
I0
sg23
I0
sg24
I0
sbssg25
S'\x19g\xdfM\x1a\x019\xaf\x1baIeR\xe5u\xa7'
p3106
ssS'teach_serializers_campaigns_campaign_serializer'
p3107
(dp3108
g6
(dp3109
g8
S'teach_serializers_campaigns_campaign_serializer.html'
p3110
sg10
S'teach/serializers/campaigns/campaign_serializer'
p3111
sg12
g13
(g14
g15
NtRp3112
(dp3113
g18
I1
sg19
I0
sg20
I9
sg21
I0
sg22
I0
sg23
I0
sg24
I0
sbssg25
S'G\xecr\x9cj\xea\xe8\xf2>\xd5.d\x17\xd1\xce.'
p3114
ssS'learn_models_points_tests___init__'
p3115
(dp3116
g6
(dp3117
g8
S'learn_models_points_tests___init__.html'
p3118
sg10
S'learn/models/points/tests/__init__'
p3119
sg12
g13
(g14
g15
NtRp3120
(dp3121
g18
I1
sg19
I0
sg20
I1
sg21
I0
sg22
I0
sg23
I0
sg24
I0
sbssg25
S'\xbc\xd6\xeb\xb3\xba\xcaz\xf7{\xd4B\xb5}l\xdf\x96'
p3122
ssS'create_views_tags_tests_test_hide_tag_view'
p3123
(dp3124
g6
(dp3125
g8
S'create_views_tags_tests_test_hide_tag_view.html'
p3126
sg10
S'create/views/tags/tests/test_hide_tag_view'
p3127
sg12
g13
(g14
g15
NtRp3128
(dp3129
g18
I1
sg19
I0
sg20
I25
sg21
I0
sg22
I0
sg23
I0
sg24
I0
sbssg25
S'\x8a\x07\xe0\xe1Q\x820\x05R\x14E\xd0\xdf\x8e\xc5\x8a'
p3130
ssS'user_system_views_signups_tests___init__'
p3131
(dp3132
g6
(dp3133
g8
S'user_system_views_signups_tests___init__.html'
p3134
sg10
S'user_system/views/signups/tests/__init__'
p3135
sg12
g13
(g14
g15
NtRp3136
(dp3137
g18
I1
sg19
I0
sg20
I1
sg21
I0
sg22
I0
sg23
I0
sg24
I0
sbssg25
S'\xbc\xd6\xeb\xb3\xba\xcaz\xf7{\xd4B\xb5}l\xdf\x96'
p3138
ssS'create_views_books_tests___init__'
p3139
(dp3140
g6
(dp3141
g8
S'create_views_books_tests___init__.html'
p3142
sg10
S'create/views/books/tests/__init__'
p3143
sg12
g13
(g14
g15
NtRp3144
(dp3145
g18
I1
sg19
I0
sg20
I0
sg21
I0
sg22
I0
sg23
I0
sg24
I0
sbssg25
S'\x19g\xdfM\x1a\x019\xaf\x1baIeR\xe5u\xa7'
p3146
ssS'user_system_models_users_tests_test_user_streak_history_model'
p3147
(dp3148
g6
(dp3149
g8
S'user_system_models_users_tests_test_user_streak_history_model.html'
p3150
sg10
S'user_system/models/users/tests/test_user_streak_history_model'
p3151
sg12
g13
(g14
g15
NtRp3152
(dp3153
g18
I1
sg19
I0
sg20
I19
sg21
I0
sg22
I0
sg23
I0
sg24
I0
sbssg25
S'\xc7I1\x11\xc9\xbf7\xee\x1c\x16@\x10JP\xaf\xfc'
p3154
sssS'version'
p3155
S'3.7.1'
p3156
sS'settings'
p3157
S'\x961E{\x0c29\xd1#\x83\xd3j9"\xd8\x10'
p3158
sS'format'
p3159
I1
s.