(dp1
S'files'
p2
(dp3
S'create_views_quests_tests_test_add_tag_view'
p4
(dp5
S'index'
p6
(dp7
S'html_filename'
p8
S'create_views_quests_tests_test_add_tag_view.html'
p9
sS'name'
p10
S'create/views/quests/tests/test_add_tag_view'
p11
sS'nums'
p12
ccopy_reg
_reconstructor
p13
(ccoverage.results
Numbers
p14
c__builtin__
object
p15
NtRp16
(dp17
S'n_files'
p18
I1
sS'n_branches'
p19
I0
sS'n_statements'
p20
I35
sS'n_excluded'
p21
I0
sS'n_partial_branches'
p22
I0
sS'n_missing'
p23
I0
sS'n_missing_branches'
p24
I0
sbssS'hash'
p25
S'\x13\xaa\xb1v0\xd7\xfaR\x84\x0f\xe5\xd9\xfaVK\xee'
p26
ssS'user_system_models_users_teacher_profile_model'
p27
(dp28
g6
(dp29
g8
S'user_system_models_users_teacher_profile_model.html'
p30
sg10
S'user_system/models/users/teacher_profile_model'
p31
sg12
g13
(g14
g15
NtRp32
(dp33
g18
I1
sg19
I0
sg20
I27
sg21
I0
sg22
I0
sg23
I0
sg24
I0
sbssg25
S'\x9c7!\xa5N\xec0\xd9\xf4\x82t\xb3T/bo'
p34
ssS'user_system_views_signups_facebook_signup_view'
p35
(dp36
g6
(dp37
g8
S'user_system_views_signups_facebook_signup_view.html'
p38
sg10
S'user_system/views/signups/facebook_signup_view'
p39
sg12
g13
(g14
g15
NtRp40
(dp41
g18
I1
sg19
I0
sg20
I38
sg21
I0
sg22
I0
sg23
I0
sg24
I0
sbssg25
S'H\x07\xca\x97\xb8u\x89\xf1#8\xc5Y\xd3\xc7\x91|'
p42
ssS'create_models_books_book_history_model'
p43
(dp44
g6
(dp45
g8
S'create_models_books_book_history_model.html'
p46
sg10
S'create/models/books/book_history_model'
p47
sg12
g13
(g14
g15
NtRp48
(dp49
g18
I1
sg19
I0
sg20
I43
sg21
I0
sg22
I0
sg23
I0
sg24
I0
sbssg25
S'9h2\xf0\x073$\x1d\x89G\xc5\x9b\xa4\xd40\x07'
p50
ssS'teach_models_teacher_tags___init__'
p51
(dp52
g6
(dp53
g8
S'teach_models_teacher_tags___init__.html'
p54
sg10
S'teach/models/teacher_tags/__init__'
p55
sg12
g13
(g14
g15
NtRp56
(dp57
g18
I1
sg19
I0
sg20
I1
sg21
I0
sg22
I0
sg23
I0
sg24
I0
sbssg25
S'\xffN\xcc\xb7WO\xac\x91\xe2\xda\xfb\x0c\x03\x1c~U'
p58
ssS'user_system_models_users_user_facebook_model'
p59
(dp60
g6
(dp61
g8
S'user_system_models_users_user_facebook_model.html'
p62
sg10
S'user_system/models/users/user_facebook_model'
p63
sg12
g13
(g14
g15
NtRp64
(dp65
g18
I1
sg19
I0
sg20
I22
sg21
I0
sg22
I0
sg23
I0
sg24
I0
sbssg25
S'\xf8\r\x87N\x0f\x8c^g\xd8\xa8\xa0DQ\x10\xbe\xb1'
p66
ssS'teach_models_teacher_chapters___init__'
p67
(dp68
g6
(dp69
g8
S'teach_models_teacher_chapters___init__.html'
p70
sg10
S'teach/models/teacher_chapters/__init__'
p71
sg12
g13
(g14
g15
NtRp72
(dp73
g18
I1
sg19
I0
sg20
I1
sg21
I0
sg22
I0
sg23
I0
sg24
I0
sbssg25
S'\xcfg\xe6\xe9\xf5\xf6\x077K\xa7e\xe8\x9d\x1a\xbe\x92'
p74
ssS'user_system_views_logins_facebook_login_view'
p75
(dp76
g6
(dp77
g8
S'user_system_views_logins_facebook_login_view.html'
p78
sg10
S'user_system/views/logins/facebook_login_view'
p79
sg12
g13
(g14
g15
NtRp80
(dp81
g18
I1
sg19
I0
sg20
I24
sg21
I0
sg22
I0
sg23
I0
sg24
I0
sbssg25
S'_\xe0\x18\xf6\xcc\xf7"\x0eX\xb5\xe7\xd9|<\xfbm'
p82
ssS'create_serializers_questions_question_history_serializer'
p83
(dp84
g6
(dp85
g8
S'create_serializers_questions_question_history_serializer.html'
p86
sg10
S'create/serializers/questions/question_history_serializer'
p87
sg12
g13
(g14
g15
NtRp88
(dp89
g18
I1
sg19
I0
sg20
I30
sg21
I0
sg22
I0
sg23
I2
sg24
I0
sbssg25
S'\xb8"1W\xa2\xd1\x01T\xc93\x98\xb7\x97\x1f/d'
p90
ssS'create_serializers_quests_quest_history_serializer'
p91
(dp92
g6
(dp93
g8
S'create_serializers_quests_quest_history_serializer.html'
p94
sg10
S'create/serializers/quests/quest_history_serializer'
p95
sg12
g13
(g14
g15
NtRp96
(dp97
g18
I1
sg19
I0
sg20
I38
sg21
I0
sg22
I0
sg23
I15
sg24
I0
sbssg25
S'r\x94\xf0s/\x8d\xd8\xc2\xbc \x8f\x0c)\x0cjO'
p98
ssS'learn_views_daily_quests_student_submission_view'
p99
(dp100
g6
(dp101
g8
S'learn_views_daily_quests_student_submission_view.html'
p102
sg10
S'learn/views/daily_quests/student_submission_view'
p103
sg12
g13
(g14
g15
NtRp104
(dp105
g18
I1
sg19
I0
sg20
I39
sg21
I0
sg22
I0
sg23
I22
sg24
I0
sbssg25
S'(_\xca\xf0\x90u\xb6`\x08NT\x90|7\xbbL'
p106
ssS'user_system_models_users_tests_test_student_profile_request_model'
p107
(dp108
g6
(dp109
g8
S'user_system_models_users_tests_test_student_profile_request_model.html'
p110
sg10
S'user_system/models/users/tests/test_student_profile_request_model'
p111
sg12
g13
(g14
g15
NtRp112
(dp113
g18
I1
sg19
I0
sg20
I42
sg21
I0
sg22
I0
sg23
I0
sg24
I0
sbssg25
S'\x7fK\xe2c\xeb\x89b\xdaH\xf6\xb9\x97\xfew\xba^'
p114
ssS'create_views_books_tests_test_add_chapter_view'
p115
(dp116
g6
(dp117
g8
S'create_views_books_tests_test_add_chapter_view.html'
p118
sg10
S'create/views/books/tests/test_add_chapter_view'
p119
sg12
g13
(g14
g15
NtRp120
(dp121
g18
I1
sg19
I0
sg20
I69
sg21
I0
sg22
I0
sg23
I0
sg24
I0
sbssg25
S'\xe6<\x1e\xb4\xde\xf2IP\x0f\xd6\xcd\xcc\x91Ne\x7f'
p122
ssS'teach_models_teacher_chapters_tests_test_teacher_chapter_model'
p123
(dp124
g6
(dp125
g8
S'teach_models_teacher_chapters_tests_test_teacher_chapter_model.html'
p126
sg10
S'teach/models/teacher_chapters/tests/test_teacher_chapter_model'
p127
sg12
g13
(g14
g15
NtRp128
(dp129
g18
I1
sg19
I0
sg20
I28
sg21
I0
sg22
I0
sg23
I0
sg24
I0
sbssg25
S'\x1ck\xdcH\xef\xbc\xa0\xa7k\xb1\xaa\xd2\xb0\xecD\x0b'
p130
ssS'create_serializers_question_datasets___init__'
p131
(dp132
g6
(dp133
g8
S'create_serializers_question_datasets___init__.html'
p134
sg10
S'create/serializers/question_datasets/__init__'
p135
sg12
g13
(g14
g15
NtRp136
(dp137
g18
I1
sg19
I0
sg20
I1
sg21
I0
sg22
I0
sg23
I0
sg24
I0
sbssg25
S'\xb8\x9d\x8d\x87W\xdc"\xfaV\x07\xb9\xaf.1\x0f\x11'
p138
ssS'user_system_models_users_user_profile_model'
p139
(dp140
g6
(dp141
g8
S'user_system_models_users_user_profile_model.html'
p142
sg10
S'user_system/models/users/user_profile_model'
p143
sg12
g13
(g14
g15
NtRp144
(dp145
g18
I1
sg19
I0
sg20
I178
sg21
I0
sg22
I0
sg23
I24
sg24
I0
sbssg25
S'q\xe4T\x86\xc1!r\x16\xc6G\xdd\xbf\xc6\x07\xb2G'
p146
ssS'create_models_question_datasets_tests_test_question_dataset_model'
p147
(dp148
g6
(dp149
g8
S'create_models_question_datasets_tests_test_question_dataset_model.html'
p150
sg10
S'create/models/question_datasets/tests/test_question_dataset_model'
p151
sg12
g13
(g14
g15
NtRp152
(dp153
g18
I1
sg19
I0
sg20
I39
sg21
I0
sg22
I0
sg23
I0
sg24
I0
sbssg25
S"SO}\xee\xdcO\xa31\x020'#\x97\xe8\x9f?"
p154
ssS'create_views_books_tests_test_remove_tag_from_subchapter_view'
p155
(dp156
g6
(dp157
g8
S'create_views_books_tests_test_remove_tag_from_subchapter_view.html'
p158
sg10
S'create/views/books/tests/test_remove_tag_from_subchapter_view'
p159
sg12
g13
(g14
g15
NtRp160
(dp161
g18
I1
sg19
I0
sg20
I40
sg21
I0
sg22
I0
sg23
I0
sg24
I0
sbssg25
S'\xd3\xd2\xcf\xe2@j3\xc4\xfc\xa7g\x90\x94\x04\x1f\x13'
p162
ssS'teach_urls'
p163
(dp164
g6
(dp165
g8
S'teach_urls.html'
p166
sg10
S'teach/urls'
p167
sg12
g13
(g14
g15
NtRp168
(dp169
g18
I1
sg19
I0
sg20
I15
sg21
I0
sg22
I0
sg23
I0
sg24
I0
sbssg25
S'3\xf8=u\x97E\x067\xea\x07\x0e\x94\xfbn\xf2\xe0'
p170
ssS'create_serializers_questions_question_template_serializer'
p171
(dp172
g6
(dp173
g8
S'create_serializers_questions_question_template_serializer.html'
p174
sg10
S'create/serializers/questions/question_template_serializer'
p175
sg12
g13
(g14
g15
NtRp176
(dp177
g18
I1
sg19
I0
sg20
I43
sg21
I0
sg22
I0
sg23
I9
sg24
I0
sbssg25
S'V\xad\x19!JG\xcb\xebr+\\\xc6 ;\xe7E'
p178
ssS'user_system_models_schools___init__'
p179
(dp180
g6
(dp181
g8
S'user_system_models_schools___init__.html'
p182
sg10
S'user_system/models/schools/__init__'
p183
sg12
g13
(g14
g15
NtRp184
(dp185
g18
I1
sg19
I0
sg20
I6
sg21
I0
sg22
I0
sg23
I0
sg24
I0
sbssg25
S'f\x884\t d.\xb9\xf6\x8bn\x03g\x95\n\x8d'
p186
ssS'create_views_questions_tests_test_remove_tag_view'
p187
(dp188
g6
(dp189
g8
S'create_views_questions_tests_test_remove_tag_view.html'
p190
sg10
S'create/views/questions/tests/test_remove_tag_view'
p191
sg12
g13
(g14
g15
NtRp192
(dp193
g18
I1
sg19
I0
sg20
I36
sg21
I0
sg22
I0
sg23
I0
sg24
I0
sbssg25
S'B\x9em\xc7\x0f\x18b\x07\x9d\xee\xc9\xc9\x87COZ'
p194
ssS'user_system_models_users_tests_test_student_profile_model'
p195
(dp196
g6
(dp197
g8
S'user_system_models_users_tests_test_student_profile_model.html'
p198
sg10
S'user_system/models/users/tests/test_student_profile_model'
p199
sg12
g13
(g14
g15
NtRp200
(dp201
g18
I1
sg19
I0
sg20
I48
sg21
I0
sg22
I0
sg23
I0
sg24
I0
sbssg25
S'\xc0\x0b\xa7/\x94+*\xfa\x99c\xf16nE\xcf\x88'
p202
ssS'learn___init__'
p203
(dp204
g6
(dp205
g8
S'learn___init__.html'
p206
sg10
S'learn/__init__'
p207
sg12
g13
(g14
g15
NtRp208
(dp209
g18
I1
sg19
I0
sg20
I0
sg21
I0
sg22
I0
sg23
I0
sg24
I0
sbssg25
S'\xca\xf5\x9f\x7f\x88\xdfa\x831|T\x1d\xbc}\xa5v'
p210
ssS'api_logging_urls'
p211
(dp212
g6
(dp213
g8
S'api_logging_urls.html'
p214
sg10
S'api_logging/urls'
p215
sg12
g13
(g14
g15
NtRp216
(dp217
g18
I1
sg19
I0
sg20
I14
sg21
I0
sg22
I0
sg23
I0
sg24
I0
sbssg25
S'\x85\xd5\xe8\x89\x18\xc4\x13p\x08\x8eg^\x1d\xc0\x12D'
p218
ssS'teach_views_teacher_chapters___init__'
p219
(dp220
g6
(dp221
g8
S'teach_views_teacher_chapters___init__.html'
p222
sg10
S'teach/views/teacher_chapters/__init__'
p223
sg12
g13
(g14
g15
NtRp224
(dp225
g18
I1
sg19
I0
sg20
I1
sg21
I0
sg22
I0
sg23
I0
sg24
I0
sbssg25
S'\xf4}\x14\xb2:\xc8\xdd0>\xc0\x8d)\xf9\x14 \xa0'
p226
ssS'user_system_models_users_student_profile_request_model'
p227
(dp228
g6
(dp229
g8
S'user_system_models_users_student_profile_request_model.html'
p230
sg10
S'user_system/models/users/student_profile_request_model'
p231
sg12
g13
(g14
g15
NtRp232
(dp233
g18
I1
sg19
I0
sg20
I45
sg21
I0
sg22
I0
sg23
I0
sg24
I0
sbssg25
S'+\xfc\xf5\x078gy2\x10c\xd3s\x01\xe4=]'
p234
ssS'privilege_models___init__'
p235
(dp236
g6
(dp237
g8
S'privilege_models___init__.html'
p238
sg10
S'privilege/models/__init__'
p239
sg12
g13
(g14
g15
NtRp240
(dp241
g18
I1
sg19
I0
sg20
I1
sg21
I0
sg22
I0
sg23
I0
sg24
I0
sbssg25
S'\xb9U\xb8U\x0evw\xd6+YcF\xf8\x08\n\xc4'
p242
ssS'user_system_views_users_teacher_mapping_view'
p243
(dp244
g6
(dp245
g8
S'user_system_views_users_teacher_mapping_view.html'
p246
sg10
S'user_system/views/users/teacher_mapping_view'
p247
sg12
g13
(g14
g15
NtRp248
(dp249
g18
I1
sg19
I0
sg20
I14
sg21
I0
sg22
I0
sg23
I0
sg24
I0
sbssg25
S"\xc0\x01\xfc\xc1\xa9\xd6\xa0\xa0\xccE\xeb\xb4\xb5\xfa\xe9'"
p250
ssS'create_views_tags_tests_test_search_tag_view'
p251
(dp252
g6
(dp253
g8
S'create_views_tags_tests_test_search_tag_view.html'
p254
sg10
S'create/views/tags/tests/test_search_tag_view'
p255
sg12
g13
(g14
g15
NtRp256
(dp257
g18
I1
sg19
I0
sg20
I22
sg21
I0
sg22
I0
sg23
I0
sg24
I0
sbssg25
S'MQ\xf0\xc6j_>)\x04\xfa\xe8\xadS\xa3\x7fD'
p258
ssS'create_views_questions_tests_test_hide_question_view'
p259
(dp260
g6
(dp261
g8
S'create_views_questions_tests_test_hide_question_view.html'
p262
sg10
S'create/views/questions/tests/test_hide_question_view'
p263
sg12
g13
(g14
g15
NtRp264
(dp265
g18
I1
sg19
I0
sg20
I30
sg21
I0
sg22
I0
sg23
I0
sg24
I0
sbssg25
S'F\xe2\xf2I\xed\xfcz;%\xe4\xf7b=K\xd3\x89'
p266
ssS'user_system_serializers_users_student_profile_request_serializer'
p267
(dp268
g6
(dp269
g8
S'user_system_serializers_users_student_profile_request_serializer.html'
p270
sg10
S'user_system/serializers/users/student_profile_request_serializer'
p271
sg12
g13
(g14
g15
NtRp272
(dp273
g18
I1
sg19
I0
sg20
I8
sg21
I0
sg22
I0
sg23
I0
sg24
I0
sbssg25
S' 3q\xb1\x19\xeb7CR:\xfe\x15\x98ct\xa2'
p274
ssS'user_system_models_users_tests_test_teacher_profile_model'
p275
(dp276
g6
(dp277
g8
S'user_system_models_users_tests_test_teacher_profile_model.html'
p278
sg10
S'user_system/models/users/tests/test_teacher_profile_model'
p279
sg12
g13
(g14
g15
NtRp280
(dp281
g18
I1
sg19
I0
sg20
I32
sg21
I0
sg22
I0
sg23
I0
sg24
I0
sbssg25
S'\xc5\x99R&\xb8\xc6b\xea\xe3\x03GG\x13\xca\xc7\xb2'
p282
ssS'teach_models_campaigns___init__'
p283
(dp284
g6
(dp285
g8
S'teach_models_campaigns___init__.html'
p286
sg10
S'teach/models/campaigns/__init__'
p287
sg12
g13
(g14
g15
NtRp288
(dp289
g18
I1
sg19
I0
sg20
I1
sg21
I0
sg22
I0
sg23
I0
sg24
I0
sbssg25
S'\xcb9\xde\xba\xdeQU\x85\\\x9d\x99C\xe4Y.\xb4'
p290
ssS'create_serializers_books_book_chapter_serializer'
p291
(dp292
g6
(dp293
g8
S'create_serializers_books_book_chapter_serializer.html'
p294
sg10
S'create/serializers/books/book_chapter_serializer'
p295
sg12
g13
(g14
g15
NtRp296
(dp297
g18
I1
sg19
I0
sg20
I23
sg21
I0
sg22
I0
sg23
I3
sg24
I0
sbssg25
S']\x1a\xce\x17\x87\x19\xde\xd1yzd\xf7\x8a\x050g'
p298
ssS'api_logging_models_api_logging_api_logging_model'
p299
(dp300
g6
(dp301
g8
S'api_logging_models_api_logging_api_logging_model.html'
p302
sg10
S'api_logging/models/api_logging/api_logging_model'
p303
sg12
g13
(g14
g15
NtRp304
(dp305
g18
I1
sg19
I0
sg20
I21
sg21
I0
sg22
I0
sg23
I0
sg24
I0
sbssg25
S'z\xdc\x13\x9cWV\xb7y\x95S({#\x13\xf5\xb0'
p306
ssS'privilege_models_privileges_tests_test_user_privilege_model'
p307
(dp308
g6
(dp309
g8
S'privilege_models_privileges_tests_test_user_privilege_model.html'
p310
sg10
S'privilege/models/privileges/tests/test_user_privilege_model'
p311
sg12
g13
(g14
g15
NtRp312
(dp313
g18
I1
sg19
I0
sg20
I19
sg21
I0
sg22
I0
sg23
I0
sg24
I0
sbssg25
S'\xa7e\xa9\x8dE\xa4\xf8,A\xd1\x8c\xa2\xec\xda\xa0s'
p314
ssS'user_system_urls'
p315
(dp316
g6
(dp317
g8
S'user_system_urls.html'
p318
sg10
S'user_system/urls'
p319
sg12
g13
(g14
g15
NtRp320
(dp321
g18
I1
sg19
I0
sg20
I21
sg21
I0
sg22
I0
sg23
I0
sg24
I0
sbssg25
S'Q`\xa0_\xf4\xde1\x1f\ny\x05\x18b\xfb\xcf\xfe'
p322
ssS'create_models_tags_tests_test_tag_type_model'
p323
(dp324
g6
(dp325
g8
S'create_models_tags_tests_test_tag_type_model.html'
p326
sg10
S'create/models/tags/tests/test_tag_type_model'
p327
sg12
g13
(g14
g15
NtRp328
(dp329
g18
I1
sg19
I0
sg20
I17
sg21
I0
sg22
I0
sg23
I0
sg24
I0
sbssg25
S'\xc1\x9a\xb2G\x1a2\x8c\xfcw\xb6\xca\x1b\xe41n\x11'
p330
ssS'create_models_quests_quest_history_model'
p331
(dp332
g6
(dp333
g8
S'create_models_quests_quest_history_model.html'
p334
sg10
S'create/models/quests/quest_history_model'
p335
sg12
g13
(g14
g15
NtRp336
(dp337
g18
I1
sg19
I0
sg20
I75
sg21
I0
sg22
I0
sg23
I4
sg24
I0
sbssg25
S'\xe2\x1b7B\xcf/\x0f\xf1#\x95_-),\xa6\xbf'
p338
ssS'learn_models_daily_quests_tests_test_daily_quest_question_history_model'
p339
(dp340
g6
(dp341
g8
S'learn_models_daily_quests_tests_test_daily_quest_question_history_model.html'
p342
sg10
S'learn/models/daily_quests/tests/test_daily_quest_question_history_model'
p343
sg12
g13
(g14
g15
NtRp344
(dp345
g18
I1
sg19
I0
sg20
I202
sg21
I0
sg22
I0
sg23
I0
sg24
I0
sbssg25
S'@z\x14\x08\xdf\x10L\x00\xf3\t%\x18\xa68\x08\x8b'
p346
ssS'create_models_daily_quest_copies_daily_quest_copy_model'
p347
(dp348
g6
(dp349
g8
S'create_models_daily_quest_copies_daily_quest_copy_model.html'
p350
sg10
S'create/models/daily_quest_copies/daily_quest_copy_model'
p351
sg12
g13
(g14
g15
NtRp352
(dp353
g18
I1
sg19
I0
sg20
I47
sg21
I0
sg22
I0
sg23
I14
sg24
I0
sbssg25
S')\x11\x0c\x00z\xf6\xc1\xd0\x92\xd1v\xb5\x18\x14s\x8c'
p354
ssS'user_system_views_logins_tests_test_facebook_login_view'
p355
(dp356
g6
(dp357
g8
S'user_system_views_logins_tests_test_facebook_login_view.html'
p358
sg10
S'user_system/views/logins/tests/test_facebook_login_view'
p359
sg12
g13
(g14
g15
NtRp360
(dp361
g18
I1
sg19
I0
sg20
I51
sg21
I0
sg22
I0
sg23
I0
sg24
I0
sbssg25
S'Upn\xbfH\x14q\x8f\x90-\x8b\x9d\xcf\x15\x18\x18'
p362
ssS'create_views_tags_tests___init__'
p363
(dp364
g6
(dp365
g8
S'create_views_tags_tests___init__.html'
p366
sg10
S'create/views/tags/tests/__init__'
p367
sg12
g13
(g14
g15
NtRp368
(dp369
g18
I1
sg19
I0
sg20
I0
sg21
I0
sg22
I0
sg23
I0
sg24
I0
sbssg25
S'\xca\xf5\x9f\x7f\x88\xdfa\x831|T\x1d\xbc}\xa5v'
p370
ssS'create_views_tags_tests_test_create_tag_view'
p371
(dp372
g6
(dp373
g8
S'create_views_tags_tests_test_create_tag_view.html'
p374
sg10
S'create/views/tags/tests/test_create_tag_view'
p375
sg12
g13
(g14
g15
NtRp376
(dp377
g18
I1
sg19
I0
sg20
I33
sg21
I0
sg22
I0
sg23
I0
sg24
I0
sbssg25
S'\x0bo\xd0SO\xc7?\xa5MX\x94\xc54\xfa\x03\x11'
p378
ssS'user_system_views_apps_tests___init__'
p379
(dp380
g6
(dp381
g8
S'user_system_views_apps_tests___init__.html'
p382
sg10
S'user_system/views/apps/tests/__init__'
p383
sg12
g13
(g14
g15
NtRp384
(dp385
g18
I1
sg19
I0
sg20
I0
sg21
I0
sg22
I0
sg23
I0
sg24
I0
sbssg25
S'\xca\xf5\x9f\x7f\x88\xdfa\x831|T\x1d\xbc}\xa5v'
p386
ssS'privilege___init__'
p387
(dp388
g6
(dp389
g8
S'privilege___init__.html'
p390
sg10
S'privilege/__init__'
p391
sg12
g13
(g14
g15
NtRp392
(dp393
g18
I1
sg19
I0
sg20
I0
sg21
I0
sg22
I0
sg23
I0
sg24
I0
sbssg25
S'\xca\xf5\x9f\x7f\x88\xdfa\x831|T\x1d\xbc}\xa5v'
p394
ssS'create_views_books___init__'
p395
(dp396
g6
(dp397
g8
S'create_views_books___init__.html'
p398
sg10
S'create/views/books/__init__'
p399
sg12
g13
(g14
g15
NtRp400
(dp401
g18
I1
sg19
I0
sg20
I3
sg21
I0
sg22
I0
sg23
I0
sg24
I0
sbssg25
S'\x92\xe2\xee\tyV\xe1\x97[\x86\x13\xbc\x17\x16u\x04'
p402
ssS'create_models_books_book_chapter_model'
p403
(dp404
g6
(dp405
g8
S'create_models_books_book_chapter_model.html'
p406
sg10
S'create/models/books/book_chapter_model'
p407
sg12
g13
(g14
g15
NtRp408
(dp409
g18
I1
sg19
I0
sg20
I58
sg21
I0
sg22
I0
sg23
I3
sg24
I0
sbssg25
S'\xb2\x18\xc9\xe5\xfd?1\x06d\x9b\xf0"\xf4\x0b\xaa='
p410
ssS'user_system_admin'
p411
(dp412
g6
(dp413
g8
S'user_system_admin.html'
p414
sg10
S'user_system/admin'
p415
sg12
g13
(g14
g15
NtRp416
(dp417
g18
I1
sg19
I0
sg20
I25
sg21
I0
sg22
I0
sg23
I0
sg24
I0
sbssg25
S'\xb7\xac\xf9Q\xdal\xc3\xf6\xe7\x88^YG\x17D\xd7'
p418
ssS'user_system_serializers_users_teacher_profile_serializer'
p419
(dp420
g6
(dp421
g8
S'user_system_serializers_users_teacher_profile_serializer.html'
p422
sg10
S'user_system/serializers/users/teacher_profile_serializer'
p423
sg12
g13
(g14
g15
NtRp424
(dp425
g18
I1
sg19
I0
sg20
I20
sg21
I0
sg22
I0
sg23
I9
sg24
I0
sbssg25
S'2\xadx\x9a\x87.\xb1\x051\x01\x908(\xaev\x1a'
p426
ssS'user_system_models_users_tests___init__'
p427
(dp428
g6
(dp429
g8
S'user_system_models_users_tests___init__.html'
p430
sg10
S'user_system/models/users/tests/__init__'
p431
sg12
g13
(g14
g15
NtRp432
(dp433
g18
I1
sg19
I0
sg20
I0
sg21
I0
sg22
I0
sg23
I0
sg24
I0
sbssg25
S'\xca\xf5\x9f\x7f\x88\xdfa\x831|T\x1d\xbc}\xa5v'
p434
ssS'user_system_models_users_user_profile_picture_model'
p435
(dp436
g6
(dp437
g8
S'user_system_models_users_user_profile_picture_model.html'
p438
sg10
S'user_system/models/users/user_profile_picture_model'
p439
sg12
g13
(g14
g15
NtRp440
(dp441
g18
I1
sg19
I0
sg20
I18
sg21
I0
sg22
I0
sg23
I0
sg24
I0
sbssg25
S'h\x0f\xbb2l\x98\xec\x14\xa3\xed<\x06\x7f4C\xed'
p442
ssS'teach_models_teacher_tags_teacher_tag_model'
p443
(dp444
g6
(dp445
g8
S'teach_models_teacher_tags_teacher_tag_model.html'
p446
sg10
S'teach/models/teacher_tags/teacher_tag_model'
p447
sg12
g13
(g14
g15
NtRp448
(dp449
g18
I1
sg19
I0
sg20
I30
sg21
I0
sg22
I0
sg23
I0
sg24
I0
sbssg25
S'\x83\x0c\x88F\x01\x12\xb9\x02\xe2\x1c\xeb`E\xe8\x81\x0b'
p450
ssS'teach_models_daily_quest_templates_daily_quest_template_model'
p451
(dp452
g6
(dp453
g8
S'teach_models_daily_quest_templates_daily_quest_template_model.html'
p454
sg10
S'teach/models/daily_quest_templates/daily_quest_template_model'
p455
sg12
g13
(g14
g15
NtRp456
(dp457
g18
I1
sg19
I0
sg20
I32
sg21
I0
sg22
I0
sg23
I0
sg24
I0
sbssg25
S'R\x8bv\xe4\x1b[\x83R\x02\x922\x82\xc7\x1c\x97\xd1'
p458
ssS'create_views_books_tests_test_add_subchapter_view'
p459
(dp460
g6
(dp461
g8
S'create_views_books_tests_test_add_subchapter_view.html'
p462
sg10
S'create/views/books/tests/test_add_subchapter_view'
p463
sg12
g13
(g14
g15
NtRp464
(dp465
g18
I1
sg19
I0
sg20
I60
sg21
I0
sg22
I0
sg23
I0
sg24
I0
sbssg25
S'z\xa5\xa5\xea\xa1o\xac\\C\x8b\xec;\x97\xac\xbb\x89'
p466
ssS'create_models_quests_quest_model'
p467
(dp468
g6
(dp469
g8
S'create_models_quests_quest_model.html'
p470
sg10
S'create/models/quests/quest_model'
p471
sg12
g13
(g14
g15
NtRp472
(dp473
g18
I1
sg19
I0
sg20
I59
sg21
I0
sg22
I0
sg23
I13
sg24
I0
sbssg25
S'\xd6RM7\xe4\xb7\xc0\xde.\xbb+!8C\x0e"'
p474
ssS'user_system_views_roles_user_role_view'
p475
(dp476
g6
(dp477
g8
S'user_system_views_roles_user_role_view.html'
p478
sg10
S'user_system/views/roles/user_role_view'
p479
sg12
g13
(g14
g15
NtRp480
(dp481
g18
I1
sg19
I0
sg20
I31
sg21
I0
sg22
I0
sg23
I0
sg24
I0
sbssg25
S'd\x84|\xb5W\x84\x8ac\x1c\x05Y\x12\xb4\xc7\xa5\x18'
p482
ssS'learn_views_daily_quests_daily_quest_view'
p483
(dp484
g6
(dp485
g8
S'learn_views_daily_quests_daily_quest_view.html'
p486
sg10
S'learn/views/daily_quests/daily_quest_view'
p487
sg12
g13
(g14
g15
NtRp488
(dp489
g18
I1
sg19
I0
sg20
I61
sg21
I0
sg22
I0
sg23
I40
sg24
I0
sbssg25
S'\x1f\x837\xa1\xed{\xf5\xd5\xaf\x81Y\x94Ys\xd5y'
p490
ssS'create_models_tags_tests_test_tag_history_model'
p491
(dp492
g6
(dp493
g8
S'create_models_tags_tests_test_tag_history_model.html'
p494
sg10
S'create/models/tags/tests/test_tag_history_model'
p495
sg12
g13
(g14
g15
NtRp496
(dp497
g18
I1
sg19
I0
sg20
I58
sg21
I0
sg22
I0
sg23
I0
sg24
I0
sbssg25
S'\x88\xe6y%\x15\xb4\x08\x07\xf5\xbe\xb5Q\n\xa0\x8b\x81'
p498
ssS'teach_views_teacher_news_feed___init__'
p499
(dp500
g6
(dp501
g8
S'teach_views_teacher_news_feed___init__.html'
p502
sg10
S'teach/views/teacher_news_feed/__init__'
p503
sg12
g13
(g14
g15
NtRp504
(dp505
g18
I1
sg19
I0
sg20
I1
sg21
I0
sg22
I0
sg23
I0
sg24
I0
sbssg25
S'\xb7t\x83qg$\xad\xc4\xfb\xa7{Tza?\x19'
p506
ssS'create_models_questions_question_history_remark_model'
p507
(dp508
g6
(dp509
g8
S'create_models_questions_question_history_remark_model.html'
p510
sg10
S'create/models/questions/question_history_remark_model'
p511
sg12
g13
(g14
g15
NtRp512
(dp513
g18
I1
sg19
I0
sg20
I27
sg21
I0
sg22
I0
sg23
I0
sg24
I0
sbssg25
S'\xc5\xf2\xe2\xa8\xa3D\x04#\xbb"U\xd4\xc7>[\x92'
p514
ssS'learn_serializers___init__'
p515
(dp516
g6
(dp517
g8
S'learn_serializers___init__.html'
p518
sg10
S'learn/serializers/__init__'
p519
sg12
g13
(g14
g15
NtRp520
(dp521
g18
I1
sg19
I0
sg20
I1
sg21
I0
sg22
I0
sg23
I0
sg24
I0
sbssg25
S'F\xde\xd7\x02V\xad\x1e\xd2\x9d/\xfe\xc8\xbe\xdcAf'
p522
ssS'user_system_views_schools___init__'
p523
(dp524
g6
(dp525
g8
S'user_system_views_schools___init__.html'
p526
sg10
S'user_system/views/schools/__init__'
p527
sg12
g13
(g14
g15
NtRp528
(dp529
g18
I1
sg19
I0
sg20
I4
sg21
I0
sg22
I0
sg23
I0
sg24
I0
sbssg25
S'\xf1\xe0\xa3E\xfffe\xfd\xaa\xf6\n]t\xdc\xe5\xba'
p530
ssS'create_views_quests___init__'
p531
(dp532
g6
(dp533
g8
S'create_views_quests___init__.html'
p534
sg10
S'create/views/quests/__init__'
p535
sg12
g13
(g14
g15
NtRp536
(dp537
g18
I1
sg19
I0
sg20
I1
sg21
I0
sg22
I0
sg23
I0
sg24
I0
sbssg25
S"\x89b,\xae\xa7MPw\xe4\xd0\xe2'\xb2<\xf5\xc1"
p538
ssS'user_system_models_schools_tests_test_course_model'
p539
(dp540
g6
(dp541
g8
S'user_system_models_schools_tests_test_course_model.html'
p542
sg10
S'user_system/models/schools/tests/test_course_model'
p543
sg12
g13
(g14
g15
NtRp544
(dp545
g18
I1
sg19
I0
sg20
I50
sg21
I0
sg22
I0
sg23
I0
sg24
I0
sbssg25
S'&\xba\xd0\xdc\x82\x03\xc5\xe0\xdc\x83gJ\xa4\xf4If'
p546
ssS'create_models_question_datasets_tests___init__'
p547
(dp548
g6
(dp549
g8
S'create_models_question_datasets_tests___init__.html'
p550
sg10
S'create/models/question_datasets/tests/__init__'
p551
sg12
g13
(g14
g15
NtRp552
(dp553
g18
I1
sg19
I0
sg20
I0
sg21
I0
sg22
I0
sg23
I0
sg24
I0
sbssg25
S'\xca\xf5\x9f\x7f\x88\xdfa\x831|T\x1d\xbc}\xa5v'
p554
ssS'api_logging_models_modal_logging_modal_model'
p555
(dp556
g6
(dp557
g8
S'api_logging_models_modal_logging_modal_model.html'
p558
sg10
S'api_logging/models/modal_logging/modal_model'
p559
sg12
g13
(g14
g15
NtRp560
(dp561
g18
I1
sg19
I0
sg20
I19
sg21
I0
sg22
I0
sg23
I5
sg24
I0
sbssg25
S'u\xd6\xb7\xf4\x12auH\xc0\xfe\xc6x2\xdb\x08\x91'
p562
ssS'user_system_views_signups_hardcoded_test_account_view'
p563
(dp564
g6
(dp565
g8
S'user_system_views_signups_hardcoded_test_account_view.html'
p566
sg10
S'user_system/views/signups/hardcoded/test_account_view'
p567
sg12
g13
(g14
g15
NtRp568
(dp569
g18
I1
sg19
I0
sg20
I18
sg21
I0
sg22
I0
sg23
I0
sg24
I0
sbssg25
S'\xad\x17\xdc$}s\xae*\xd9\xdb\xb8jn\xcbc\xad'
p570
ssS'user_system_views_users_create_student_view'
p571
(dp572
g6
(dp573
g8
S'user_system_views_users_create_student_view.html'
p574
sg10
S'user_system/views/users/create_student_view'
p575
sg12
g13
(g14
g15
NtRp576
(dp577
g18
I1
sg19
I0
sg20
I37
sg21
I0
sg22
I0
sg23
I24
sg24
I0
sbssg25
S'w\x9e-\xe1\xbd0\x1eg9g\xd4\xea?\nf\xbb'
p578
ssS'teach_serializers_teacher_tags___init__'
p579
(dp580
g6
(dp581
g8
S'teach_serializers_teacher_tags___init__.html'
p582
sg10
S'teach/serializers/teacher_tags/__init__'
p583
sg12
g13
(g14
g15
NtRp584
(dp585
g18
I1
sg19
I0
sg20
I1
sg21
I0
sg22
I0
sg23
I0
sg24
I0
sbssg25
S'\xbcY\xf9\xa9z\x96\xadV.\xe4\xd00l\x92p\x7f'
p586
ssS'learn_models_daily_quests_tests___init__'
p587
(dp588
g6
(dp589
g8
S'learn_models_daily_quests_tests___init__.html'
p590
sg10
S'learn/models/daily_quests/tests/__init__'
p591
sg12
g13
(g14
g15
NtRp592
(dp593
g18
I1
sg19
I0
sg20
I1
sg21
I0
sg22
I0
sg23
I0
sg24
I0
sbssg25
S'C<+\x18d[1i\xd1\xed\xdc\xe5\x83\xa3\xf8\x8b'
p594
ssS'user_system_views_signups___init__'
p595
(dp596
g6
(dp597
g8
S'user_system_views_signups___init__.html'
p598
sg10
S'user_system/views/signups/__init__'
p599
sg12
g13
(g14
g15
NtRp600
(dp601
g18
I1
sg19
I0
sg20
I5
sg21
I0
sg22
I0
sg23
I0
sg24
I0
sbssg25
S'\xb0\xd7X\xceHE\xa9\x8c\xb0\xe5,\xdcyCtU'
p602
ssS'create_views_tags_tag_view'
p603
(dp604
g6
(dp605
g8
S'create_views_tags_tag_view.html'
p606
sg10
S'create/views/tags/tag_view'
p607
sg12
g13
(g14
g15
NtRp608
(dp609
g18
I1
sg19
I0
sg20
I92
sg21
I0
sg22
I0
sg23
I13
sg24
I0
sbssg25
S'\x19\xf0\xdb\xc6\x8c\x13;"\xf6W\xf4\x857\x91s\xc5'
p610
ssS'learn_models_daily_quests_daily_quest_model'
p611
(dp612
g6
(dp613
g8
S'learn_models_daily_quests_daily_quest_model.html'
p614
sg10
S'learn/models/daily_quests/daily_quest_model'
p615
sg12
g13
(g14
g15
NtRp616
(dp617
g18
I1
sg19
I0
sg20
I148
sg21
I0
sg22
I0
sg23
I29
sg24
I0
sbssg25
S'\x9a\xc0y\x82\x9dJ\xefZ\xd2\xac\x05^\xb5\xa5\xcdJ'
p618
ssS'teach_models_campaigns_campaign_model'
p619
(dp620
g6
(dp621
g8
S'teach_models_campaigns_campaign_model.html'
p622
sg10
S'teach/models/campaigns/campaign_model'
p623
sg12
g13
(g14
g15
NtRp624
(dp625
g18
I1
sg19
I0
sg20
I40
sg21
I0
sg22
I0
sg23
I0
sg24
I0
sbssg25
S'5\xdf\xef:\x0cs\x9f\x8e\xe7\x86\x7f\xd3:\xef\xfc$'
p626
ssS'create_views_tags_tests_test_add_prerequisite_view'
p627
(dp628
g6
(dp629
g8
S'create_views_tags_tests_test_add_prerequisite_view.html'
p630
sg10
S'create/views/tags/tests/test_add_prerequisite_view'
p631
sg12
g13
(g14
g15
NtRp632
(dp633
g18
I1
sg19
I0
sg20
I26
sg21
I0
sg22
I0
sg23
I0
sg24
I0
sbssg25
S'\xda\xfe{\x1e2\x9b-(\x12I\x05\x11H@x\xe2'
p634
ssS'create_models_tags___init__'
p635
(dp636
g6
(dp637
g8
S'create_models_tags___init__.html'
p638
sg10
S'create/models/tags/__init__'
p639
sg12
g13
(g14
g15
NtRp640
(dp641
g18
I1
sg19
I0
sg20
I5
sg21
I0
sg22
I0
sg23
I0
sg24
I0
sbssg25
S'\x8e\x05\xd7\x16\x9aN\xe2\xcc\xb5\xae\x95l\xe9\xa49\xd1'
p642
ssS'teach_models_campaigns_tests___init__'
p643
(dp644
g6
(dp645
g8
S'teach_models_campaigns_tests___init__.html'
p646
sg10
S'teach/models/campaigns/tests/__init__'
p647
sg12
g13
(g14
g15
NtRp648
(dp649
g18
I1
sg19
I0
sg20
I0
sg21
I0
sg22
I0
sg23
I0
sg24
I0
sbssg25
S'\xca\xf5\x9f\x7f\x88\xdfa\x831|T\x1d\xbc}\xa5v'
p650
ssS'learn_views_student_news_feed___init__'
p651
(dp652
g6
(dp653
g8
S'learn_views_student_news_feed___init__.html'
p654
sg10
S'learn/views/student_news_feed/__init__'
p655
sg12
g13
(g14
g15
NtRp656
(dp657
g18
I1
sg19
I0
sg20
I1
sg21
I0
sg22
I0
sg23
I0
sg24
I0
sbssg25
S':\x9b\xd1\xaa.\x0c\xa4\x9a-m\xb9g\x86\xc7\xff*'
p658
ssS'teach_views_teacher_chapters_teacher_chapter_view'
p659
(dp660
g6
(dp661
g8
S'teach_views_teacher_chapters_teacher_chapter_view.html'
p662
sg10
S'teach/views/teacher_chapters/teacher_chapter_view'
p663
sg12
g13
(g14
g15
NtRp664
(dp665
g18
I1
sg19
I0
sg20
I44
sg21
I0
sg22
I0
sg23
I25
sg24
I0
sbssg25
S"G\xe4\xd9\\'\x9c#\x8a\xb8\xdc\xf1U\xe4\x8b\x88f"
p666
ssS'create_serializers_tags_concept_serializer'
p667
(dp668
g6
(dp669
g8
S'create_serializers_tags_concept_serializer.html'
p670
sg10
S'create/serializers/tags/concept_serializer'
p671
sg12
g13
(g14
g15
NtRp672
(dp673
g18
I1
sg19
I0
sg20
I6
sg21
I0
sg22
I0
sg23
I0
sg24
I0
sbssg25
S'\xde\x8f @\x0e\xfd\xdf\xc9\x81\x08\xf9\xb8\x82R\x89e'
p674
ssS'create_serializers_questions_question_history_remark_serializer'
p675
(dp676
g6
(dp677
g8
S'create_serializers_questions_question_history_remark_serializer.html'
p678
sg10
S'create/serializers/questions/question_history_remark_serializer'
p679
sg12
g13
(g14
g15
NtRp680
(dp681
g18
I1
sg19
I0
sg20
I6
sg21
I0
sg22
I0
sg23
I0
sg24
I0
sbssg25
S'\xf0\x8f \xe8&fi\x9bmn\xf9\xc1\x9b\xddZ='
p682
ssS'user_system_models_roles_tests___init__'
p683
(dp684
g6
(dp685
g8
S'user_system_models_roles_tests___init__.html'
p686
sg10
S'user_system/models/roles/tests/__init__'
p687
sg12
g13
(g14
g15
NtRp688
(dp689
g18
I1
sg19
I0
sg20
I0
sg21
I0
sg22
I0
sg23
I0
sg24
I0
sbssg25
S'\xca\xf5\x9f\x7f\x88\xdfa\x831|T\x1d\xbc}\xa5v'
p690
ssS'create_serializers_tags___init__'
p691
(dp692
g6
(dp693
g8
S'create_serializers_tags___init__.html'
p694
sg10
S'create/serializers/tags/__init__'
p695
sg12
g13
(g14
g15
NtRp696
(dp697
g18
I1
sg19
I0
sg20
I0
sg21
I0
sg22
I0
sg23
I0
sg24
I0
sbssg25
S'\xca\xf5\x9f\x7f\x88\xdfa\x831|T\x1d\xbc}\xa5v'
p698
ssS'privilege_urls'
p699
(dp700
g6
(dp701
g8
S'privilege_urls.html'
p702
sg10
S'privilege/urls'
p703
sg12
g13
(g14
g15
NtRp704
(dp705
g18
I1
sg19
I0
sg20
I7
sg21
I0
sg22
I0
sg23
I0
sg24
I0
sbssg25
S'\xfb?\xaf\xe5\xbf\xeb\r\xd3\x93lI\xd6\x03\xb6\x16\x03'
p706
ssS'flipped_helpers_time_helper'
p707
(dp708
g6
(dp709
g8
S'flipped_helpers_time_helper.html'
p710
sg10
S'flipped/helpers/time_helper'
p711
sg12
g13
(g14
g15
NtRp712
(dp713
g18
I1
sg19
I0
sg20
I31
sg21
I0
sg22
I0
sg23
I19
sg24
I0
sbssg25
S'\xa6\x94\xf4\x81\x89\xe8":\xf1{\xeb\x08\xc5\xa3\x12U'
p714
ssS'user_system_serializers_users_teacher_mapping_serializer'
p715
(dp716
g6
(dp717
g8
S'user_system_serializers_users_teacher_mapping_serializer.html'
p718
sg10
S'user_system/serializers/users/teacher_mapping_serializer'
p719
sg12
g13
(g14
g15
NtRp720
(dp721
g18
I1
sg19
I0
sg20
I7
sg21
I0
sg22
I0
sg23
I0
sg24
I0
sbssg25
S'bV\xf2\xf0t\x0eI\x1d\xdc\x8e\xeb\xdf\xa3\xf4E\xe3'
p722
ssS'api_logging_views_LoggingView'
p723
(dp724
g6
(dp725
g8
S'api_logging_views_LoggingView.html'
p726
sg10
S'api_logging/views/LoggingView'
p727
sg12
g13
(g14
g15
NtRp728
(dp729
g18
I1
sg19
I0
sg20
I41
sg21
I0
sg22
I0
sg23
I27
sg24
I0
sbssg25
S'\xa5\xe1dGCf\x1b-\xbf\x85\x92\xa5\x95\r\x16\xd0'
p730
ssS'create_models_books_book_model'
p731
(dp732
g6
(dp733
g8
S'create_models_books_book_model.html'
p734
sg10
S'create/models/books/book_model'
p735
sg12
g13
(g14
g15
NtRp736
(dp737
g18
I1
sg19
I0
sg20
I37
sg21
I0
sg22
I0
sg23
I0
sg24
I0
sbssg25
S'U\xb6\xde\xa6\xd5v\x85]\xcb\xc1/\xa8\r\xdd\x1c\xa2'
p738
ssS'teach_models___init__'
p739
(dp740
g6
(dp741
g8
S'teach_models___init__.html'
p742
sg10
S'teach/models/__init__'
p743
sg12
g13
(g14
g15
NtRp744
(dp745
g18
I1
sg19
I0
sg20
I4
sg21
I0
sg22
I0
sg23
I0
sg24
I0
sbssg25
S'x\xcf\xcc\x8e\xc4\x03o{N17\xe4l\x06\xd8\xe4'
p746
ssS'create_models_tags_skill_model'
p747
(dp748
g6
(dp749
g8
S'create_models_tags_skill_model.html'
p750
sg10
S'create/models/tags/skill_model'
p751
sg12
g13
(g14
g15
NtRp752
(dp753
g18
I1
sg19
I0
sg20
I10
sg21
I0
sg22
I0
sg23
I0
sg24
I0
sbssg25
S'm\xe1~\x82\xc8j\xd2\xbf\xd4\x16\xe5*\x97\xa9\xe1\xe8'
p754
ssS'learn_views_daily_quests_daily_quest_history_date_group_view'
p755
(dp756
g6
(dp757
g8
S'learn_views_daily_quests_daily_quest_history_date_group_view.html'
p758
sg10
S'learn/views/daily_quests/daily_quest_history_date_group_view'
p759
sg12
g13
(g14
g15
NtRp760
(dp761
g18
I1
sg19
I0
sg20
I94
sg21
I0
sg22
I0
sg23
I71
sg24
I0
sbssg25
S'/\xb9\xa7\xac\xdfwJ\xf8\xab\x05\xc2BD\xa4G\x92'
p762
ssS'learn_tests'
p763
(dp764
g6
(dp765
g8
S'learn_tests.html'
p766
sg10
S'learn/tests'
p767
sg12
g13
(g14
g15
NtRp768
(dp769
g18
I1
sg19
I0
sg20
I1
sg21
I0
sg22
I0
sg23
I0
sg24
I0
sbssg25
S'\x18\xa2\xf7\x81\x94\xb4%\xa4\xfaT\xb8\x84>\xb2\xf3b'
p770
ssS'api_logging_managers'
p771
(dp772
g6
(dp773
g8
S'api_logging_managers.html'
p774
sg10
S'api_logging/managers'
p775
sg12
g13
(g14
g15
NtRp776
(dp777
g18
I1
sg19
I0
sg20
I4
sg21
I0
sg22
I0
sg23
I0
sg24
I0
sbssg25
S'\xbf\xd9\xeb\xe5\xd2i\x90\t]\x87\xbe\x04f\xb3\xe5z'
p778
ssS'api_logging_views___init__'
p779
(dp780
g6
(dp781
g8
S'api_logging_views___init__.html'
p782
sg10
S'api_logging/views/__init__'
p783
sg12
g13
(g14
g15
NtRp784
(dp785
g18
I1
sg19
I0
sg20
I5
sg21
I0
sg22
I0
sg23
I0
sg24
I0
sbssg25
S'>\xf9\xd2!\xa7\x89\xba\xe3t\xc3dDm\xf3 \xd4'
p786
ssS'create_models_books___init__'
p787
(dp788
g6
(dp789
g8
S'create_models_books___init__.html'
p790
sg10
S'create/models/books/__init__'
p791
sg12
g13
(g14
g15
NtRp792
(dp793
g18
I1
sg19
I0
sg20
I4
sg21
I0
sg22
I0
sg23
I0
sg24
I0
sbssg25
S'\xca\xb3\xf4\xcb\xfb\xec\x1d\xcak\xc5\xccm\xef\xac\xc6\xb9'
p794
ssS'api_logging_views_query_stat_query_stat_view'
p795
(dp796
g6
(dp797
g8
S'api_logging_views_query_stat_query_stat_view.html'
p798
sg10
S'api_logging/views/query_stat/query_stat_view'
p799
sg12
g13
(g14
g15
NtRp800
(dp801
g18
I1
sg19
I0
sg20
I57
sg21
I0
sg22
I0
sg23
I32
sg24
I0
sbssg25
S'\xd5.\x06\xb6\xe5\xf7\xb0\xc0(&t\x9c>q`\xe2'
p802
ssS'create_models_quests_tests_test_quest_model'
p803
(dp804
g6
(dp805
g8
S'create_models_quests_tests_test_quest_model.html'
p806
sg10
S'create/models/quests/tests/test_quest_model'
p807
sg12
g13
(g14
g15
NtRp808
(dp809
g18
I1
sg19
I0
sg20
I48
sg21
I0
sg22
I0
sg23
I0
sg24
I0
sbssg25
S'D_\xf5z\xa2\xae\xe2\x8e\x08\xd2\x95n\xf4\xd3\x17\xec'
p810
ssS'privilege_views_privileges_user_privilege_view'
p811
(dp812
g6
(dp813
g8
S'privilege_views_privileges_user_privilege_view.html'
p814
sg10
S'privilege/views/privileges/user_privilege_view'
p815
sg12
g13
(g14
g15
NtRp816
(dp817
g18
I1
sg19
I0
sg20
I38
sg21
I0
sg22
I0
sg23
I22
sg24
I0
sbssg25
S'\x1f\x02_\x97\x1a\x13\xd7\xea\xf0\x1cr7\xca>\xd4v'
p818
ssS'learn_models_daily_quests_tests_test_daily_quest_model'
p819
(dp820
g6
(dp821
g8
S'learn_models_daily_quests_tests_test_daily_quest_model.html'
p822
sg10
S'learn/models/daily_quests/tests/test_daily_quest_model'
p823
sg12
g13
(g14
g15
NtRp824
(dp825
g18
I1
sg19
I0
sg20
I249
sg21
I0
sg22
I0
sg23
I0
sg24
I0
sbssg25
S'p\xb13\xea/\xcb\xab\xa2&\xebA<\xb5\xdcp\xe9'
p826
ssS'user_system_views_roles_tests___init__'
p827
(dp828
g6
(dp829
g8
S'user_system_views_roles_tests___init__.html'
p830
sg10
S'user_system/views/roles/tests/__init__'
p831
sg12
g13
(g14
g15
NtRp832
(dp833
g18
I1
sg19
I0
sg20
I0
sg21
I0
sg22
I0
sg23
I0
sg24
I0
sbssg25
S'\xca\xf5\x9f\x7f\x88\xdfa\x831|T\x1d\xbc}\xa5v'
p834
ssS'teach_views_daily_quest_templates_daily_quest_template_view'
p835
(dp836
g6
(dp837
g8
S'teach_views_daily_quest_templates_daily_quest_template_view.html'
p838
sg10
S'teach/views/daily_quest_templates/daily_quest_template_view'
p839
sg12
g13
(g14
g15
NtRp840
(dp841
g18
I1
sg19
I0
sg20
I54
sg21
I0
sg22
I0
sg23
I33
sg24
I0
sbssg25
S'G\xe6@\xc5\xfd9,E\x17\xb7\x8d\x87\x1c\xd25\xd4'
p842
ssS'api_logging_views_summary___init__'
p843
(dp844
g6
(dp845
g8
S'api_logging_views_summary___init__.html'
p846
sg10
S'api_logging/views/summary/__init__'
p847
sg12
g13
(g14
g15
NtRp848
(dp849
g18
I1
sg19
I0
sg20
I1
sg21
I0
sg22
I0
sg23
I0
sg24
I0
sbssg25
S'u`\xd7\x9f\x119\xb4\xce}{.\xfa\xa5\x05]\x14'
p850
ssS'privilege_serializers___init__'
p851
(dp852
g6
(dp853
g8
S'privilege_serializers___init__.html'
p854
sg10
S'privilege/serializers/__init__'
p855
sg12
g13
(g14
g15
NtRp856
(dp857
g18
I1
sg19
I0
sg20
I1
sg21
I0
sg22
I0
sg23
I0
sg24
I0
sbssg25
S'\xb9U\xb8U\x0evw\xd6+YcF\xf8\x08\n\xc4'
p858
ssS'create_models_books_tests_test_book_subchapter_model'
p859
(dp860
g6
(dp861
g8
S'create_models_books_tests_test_book_subchapter_model.html'
p862
sg10
S'create/models/books/tests/test_book_subchapter_model'
p863
sg12
g13
(g14
g15
NtRp864
(dp865
g18
I1
sg19
I0
sg20
I42
sg21
I0
sg22
I0
sg23
I0
sg24
I0
sbssg25
S'\xdb\xde\xea-i\xe2P}\x11\x9e5\xa4\x8aPXt'
p866
ssS'learn_models_daily_quests___init__'
p867
(dp868
g6
(dp869
g8
S'learn_models_daily_quests___init__.html'
p870
sg10
S'learn/models/daily_quests/__init__'
p871
sg12
g13
(g14
g15
NtRp872
(dp873
g18
I1
sg19
I0
sg20
I3
sg21
I0
sg22
I0
sg23
I0
sg24
I0
sbssg25
S'\x0f\xd4+\xbaj\xa4v\xeaM\x7fW\x009\xfd\xfb\x04'
p874
ssS'create_models_tags_tag_model'
p875
(dp876
g6
(dp877
g8
S'create_models_tags_tag_model.html'
p878
sg10
S'create/models/tags/tag_model'
p879
sg12
g13
(g14
g15
NtRp880
(dp881
g18
I1
sg19
I0
sg20
I37
sg21
I0
sg22
I0
sg23
I0
sg24
I0
sbssg25
S"X\x97'\x1a\x1e-M[\x92\xe4\xe1\xbb\xe7\x8dW'"
p882
ssS'create_views_tags___init__'
p883
(dp884
g6
(dp885
g8
S'create_views_tags___init__.html'
p886
sg10
S'create/views/tags/__init__'
p887
sg12
g13
(g14
g15
NtRp888
(dp889
g18
I1
sg19
I0
sg20
I1
sg21
I0
sg22
I0
sg23
I0
sg24
I0
sbssg25
S'\x14\xe45\x8b?h\x89\x07\xc9\x8fC8\xe1\xeb)\xab'
p890
ssS'api_logging_models_query_stat___init__'
p891
(dp892
g6
(dp893
g8
S'api_logging_models_query_stat___init__.html'
p894
sg10
S'api_logging/models/query_stat/__init__'
p895
sg12
g13
(g14
g15
NtRp896
(dp897
g18
I1
sg19
I0
sg20
I1
sg21
I0
sg22
I0
sg23
I0
sg24
I0
sbssg25
S'\\\x8e\x87\x021\x12M]5L\xff\x93--\x9b\xa9'
p898
ssS'create_serializers_tags_skill_serializer'
p899
(dp900
g6
(dp901
g8
S'create_serializers_tags_skill_serializer.html'
p902
sg10
S'create/serializers/tags/skill_serializer'
p903
sg12
g13
(g14
g15
NtRp904
(dp905
g18
I1
sg19
I0
sg20
I6
sg21
I0
sg22
I0
sg23
I0
sg24
I0
sbssg25
S'\x0c\x01Sa\xc7\x84\xa9\xa5a\xd7\xd1\x8eBV!\xca'
p906
ssS'create_views_questions_question_history_remark_view'
p907
(dp908
g6
(dp909
g8
S'create_views_questions_question_history_remark_view.html'
p910
sg10
S'create/views/questions/question_history_remark_view'
p911
sg12
g13
(g14
g15
NtRp912
(dp913
g18
I1
sg19
I0
sg20
I14
sg21
I0
sg22
I0
sg23
I0
sg24
I0
sbssg25
S'|u\xdb@\x91\x0b\x8e\xcf\xedW\xe42\xf9DrK'
p914
ssS'create_serializers_tags_tag_type_serializer'
p915
(dp916
g6
(dp917
g8
S'create_serializers_tags_tag_type_serializer.html'
p918
sg10
S'create/serializers/tags/tag_type_serializer'
p919
sg12
g13
(g14
g15
NtRp920
(dp921
g18
I1
sg19
I0
sg20
I6
sg21
I0
sg22
I0
sg23
I0
sg24
I0
sbssg25
S'\x9du\x842c\x83y 05mb\x86\x0f\xec\x9e'
p922
ssS'learn_models_points_tests_test_point_history_model'
p923
(dp924
g6
(dp925
g8
S'learn_models_points_tests_test_point_history_model.html'
p926
sg10
S'learn/models/points/tests/test_point_history_model'
p927
sg12
g13
(g14
g15
NtRp928
(dp929
g18
I1
sg19
I0
sg20
I22
sg21
I0
sg22
I0
sg23
I0
sg24
I0
sbssg25
S'\xc6%\x88\xa5t\xb5\xd0\xe4\x02\x83\x11\x12\x0f\x1by;'
p930
ssS'learn_serializers_daily_quests_daily_quest_serializer'
p931
(dp932
g6
(dp933
g8
S'learn_serializers_daily_quests_daily_quest_serializer.html'
p934
sg10
S'learn/serializers/daily_quests/daily_quest_serializer'
p935
sg12
g13
(g14
g15
NtRp936
(dp937
g18
I1
sg19
I0
sg20
I59
sg21
I0
sg22
I0
sg23
I23
sg24
I0
sbssg25
S'aA!;\xb2eF\x8c\x88\xf9\xcde\xf1\x9d\xb2\xc0'
p938
ssS'api_logging_mixins'
p939
(dp940
g6
(dp941
g8
S'api_logging_mixins.html'
p942
sg10
S'api_logging/mixins'
p943
sg12
g13
(g14
g15
NtRp944
(dp945
g18
I1
sg19
I0
sg20
I26
sg21
I0
sg22
I0
sg23
I2
sg24
I0
sbssg25
S"B%#B\x18\xd7\xf5r\xfaNO\x0bL8'Z"
p946
ssS'teach_views_teacher_news_feed_teacher_news_feed_view'
p947
(dp948
g6
(dp949
g8
S'teach_views_teacher_news_feed_teacher_news_feed_view.html'
p950
sg10
S'teach/views/teacher_news_feed/teacher_news_feed_view'
p951
sg12
g13
(g14
g15
NtRp952
(dp953
g18
I1
sg19
I0
sg20
I60
sg21
I0
sg22
I0
sg23
I38
sg24
I0
sbssg25
S'\xd5\xf8\xeb\xb4\xc7\x02\xb0\xec\xb1\xb1@\xcf\x8d(<\x9c'
p954
ssS'user_system_serializers_schools_organization_serializer'
p955
(dp956
g6
(dp957
g8
S'user_system_serializers_schools_organization_serializer.html'
p958
sg10
S'user_system/serializers/schools/organization_serializer'
p959
sg12
g13
(g14
g15
NtRp960
(dp961
g18
I1
sg19
I0
sg20
I7
sg21
I0
sg22
I0
sg23
I0
sg24
I0
sbssg25
S'z|\xe1\xee\x1d\xdb\xe1\xee\x9f\x1f\xed\xf4\x19av='
p962
ssS'create_models_books_book_subchapter_model'
p963
(dp964
g6
(dp965
g8
S'create_models_books_book_subchapter_model.html'
p966
sg10
S'create/models/books/book_subchapter_model'
p967
sg12
g13
(g14
g15
NtRp968
(dp969
g18
I1
sg19
I0
sg20
I45
sg21
I0
sg22
I0
sg23
I0
sg24
I0
sbssg25
S'\xf6\tE\r/\x1e\xfeP\xac\xcea\xa5\xdd\xe3\x0ce'
p970
ssS'teach_views_summaries_leaderboard_view'
p971
(dp972
g6
(dp973
g8
S'teach_views_summaries_leaderboard_view.html'
p974
sg10
S'teach/views/summaries/leaderboard_view'
p975
sg12
g13
(g14
g15
NtRp976
(dp977
g18
I1
sg19
I0
sg20
I159
sg21
I0
sg22
I0
sg23
I129
sg24
I0
sbssg25
S'X\xc8t\x82-\x97B\x95\x8egr\xba\xba\x05\xf63'
p978
ssS'api_logging_serializers_modal_loggings_modal_user_history_serializer'
p979
(dp980
g6
(dp981
g8
S'api_logging_serializers_modal_loggings_modal_user_history_serializer.html'
p982
sg10
S'api_logging/serializers/modal_loggings/modal_user_history_serializer'
p983
sg12
g13
(g14
g15
NtRp984
(dp985
g18
I1
sg19
I0
sg20
I7
sg21
I0
sg22
I0
sg23
I0
sg24
I0
sbssg25
S'\xa2\x1b9\xbf\xf0\xff\x9eNy \x0e\xae\xaf\xb8VY'
p986
ssS'learn_models_points___init__'
p987
(dp988
g6
(dp989
g8
S'learn_models_points___init__.html'
p990
sg10
S'learn/models/points/__init__'
p991
sg12
g13
(g14
g15
NtRp992
(dp993
g18
I1
sg19
I0
sg20
I2
sg21
I0
sg22
I0
sg23
I0
sg24
I0
sbssg25
S'\x15\x90N@\xba\xcfcw\xe1d\xbc\xda(\xb7S\xc9'
p994
ssS'api_logging_models___init__'
p995
(dp996
g6
(dp997
g8
S'api_logging_models___init__.html'
p998
sg10
S'api_logging/models/__init__'
p999
sg12
g13
(g14
g15
NtRp1000
(dp1001
g18
I1
sg19
I0
sg20
I4
sg21
I0
sg22
I0
sg23
I0
sg24
I0
sbssg25
S'\x9b,l\xb8\x06\x16\x8a\x93"!"\x1d\xcd\\0_'
p1002
ssS'teach_serializers___init__'
p1003
(dp1004
g6
(dp1005
g8
S'teach_serializers___init__.html'
p1006
sg10
S'teach/serializers/__init__'
p1007
sg12
g13
(g14
g15
NtRp1008
(dp1009
g18
I1
sg19
I0
sg20
I3
sg21
I0
sg22
I0
sg23
I0
sg24
I0
sbssg25
S'\xdc\xa6A\x121\xadq\x18\rG\xd4H\x16!\x94\x89'
p1010
ssS'user_system_views_batch_processing___init__'
p1011
(dp1012
g6
(dp1013
g8
S'user_system_views_batch_processing___init__.html'
p1014
sg10
S'user_system/views/batch_processing/__init__'
p1015
sg12
g13
(g14
g15
NtRp1016
(dp1017
g18
I1
sg19
I0
sg20
I1
sg21
I0
sg22
I0
sg23
I0
sg24
I0
sbssg25
S'X\x8c\xf9\x00~\x0f\xef\x9c\x0fe\x02S\xb9 \x08P'
p1018
ssS'api_logging_models_api_logging___init__'
p1019
(dp1020
g6
(dp1021
g8
S'api_logging_models_api_logging___init__.html'
p1022
sg10
S'api_logging/models/api_logging/__init__'
p1023
sg12
g13
(g14
g15
NtRp1024
(dp1025
g18
I1
sg19
I0
sg20
I1
sg21
I0
sg22
I0
sg23
I0
sg24
I0
sbssg25
S'\xd3\x1e~\xd5\x8f\xcd!\x04\xea\xccp\x8f\xb8~\xfe3'
p1026
ssS'user_system_views_signups_email_signup_view'
p1027
(dp1028
g6
(dp1029
g8
S'user_system_views_signups_email_signup_view.html'
p1030
sg10
S'user_system/views/signups/email_signup_view'
p1031
sg12
g13
(g14
g15
NtRp1032
(dp1033
g18
I1
sg19
I0
sg20
I44
sg21
I0
sg22
I0
sg23
I0
sg24
I0
sbssg25
S'\xb5\x97\xa4\xfc\x18\x19:\xa6\xa6k\x99\xb62(\xc8n'
p1034
ssS'teach_views_teacher_tags___init__'
p1035
(dp1036
g6
(dp1037
g8
S'teach_views_teacher_tags___init__.html'
p1038
sg10
S'teach/views/teacher_tags/__init__'
p1039
sg12
g13
(g14
g15
NtRp1040
(dp1041
g18
I1
sg19
I0
sg20
I1
sg21
I0
sg22
I0
sg23
I0
sg24
I0
sbssg25
S'g\xa1\xf6\xc4D\xb0G\xd6\xb0\xdc\xf4U\xa6\xd11/'
p1042
ssS'flipped_helpers_success_response_helper'
p1043
(dp1044
g6
(dp1045
g8
S'flipped_helpers_success_response_helper.html'
p1046
sg10
S'flipped/helpers/success_response_helper'
p1047
sg12
g13
(g14
g15
NtRp1048
(dp1049
g18
I1
sg19
I0
sg20
I4
sg21
I0
sg22
I0
sg23
I0
sg24
I0
sbssg25
S'1\x08{\x00\xb4;;\x89\xda\x19\xdeE\xb37\xe9\xb5'
p1050
ssS'create_models_questions_question_model'
p1051
(dp1052
g6
(dp1053
g8
S'create_models_questions_question_model.html'
p1054
sg10
S'create/models/questions/question_model'
p1055
sg12
g13
(g14
g15
NtRp1056
(dp1057
g18
I1
sg19
I0
sg20
I48
sg21
I0
sg22
I0
sg23
I0
sg24
I0
sbssg25
S'\xae\x7f\xbb2w\xef\xf1\x89?\xe7yo=\xd6\x1c\x85'
p1058
ssS'user_system_models_roles___init__'
p1059
(dp1060
g6
(dp1061
g8
S'user_system_models_roles___init__.html'
p1062
sg10
S'user_system/models/roles/__init__'
p1063
sg12
g13
(g14
g15
NtRp1064
(dp1065
g18
I1
sg19
I0
sg20
I2
sg21
I0
sg22
I0
sg23
I0
sg24
I0
sbssg25
S'\xca\x00!\xac\xe8P\x96*^a\xc4\x1d\xd5\x14.\x82'
p1066
ssS'create_models_questions_question_history_model'
p1067
(dp1068
g6
(dp1069
g8
S'create_models_questions_question_history_model.html'
p1070
sg10
S'create/models/questions/question_history_model'
p1071
sg12
g13
(g14
g15
NtRp1072
(dp1073
g18
I1
sg19
I0
sg20
I68
sg21
I0
sg22
I0
sg23
I2
sg24
I0
sbssg25
S'\xb5h\xa9D\xddnj\xca\x08\x9e\xfd\xda\x8aO\xa2\xbc'
p1074
ssS'user_system_views_signups_tests_test_facebook_signup_view'
p1075
(dp1076
g6
(dp1077
g8
S'user_system_views_signups_tests_test_facebook_signup_view.html'
p1078
sg10
S'user_system/views/signups/tests/test_facebook_signup_view'
p1079
sg12
g13
(g14
g15
NtRp1080
(dp1081
g18
I1
sg19
I0
sg20
I60
sg21
I0
sg22
I0
sg23
I0
sg24
I0
sbssg25
S'\x17\x8e\xa8\xda\xef\x1b-\x81\xe1\xf9\xa8LMMS\x81'
p1082
ssS'user_system_models_users_tests_test_teacher_mapping_model'
p1083
(dp1084
g6
(dp1085
g8
S'user_system_models_users_tests_test_teacher_mapping_model.html'
p1086
sg10
S'user_system/models/users/tests/test_teacher_mapping_model'
p1087
sg12
g13
(g14
g15
NtRp1088
(dp1089
g18
I1
sg19
I0
sg20
I35
sg21
I0
sg22
I0
sg23
I0
sg24
I0
sbssg25
S'\x80\x97l6\x8d\xcc\xcdxK\xc6\x81\xce&\x9c\x82T'
p1090
ssS'user_system_models_users___init__'
p1091
(dp1092
g6
(dp1093
g8
S'user_system_models_users___init__.html'
p1094
sg10
S'user_system/models/users/__init__'
p1095
sg12
g13
(g14
g15
NtRp1096
(dp1097
g18
I1
sg19
I0
sg20
I11
sg21
I0
sg22
I0
sg23
I0
sg24
I0
sbssg25
S'\x82\xe9\xad3s\xa8V\x17Q\x8dNX\xf1\x15\xf0\x8d'
p1098
ssS'teach_views_summaries_class_ranking_view'
p1099
(dp1100
g6
(dp1101
g8
S'teach_views_summaries_class_ranking_view.html'
p1102
sg10
S'teach/views/summaries/class_ranking_view'
p1103
sg12
g13
(g14
g15
NtRp1104
(dp1105
g18
I1
sg19
I0
sg20
I82
sg21
I0
sg22
I0
sg23
I59
sg24
I0
sbssg25
S'\x0fj\x1f\x80\xb0nn\xdb\xa1\x97\xa4\x03\x7f\r\x0f\xe9'
p1106
ssS'privilege_models_privileges_tests___init__'
p1107
(dp1108
g6
(dp1109
g8
S'privilege_models_privileges_tests___init__.html'
p1110
sg10
S'privilege/models/privileges/tests/__init__'
p1111
sg12
g13
(g14
g15
NtRp1112
(dp1113
g18
I1
sg19
I0
sg20
I0
sg21
I0
sg22
I0
sg23
I0
sg24
I0
sbssg25
S'\xca\xf5\x9f\x7f\x88\xdfa\x831|T\x1d\xbc}\xa5v'
p1114
ssS'teach_serializers_teacher_chapters___init__'
p1115
(dp1116
g6
(dp1117
g8
S'teach_serializers_teacher_chapters___init__.html'
p1118
sg10
S'teach/serializers/teacher_chapters/__init__'
p1119
sg12
g13
(g14
g15
NtRp1120
(dp1121
g18
I1
sg19
I0
sg20
I1
sg21
I0
sg22
I0
sg23
I0
sg24
I0
sbssg25
S'\x83\xc8\xcb\xbf\xe7\x16rOj\x83B<\xef\xb6\xc8\xba'
p1122
ssS'api_logging_admin'
p1123
(dp1124
g6
(dp1125
g8
S'api_logging_admin.html'
p1126
sg10
S'api_logging/admin'
p1127
sg12
g13
(g14
g15
NtRp1128
(dp1129
g18
I1
sg19
I0
sg20
I12
sg21
I0
sg22
I0
sg23
I0
sg24
I0
sbssg25
S'\xc4K\xd69\x8f8&\xff\xd3X\x98P\x05\x94\x0e\x14'
p1130
ssS'user_system_models_users_user_streak_history_model'
p1131
(dp1132
g6
(dp1133
g8
S'user_system_models_users_user_streak_history_model.html'
p1134
sg10
S'user_system/models/users/user_streak_history_model'
p1135
sg12
g13
(g14
g15
NtRp1136
(dp1137
g18
I1
sg19
I0
sg20
I28
sg21
I0
sg22
I0
sg23
I0
sg24
I0
sbssg25
S'U\xb7\xcf`\x96\xdf*r\xf5\xcd\x9d\x89$TJ\xbe'
p1138
ssS'create_models_tags_tests_test_concept_model'
p1139
(dp1140
g6
(dp1141
g8
S'create_models_tags_tests_test_concept_model.html'
p1142
sg10
S'create/models/tags/tests/test_concept_model'
p1143
sg12
g13
(g14
g15
NtRp1144
(dp1145
g18
I1
sg19
I0
sg20
I12
sg21
I0
sg22
I0
sg23
I0
sg24
I0
sbssg25
S's\xe9\xe1\x1a\x04\x99\x00DD\xed\xc7\xc1\x86\x02\x08\x1a'
p1146
ssS'privilege_models_privileges_privilege_model'
p1147
(dp1148
g6
(dp1149
g8
S'privilege_models_privileges_privilege_model.html'
p1150
sg10
S'privilege/models/privileges/privilege_model'
p1151
sg12
g13
(g14
g15
NtRp1152
(dp1153
g18
I1
sg19
I0
sg20
I29
sg21
I0
sg22
I0
sg23
I0
sg24
I0
sbssg25
S'\xe3\x0b\xce>C)\xbbe\xe5&\xec/rg\x7f\x88'
p1154
ssS'create_models_questions_tests_test_question_choice_model'
p1155
(dp1156
g6
(dp1157
g8
S'create_models_questions_tests_test_question_choice_model.html'
p1158
sg10
S'create/models/questions/tests/test_question_choice_model'
p1159
sg12
g13
(g14
g15
NtRp1160
(dp1161
g18
I1
sg19
I0
sg20
I46
sg21
I0
sg22
I0
sg23
I0
sg24
I0
sbssg25
S'\x85RV\x17\xb9k\x83\xe8\xf4A\xfe\x08\xac8\xa8\xa8'
p1162
ssS'user_system_views_users_tests_test_get_user_by_id_view'
p1163
(dp1164
g6
(dp1165
g8
S'user_system_views_users_tests_test_get_user_by_id_view.html'
p1166
sg10
S'user_system/views/users/tests/test_get_user_by_id_view'
p1167
sg12
g13
(g14
g15
NtRp1168
(dp1169
g18
I1
sg19
I0
sg20
I27
sg21
I0
sg22
I0
sg23
I0
sg24
I0
sbssg25
S'\xbaS<\n\x89\x02\x92C\xcb%\x7f\xc2\xfa\xdf\xbf\x8c'
p1170
ssS'create_models___init__'
p1171
(dp1172
g6
(dp1173
g8
S'create_models___init__.html'
p1174
sg10
S'create/models/__init__'
p1175
sg12
g13
(g14
g15
NtRp1176
(dp1177
g18
I1
sg19
I0
sg20
I6
sg21
I0
sg22
I0
sg23
I0
sg24
I0
sbssg25
S'u:6l/\x92\x08\x19R\x81\xfc\xdc\xf7\x1dh\xfe'
p1178
ssS'create_serializers_tags_tag_history_serializer'
p1179
(dp1180
g6
(dp1181
g8
S'create_serializers_tags_tag_history_serializer.html'
p1182
sg10
S'create/serializers/tags/tag_history_serializer'
p1183
sg12
g13
(g14
g15
NtRp1184
(dp1185
g18
I1
sg19
I0
sg20
I14
sg21
I0
sg22
I0
sg23
I0
sg24
I0
sbssg25
S'\xcf*\xadJ\xcc\xa9\xc4GC\x14\x9d\xd4\xf6\x03k\x15'
p1186
ssS'user_system_views_apps_tests_test_get_app_by_id_view'
p1187
(dp1188
g6
(dp1189
g8
S'user_system_views_apps_tests_test_get_app_by_id_view.html'
p1190
sg10
S'user_system/views/apps/tests/test_get_app_by_id_view'
p1191
sg12
g13
(g14
g15
NtRp1192
(dp1193
g18
I1
sg19
I0
sg20
I17
sg21
I0
sg22
I0
sg23
I0
sg24
I0
sbssg25
S'\xa8q\xbe&\xb4\x19\x9a\xd4\xc3\x9a\xd0or=\xf8\x8a'
p1194
ssS'create_views_books_tests_test_get_book_by_id_view'
p1195
(dp1196
g6
(dp1197
g8
S'create_views_books_tests_test_get_book_by_id_view.html'
p1198
sg10
S'create/views/books/tests/test_get_book_by_id_view'
p1199
sg12
g13
(g14
g15
NtRp1200
(dp1201
g18
I1
sg19
I0
sg20
I20
sg21
I0
sg22
I0
sg23
I0
sg24
I0
sbssg25
S'd\xb530uM\x83d\xc9\xf1\x16r\xa1rt\x15'
p1202
ssS'user_system_serializers___init__'
p1203
(dp1204
g6
(dp1205
g8
S'user_system_serializers___init__.html'
p1206
sg10
S'user_system/serializers/__init__'
p1207
sg12
g13
(g14
g15
NtRp1208
(dp1209
g18
I1
sg19
I0
sg20
I3
sg21
I0
sg22
I0
sg23
I0
sg24
I0
sbssg25
S'\xfak\x06f\x12\x9bq\xdd\xad\xa0\xfe\x0b8\xc2\xdd^'
p1210
ssS'teach_models_daily_quest_templates_tests___init__'
p1211
(dp1212
g6
(dp1213
g8
S'teach_models_daily_quest_templates_tests___init__.html'
p1214
sg10
S'teach/models/daily_quest_templates/tests/__init__'
p1215
sg12
g13
(g14
g15
NtRp1216
(dp1217
g18
I1
sg19
I0
sg20
I0
sg21
I0
sg22
I0
sg23
I0
sg24
I0
sbssg25
S'\xca\xf5\x9f\x7f\x88\xdfa\x831|T\x1d\xbc}\xa5v'
p1218
ssS'user_system_serializers_schools_grade_serializer'
p1219
(dp1220
g6
(dp1221
g8
S'user_system_serializers_schools_grade_serializer.html'
p1222
sg10
S'user_system/serializers/schools/grade_serializer'
p1223
sg12
g13
(g14
g15
NtRp1224
(dp1225
g18
I1
sg19
I0
sg20
I9
sg21
I0
sg22
I0
sg23
I0
sg24
I0
sbssg25
S'=C<x\xaf-*\xd9\x95!\x08<lY\xd8\xeb'
p1226
ssS'create_models_questions_tests___init__'
p1227
(dp1228
g6
(dp1229
g8
S'create_models_questions_tests___init__.html'
p1230
sg10
S'create/models/questions/tests/__init__'
p1231
sg12
g13
(g14
g15
NtRp1232
(dp1233
g18
I1
sg19
I0
sg20
I0
sg21
I0
sg22
I0
sg23
I0
sg24
I0
sbssg25
S'\xca\xf5\x9f\x7f\x88\xdfa\x831|T\x1d\xbc}\xa5v'
p1234
ssS'teach_views___init__'
p1235
(dp1236
g6
(dp1237
g8
S'teach_views___init__.html'
p1238
sg10
S'teach/views/__init__'
p1239
sg12
g13
(g14
g15
NtRp1240
(dp1241
g18
I1
sg19
I0
sg20
I4
sg21
I0
sg22
I0
sg23
I0
sg24
I0
sbssg25
S'\\C7\xd6\x1c\x99*"\xaa\xd3\xe04\x84sNG'
p1242
ssS'privilege_admin'
p1243
(dp1244
g6
(dp1245
g8
S'privilege_admin.html'
p1246
sg10
S'privilege/admin'
p1247
sg12
g13
(g14
g15
NtRp1248
(dp1249
g18
I1
sg19
I0
sg20
I4
sg21
I0
sg22
I0
sg23
I0
sg24
I0
sbssg25
S'Z\x0fN\xe8\xff\x16\x8a\x0e\xf6\xedX\xb2(\x12j\xdc'
p1250
ssS'teach_models_teacher_tags_tests_test_teacher_tag_model'
p1251
(dp1252
g6
(dp1253
g8
S'teach_models_teacher_tags_tests_test_teacher_tag_model.html'
p1254
sg10
S'teach/models/teacher_tags/tests/test_teacher_tag_model'
p1255
sg12
g13
(g14
g15
NtRp1256
(dp1257
g18
I1
sg19
I0
sg20
I30
sg21
I0
sg22
I0
sg23
I0
sg24
I0
sbssg25
S'\xb8\x1c\xe9\xfc[y\x0b\xd0r\xb4I\xf08f\x82\x96'
p1258
ssS'user_system_models_schools_academic_year_model'
p1259
(dp1260
g6
(dp1261
g8
S'user_system_models_schools_academic_year_model.html'
p1262
sg10
S'user_system/models/schools/academic_year_model'
p1263
sg12
g13
(g14
g15
NtRp1264
(dp1265
g18
I1
sg19
I0
sg20
I23
sg21
I0
sg22
I0
sg23
I0
sg24
I0
sbssg25
S'.}\xd3\x8fR(\xd1\xbb\xef2\x1f\xf8\xdeZ\t5'
p1266
ssS'learn_models___init__'
p1267
(dp1268
g6
(dp1269
g8
S'learn_models___init__.html'
p1270
sg10
S'learn/models/__init__'
p1271
sg12
g13
(g14
g15
NtRp1272
(dp1273
g18
I1
sg19
I0
sg20
I2
sg21
I0
sg22
I0
sg23
I0
sg24
I0
sbssg25
S'\x01\x11\xbb\xf6g.\xcc\xaa\x0fO\xbd\x82(\xf7=\xd3'
p1274
ssS'user_system_models_users_student_profile_model'
p1275
(dp1276
g6
(dp1277
g8
S'user_system_models_users_student_profile_model.html'
p1278
sg10
S'user_system/models/users/student_profile_model'
p1279
sg12
g13
(g14
g15
NtRp1280
(dp1281
g18
I1
sg19
I0
sg20
I41
sg21
I0
sg22
I0
sg23
I0
sg24
I0
sbssg25
S'B[\x80RF\x1dM\xf4pt@\x95e\xf0i\xb6'
p1282
ssS'user_system_models_schools_organization_model'
p1283
(dp1284
g6
(dp1285
g8
S'user_system_models_schools_organization_model.html'
p1286
sg10
S'user_system/models/schools/organization_model'
p1287
sg12
g13
(g14
g15
NtRp1288
(dp1289
g18
I1
sg19
I0
sg20
I28
sg21
I0
sg22
I0
sg23
I0
sg24
I0
sbssg25
S'\x81\xeb\xb0\xde*\xbfQE\x9d\xf7\xfd\xc8\xaa\xb6\xfc\x16'
p1290
ssS'create_views_books_tests_test_hide_book_view'
p1291
(dp1292
g6
(dp1293
g8
S'create_views_books_tests_test_hide_book_view.html'
p1294
sg10
S'create/views/books/tests/test_hide_book_view'
p1295
sg12
g13
(g14
g15
NtRp1296
(dp1297
g18
I1
sg19
I0
sg20
I25
sg21
I0
sg22
I0
sg23
I0
sg24
I0
sbssg25
S'\x16\x9fm+QG}\x8fx\xb6m\x98\x95\xaf\x18\xac'
p1298
ssS'teach_serializers_teacher_tags_teacher_tag_serializer'
p1299
(dp1300
g6
(dp1301
g8
S'teach_serializers_teacher_tags_teacher_tag_serializer.html'
p1302
sg10
S'teach/serializers/teacher_tags/teacher_tag_serializer'
p1303
sg12
g13
(g14
g15
NtRp1304
(dp1305
g18
I1
sg19
I0
sg20
I26
sg21
I0
sg22
I0
sg23
I9
sg24
I0
sbssg25
S'n\xf3h\xfb\xb6\xe2\xb6\xfb\xfe\x16\x12$\xe5\xb7\xb8G'
p1306
ssS'create_admin'
p1307
(dp1308
g6
(dp1309
g8
S'create_admin.html'
p1310
sg10
S'create/admin'
p1311
sg12
g13
(g14
g15
NtRp1312
(dp1313
g18
I1
sg19
I0
sg20
I20
sg21
I0
sg22
I0
sg23
I0
sg24
I0
sbssg25
S'n\x89Y\x8f\xa9A\xf9\xb7\xde\xabS\xc4>\xdb\x03?'
p1314
ssS'create_views_questions_tests_test_get_question_list_view'
p1315
(dp1316
g6
(dp1317
g8
S'create_views_questions_tests_test_get_question_list_view.html'
p1318
sg10
S'create/views/questions/tests/test_get_question_list_view'
p1319
sg12
g13
(g14
g15
NtRp1320
(dp1321
g18
I1
sg19
I0
sg20
I32
sg21
I0
sg22
I0
sg23
I0
sg24
I0
sbssg25
S':\x02\xc9\xa2\xd2y\n\xf2\xd9v\xb4S\x87\x18J!'
p1322
ssS'user_system_views_batch_processing_update_user_streak_view'
p1323
(dp1324
g6
(dp1325
g8
S'user_system_views_batch_processing_update_user_streak_view.html'
p1326
sg10
S'user_system/views/batch_processing/update_user_streak_view'
p1327
sg12
g13
(g14
g15
NtRp1328
(dp1329
g18
I1
sg19
I0
sg20
I26
sg21
I0
sg22
I0
sg23
I13
sg24
I0
sbssg25
S'h\x03\xad\x85\x0e\xce\x85@`\xd2\x0e\x03\xa5\x14W\x1e'
p1330
ssS'user_system_views_logins___init__'
p1331
(dp1332
g6
(dp1333
g8
S'user_system_views_logins___init__.html'
p1334
sg10
S'user_system/views/logins/__init__'
p1335
sg12
g13
(g14
g15
NtRp1336
(dp1337
g18
I1
sg19
I0
sg20
I2
sg21
I0
sg22
I0
sg23
I0
sg24
I0
sbssg25
S'\x0f$y0I\xae3\x9a\xd1\xa6\xe7\xc7\x01%\xe3\xb0'
p1338
ssS'create_views_daily_quest_copies___init__'
p1339
(dp1340
g6
(dp1341
g8
S'create_views_daily_quest_copies___init__.html'
p1342
sg10
S'create/views/daily_quest_copies/__init__'
p1343
sg12
g13
(g14
g15
NtRp1344
(dp1345
g18
I1
sg19
I0
sg20
I1
sg21
I0
sg22
I0
sg23
I0
sg24
I0
sbssg25
S'\xcf\xd9KD\xed\xfc\xf1\\>3\x0c>\xbf\xb4\xdc\xf9'
p1346
ssS'create_views_quests_tests_test_hide_quest_view'
p1347
(dp1348
g6
(dp1349
g8
S'create_views_quests_tests_test_hide_quest_view.html'
p1350
sg10
S'create/views/quests/tests/test_hide_quest_view'
p1351
sg12
g13
(g14
g15
NtRp1352
(dp1353
g18
I1
sg19
I0
sg20
I26
sg21
I0
sg22
I0
sg23
I0
sg24
I0
sbssg25
S'\x98\xed\xd0\r\xef\\~?\xf2\xd6?\x04$\x1f8\xf8'
p1354
ssS'create_views_books_tests_test_add_tag_to_subchapter_view'
p1355
(dp1356
g6
(dp1357
g8
S'create_views_books_tests_test_add_tag_to_subchapter_view.html'
p1358
sg10
S'create/views/books/tests/test_add_tag_to_subchapter_view'
p1359
sg12
g13
(g14
g15
NtRp1360
(dp1361
g18
I1
sg19
I0
sg20
I40
sg21
I0
sg22
I0
sg23
I0
sg24
I0
sbssg25
S'Z\xa6\xac\x98of\xb0\x82?c\xb9\x15\xd0\x13\xc2i'
p1362
ssS'api_logging_models_modal_logging_modal_user_history_model'
p1363
(dp1364
g6
(dp1365
g8
S'api_logging_models_modal_logging_modal_user_history_model.html'
p1366
sg10
S'api_logging/models/modal_logging/modal_user_history_model'
p1367
sg12
g13
(g14
g15
NtRp1368
(dp1369
g18
I1
sg19
I0
sg20
I15
sg21
I0
sg22
I0
sg23
I3
sg24
I0
sbssg25
S'\x00\x86sp\xc0\x81\x16\x9c\xe48\xda\x05\x01N7\xb9'
p1370
ssS'user_system_views_schools_classroom_view'
p1371
(dp1372
g6
(dp1373
g8
S'user_system_views_schools_classroom_view.html'
p1374
sg10
S'user_system/views/schools/classroom_view'
p1375
sg12
g13
(g14
g15
NtRp1376
(dp1377
g18
I1
sg19
I0
sg20
I25
sg21
I0
sg22
I0
sg23
I6
sg24
I0
sbssg25
S'\x10k\xd5j\xc1g\xe5c76 E\x0b\x11H\xea'
p1378
ssS'user_system_managers_user_manager'
p1379
(dp1380
g6
(dp1381
g8
S'user_system_managers_user_manager.html'
p1382
sg10
S'user_system/managers/user_manager'
p1383
sg12
g13
(g14
g15
NtRp1384
(dp1385
g18
I1
sg19
I0
sg20
I64
sg21
I0
sg22
I0
sg23
I0
sg24
I0
sbssg25
S'\x14ALtm\xb8\xfc\xef\x1c\x17\xa8\xe6uXf]'
p1386
ssS'create_models_quests_tests___init__'
p1387
(dp1388
g6
(dp1389
g8
S'create_models_quests_tests___init__.html'
p1390
sg10
S'create/models/quests/tests/__init__'
p1391
sg12
g13
(g14
g15
NtRp1392
(dp1393
g18
I1
sg19
I0
sg20
I1
sg21
I0
sg22
I0
sg23
I0
sg24
I0
sbssg25
S'C<+\x18d[1i\xd1\xed\xdc\xe5\x83\xa3\xf8\x8b'
p1394
ssS'create_views_questions___init__'
p1395
(dp1396
g6
(dp1397
g8
S'create_views_questions___init__.html'
p1398
sg10
S'create/views/questions/__init__'
p1399
sg12
g13
(g14
g15
NtRp1400
(dp1401
g18
I1
sg19
I0
sg20
I3
sg21
I0
sg22
I0
sg23
I0
sg24
I0
sbssg25
S'\xc5N5\x81=\x1c\x10\xe2\xdeK)\xd7\xe0\xd1\t\xee'
p1402
ssS'user_system_views_users_create_teacher_view'
p1403
(dp1404
g6
(dp1405
g8
S'user_system_views_users_create_teacher_view.html'
p1406
sg10
S'user_system/views/users/create_teacher_view'
p1407
sg12
g13
(g14
g15
NtRp1408
(dp1409
g18
I1
sg19
I0
sg20
I34
sg21
I0
sg22
I0
sg23
I21
sg24
I0
sbssg25
S'\xb3\xffZ\xach<\xd7m\xa7\x96\xe41sN\x9b\xa8'
p1410
ssS'user_system_models_apps_tests___init__'
p1411
(dp1412
g6
(dp1413
g8
S'user_system_models_apps_tests___init__.html'
p1414
sg10
S'user_system/models/apps/tests/__init__'
p1415
sg12
g13
(g14
g15
NtRp1416
(dp1417
g18
I1
sg19
I0
sg20
I0
sg21
I0
sg22
I0
sg23
I0
sg24
I0
sbssg25
S'\xca\xf5\x9f\x7f\x88\xdfa\x831|T\x1d\xbc}\xa5v'
p1418
ssS'privilege_serializers_privileges_user_privilege_serializer'
p1419
(dp1420
g6
(dp1421
g8
S'privilege_serializers_privileges_user_privilege_serializer.html'
p1422
sg10
S'privilege/serializers/privileges/user_privilege_serializer'
p1423
sg12
g13
(g14
g15
NtRp1424
(dp1425
g18
I1
sg19
I0
sg20
I9
sg21
I0
sg22
I0
sg23
I0
sg24
I0
sbssg25
S'\xc9\\\x8a*\xa9\x9e\xc2\x16m\x1a\xe4S\xbc:;\x8d'
p1426
ssS'teach_views_summaries_daily_quest_daily_summary_view'
p1427
(dp1428
g6
(dp1429
g8
S'teach_views_summaries_daily_quest_daily_summary_view.html'
p1430
sg10
S'teach/views/summaries/daily_quest_daily_summary_view'
p1431
sg12
g13
(g14
g15
NtRp1432
(dp1433
g18
I1
sg19
I0
sg20
I61
sg21
I0
sg22
I0
sg23
I39
sg24
I0
sbssg25
S'{"\x99B\xfb\x80\x84\x03I\xb4$WI\xfcc\xb8'
p1434
ssS'create_views_summary___init__'
p1435
(dp1436
g6
(dp1437
g8
S'create_views_summary___init__.html'
p1438
sg10
S'create/views/summary/__init__'
p1439
sg12
g13
(g14
g15
NtRp1440
(dp1441
g18
I1
sg19
I0
sg20
I1
sg21
I0
sg22
I0
sg23
I0
sg24
I0
sbssg25
S',\x1f\x9a\x87\x11$\x05]\x04\xab\x10$Q\xbeT0'
p1442
ssS'create_views_tags_tests_test_get_tag_by_id_view'
p1443
(dp1444
g6
(dp1445
g8
S'create_views_tags_tests_test_get_tag_by_id_view.html'
p1446
sg10
S'create/views/tags/tests/test_get_tag_by_id_view'
p1447
sg12
g13
(g14
g15
NtRp1448
(dp1449
g18
I1
sg19
I0
sg20
I20
sg21
I0
sg22
I0
sg23
I0
sg24
I0
sbssg25
S'\xd8\xe0"\xc7\x87+l\x87\xde\xe1o\xa1\xda\xae\x1a\''
p1450
ssS'api_logging_models_user_activities___init__'
p1451
(dp1452
g6
(dp1453
g8
S'api_logging_models_user_activities___init__.html'
p1454
sg10
S'api_logging/models/user_activities/__init__'
p1455
sg12
g13
(g14
g15
NtRp1456
(dp1457
g18
I1
sg19
I0
sg20
I2
sg21
I0
sg22
I0
sg23
I0
sg24
I0
sbssg25
S'z\xd4\xbdJ\x87\xf7N\x7f)-z\x1ftp\xb0g'
p1458
ssS'user_system_models_users_tests_test_user_profile_model'
p1459
(dp1460
g6
(dp1461
g8
S'user_system_models_users_tests_test_user_profile_model.html'
p1462
sg10
S'user_system/models/users/tests/test_user_profile_model'
p1463
sg12
g13
(g14
g15
NtRp1464
(dp1465
g18
I1
sg19
I0
sg20
I142
sg21
I0
sg22
I0
sg23
I0
sg24
I0
sbssg25
S'\x8a7\xd6\x99C\x1f\x04\xe5\x7faM\xc8\xf6\x81$\xc2'
p1466
ssS'user_system_views_users_user_streak_history_view'
p1467
(dp1468
g6
(dp1469
g8
S'user_system_views_users_user_streak_history_view.html'
p1470
sg10
S'user_system/views/users/user_streak_history_view'
p1471
sg12
g13
(g14
g15
NtRp1472
(dp1473
g18
I1
sg19
I0
sg20
I15
sg21
I0
sg22
I0
sg23
I0
sg24
I0
sbssg25
S'r\xc1E\xd8\x17\xe2^>\x00\xb6\x97\x99\xc3\xff\x12\x98'
p1474
ssS'user_system_views_roles_tests_test_user_role_view'
p1475
(dp1476
g6
(dp1477
g8
S'user_system_views_roles_tests_test_user_role_view.html'
p1478
sg10
S'user_system/views/roles/tests/test_user_role_view'
p1479
sg12
g13
(g14
g15
NtRp1480
(dp1481
g18
I1
sg19
I0
sg20
I41
sg21
I0
sg22
I0
sg23
I0
sg24
I0
sbssg25
S'fG\xe7:\x8246\xfb\xe3=\xf6b\xd9\xebo\x92'
p1482
ssS'user_system_views_apps_tests_test_get_apps_list_view'
p1483
(dp1484
g6
(dp1485
g8
S'user_system_views_apps_tests_test_get_apps_list_view.html'
p1486
sg10
S'user_system/views/apps/tests/test_get_apps_list_view'
p1487
sg12
g13
(g14
g15
NtRp1488
(dp1489
g18
I1
sg19
I0
sg20
I18
sg21
I0
sg22
I0
sg23
I0
sg24
I0
sbssg25
S'\r\xa7\xfa\x90jz\xd4\xda\x94\xca\x92\xf94\r\x08\x88'
p1490
ssS'api_logging_models_user_activities_user_activity_model'
p1491
(dp1492
g6
(dp1493
g8
S'api_logging_models_user_activities_user_activity_model.html'
p1494
sg10
S'api_logging/models/user_activities/user_activity_model'
p1495
sg12
g13
(g14
g15
NtRp1496
(dp1497
g18
I1
sg19
I0
sg20
I11
sg21
I0
sg22
I0
sg23
I0
sg24
I0
sbssg25
S'i=\xee]\xb3\x19\xd9\x88EY\xf4\xef\xfc\xd4_\xea'
p1498
ssS'create_views_books_tests_test_create_new_book'
p1499
(dp1500
g6
(dp1501
g8
S'create_views_books_tests_test_create_new_book.html'
p1502
sg10
S'create/views/books/tests/test_create_new_book'
p1503
sg12
g13
(g14
g15
NtRp1504
(dp1505
g18
I1
sg19
I0
sg20
I18
sg21
I0
sg22
I0
sg23
I0
sg24
I0
sbssg25
S'\xd7-\xcf\xee88\x92\x9dQO\x93\x93\x19\x9cw8'
p1506
ssS'create_serializers_questions_question_type_serializer'
p1507
(dp1508
g6
(dp1509
g8
S'create_serializers_questions_question_type_serializer.html'
p1510
sg10
S'create/serializers/questions/question_type_serializer'
p1511
sg12
g13
(g14
g15
NtRp1512
(dp1513
g18
I1
sg19
I0
sg20
I6
sg21
I0
sg22
I0
sg23
I0
sg24
I0
sbssg25
S"\xc9'\xb1\x82\xe9`\xbd\xf6)\x1b=&\x18\x7fr^"
p1514
ssS'create_models_books_tests_test_book_model'
p1515
(dp1516
g6
(dp1517
g8
S'create_models_books_tests_test_book_model.html'
p1518
sg10
S'create/models/books/tests/test_book_model'
p1519
sg12
g13
(g14
g15
NtRp1520
(dp1521
g18
I1
sg19
I0
sg20
I44
sg21
I0
sg22
I0
sg23
I0
sg24
I0
sbssg25
S'\xd5\xf6!\xcc\x14\x86\x119[\xd7#G7\xcc[M'
p1522
ssS'create_models_questions_question_choice_model'
p1523
(dp1524
g6
(dp1525
g8
S'create_models_questions_question_choice_model.html'
p1526
sg10
S'create/models/questions/question_choice_model'
p1527
sg12
g13
(g14
g15
NtRp1528
(dp1529
g18
I1
sg19
I0
sg20
I42
sg21
I0
sg22
I0
sg23
I0
sg24
I0
sbssg25
S'\xe7{\xd5\x10nN\xda-\x8eE\x19\xaf\xb1\xee\xa2Y'
p1530
ssS'flipped_helpers_tests___init__'
p1531
(dp1532
g6
(dp1533
g8
S'flipped_helpers_tests___init__.html'
p1534
sg10
S'flipped/helpers/tests/__init__'
p1535
sg12
g13
(g14
g15
NtRp1536
(dp1537
g18
I1
sg19
I0
sg20
I0
sg21
I0
sg22
I0
sg23
I0
sg24
I0
sbssg25
S'\xca\xf5\x9f\x7f\x88\xdfa\x831|T\x1d\xbc}\xa5v'
p1538
ssS'user_system_models_roles_role_app_model'
p1539
(dp1540
g6
(dp1541
g8
S'user_system_models_roles_role_app_model.html'
p1542
sg10
S'user_system/models/roles/role_app_model'
p1543
sg12
g13
(g14
g15
NtRp1544
(dp1545
g18
I1
sg19
I0
sg20
I18
sg21
I0
sg22
I0
sg23
I0
sg24
I0
sbssg25
S'\xfc\xf7\xf3\x1a \xa79\x1c\x8c\x97<\x15;\xe2\xd7v'
p1546
ssS'create_views_books_book_view'
p1547
(dp1548
g6
(dp1549
g8
S'create_views_books_book_view.html'
p1550
sg10
S'create/views/books/book_view'
p1551
sg12
g13
(g14
g15
NtRp1552
(dp1553
g18
I1
sg19
I0
sg20
I124
sg21
I0
sg22
I0
sg23
I8
sg24
I0
sbssg25
S'\xed\x9a\x04\x0ejK\x00y\xed\xc7c[\x95\x19\xf9\xe4'
p1554
ssS'create_views_tags_tests_test_remove_prerequisite_view'
p1555
(dp1556
g6
(dp1557
g8
S'create_views_tags_tests_test_remove_prerequisite_view.html'
p1558
sg10
S'create/views/tags/tests/test_remove_prerequisite_view'
p1559
sg12
g13
(g14
g15
NtRp1560
(dp1561
g18
I1
sg19
I0
sg20
I31
sg21
I0
sg22
I0
sg23
I0
sg24
I0
sbssg25
S'\t\x1a\xc0\xec\xae\x1d\x11\xcd)\x80\x1a\x1e\xe7\x19\x05\x94'
p1562
ssS'learn_models_points_tests_test_point_type_model'
p1563
(dp1564
g6
(dp1565
g8
S'learn_models_points_tests_test_point_type_model.html'
p1566
sg10
S'learn/models/points/tests/test_point_type_model'
p1567
sg12
g13
(g14
g15
NtRp1568
(dp1569
g18
I1
sg19
I0
sg20
I20
sg21
I0
sg22
I0
sg23
I0
sg24
I0
sbssg25
S'\xbc\xb7X\x9f\xb1\x9e\xb0\xfa\xac\xb2{oX\xeat\xbd'
p1570
ssS'api_logging_views_user_activities___init__'
p1571
(dp1572
g6
(dp1573
g8
S'api_logging_views_user_activities___init__.html'
p1574
sg10
S'api_logging/views/user_activities/__init__'
p1575
sg12
g13
(g14
g15
NtRp1576
(dp1577
g18
I1
sg19
I0
sg20
I1
sg21
I0
sg22
I0
sg23
I0
sg24
I0
sbssg25
S'k;#\xac8>]\x8a\xe4\xfe\xa9\xfd0\xee\nv'
p1578
ssS'teach_serializers_teacher_chapters_teacher_chapter_serializer'
p1579
(dp1580
g6
(dp1581
g8
S'teach_serializers_teacher_chapters_teacher_chapter_serializer.html'
p1582
sg10
S'teach/serializers/teacher_chapters/teacher_chapter_serializer'
p1583
sg12
g13
(g14
g15
NtRp1584
(dp1585
g18
I1
sg19
I0
sg20
I12
sg21
I0
sg22
I0
sg23
I0
sg24
I0
sbssg25
S'\xaab`\x90v!=u\x94\x92\xca\xc7\xc7.\x81X'
p1586
ssS'user_system_serializers_app_serializer'
p1587
(dp1588
g6
(dp1589
g8
S'user_system_serializers_app_serializer.html'
p1590
sg10
S'user_system/serializers/app_serializer'
p1591
sg12
g13
(g14
g15
NtRp1592
(dp1593
g18
I1
sg19
I0
sg20
I7
sg21
I0
sg22
I0
sg23
I0
sg24
I0
sbssg25
S'[\xa0\xe9\xef\x8dV\x15\xed\xeb>\x08Yz\x9d\xf2\xb8'
p1594
ssS'learn_views_daily_quests___init__'
p1595
(dp1596
g6
(dp1597
g8
S'learn_views_daily_quests___init__.html'
p1598
sg10
S'learn/views/daily_quests/__init__'
p1599
sg12
g13
(g14
g15
NtRp1600
(dp1601
g18
I1
sg19
I0
sg20
I3
sg21
I0
sg22
I0
sg23
I0
sg24
I0
sbssg25
S'\x83m\xa0G\xc7\xeb\xc1\x04\x8f\xca\xcc\xcd\xc2L\xd5\x94'
p1602
ssS'api_logging_serializers_user_activities___init__'
p1603
(dp1604
g6
(dp1605
g8
S'api_logging_serializers_user_activities___init__.html'
p1606
sg10
S'api_logging/serializers/user_activities/__init__'
p1607
sg12
g13
(g14
g15
NtRp1608
(dp1609
g18
I1
sg19
I0
sg20
I1
sg21
I0
sg22
I0
sg23
I0
sg24
I0
sbssg25
S'\xe0\xfe\xdd\xf5H\xbf\x91\xd6\xa4\xa34\xe5\xb2\xa2\x90r'
p1610
ssS'teach_models_teacher_chapters_tests___init__'
p1611
(dp1612
g6
(dp1613
g8
S'teach_models_teacher_chapters_tests___init__.html'
p1614
sg10
S'teach/models/teacher_chapters/tests/__init__'
p1615
sg12
g13
(g14
g15
NtRp1616
(dp1617
g18
I1
sg19
I0
sg20
I0
sg21
I0
sg22
I0
sg23
I0
sg24
I0
sbssg25
S'\xca\xf5\x9f\x7f\x88\xdfa\x831|T\x1d\xbc}\xa5v'
p1618
ssS'create_views_quests_tests_test_remove_tag_view'
p1619
(dp1620
g6
(dp1621
g8
S'create_views_quests_tests_test_remove_tag_view.html'
p1622
sg10
S'create/views/quests/tests/test_remove_tag_view'
p1623
sg12
g13
(g14
g15
NtRp1624
(dp1625
g18
I1
sg19
I0
sg20
I0
sg21
I0
sg22
I0
sg23
I0
sg24
I0
sbssg25
S'\xca\xf5\x9f\x7f\x88\xdfa\x831|T\x1d\xbc}\xa5v'
p1626
ssS'create_models_questions_tests_test_question_type_model'
p1627
(dp1628
g6
(dp1629
g8
S'create_models_questions_tests_test_question_type_model.html'
p1630
sg10
S'create/models/questions/tests/test_question_type_model'
p1631
sg12
g13
(g14
g15
NtRp1632
(dp1633
g18
I1
sg19
I0
sg20
I17
sg21
I0
sg22
I0
sg23
I0
sg24
I0
sbssg25
S'\x96\xed\x97\x99PW\xb9G\x8b8\x80$5JuP'
p1634
ssS'create_views_books_tests_test_remove_chapter_view'
p1635
(dp1636
g6
(dp1637
g8
S'create_views_books_tests_test_remove_chapter_view.html'
p1638
sg10
S'create/views/books/tests/test_remove_chapter_view'
p1639
sg12
g13
(g14
g15
NtRp1640
(dp1641
g18
I1
sg19
I0
sg20
I39
sg21
I0
sg22
I0
sg23
I0
sg24
I0
sbssg25
S'\x99XJ\xae\x07\x0c\xefL\x00\x96\xe7\xbcqzU\xa8'
p1642
ssS'create_models_question_datasets___init__'
p1643
(dp1644
g6
(dp1645
g8
S'create_models_question_datasets___init__.html'
p1646
sg10
S'create/models/question_datasets/__init__'
p1647
sg12
g13
(g14
g15
NtRp1648
(dp1649
g18
I1
sg19
I0
sg20
I1
sg21
I0
sg22
I0
sg23
I0
sg24
I0
sbssg25
S'0\xbd\xb5\xbb\x84\x17z\xe5\x84\xa9|\x1d\x85!\xbf\xae'
p1650
ssS'privilege_views___init__'
p1651
(dp1652
g6
(dp1653
g8
S'privilege_views___init__.html'
p1654
sg10
S'privilege/views/__init__'
p1655
sg12
g13
(g14
g15
NtRp1656
(dp1657
g18
I1
sg19
I0
sg20
I0
sg21
I0
sg22
I0
sg23
I0
sg24
I0
sbssg25
S'\xca\xf5\x9f\x7f\x88\xdfa\x831|T\x1d\xbc}\xa5v'
p1658
ssS'api_logging_views_query_stat___init__'
p1659
(dp1660
g6
(dp1661
g8
S'api_logging_views_query_stat___init__.html'
p1662
sg10
S'api_logging/views/query_stat/__init__'
p1663
sg12
g13
(g14
g15
NtRp1664
(dp1665
g18
I1
sg19
I0
sg20
I1
sg21
I0
sg22
I0
sg23
I0
sg24
I0
sbssg25
S'\xbeJE\x93\x87N\xfd"g\xd4\xbd\xe9\xbb\xe3nS'
p1666
ssS'user_system_views_users_tests___init__'
p1667
(dp1668
g6
(dp1669
g8
S'user_system_views_users_tests___init__.html'
p1670
sg10
S'user_system/views/users/tests/__init__'
p1671
sg12
g13
(g14
g15
NtRp1672
(dp1673
g18
I1
sg19
I0
sg20
I0
sg21
I0
sg22
I0
sg23
I0
sg24
I0
sbssg25
S'\xca\xf5\x9f\x7f\x88\xdfa\x831|T\x1d\xbc}\xa5v'
p1674
ssS'create_models_tags_tests_test_skill_model'
p1675
(dp1676
g6
(dp1677
g8
S'create_models_tags_tests_test_skill_model.html'
p1678
sg10
S'create/models/tags/tests/test_skill_model'
p1679
sg12
g13
(g14
g15
NtRp1680
(dp1681
g18
I1
sg19
I0
sg20
I12
sg21
I0
sg22
I0
sg23
I0
sg24
I0
sbssg25
S'\xa1b\xcc\xf3\xa9CZF\xc9\xcaU\xb0`\xa1 \xfc'
p1682
ssS'user_system_views_signups_hardcoded___init__'
p1683
(dp1684
g6
(dp1685
g8
S'user_system_views_signups_hardcoded___init__.html'
p1686
sg10
S'user_system/views/signups/hardcoded/__init__'
p1687
sg12
g13
(g14
g15
NtRp1688
(dp1689
g18
I1
sg19
I0
sg20
I1
sg21
I0
sg22
I0
sg23
I0
sg24
I0
sbssg25
S'K\xea\x06$\xef\x1f\xc6\xe8m(\xc1\xd0=L\x8aL'
p1690
ssS'create_models_books_tests_test_book_chapter_model'
p1691
(dp1692
g6
(dp1693
g8
S'create_models_books_tests_test_book_chapter_model.html'
p1694
sg10
S'create/models/books/tests/test_book_chapter_model'
p1695
sg12
g13
(g14
g15
NtRp1696
(dp1697
g18
I1
sg19
I0
sg20
I55
sg21
I0
sg22
I0
sg23
I0
sg24
I0
sbssg25
S'J4\xdb]\xc5T\x80\xa4\xab\x85q\xd6\xf5\x103\x19'
p1698
ssS'user_system_views_signups_tests_test_verify_email_view'
p1699
(dp1700
g6
(dp1701
g8
S'user_system_views_signups_tests_test_verify_email_view.html'
p1702
sg10
S'user_system/views/signups/tests/test_verify_email_view'
p1703
sg12
g13
(g14
g15
NtRp1704
(dp1705
g18
I1
sg19
I0
sg20
I51
sg21
I0
sg22
I0
sg23
I0
sg24
I0
sbssg25
S'%!&Ym\xfaJ\xda\\\xd1\xe2\xb4\xdc\x9fA\x8b'
p1706
ssS'teach_models_daily_quest_templates___init__'
p1707
(dp1708
g6
(dp1709
g8
S'teach_models_daily_quest_templates___init__.html'
p1710
sg10
S'teach/models/daily_quest_templates/__init__'
p1711
sg12
g13
(g14
g15
NtRp1712
(dp1713
g18
I1
sg19
I0
sg20
I1
sg21
I0
sg22
I0
sg23
I0
sg24
I0
sbssg25
S'>\x04\x9cF:\xac\xda@4\xd1ff:B\xac\x87'
p1714
ssS'teach_serializers_daily_quest_templates_daily_quest_template_serializer'
p1715
(dp1716
g6
(dp1717
g8
S'teach_serializers_daily_quest_templates_daily_quest_template_serializer.html'
p1718
sg10
S'teach/serializers/daily_quest_templates/daily_quest_template_serializer'
p1719
sg12
g13
(g14
g15
NtRp1720
(dp1721
g18
I1
sg19
I0
sg20
I12
sg21
I0
sg22
I0
sg23
I0
sg24
I0
sbssg25
S'*v\xd40\xcc\xedI\x96.\xd7i\xe4|\xdc\x04H'
p1722
ssS'create_views_questions_tests_test_add_tag_view'
p1723
(dp1724
g6
(dp1725
g8
S'create_views_questions_tests_test_add_tag_view.html'
p1726
sg10
S'create/views/questions/tests/test_add_tag_view'
p1727
sg12
g13
(g14
g15
NtRp1728
(dp1729
g18
I1
sg19
I0
sg20
I35
sg21
I0
sg22
I0
sg23
I0
sg24
I0
sbssg25
S'\x8a\xb7\xdb\x05c\xecGI\x80\x87u\xfe\xc1HR\xcb'
p1730
ssS'create_views_quests_quest_view'
p1731
(dp1732
g6
(dp1733
g8
S'create_views_quests_quest_view.html'
p1734
sg10
S'create/views/quests/quest_view'
p1735
sg12
g13
(g14
g15
NtRp1736
(dp1737
g18
I1
sg19
I0
sg20
I249
sg21
I0
sg22
I0
sg23
I178
sg24
I0
sbssg25
S'\xc8\x8f0\x11vz\xdf\xb4\xb9\xa3\x9e+\xe5W\xfa\x17'
p1738
ssS'privilege_models_privileges_tests_test_privilege_model'
p1739
(dp1740
g6
(dp1741
g8
S'privilege_models_privileges_tests_test_privilege_model.html'
p1742
sg10
S'privilege/models/privileges/tests/test_privilege_model'
p1743
sg12
g13
(g14
g15
NtRp1744
(dp1745
g18
I1
sg19
I0
sg20
I30
sg21
I0
sg22
I0
sg23
I0
sg24
I0
sbssg25
S'|\xf3\xe5\x9eFg\xff\xc4^\x0c8\x0f\x8e\xb3\xecY'
p1746
ssS'flipped_helpers___init__'
p1747
(dp1748
g6
(dp1749
g8
S'flipped_helpers___init__.html'
p1750
sg10
S'flipped/helpers/__init__'
p1751
sg12
g13
(g14
g15
NtRp1752
(dp1753
g18
I1
sg19
I0
sg20
I5
sg21
I0
sg22
I0
sg23
I0
sg24
I0
sbssg25
S'\xa3\xb3fw\x99\xc2\xcdz\x0e\x04nk=\x1a\xe3\x1b'
p1754
ssS'user_system_models_schools_tests_test_grade_model'
p1755
(dp1756
g6
(dp1757
g8
S'user_system_models_schools_tests_test_grade_model.html'
p1758
sg10
S'user_system/models/schools/tests/test_grade_model'
p1759
sg12
g13
(g14
g15
NtRp1760
(dp1761
g18
I1
sg19
I0
sg20
I28
sg21
I0
sg22
I0
sg23
I0
sg24
I0
sbssg25
S'"XH\xb2\xda\xed\xbea\xb4\xfe\xda\x85\x89\xf3\xebU'
p1762
ssS'user_system_models_apps_tests_test_app_model'
p1763
(dp1764
g6
(dp1765
g8
S'user_system_models_apps_tests_test_app_model.html'
p1766
sg10
S'user_system/models/apps/tests/test_app_model'
p1767
sg12
g13
(g14
g15
NtRp1768
(dp1769
g18
I1
sg19
I0
sg20
I18
sg21
I0
sg22
I0
sg23
I0
sg24
I0
sbssg25
S'\xc0\x9c\x90\xbd\x0e\x8c\x9f{*Y\x89\x8bu!\xc4\xd5'
p1770
ssS'user_system_views_signups_tests_test_email_signup_view'
p1771
(dp1772
g6
(dp1773
g8
S'user_system_views_signups_tests_test_email_signup_view.html'
p1774
sg10
S'user_system/views/signups/tests/test_email_signup_view'
p1775
sg12
g13
(g14
g15
NtRp1776
(dp1777
g18
I1
sg19
I0
sg20
I51
sg21
I0
sg22
I0
sg23
I0
sg24
I0
sbssg25
S',\xaf\x88\xc4\xc6\x85\xed\xbfC14\xebj;\x06\x8d'
p1778
ssS'user_system_models_schools_tests_test_organization_model'
p1779
(dp1780
g6
(dp1781
g8
S'user_system_models_schools_tests_test_organization_model.html'
p1782
sg10
S'user_system/models/schools/tests/test_organization_model'
p1783
sg12
g13
(g14
g15
NtRp1784
(dp1785
g18
I1
sg19
I0
sg20
I27
sg21
I0
sg22
I0
sg23
I0
sg24
I0
sbssg25
S'Db\xccE%\xd2\xabeCe\x026!\xc5\xeb\xca'
p1786
ssS'create_serializers_books_book_subchapter_serializer'
p1787
(dp1788
g6
(dp1789
g8
S'create_serializers_books_book_subchapter_serializer.html'
p1790
sg10
S'create/serializers/books/book_subchapter_serializer'
p1791
sg12
g13
(g14
g15
NtRp1792
(dp1793
g18
I1
sg19
I0
sg20
I18
sg21
I0
sg22
I0
sg23
I3
sg24
I0
sbssg25
S'\xf2\xd5\xc0\\\x9a$\x0b\x0c\x91\xa6\x91\xc3\xb0\xe0s\x1e'
p1794
ssS'create_views_books_book_subchapter_view'
p1795
(dp1796
g6
(dp1797
g8
S'create_views_books_book_subchapter_view.html'
p1798
sg10
S'create/views/books/book_subchapter_view'
p1799
sg12
g13
(g14
g15
NtRp1800
(dp1801
g18
I1
sg19
I0
sg20
I46
sg21
I0
sg22
I0
sg23
I0
sg24
I0
sbssg25
S'\xee\xac\xd4>\x9eg>\xeb\xf2l\x1c\xc4\xe9\xb2\xc4\xdb'
p1802
ssS'user_system_models_roles_tests_test_role_model'
p1803
(dp1804
g6
(dp1805
g8
S'user_system_models_roles_tests_test_role_model.html'
p1806
sg10
S'user_system/models/roles/tests/test_role_model'
p1807
sg12
g13
(g14
g15
NtRp1808
(dp1809
g18
I1
sg19
I0
sg20
I20
sg21
I0
sg22
I0
sg23
I0
sg24
I0
sbssg25
S'\x1c.z\x91W\x9a\xc0%\xce\x15\x98\xe1\xe8\xd3\x99\xb7'
p1810
ssS'user_system_views_signups_verify_email_view'
p1811
(dp1812
g6
(dp1813
g8
S'user_system_views_signups_verify_email_view.html'
p1814
sg10
S'user_system/views/signups/verify_email_view'
p1815
sg12
g13
(g14
g15
NtRp1816
(dp1817
g18
I1
sg19
I0
sg20
I26
sg21
I0
sg22
I0
sg23
I0
sg24
I0
sbssg25
S'F3\x13&\x93|;\xa2\xe3\xdai\x95\xdf\x96\x87,'
p1818
ssS'user_system_views_logins_email_login_view'
p1819
(dp1820
g6
(dp1821
g8
S'user_system_views_logins_email_login_view.html'
p1822
sg10
S'user_system/views/logins/email_login_view'
p1823
sg12
g13
(g14
g15
NtRp1824
(dp1825
g18
I1
sg19
I0
sg20
I35
sg21
I0
sg22
I0
sg23
I0
sg24
I0
sbssg25
S'E\xe3\xb0\xd6.\x15\xc3pC(E\xfb\x12]3U'
p1826
ssS'user_system_serializers_users_list_user_serializer'
p1827
(dp1828
g6
(dp1829
g8
S'user_system_serializers_users_list_user_serializer.html'
p1830
sg10
S'user_system/serializers/users/list_user_serializer'
p1831
sg12
g13
(g14
g15
NtRp1832
(dp1833
g18
I1
sg19
I0
sg20
I18
sg21
I0
sg22
I0
sg23
I0
sg24
I0
sbssg25
S'o.\x0e|\xe7\xa4X\xb2\xecgm\xf9-\x1c\xb0\xea'
p1834
ssS'create_views_question_datasets_question_dataset_view'
p1835
(dp1836
g6
(dp1837
g8
S'create_views_question_datasets_question_dataset_view.html'
p1838
sg10
S'create/views/question_datasets/question_dataset_view'
p1839
sg12
g13
(g14
g15
NtRp1840
(dp1841
g18
I1
sg19
I0
sg20
I20
sg21
I0
sg22
I0
sg23
I5
sg24
I0
sbssg25
S'P\xba\x00\xe6\x90[\x8b\xbfH\xf4\xe5\x1f\x8a\x90\xf8\x1d'
p1842
ssS'create_views_quests_tests_test_remove_question_template_view'
p1843
(dp1844
g6
(dp1845
g8
S'create_views_quests_tests_test_remove_question_template_view.html'
p1846
sg10
S'create/views/quests/tests/test_remove_question_template_view'
p1847
sg12
g13
(g14
g15
NtRp1848
(dp1849
g18
I1
sg19
I0
sg20
I0
sg21
I0
sg22
I0
sg23
I0
sg24
I0
sbssg25
S'\xca\xf5\x9f\x7f\x88\xdfa\x831|T\x1d\xbc}\xa5v'
p1850
ssS'user_system_serializers_users_user_profile_update_request_serializer'
p1851
(dp1852
g6
(dp1853
g8
S'user_system_serializers_users_user_profile_update_request_serializer.html'
p1854
sg10
S'user_system/serializers/users/user_profile_update_request_serializer'
p1855
sg12
g13
(g14
g15
NtRp1856
(dp1857
g18
I1
sg19
I0
sg20
I20
sg21
I0
sg22
I0
sg23
I2
sg24
I0
sbssg25
S'\xe9U^\xbb\x12\xcf\x85\xfd7d\xe9\x10[,g\x1c'
p1858
ssS'create_views_books_tests_test_get_books_list_view'
p1859
(dp1860
g6
(dp1861
g8
S'create_views_books_tests_test_get_books_list_view.html'
p1862
sg10
S'create/views/books/tests/test_get_books_list_view'
p1863
sg12
g13
(g14
g15
NtRp1864
(dp1865
g18
I1
sg19
I0
sg20
I21
sg21
I0
sg22
I0
sg23
I0
sg24
I0
sbssg25
S'\x08\x81\xf1\xdd\x87P\x1fV\xfd+\x9f\x83\x10}~\x92'
p1866
ssS'user_system_serializers_schools_classroom_serializer'
p1867
(dp1868
g6
(dp1869
g8
S'user_system_serializers_schools_classroom_serializer.html'
p1870
sg10
S'user_system/serializers/schools/classroom_serializer'
p1871
sg12
g13
(g14
g15
NtRp1872
(dp1873
g18
I1
sg19
I0
sg20
I13
sg21
I0
sg22
I0
sg23
I2
sg24
I0
sbssg25
S'\xcbYV\xf2\xe9\x9bv\xc2\xa8\xb2\xe6\xb2@5\xf6C'
p1874
ssS'create_models_daily_quest_copies_tests___init__'
p1875
(dp1876
g6
(dp1877
g8
S'create_models_daily_quest_copies_tests___init__.html'
p1878
sg10
S'create/models/daily_quest_copies/tests/__init__'
p1879
sg12
g13
(g14
g15
NtRp1880
(dp1881
g18
I1
sg19
I0
sg20
I0
sg21
I0
sg22
I0
sg23
I0
sg24
I0
sbssg25
S'\xca\xf5\x9f\x7f\x88\xdfa\x831|T\x1d\xbc}\xa5v'
p1882
ssS'user_system_serializers_users_user_streak_history_serializer'
p1883
(dp1884
g6
(dp1885
g8
S'user_system_serializers_users_user_streak_history_serializer.html'
p1886
sg10
S'user_system/serializers/users/user_streak_history_serializer'
p1887
sg12
g13
(g14
g15
NtRp1888
(dp1889
g18
I1
sg19
I0
sg20
I7
sg21
I0
sg22
I0
sg23
I0
sg24
I0
sbssg25
S'\x90\x8d<\x00\x18\x1e\x1c\xd2\xc8\x1e\xd1\xf5OE[W'
p1890
ssS'create_urls'
p1891
(dp1892
g6
(dp1893
g8
S'create_urls.html'
p1894
sg10
S'create/urls'
p1895
sg12
g13
(g14
g15
NtRp1896
(dp1897
g18
I1
sg19
I0
sg20
I22
sg21
I0
sg22
I0
sg23
I0
sg24
I0
sbssg25
S'V\xb2aW0\xee\x85\xa3)\xc7\xc7\x0c\xea\x99K\xe1'
p1898
ssS'create_views_tags_tests_test_get_tags_list_view'
p1899
(dp1900
g6
(dp1901
g8
S'create_views_tags_tests_test_get_tags_list_view.html'
p1902
sg10
S'create/views/tags/tests/test_get_tags_list_view'
p1903
sg12
g13
(g14
g15
NtRp1904
(dp1905
g18
I1
sg19
I0
sg20
I21
sg21
I0
sg22
I0
sg23
I0
sg24
I0
sbssg25
S'THV\x83\xe5\x02\nR\xb0\xfd\x00\xc0\x95\x02\xf7O'
p1906
ssS'create_serializers_tags_tag_serializer'
p1907
(dp1908
g6
(dp1909
g8
S'create_serializers_tags_tag_serializer.html'
p1910
sg10
S'create/serializers/tags/tag_serializer'
p1911
sg12
g13
(g14
g15
NtRp1912
(dp1913
g18
I1
sg19
I0
sg20
I38
sg21
I0
sg22
I0
sg23
I0
sg24
I0
sbssg25
S"7\x98K\x8b\xbf\xfc\x02\x9f\t@\xc5\xe5'{\xd6`"
p1914
ssS'user_system_models_users_teacher_mapping_model'
p1915
(dp1916
g6
(dp1917
g8
S'user_system_models_users_teacher_mapping_model.html'
p1918
sg10
S'user_system/models/users/teacher_mapping_model'
p1919
sg12
g13
(g14
g15
NtRp1920
(dp1921
g18
I1
sg19
I0
sg20
I26
sg21
I0
sg22
I0
sg23
I0
sg24
I0
sbssg25
S'1\xfd\xed(.V,\xdc\x84\xf9\xa113|\xcc\xfc'
p1922
ssS'create_models_questions___init__'
p1923
(dp1924
g6
(dp1925
g8
S'create_models_questions___init__.html'
p1926
sg10
S'create/models/questions/__init__'
p1927
sg12
g13
(g14
g15
NtRp1928
(dp1929
g18
I1
sg19
I0
sg20
I6
sg21
I0
sg22
I0
sg23
I0
sg24
I0
sbssg25
S'-\x8d\x99\xcc\xcd\x8a,\x89w\x88EP\xda\x98*\x06'
p1930
ssS'create_models_tags_tag_type_model'
p1931
(dp1932
g6
(dp1933
g8
S'create_models_tags_tag_type_model.html'
p1934
sg10
S'create/models/tags/tag_type_model'
p1935
sg12
g13
(g14
g15
NtRp1936
(dp1937
g18
I1
sg19
I0
sg20
I15
sg21
I0
sg22
I0
sg23
I0
sg24
I0
sbssg25
S'\xbc-\xaa\x13\x89\xf4\xe2A\x0e\x9b\xbb\xf6[f\xe7\xab'
p1938
ssS'create_serializers___init__'
p1939
(dp1940
g6
(dp1941
g8
S'create_serializers___init__.html'
p1942
sg10
S'create/serializers/__init__'
p1943
sg12
g13
(g14
g15
NtRp1944
(dp1945
g18
I1
sg19
I0
sg20
I6
sg21
I0
sg22
I0
sg23
I0
sg24
I0
sbssg25
S'U\xad~\xafWA\xb1\xf3\x04\xf3\x08-\xce=\xa2Q'
p1946
ssS'create_serializers_books_book_history_serializer'
p1947
(dp1948
g6
(dp1949
g8
S'create_serializers_books_book_history_serializer.html'
p1950
sg10
S'create/serializers/books/book_history_serializer'
p1951
sg12
g13
(g14
g15
NtRp1952
(dp1953
g18
I1
sg19
I0
sg20
I14
sg21
I0
sg22
I0
sg23
I0
sg24
I0
sbssg25
S'/\xc5?\xda\xe0\xac\x8c\x88\x9fy\xb4]TFF3'
p1954
ssS'teach_views_daily_quest_templates___init__'
p1955
(dp1956
g6
(dp1957
g8
S'teach_views_daily_quest_templates___init__.html'
p1958
sg10
S'teach/views/daily_quest_templates/__init__'
p1959
sg12
g13
(g14
g15
NtRp1960
(dp1961
g18
I1
sg19
I0
sg20
I1
sg21
I0
sg22
I0
sg23
I0
sg24
I0
sbssg25
S't\x1c\xab\x1fk\xcd)\x19\xdd\x0c\xb0\\\xe4\xdc3\x89'
p1962
ssS'teach___init__'
p1963
(dp1964
g6
(dp1965
g8
S'teach___init__.html'
p1966
sg10
S'teach/__init__'
p1967
sg12
g13
(g14
g15
NtRp1968
(dp1969
g18
I1
sg19
I0
sg20
I0
sg21
I0
sg22
I0
sg23
I0
sg24
I0
sbssg25
S'\xca\xf5\x9f\x7f\x88\xdfa\x831|T\x1d\xbc}\xa5v'
p1970
ssS'user_system_views_users___init__'
p1971
(dp1972
g6
(dp1973
g8
S'user_system_views_users___init__.html'
p1974
sg10
S'user_system/views/users/__init__'
p1975
sg12
g13
(g14
g15
NtRp1976
(dp1977
g18
I1
sg19
I0
sg20
I7
sg21
I0
sg22
I0
sg23
I0
sg24
I0
sbssg25
S'SU\xc9<\x98\xa1\x810\xfb\xed=\xa5^y\r3'
p1978
ssS'teach_serializers_campaigns___init__'
p1979
(dp1980
g6
(dp1981
g8
S'teach_serializers_campaigns___init__.html'
p1982
sg10
S'teach/serializers/campaigns/__init__'
p1983
sg12
g13
(g14
g15
NtRp1984
(dp1985
g18
I1
sg19
I0
sg20
I1
sg21
I0
sg22
I0
sg23
I0
sg24
I0
sbssg25
S'\x9bD\x0bPjD|\xff\xec\x00H\xde\x93;\x0b\xf8'
p1986
ssS'api_logging_views_summary_user_activity_summary_view'
p1987
(dp1988
g6
(dp1989
g8
S'api_logging_views_summary_user_activity_summary_view.html'
p1990
sg10
S'api_logging/views/summary/user_activity_summary_view'
p1991
sg12
g13
(g14
g15
NtRp1992
(dp1993
g18
I1
sg19
I0
sg20
I27
sg21
I0
sg22
I0
sg23
I13
sg24
I0
sbssg25
S'D\xbe\x80R\x88\x06\x9b\xb7R!\xdf\xf9\xebD{\xe3'
p1994
ssS'flipped_helpers_tests_test_email_helper'
p1995
(dp1996
g6
(dp1997
g8
S'flipped_helpers_tests_test_email_helper.html'
p1998
sg10
S'flipped/helpers/tests/test_email_helper'
p1999
sg12
g13
(g14
g15
NtRp2000
(dp2001
g18
I1
sg19
I0
sg20
I13
sg21
I0
sg22
I0
sg23
I0
sg24
I0
sbssg25
S"\xd0'e\x83\xad\xff\x84\x0c\xd6\xabJn\xe9\xaf\xae\xe0"
p2002
ssS'user_system_serializers_users___init__'
p2003
(dp2004
g6
(dp2005
g8
S'user_system_serializers_users___init__.html'
p2006
sg10
S'user_system/serializers/users/__init__'
p2007
sg12
g13
(g14
g15
NtRp2008
(dp2009
g18
I1
sg19
I0
sg20
I8
sg21
I0
sg22
I0
sg23
I0
sg24
I0
sbssg25
S'U\xca\xcd\x85\xdf\x8b{trTY\xf7@-\x9c\x07'
p2010
ssS'user_system_models_schools_tests_test_semester_model'
p2011
(dp2012
g6
(dp2013
g8
S'user_system_models_schools_tests_test_semester_model.html'
p2014
sg10
S'user_system/models/schools/tests/test_semester_model'
p2015
sg12
g13
(g14
g15
NtRp2016
(dp2017
g18
I1
sg19
I0
sg20
I29
sg21
I0
sg22
I0
sg23
I0
sg24
I0
sbssg25
S'\xd1\xd6+\xabx\xd8,\xf5sMk\x14\x9fk\x17\x98'
p2018
ssS'create_views_quests_tests___init__'
p2019
(dp2020
g6
(dp2021
g8
S'create_views_quests_tests___init__.html'
p2022
sg10
S'create/views/quests/tests/__init__'
p2023
sg12
g13
(g14
g15
NtRp2024
(dp2025
g18
I1
sg19
I0
sg20
I0
sg21
I0
sg22
I0
sg23
I0
sg24
I0
sbssg25
S'\xca\xf5\x9f\x7f\x88\xdfa\x831|T\x1d\xbc}\xa5v'
p2026
ssS'user_system_serializers_schools_course_serializer'
p2027
(dp2028
g6
(dp2029
g8
S'user_system_serializers_schools_course_serializer.html'
p2030
sg10
S'user_system/serializers/schools/course_serializer'
p2031
sg12
g13
(g14
g15
NtRp2032
(dp2033
g18
I1
sg19
I0
sg20
I16
sg21
I0
sg22
I0
sg23
I2
sg24
I0
sbssg25
S'\xf7Z)\xda/\xac\xb5dt\xed\xb7\xdf\x12\xcf\xb3\xcb'
p2034
ssS'user_system_views_schools_course_view'
p2035
(dp2036
g6
(dp2037
g8
S'user_system_views_schools_course_view.html'
p2038
sg10
S'user_system/views/schools/course_view'
p2039
sg12
g13
(g14
g15
NtRp2040
(dp2041
g18
I1
sg19
I0
sg20
I17
sg21
I0
sg22
I0
sg23
I0
sg24
I0
sbssg25
S'\xe9\x13/\x03\xd3\x19 \xf5\xcd#~(0\xcc.\xce'
p2042
ssS'user_system_views_users_tests_test_delete_user_view'
p2043
(dp2044
g6
(dp2045
g8
S'user_system_views_users_tests_test_delete_user_view.html'
p2046
sg10
S'user_system/views/users/tests/test_delete_user_view'
p2047
sg12
g13
(g14
g15
NtRp2048
(dp2049
g18
I1
sg19
I0
sg20
I22
sg21
I0
sg22
I0
sg23
I0
sg24
I0
sbssg25
S"\xb3\x1f'\xcf`\xad\x9eS\xb4\xed\xf2J\x07\xb3\xee\x16"
p2050
ssS'learn_models_daily_quests_daily_quest_question_history_model'
p2051
(dp2052
g6
(dp2053
g8
S'learn_models_daily_quests_daily_quest_question_history_model.html'
p2054
sg10
S'learn/models/daily_quests/daily_quest_question_history_model'
p2055
sg12
g13
(g14
g15
NtRp2056
(dp2057
g18
I1
sg19
I0
sg20
I74
sg21
I0
sg22
I0
sg23
I5
sg24
I0
sbssg25
S'Y<\xf4\xd7L\x8f\xe9\xad\x9d\x1cy@\x97\x0bH\xb5'
p2058
ssS'user_system_models_users_user_profile_update_request_model'
p2059
(dp2060
g6
(dp2061
g8
S'user_system_models_users_user_profile_update_request_model.html'
p2062
sg10
S'user_system/models/users/user_profile_update_request_model'
p2063
sg12
g13
(g14
g15
NtRp2064
(dp2065
g18
I1
sg19
I0
sg20
I58
sg21
I0
sg22
I0
sg23
I0
sg24
I0
sbssg25
S'\xcdD\xffC\x95\x8e^\xdc?\xc2\xee[\xa4?\xc5\x9a'
p2066
ssS'create_models_tags_tag_history_model'
p2067
(dp2068
g6
(dp2069
g8
S'create_models_tags_tag_history_model.html'
p2070
sg10
S'create/models/tags/tag_history_model'
p2071
sg12
g13
(g14
g15
NtRp2072
(dp2073
g18
I1
sg19
I0
sg20
I37
sg21
I0
sg22
I0
sg23
I0
sg24
I0
sbssg25
S'3\xe4\x04A\xaa\xe9B\xbdq3\x12q\xd1\x9dY\x91'
p2074
ssS'create_models_questions_tests_test_question_template_model'
p2075
(dp2076
g6
(dp2077
g8
S'create_models_questions_tests_test_question_template_model.html'
p2078
sg10
S'create/models/questions/tests/test_question_template_model'
p2079
sg12
g13
(g14
g15
NtRp2080
(dp2081
g18
I1
sg19
I0
sg20
I74
sg21
I0
sg22
I0
sg23
I0
sg24
I0
sbssg25
S'W<\xce\x1b\xef\x9c\xc92a\x059\xd4\xb2\xec1\xef'
p2082
ssS'user_system_models_schools_course_model'
p2083
(dp2084
g6
(dp2085
g8
S'user_system_models_schools_course_model.html'
p2086
sg10
S'user_system/models/schools/course_model'
p2087
sg12
g13
(g14
g15
NtRp2088
(dp2089
g18
I1
sg19
I0
sg20
I37
sg21
I0
sg22
I0
sg23
I0
sg24
I0
sbssg25
S'\x9a\xe8\xdf\x01\x1c\x7f\r\xfc\x96\x1ay\xd1H\xd6\x10\x91'
p2090
ssS'create_models_daily_quest_copies_tests_test_daily_quest_copy_model'
p2091
(dp2092
g6
(dp2093
g8
S'create_models_daily_quest_copies_tests_test_daily_quest_copy_model.html'
p2094
sg10
S'create/models/daily_quest_copies/tests/test_daily_quest_copy_model'
p2095
sg12
g13
(g14
g15
NtRp2096
(dp2097
g18
I1
sg19
I0
sg20
I45
sg21
I0
sg22
I0
sg23
I0
sg24
I0
sbssg25
S'\x8d\xe7\xc2\xd0\x86\x1a\xc5\x1aBX@P\xa9B\xfd\xc2'
p2098
ssS'privilege_views_privileges___init__'
p2099
(dp2100
g6
(dp2101
g8
S'privilege_views_privileges___init__.html'
p2102
sg10
S'privilege/views/privileges/__init__'
p2103
sg12
g13
(g14
g15
NtRp2104
(dp2105
g18
I1
sg19
I0
sg20
I1
sg21
I0
sg22
I0
sg23
I0
sg24
I0
sbssg25
S'3B~\x125N\xd3\x99\x9fJ{\x1eoMx '
p2106
ssS'teach_models_teacher_chapters_teacher_chapter_model'
p2107
(dp2108
g6
(dp2109
g8
S'teach_models_teacher_chapters_teacher_chapter_model.html'
p2110
sg10
S'teach/models/teacher_chapters/teacher_chapter_model'
p2111
sg12
g13
(g14
g15
NtRp2112
(dp2113
g18
I1
sg19
I0
sg20
I23
sg21
I0
sg22
I0
sg23
I0
sg24
I0
sbssg25
S'\x84y\x9a\xfc<On`}O,\xa5\xfe\xcc\x9c '
p2114
ssS'create_models_questions_question_template_model'
p2115
(dp2116
g6
(dp2117
g8
S'create_models_questions_question_template_model.html'
p2118
sg10
S'create/models/questions/question_template_model'
p2119
sg12
g13
(g14
g15
NtRp2120
(dp2121
g18
I1
sg19
I0
sg20
I40
sg21
I0
sg22
I0
sg23
I0
sg24
I0
sbssg25
S'\x8f\xda\xc7P\x95\x06\xf5\x1b\x1dn\x94\xf4\xa58=_'
p2122
ssS'create_views_questions_tests_test_get_question_by_id_view'
p2123
(dp2124
g6
(dp2125
g8
S'create_views_questions_tests_test_get_question_by_id_view.html'
p2126
sg10
S'create/views/questions/tests/test_get_question_by_id_view'
p2127
sg12
g13
(g14
g15
NtRp2128
(dp2129
g18
I1
sg19
I0
sg20
I24
sg21
I0
sg22
I0
sg23
I0
sg24
I0
sbssg25
S'\xc3\xc7\xdck}PEj\x93\xdd\xf8<"\xe1G\xb6'
p2130
ssS'teach_models_teacher_tags_tests___init__'
p2131
(dp2132
g6
(dp2133
g8
S'teach_models_teacher_tags_tests___init__.html'
p2134
sg10
S'teach/models/teacher_tags/tests/__init__'
p2135
sg12
g13
(g14
g15
NtRp2136
(dp2137
g18
I1
sg19
I0
sg20
I0
sg21
I0
sg22
I0
sg23
I0
sg24
I0
sbssg25
S'\xca\xf5\x9f\x7f\x88\xdfa\x831|T\x1d\xbc}\xa5v'
p2138
ssS'create_serializers_quests___init__'
p2139
(dp2140
g6
(dp2141
g8
S'create_serializers_quests___init__.html'
p2142
sg10
S'create/serializers/quests/__init__'
p2143
sg12
g13
(g14
g15
NtRp2144
(dp2145
g18
I1
sg19
I0
sg20
I2
sg21
I0
sg22
I0
sg23
I0
sg24
I0
sbssg25
S'\xa2\xd4\xf0\\,k\r\xff\xd8\x0cic\xeb\x14\xf4b'
p2146
ssS'api_logging_serializers_LoggingSerializer'
p2147
(dp2148
g6
(dp2149
g8
S'api_logging_serializers_LoggingSerializer.html'
p2150
sg10
S'api_logging/serializers/LoggingSerializer'
p2151
sg12
g13
(g14
g15
NtRp2152
(dp2153
g18
I1
sg19
I0
sg20
I12
sg21
I0
sg22
I0
sg23
I0
sg24
I0
sbssg25
S'\xb3\x97%\xb1\xbb\x12m\r\x8d\xf6\xe7\xa5\xa1\xf5\x91\xd0'
p2154
ssS'create_views_books_tests_test_remove_subchapter_view'
p2155
(dp2156
g6
(dp2157
g8
S'create_views_books_tests_test_remove_subchapter_view.html'
p2158
sg10
S'create/views/books/tests/test_remove_subchapter_view'
p2159
sg12
g13
(g14
g15
NtRp2160
(dp2161
g18
I1
sg19
I0
sg20
I44
sg21
I0
sg22
I0
sg23
I0
sg24
I0
sbssg25
S'\xf2\xeb\xc5\x1a\xd7QU\t$3\x1f|\xb6\xfd=,'
p2162
ssS'create_models_quests_tests_test_quest_history_model'
p2163
(dp2164
g6
(dp2165
g8
S'create_models_quests_tests_test_quest_history_model.html'
p2166
sg10
S'create/models/quests/tests/test_quest_history_model'
p2167
sg12
g13
(g14
g15
NtRp2168
(dp2169
g18
I1
sg19
I0
sg20
I79
sg21
I0
sg22
I0
sg23
I0
sg24
I0
sbssg25
S"\x9b\xb5\x9f6\x0f\x8b6\xefy\xb3yI']-\xe1"
p2170
ssS'learn_models_points_point_history_model'
p2171
(dp2172
g6
(dp2173
g8
S'learn_models_points_point_history_model.html'
p2174
sg10
S'learn/models/points/point_history_model'
p2175
sg12
g13
(g14
g15
NtRp2176
(dp2177
g18
I1
sg19
I0
sg20
I16
sg21
I0
sg22
I0
sg23
I0
sg24
I0
sbssg25
S'\xcd\xdc\xc5\xf4\xa0\x85\xd0i\x98T_NRZ\x08P'
p2178
ssS'user_system___init__'
p2179
(dp2180
g6
(dp2181
g8
S'user_system___init__.html'
p2182
sg10
S'user_system/__init__'
p2183
sg12
g13
(g14
g15
NtRp2184
(dp2185
g18
I1
sg19
I0
sg20
I0
sg21
I0
sg22
I0
sg23
I0
sg24
I0
sbssg25
S'\xca\xf5\x9f\x7f\x88\xdfa\x831|T\x1d\xbc}\xa5v'
p2186
ssS'create_models_question_datasets_question_dataset_model'
p2187
(dp2188
g6
(dp2189
g8
S'create_models_question_datasets_question_dataset_model.html'
p2190
sg10
S'create/models/question_datasets/question_dataset_model'
p2191
sg12
g13
(g14
g15
NtRp2192
(dp2193
g18
I1
sg19
I0
sg20
I25
sg21
I0
sg22
I0
sg23
I0
sg24
I0
sbssg25
S'\xf6g\xc0\x1e\xd7I\x97\x1a\xb8Y/\x96]\x8es0'
p2194
ssS'create_views_question_datasets___init__'
p2195
(dp2196
g6
(dp2197
g8
S'create_views_question_datasets___init__.html'
p2198
sg10
S'create/views/question_datasets/__init__'
p2199
sg12
g13
(g14
g15
NtRp2200
(dp2201
g18
I1
sg19
I0
sg20
I1
sg21
I0
sg22
I0
sg23
I0
sg24
I0
sbssg25
S"\xca\xb4\xb2\x1b\xfc\xe9uK\xf6\x93',y\x95\xe6 "
p2202
ssS'teach_serializers_daily_quest_templates___init__'
p2203
(dp2204
g6
(dp2205
g8
S'teach_serializers_daily_quest_templates___init__.html'
p2206
sg10
S'teach/serializers/daily_quest_templates/__init__'
p2207
sg12
g13
(g14
g15
NtRp2208
(dp2209
g18
I1
sg19
I0
sg20
I1
sg21
I0
sg22
I0
sg23
I0
sg24
I0
sbssg25
S'\xa0%\x04\xa9myL-4\xc1\xc1X\x8a\xeb\x124'
p2210
ssS'learn_models_daily_quests_daily_quest_history_date_group_model'
p2211
(dp2212
g6
(dp2213
g8
S'learn_models_daily_quests_daily_quest_history_date_group_model.html'
p2214
sg10
S'learn/models/daily_quests/daily_quest_history_date_group_model'
p2215
sg12
g13
(g14
g15
NtRp2216
(dp2217
g18
I1
sg19
I0
sg20
I16
sg21
I0
sg22
I0
sg23
I0
sg24
I0
sbssg25
S'\xcb\xe5\xd0n\xb7\xbc\xe1\x9e\xa77_$\xf0\xc0\xc3\x10'
p2218
ssS'flipped_helpers_email_helper'
p2219
(dp2220
g6
(dp2221
g8
S'flipped_helpers_email_helper.html'
p2222
sg10
S'flipped/helpers/email_helper'
p2223
sg12
g13
(g14
g15
NtRp2224
(dp2225
g18
I1
sg19
I0
sg20
I9
sg21
I0
sg22
I0
sg23
I0
sg24
I0
sbssg25
S'\x11\x02\xf1\xc4\xf7\xe1D\xe3\x9d\xf6\x1a\xf0\xbc\xcc\t\x94'
p2226
ssS'flipped_urls'
p2227
(dp2228
g6
(dp2229
g8
S'flipped_urls.html'
p2230
sg10
S'flipped/urls'
p2231
sg12
g13
(g14
g15
NtRp2232
(dp2233
g18
I1
sg19
I0
sg20
I9
sg21
I0
sg22
I0
sg23
I0
sg24
I0
sbssg25
S'\xf8\\H\xf9+\xcc\x86\xde\xdf\xe5\xb9\x93\xca\t\x9dB'
p2234
ssS'api_logging_views_user_activities_user_agent_view'
p2235
(dp2236
g6
(dp2237
g8
S'api_logging_views_user_activities_user_agent_view.html'
p2238
sg10
S'api_logging/views/user_activities/user_agent_view'
p2239
sg12
g13
(g14
g15
NtRp2240
(dp2241
g18
I1
sg19
I0
sg20
I68
sg21
I0
sg22
I0
sg23
I50
sg24
I0
sbssg25
S'\xbb\xe6[\x052\xf4&\xde\xe8{L\x92$\x00O\xb7'
p2242
ssS'teach_views_summaries_daily_quest_summary_view'
p2243
(dp2244
g6
(dp2245
g8
S'teach_views_summaries_daily_quest_summary_view.html'
p2246
sg10
S'teach/views/summaries/daily_quest_summary_view'
p2247
sg12
g13
(g14
g15
NtRp2248
(dp2249
g18
I1
sg19
I0
sg20
I80
sg21
I0
sg22
I0
sg23
I59
sg24
I0
sbssg25
S'\x9f\xb2\xe6[C=\x9c\t\x19\x82\xae\xe8\xc9\x0c\x01*'
p2250
ssS'user_system_views_users_student_profile_request_view'
p2251
(dp2252
g6
(dp2253
g8
S'user_system_views_users_student_profile_request_view.html'
p2254
sg10
S'user_system/views/users/student_profile_request_view'
p2255
sg12
g13
(g14
g15
NtRp2256
(dp2257
g18
I1
sg19
I0
sg20
I14
sg21
I0
sg22
I0
sg23
I0
sg24
I0
sbssg25
S'\x82\x9d4\xaa\xfc\x15D\xb2\xff\x96[;\xc0\x9f\xf8;'
p2258
ssS'user_system_views_logins_tests___init__'
p2259
(dp2260
g6
(dp2261
g8
S'user_system_views_logins_tests___init__.html'
p2262
sg10
S'user_system/views/logins/tests/__init__'
p2263
sg12
g13
(g14
g15
NtRp2264
(dp2265
g18
I1
sg19
I0
sg20
I1
sg21
I0
sg22
I0
sg23
I0
sg24
I0
sbssg25
S'C<+\x18d[1i\xd1\xed\xdc\xe5\x83\xa3\xf8\x8b'
p2266
ssS'api_logging_views_modal_loggings___init__'
p2267
(dp2268
g6
(dp2269
g8
S'api_logging_views_modal_loggings___init__.html'
p2270
sg10
S'api_logging/views/modal_loggings/__init__'
p2271
sg12
g13
(g14
g15
NtRp2272
(dp2273
g18
I1
sg19
I0
sg20
I1
sg21
I0
sg22
I0
sg23
I0
sg24
I0
sbssg25
S'q\xa7\xebVY\xbf\x1e\xbc\x0b\x8e\xd9%.Ms\xed'
p2274
ssS'user_system_views_users_tests_test_get_users_by_signup_type_view'
p2275
(dp2276
g6
(dp2277
g8
S'user_system_views_users_tests_test_get_users_by_signup_type_view.html'
p2278
sg10
S'user_system/views/users/tests/test_get_users_by_signup_type_view'
p2279
sg12
g13
(g14
g15
NtRp2280
(dp2281
g18
I1
sg19
I0
sg20
I44
sg21
I0
sg22
I0
sg23
I0
sg24
I0
sbssg25
S'i\x06\xdb\xcaM\xf8"\x19h+;;_\xfeS\xe8'
p2282
ssS'user_system_serializers_users_user_serializer'
p2283
(dp2284
g6
(dp2285
g8
S'user_system_serializers_users_user_serializer.html'
p2286
sg10
S'user_system/serializers/users/user_serializer'
p2287
sg12
g13
(g14
g15
NtRp2288
(dp2289
g18
I1
sg19
I0
sg20
I46
sg21
I0
sg22
I0
sg23
I8
sg24
I0
sbssg25
S'A\xa9z?_\x82[\x85O\x98K+\xde\x86\xbb\x07'
p2290
ssS'create_serializers_daily_quest_copies_daily_quest_copy_serializer'
p2291
(dp2292
g6
(dp2293
g8
S'create_serializers_daily_quest_copies_daily_quest_copy_serializer.html'
p2294
sg10
S'create/serializers/daily_quest_copies/daily_quest_copy_serializer'
p2295
sg12
g13
(g14
g15
NtRp2296
(dp2297
g18
I1
sg19
I0
sg20
I18
sg21
I0
sg22
I0
sg23
I3
sg24
I0
sbssg25
S'p\x0c.S\x05\xadU\xee<\xd2A\xc1\x81\xffd\xf2'
p2298
ssS'create_models_books_tests_test_book_history_model'
p2299
(dp2300
g6
(dp2301
g8
S'create_models_books_tests_test_book_history_model.html'
p2302
sg10
S'create/models/books/tests/test_book_history_model'
p2303
sg12
g13
(g14
g15
NtRp2304
(dp2305
g18
I1
sg19
I0
sg20
I65
sg21
I0
sg22
I0
sg23
I0
sg24
I0
sbssg25
S'\x97\x95qXA\xd6\xd5r\x1c \xe6\x1a$\xd4\xbc"'
p2306
ssS'user_system_managers_tests_test_user_manager'
p2307
(dp2308
g6
(dp2309
g8
S'user_system_managers_tests_test_user_manager.html'
p2310
sg10
S'user_system/managers/tests/test_user_manager'
p2311
sg12
g13
(g14
g15
NtRp2312
(dp2313
g18
I1
sg19
I0
sg20
I99
sg21
I0
sg22
I0
sg23
I0
sg24
I0
sbssg25
S'3\xbf\x8f\xa0\t\x93\x89$\xd6^\xb7E\x12\xa2\x10='
p2314
ssS'create_views_quests_tests_test_remove_question_view'
p2315
(dp2316
g6
(dp2317
g8
S'create_views_quests_tests_test_remove_question_view.html'
p2318
sg10
S'create/views/quests/tests/test_remove_question_view'
p2319
sg12
g13
(g14
g15
NtRp2320
(dp2321
g18
I1
sg19
I0
sg20
I0
sg21
I0
sg22
I0
sg23
I0
sg24
I0
sbssg25
S'\xca\xf5\x9f\x7f\x88\xdfa\x831|T\x1d\xbc}\xa5v'
p2322
ssS'user_system_managers___init__'
p2323
(dp2324
g6
(dp2325
g8
S'user_system_managers___init__.html'
p2326
sg10
S'user_system/managers/__init__'
p2327
sg12
g13
(g14
g15
NtRp2328
(dp2329
g18
I1
sg19
I0
sg20
I2
sg21
I0
sg22
I0
sg23
I0
sg24
I0
sbssg25
S'^}\xb6\xb2\xb2\x96\x1c\xc7,\xc8,\xd2qE\xc4k'
p2330
ssS'teach_models_campaigns_tests_test_campaign_model'
p2331
(dp2332
g6
(dp2333
g8
S'teach_models_campaigns_tests_test_campaign_model.html'
p2334
sg10
S'teach/models/campaigns/tests/test_campaign_model'
p2335
sg12
g13
(g14
g15
NtRp2336
(dp2337
g18
I1
sg19
I0
sg20
I43
sg21
I0
sg22
I0
sg23
I0
sg24
I0
sbssg25
S"\x14Y.\t\x9c\xbf\xc3Y\xaa:)38'\xf0#"
p2338
ssS'api_logging_views_modal_loggings_modal_user_history_view'
p2339
(dp2340
g6
(dp2341
g8
S'api_logging_views_modal_loggings_modal_user_history_view.html'
p2342
sg10
S'api_logging/views/modal_loggings/modal_user_history_view'
p2343
sg12
g13
(g14
g15
NtRp2344
(dp2345
g18
I1
sg19
I0
sg20
I12
sg21
I0
sg22
I0
sg23
I0
sg24
I0
sbssg25
S'd\x02pW&l\xcb\xa7g\x1f!\xa1A\xdfRv'
p2346
ssS'user_system_views_logins_tests_test_email_login_view'
p2347
(dp2348
g6
(dp2349
g8
S'user_system_views_logins_tests_test_email_login_view.html'
p2350
sg10
S'user_system/views/logins/tests/test_email_login_view'
p2351
sg12
g13
(g14
g15
NtRp2352
(dp2353
g18
I1
sg19
I0
sg20
I61
sg21
I0
sg22
I0
sg23
I0
sg24
I0
sbssg25
S'\xf1\x9c\xa4\x9b\x82\x9c\xda\x0e\xa9\x88&\x121UU~'
p2354
ssS'create_views_books_book_chapter_view'
p2355
(dp2356
g6
(dp2357
g8
S'create_views_books_book_chapter_view.html'
p2358
sg10
S'create/views/books/book_chapter_view'
p2359
sg12
g13
(g14
g15
NtRp2360
(dp2361
g18
I1
sg19
I0
sg20
I44
sg21
I0
sg22
I0
sg23
I22
sg24
I0
sbssg25
S'\x94\xf8d\\\xf6\xd2Kw\xf9\xa2\x8a\xec\xd7\x8c\xdb\x85'
p2362
ssS'create_views___init__'
p2363
(dp2364
g6
(dp2365
g8
S'create_views___init__.html'
p2366
sg10
S'create/views/__init__'
p2367
sg12
g13
(g14
g15
NtRp2368
(dp2369
g18
I1
sg19
I0
sg20
I7
sg21
I0
sg22
I0
sg23
I0
sg24
I0
sbssg25
S'\x96U[i\xadj^B\xc6h\x9c[\xab\xb3\xca\xbe'
p2370
ssS'api_logging_serializers_user_activities_user_agent_serializer'
p2371
(dp2372
g6
(dp2373
g8
S'api_logging_serializers_user_activities_user_agent_serializer.html'
p2374
sg10
S'api_logging/serializers/user_activities/user_agent_serializer'
p2375
sg12
g13
(g14
g15
NtRp2376
(dp2377
g18
I1
sg19
I0
sg20
I7
sg21
I0
sg22
I0
sg23
I0
sg24
I0
sbssg25
S'\x96+\x85N\x04|zvL7\xfb\x1e\xd2\xb2$S'
p2378
ssS'user_system_serializers_users_student_profile_serializer'
p2379
(dp2380
g6
(dp2381
g8
S'user_system_serializers_users_student_profile_serializer.html'
p2382
sg10
S'user_system/serializers/users/student_profile_serializer'
p2383
sg12
g13
(g14
g15
NtRp2384
(dp2385
g18
I1
sg19
I0
sg20
I17
sg21
I0
sg22
I0
sg23
I4
sg24
I0
sbssg25
S'|\x02\xcc\x13\x04&\rg\x85o\x1a\x0bT\x0fan'
p2386
ssS'api_logging_models_modal_logging___init__'
p2387
(dp2388
g6
(dp2389
g8
S'api_logging_models_modal_logging___init__.html'
p2390
sg10
S'api_logging/models/modal_logging/__init__'
p2391
sg12
g13
(g14
g15
NtRp2392
(dp2393
g18
I1
sg19
I0
sg20
I2
sg21
I0
sg22
I0
sg23
I0
sg24
I0
sbssg25
S')\xf4f\xbd\xa1W\x1a\x01\xeb+m\n\x13\xe1J\x10'
p2394
ssS'flipped_helpers_errors_helper'
p2395
(dp2396
g6
(dp2397
g8
S'flipped_helpers_errors_helper.html'
p2398
sg10
S'flipped/helpers/errors_helper'
p2399
sg12
g13
(g14
g15
NtRp2400
(dp2401
g18
I1
sg19
I0
sg20
I5
sg21
I0
sg22
I0
sg23
I0
sg24
I0
sbssg25
S'\xb1\xa4\x1c\x04\x0co\xfdlWBrx\xe6EM\x0f'
p2402
ssS'teach_views_teacher_tags_teacher_tag_view'
p2403
(dp2404
g6
(dp2405
g8
S'teach_views_teacher_tags_teacher_tag_view.html'
p2406
sg10
S'teach/views/teacher_tags/teacher_tag_view'
p2407
sg12
g13
(g14
g15
NtRp2408
(dp2409
g18
I1
sg19
I0
sg20
I55
sg21
I0
sg22
I0
sg23
I30
sg24
I0
sbssg25
S'\x8d+t\xbf\xef\x96\xaa\x8fC\x18LoY\xca\xc3M'
p2410
ssS'create_models_questions_tests_test_question_history_model'
p2411
(dp2412
g6
(dp2413
g8
S'create_models_questions_tests_test_question_history_model.html'
p2414
sg10
S'create/models/questions/tests/test_question_history_model'
p2415
sg12
g13
(g14
g15
NtRp2416
(dp2417
g18
I1
sg19
I0
sg20
I73
sg21
I0
sg22
I0
sg23
I0
sg24
I0
sbssg25
S'\x7f\xc9\xbc{\x87\x9d\x80\xf9\xf9Bl\x13\xe4~\x82Y'
p2418
ssS'user_system_models_apps_app_model'
p2419
(dp2420
g6
(dp2421
g8
S'user_system_models_apps_app_model.html'
p2422
sg10
S'user_system/models/apps/app_model'
p2423
sg12
g13
(g14
g15
NtRp2424
(dp2425
g18
I1
sg19
I0
sg20
I16
sg21
I0
sg22
I0
sg23
I0
sg24
I0
sbssg25
S'\xd1\xe4\xcb@\xf4-\n\xd2\xa1\x9aF*I0\xe76'
p2426
ssS'create_views_questions_tests___init__'
p2427
(dp2428
g6
(dp2429
g8
S'create_views_questions_tests___init__.html'
p2430
sg10
S'create/views/questions/tests/__init__'
p2431
sg12
g13
(g14
g15
NtRp2432
(dp2433
g18
I1
sg19
I0
sg20
I0
sg21
I0
sg22
I0
sg23
I0
sg24
I0
sbssg25
S'\xca\xf5\x9f\x7f\x88\xdfa\x831|T\x1d\xbc}\xa5v'
p2434
ssS'flipped___init__'
p2435
(dp2436
g6
(dp2437
g8
S'flipped___init__.html'
p2438
sg10
S'flipped/__init__'
p2439
sg12
g13
(g14
g15
NtRp2440
(dp2441
g18
I1
sg19
I0
sg20
I0
sg21
I0
sg22
I0
sg23
I0
sg24
I0
sbssg25
S'\xca\xf5\x9f\x7f\x88\xdfa\x831|T\x1d\xbc}\xa5v'
p2442
ssS'user_system_views_roles___init__'
p2443
(dp2444
g6
(dp2445
g8
S'user_system_views_roles___init__.html'
p2446
sg10
S'user_system/views/roles/__init__'
p2447
sg12
g13
(g14
g15
NtRp2448
(dp2449
g18
I1
sg19
I0
sg20
I1
sg21
I0
sg22
I0
sg23
I0
sg24
I0
sbssg25
S',:^\xf0\xa8`\xcd\xd6\x9fD\x03\x8f\x82N\x170'
p2450
ssS'teach_views_summaries___init__'
p2451
(dp2452
g6
(dp2453
g8
S'teach_views_summaries___init__.html'
p2454
sg10
S'teach/views/summaries/__init__'
p2455
sg12
g13
(g14
g15
NtRp2456
(dp2457
g18
I1
sg19
I0
sg20
I6
sg21
I0
sg22
I0
sg23
I0
sg24
I0
sbssg25
S'\x11q-r${#\xb0rt\xdfR`3\xe0\xb2'
p2458
ssS'user_system_models_users_user_profile_history_model'
p2459
(dp2460
g6
(dp2461
g8
S'user_system_models_users_user_profile_history_model.html'
p2462
sg10
S'user_system/models/users/user_profile_history_model'
p2463
sg12
g13
(g14
g15
NtRp2464
(dp2465
g18
I1
sg19
I0
sg20
I72
sg21
I0
sg22
I0
sg23
I12
sg24
I0
sbssg25
S'\xb0>\xb2Y\xd8\xc3l0\x07J\xe5\xde\xad\xebe\x11'
p2466
ssS'teach_admin'
p2467
(dp2468
g6
(dp2469
g8
S'teach_admin.html'
p2470
sg10
S'teach/admin'
p2471
sg12
g13
(g14
g15
NtRp2472
(dp2473
g18
I1
sg19
I0
sg20
I6
sg21
I0
sg22
I0
sg23
I0
sg24
I0
sbssg25
S"r\x07OwZ\x03T:\x16\xa0\xff'!\x8f \x97"
p2474
ssS'user_system_views_users_user_view'
p2475
(dp2476
g6
(dp2477
g8
S'user_system_views_users_user_view.html'
p2478
sg10
S'user_system/views/users/user_view'
p2479
sg12
g13
(g14
g15
NtRp2480
(dp2481
g18
I1
sg19
I0
sg20
I191
sg21
I0
sg22
I0
sg23
I110
sg24
I0
sbssg25
S')\xe4\xa8R\xf2N\xfb\xb5\xabg\xb2n\xb1E\xe5\x83'
p2482
ssS'teach_views_campaigns___init__'
p2483
(dp2484
g6
(dp2485
g8
S'teach_views_campaigns___init__.html'
p2486
sg10
S'teach/views/campaigns/__init__'
p2487
sg12
g13
(g14
g15
NtRp2488
(dp2489
g18
I1
sg19
I0
sg20
I1
sg21
I0
sg22
I0
sg23
I0
sg24
I0
sbssg25
S'\xac\x1b\xb1d\x82\xb1\xc4\x19\x11=\xc8Aq\xa3\xe9\xbf'
p2490
ssS'teach_models_daily_quest_templates_tests_test_daily_quest_template_model'
p2491
(dp2492
g6
(dp2493
g8
S'teach_models_daily_quest_templates_tests_test_daily_quest_template_model.html'
p2494
sg10
S'teach/models/daily_quest_templates/tests/test_daily_quest_template_model'
p2495
sg12
g13
(g14
g15
NtRp2496
(dp2497
g18
I1
sg19
I0
sg20
I37
sg21
I0
sg22
I0
sg23
I0
sg24
I0
sbssg25
S'\xc0\xfc\x97\xfb\xa9\xa1\xd0\xfa\xd5\xce\x89n]\xc8\xe8\xcd'
p2498
ssS'user_system_views_apps___init__'
p2499
(dp2500
g6
(dp2501
g8
S'user_system_views_apps___init__.html'
p2502
sg10
S'user_system/views/apps/__init__'
p2503
sg12
g13
(g14
g15
NtRp2504
(dp2505
g18
I1
sg19
I0
sg20
I1
sg21
I0
sg22
I0
sg23
I0
sg24
I0
sbssg25
S'\xd6w\xf1U&%\x1c\xf1J\xcc \xdab-\x15\xe8'
p2506
ssS'user_system_views_users_tests_test_get_users_list_view'
p2507
(dp2508
g6
(dp2509
g8
S'user_system_views_users_tests_test_get_users_list_view.html'
p2510
sg10
S'user_system/views/users/tests/test_get_users_list_view'
p2511
sg12
g13
(g14
g15
NtRp2512
(dp2513
g18
I1
sg19
I0
sg20
I34
sg21
I0
sg22
I0
sg23
I0
sg24
I0
sbssg25
S'\x89\xe8J\x92\x97\xdb:\xfc\x06\xc3\xdd\xa0\x0ed\\\xd7'
p2514
ssS'create_models_questions_question_type_model'
p2515
(dp2516
g6
(dp2517
g8
S'create_models_questions_question_type_model.html'
p2518
sg10
S'create/models/questions/question_type_model'
p2519
sg12
g13
(g14
g15
NtRp2520
(dp2521
g18
I1
sg19
I0
sg20
I19
sg21
I0
sg22
I0
sg23
I0
sg24
I0
sbssg25
S'\n\xdc\x08-Do`\xb2m\xf9\xbf;\x19\xa08)'
p2522
ssS'user_system_managers_tests___init__'
p2523
(dp2524
g6
(dp2525
g8
S'user_system_managers_tests___init__.html'
p2526
sg10
S'user_system/managers/tests/__init__'
p2527
sg12
g13
(g14
g15
NtRp2528
(dp2529
g18
I1
sg19
I0
sg20
I0
sg21
I0
sg22
I0
sg23
I0
sg24
I0
sbssg25
S'\xca\xf5\x9f\x7f\x88\xdfa\x831|T\x1d\xbc}\xa5v'
p2530
ssS'privilege_models_privileges___init__'
p2531
(dp2532
g6
(dp2533
g8
S'privilege_models_privileges___init__.html'
p2534
sg10
S'privilege/models/privileges/__init__'
p2535
sg12
g13
(g14
g15
NtRp2536
(dp2537
g18
I1
sg19
I0
sg20
I2
sg21
I0
sg22
I0
sg23
I0
sg24
I0
sbssg25
S'\xdf\x9b\xf3^\xed\x1e\x91@(Xn\xc2\x1b\xea\xec\x0e'
p2538
ssS'teach_views_summaries_student_list_summary'
p2539
(dp2540
g6
(dp2541
g8
S'teach_views_summaries_student_list_summary.html'
p2542
sg10
S'teach/views/summaries/student_list_summary'
p2543
sg12
g13
(g14
g15
NtRp2544
(dp2545
g18
I1
sg19
I0
sg20
I81
sg21
I0
sg22
I0
sg23
I63
sg24
I0
sbssg25
S'+\xf0rv\xb6g\xdb\xc9\x84c\x80ja\x89\xbe\xf3'
p2546
ssS'user_system_models_schools_tests_test_classroom_model'
p2547
(dp2548
g6
(dp2549
g8
S'user_system_models_schools_tests_test_classroom_model.html'
p2550
sg10
S'user_system/models/schools/tests/test_classroom_model'
p2551
sg12
g13
(g14
g15
NtRp2552
(dp2553
g18
I1
sg19
I0
sg20
I31
sg21
I0
sg22
I0
sg23
I0
sg24
I0
sbssg25
S"\x11\xc6\x05\xd1\xd4\x88M\x8e\x81\x1b\xdc\x88<\xdb'\xd3"
p2554
ssS'user_system_views_schools_school_view'
p2555
(dp2556
g6
(dp2557
g8
S'user_system_views_schools_school_view.html'
p2558
sg10
S'user_system/views/schools/school_view'
p2559
sg12
g13
(g14
g15
NtRp2560
(dp2561
g18
I1
sg19
I0
sg20
I16
sg21
I0
sg22
I0
sg23
I0
sg24
I0
sbssg25
S'\x07(\x178\x13\xd5\xe7)Xg\x178\x7fct\xb0'
p2562
ssS'learn_models_points_point_type_model'
p2563
(dp2564
g6
(dp2565
g8
S'learn_models_points_point_type_model.html'
p2566
sg10
S'learn/models/points/point_type_model'
p2567
sg12
g13
(g14
g15
NtRp2568
(dp2569
g18
I1
sg19
I0
sg20
I20
sg21
I0
sg22
I0
sg23
I0
sg24
I0
sbssg25
S'\xb1\x89\\$w\x97h\x95\x03L\xf5\xe1\xd8\xe4#\x93'
p2570
ssS'user_system_models_roles_tests_test_role_app_model'
p2571
(dp2572
g6
(dp2573
g8
S'user_system_models_roles_tests_test_role_app_model.html'
p2574
sg10
S'user_system/models/roles/tests/test_role_app_model'
p2575
sg12
g13
(g14
g15
NtRp2576
(dp2577
g18
I1
sg19
I0
sg20
I21
sg21
I0
sg22
I0
sg23
I0
sg24
I0
sbssg25
S'M\xca\x9c\xc3\xf9u3\xa8D\x91bj\xb5iU\x89'
p2578
ssS'user_system_views_schools_grade_view'
p2579
(dp2580
g6
(dp2581
g8
S'user_system_views_schools_grade_view.html'
p2582
sg10
S'user_system/views/schools/grade_view'
p2583
sg12
g13
(g14
g15
NtRp2584
(dp2585
g18
I1
sg19
I0
sg20
I16
sg21
I0
sg22
I0
sg23
I0
sg24
I0
sbssg25
S'?\x07V\xa7+\xcf\x05Z\xc2\xee2\x06\x11\x87\x19\xd5'
p2586
ssS'create_serializers_question_datasets_question_dataset_serializer'
p2587
(dp2588
g6
(dp2589
g8
S'create_serializers_question_datasets_question_dataset_serializer.html'
p2590
sg10
S'create/serializers/question_datasets/question_dataset_serializer'
p2591
sg12
g13
(g14
g15
NtRp2592
(dp2593
g18
I1
sg19
I0
sg20
I6
sg21
I0
sg22
I0
sg23
I0
sg24
I0
sbssg25
S'\xf4\xd3P\xc0o{\x0f\xcf\x0fH\xf8C\\\xc3\xcd^'
p2594
ssS'privilege_models_privileges_user_privilege_model'
p2595
(dp2596
g6
(dp2597
g8
S'privilege_models_privileges_user_privilege_model.html'
p2598
sg10
S'privilege/models/privileges/user_privilege_model'
p2599
sg12
g13
(g14
g15
NtRp2600
(dp2601
g18
I1
sg19
I0
sg20
I17
sg21
I0
sg22
I0
sg23
I1
sg24
I0
sbssg25
S'\x15u\x98\x0b1\x80\x9e\x80$\xd5b\x08\x81\xf4^P'
p2602
ssS'create_views_questions_question_template_view'
p2603
(dp2604
g6
(dp2605
g8
S'create_views_questions_question_template_view.html'
p2606
sg10
S'create/views/questions/question_template_view'
p2607
sg12
g13
(g14
g15
NtRp2608
(dp2609
g18
I1
sg19
I0
sg20
I115
sg21
I0
sg22
I0
sg23
I86
sg24
I0
sbssg25
S"\xb8l\xe8\xf69\xa2@'+\xae-Y\xb9J+\xaf"
p2610
ssS'create_serializers_quests_quest_serializer'
p2611
(dp2612
g6
(dp2613
g8
S'create_serializers_quests_quest_serializer.html'
p2614
sg10
S'create/serializers/quests/quest_serializer'
p2615
sg12
g13
(g14
g15
NtRp2616
(dp2617
g18
I1
sg19
I0
sg20
I50
sg21
I0
sg22
I0
sg23
I15
sg24
I0
sbssg25
S'\xb4\xcea\xf0\x82\xf2\xab\xac1\xeb\xdc`FDp\xf4'
p2618
ssS'create_views_summary_create_summary_view'
p2619
(dp2620
g6
(dp2621
g8
S'create_views_summary_create_summary_view.html'
p2622
sg10
S'create/views/summary/create_summary_view'
p2623
sg12
g13
(g14
g15
NtRp2624
(dp2625
g18
I1
sg19
I0
sg20
I59
sg21
I0
sg22
I0
sg23
I48
sg24
I0
sbssg25
S'\xff\xed\xd8\xed2M\x89\xcb\xd49g6\x15sK\xd9'
p2626
ssS'create_serializers_books_book_serializer'
p2627
(dp2628
g6
(dp2629
g8
S'create_serializers_books_book_serializer.html'
p2630
sg10
S'create/serializers/books/book_serializer'
p2631
sg12
g13
(g14
g15
NtRp2632
(dp2633
g18
I1
sg19
I0
sg20
I25
sg21
I0
sg22
I0
sg23
I0
sg24
I0
sbssg25
S'v>o\xf6|\x81)\x90-\xf7\x9d\xf8gx\xf7R'
p2634
ssS'user_system_models_schools_tests___init__'
p2635
(dp2636
g6
(dp2637
g8
S'user_system_models_schools_tests___init__.html'
p2638
sg10
S'user_system/models/schools/tests/__init__'
p2639
sg12
g13
(g14
g15
NtRp2640
(dp2641
g18
I1
sg19
I0
sg20
I0
sg21
I0
sg22
I0
sg23
I0
sg24
I0
sbssg25
S'\xca\xf5\x9f\x7f\x88\xdfa\x831|T\x1d\xbc}\xa5v'
p2642
ssS'user_system_models_users_tests_test_user_profile_picture_model'
p2643
(dp2644
g6
(dp2645
g8
S'user_system_models_users_tests_test_user_profile_picture_model.html'
p2646
sg10
S'user_system/models/users/tests/test_user_profile_picture_model'
p2647
sg12
g13
(g14
g15
NtRp2648
(dp2649
g18
I1
sg19
I0
sg20
I21
sg21
I0
sg22
I0
sg23
I0
sg24
I0
sbssg25
S'\xa1,\xfeC\xc8\xe6\xc1{[\xb9I\xd7q\xd9\xd2\xa1'
p2650
ssS'privilege_serializers_privileges___init__'
p2651
(dp2652
g6
(dp2653
g8
S'privilege_serializers_privileges___init__.html'
p2654
sg10
S'privilege/serializers/privileges/__init__'
p2655
sg12
g13
(g14
g15
NtRp2656
(dp2657
g18
I1
sg19
I0
sg20
I2
sg21
I0
sg22
I0
sg23
I0
sg24
I0
sbssg25
S'\xe9T:\xfe`\x92\x7f\x97VL\xfd\x1c\xe2\xfe\xecH'
p2658
ssS'create___init__'
p2659
(dp2660
g6
(dp2661
g8
S'create___init__.html'
p2662
sg10
S'create/__init__'
p2663
sg12
g13
(g14
g15
NtRp2664
(dp2665
g18
I1
sg19
I0
sg20
I0
sg21
I0
sg22
I0
sg23
I0
sg24
I0
sbssg25
S'\xca\xf5\x9f\x7f\x88\xdfa\x831|T\x1d\xbc}\xa5v'
p2666
ssS'user_system_serializers_schools_school_serializer'
p2667
(dp2668
g6
(dp2669
g8
S'user_system_serializers_schools_school_serializer.html'
p2670
sg10
S'user_system/serializers/schools/school_serializer'
p2671
sg12
g13
(g14
g15
NtRp2672
(dp2673
g18
I1
sg19
I0
sg20
I9
sg21
I0
sg22
I0
sg23
I0
sg24
I0
sbssg25
S'Q\x82,\xee\xe8F\x00\xcb\xadt\xdcw C\x08\x94'
p2674
ssS'user_system_models_users_tests_test_user_profile_update_request_model'
p2675
(dp2676
g6
(dp2677
g8
S'user_system_models_users_tests_test_user_profile_update_request_model.html'
p2678
sg10
S'user_system/models/users/tests/test_user_profile_update_request_model'
p2679
sg12
g13
(g14
g15
NtRp2680
(dp2681
g18
I1
sg19
I0
sg20
I56
sg21
I0
sg22
I0
sg23
I0
sg24
I0
sbssg25
S'<\x0e2\xcd\xaeI`\xe1\xbd\x94[2\xf4\xecu\xcc'
p2682
ssS'user_system_views_users_tests_test_add_role_view'
p2683
(dp2684
g6
(dp2685
g8
S'user_system_views_users_tests_test_add_role_view.html'
p2686
sg10
S'user_system/views/users/tests/test_add_role_view'
p2687
sg12
g13
(g14
g15
NtRp2688
(dp2689
g18
I1
sg19
I0
sg20
I36
sg21
I0
sg22
I0
sg23
I0
sg24
I0
sbssg25
S'\xbc\xd6\x94\xa5\x10g\xfc\xf4Dr\x15\xbc\xcb\xc0\x8f='
p2690
ssS'learn_urls'
p2691
(dp2692
g6
(dp2693
g8
S'learn_urls.html'
p2694
sg10
S'learn/urls'
p2695
sg12
g13
(g14
g15
NtRp2696
(dp2697
g18
I1
sg19
I0
sg20
I9
sg21
I0
sg22
I0
sg23
I0
sg24
I0
sbssg25
S'5h\xde\xe5_\xeb\xdaQ\xbd\x90kt\x81Pa\xbe'
p2698
ssS'api_logging___init__'
p2699
(dp2700
g6
(dp2701
g8
S'api_logging___init__.html'
p2702
sg10
S'api_logging/__init__'
p2703
sg12
g13
(g14
g15
NtRp2704
(dp2705
g18
I1
sg19
I0
sg20
I0
sg21
I0
sg22
I0
sg23
I0
sg24
I0
sbssg25
S'\xca\xf5\x9f\x7f\x88\xdfa\x831|T\x1d\xbc}\xa5v'
p2706
ssS'learn_serializers_daily_quests___init__'
p2707
(dp2708
g6
(dp2709
g8
S'learn_serializers_daily_quests___init__.html'
p2710
sg10
S'learn/serializers/daily_quests/__init__'
p2711
sg12
g13
(g14
g15
NtRp2712
(dp2713
g18
I1
sg19
I0
sg20
I3
sg21
I0
sg22
I0
sg23
I0
sg24
I0
sbssg25
S'\xaf\xe8\x1e\x8a\xa8)\xd1\xae\xf5\xc4\xbf\xbb\xeb\xf3)4'
p2714
ssS'create_views_questions_question_view'
p2715
(dp2716
g6
(dp2717
g8
S'create_views_questions_question_view.html'
p2718
sg10
S'create/views/questions/question_view'
p2719
sg12
g13
(g14
g15
NtRp2720
(dp2721
g18
I1
sg19
I0
sg20
I113
sg21
I0
sg22
I0
sg23
I40
sg24
I0
sbssg25
S'\x01\x99\xd3\xed\xc5w\xb8\x85\xa9\x1a\x05\xe3 \xa1R)'
p2722
ssS'create_views_quests_tests_test_add_question_view'
p2723
(dp2724
g6
(dp2725
g8
S'create_views_quests_tests_test_add_question_view.html'
p2726
sg10
S'create/views/quests/tests/test_add_question_view'
p2727
sg12
g13
(g14
g15
NtRp2728
(dp2729
g18
I1
sg19
I0
sg20
I0
sg21
I0
sg22
I0
sg23
I0
sg24
I0
sbssg25
S'\xca\xf5\x9f\x7f\x88\xdfa\x831|T\x1d\xbc}\xa5v'
p2730
ssS'create_models_daily_quest_copies___init__'
p2731
(dp2732
g6
(dp2733
g8
S'create_models_daily_quest_copies___init__.html'
p2734
sg10
S'create/models/daily_quest_copies/__init__'
p2735
sg12
g13
(g14
g15
NtRp2736
(dp2737
g18
I1
sg19
I0
sg20
I1
sg21
I0
sg22
I0
sg23
I0
sg24
I0
sbssg25
S'\x16\xf1]\xbf+\xac\xd9a\x81\xc8\xce]\xf98\x92\x06'
p2738
ssS'create_models_books_tests___init__'
p2739
(dp2740
g6
(dp2741
g8
S'create_models_books_tests___init__.html'
p2742
sg10
S'create/models/books/tests/__init__'
p2743
sg12
g13
(g14
g15
NtRp2744
(dp2745
g18
I1
sg19
I0
sg20
I0
sg21
I0
sg22
I0
sg23
I0
sg24
I0
sbssg25
S'\xca\xf5\x9f\x7f\x88\xdfa\x831|T\x1d\xbc}\xa5v'
p2746
ssS'user_system_views_apps_app_view'
p2747
(dp2748
g6
(dp2749
g8
S'user_system_views_apps_app_view.html'
p2750
sg10
S'user_system/views/apps/app_view'
p2751
sg12
g13
(g14
g15
NtRp2752
(dp2753
g18
I1
sg19
I0
sg20
I13
sg21
I0
sg22
I0
sg23
I0
sg24
I0
sbssg25
S'G\xda\x86\xc73\x15\xc3\x9b\xee\x84>\xc0\x8b\xb9\xe6%'
p2754
ssS'learn_serializers_daily_quests_daily_quest_history_date_group_serializer'
p2755
(dp2756
g6
(dp2757
g8
S'learn_serializers_daily_quests_daily_quest_history_date_group_serializer.html'
p2758
sg10
S'learn/serializers/daily_quests/daily_quest_history_date_group_serializer'
p2759
sg12
g13
(g14
g15
NtRp2760
(dp2761
g18
I1
sg19
I0
sg20
I19
sg21
I0
sg22
I0
sg23
I0
sg24
I0
sbssg25
S'\xbc\xdf \x9dRe\xf0q\x02\xa4\xfb\x03\xe5\xa5\xf6\xad'
p2762
ssS'user_system_managers_streak_manager'
p2763
(dp2764
g6
(dp2765
g8
S'user_system_managers_streak_manager.html'
p2766
sg10
S'user_system/managers/streak_manager'
p2767
sg12
g13
(g14
g15
NtRp2768
(dp2769
g18
I1
sg19
I0
sg20
I66
sg21
I0
sg22
I0
sg23
I48
sg24
I0
sbssg25
S'u\xf3A!\x08\xa2\x017<\xccV\xf1\xf8\x96"\xa3'
p2770
ssS'user_system_views_signups_map_demo_signup_view'
p2771
(dp2772
g6
(dp2773
g8
S'user_system_views_signups_map_demo_signup_view.html'
p2774
sg10
S'user_system/views/signups/map_demo_signup_view'
p2775
sg12
g13
(g14
g15
NtRp2776
(dp2777
g18
I1
sg19
I0
sg20
I134
sg21
I0
sg22
I0
sg23
I115
sg24
I0
sbssg25
S'\x92i\xf2\tJ\xe0\xe0s;\x9d\x9c`\xca\x9e"T'
p2778
ssS'learn_views_student_news_feed_student_news_feed_view'
p2779
(dp2780
g6
(dp2781
g8
S'learn_views_student_news_feed_student_news_feed_view.html'
p2782
sg10
S'learn/views/student_news_feed/student_news_feed_view'
p2783
sg12
g13
(g14
g15
NtRp2784
(dp2785
g18
I1
sg19
I0
sg20
I64
sg21
I0
sg22
I0
sg23
I43
sg24
I0
sbssg25
S'\xab\x84\xc8\x83\xa5\x03\xf2\xf2\x8d\r"m\xab\x97\x1cX'
p2786
ssS'user_system_models_schools_tests_test_academic_year_model'
p2787
(dp2788
g6
(dp2789
g8
S'user_system_models_schools_tests_test_academic_year_model.html'
p2790
sg10
S'user_system/models/schools/tests/test_academic_year_model'
p2791
sg12
g13
(g14
g15
NtRp2792
(dp2793
g18
I1
sg19
I0
sg20
I28
sg21
I0
sg22
I0
sg23
I0
sg24
I0
sbssg25
S'l\x9e\x81\xb8\xfe\x90\xf6`2\xc0\xa8\x80\xf2F.\x1b'
p2794
ssS'learn_serializers_daily_quests_daily_quest_question_history_serializer'
p2795
(dp2796
g6
(dp2797
g8
S'learn_serializers_daily_quests_daily_quest_question_history_serializer.html'
p2798
sg10
S'learn/serializers/daily_quests/daily_quest_question_history_serializer'
p2799
sg12
g13
(g14
g15
NtRp2800
(dp2801
g18
I1
sg19
I0
sg20
I8
sg21
I0
sg22
I0
sg23
I0
sg24
I0
sbssg25
S'H?4.\xf0\xd6\x00j\x03d\x98%(\x9d\xe5#'
p2802
ssS'api_logging_serializers_modal_loggings___init__'
p2803
(dp2804
g6
(dp2805
g8
S'api_logging_serializers_modal_loggings___init__.html'
p2806
sg10
S'api_logging/serializers/modal_loggings/__init__'
p2807
sg12
g13
(g14
g15
NtRp2808
(dp2809
g18
I1
sg19
I0
sg20
I1
sg21
I0
sg22
I0
sg23
I0
sg24
I0
sbssg25
S'Ew:\xb1h\x16G\x92{\x8e\x8b\xba\xf8b\x95\xfe'
p2810
ssS'user_system_models_schools_grade_model'
p2811
(dp2812
g6
(dp2813
g8
S'user_system_models_schools_grade_model.html'
p2814
sg10
S'user_system/models/schools/grade_model'
p2815
sg12
g13
(g14
g15
NtRp2816
(dp2817
g18
I1
sg19
I0
sg20
I29
sg21
I0
sg22
I0
sg23
I0
sg24
I0
sbssg25
S'\xac\x87x~svP\x94\xd9n\x80\x83\xa8\xd6\xdax'
p2818
ssS'user_system_serializers_schools___init__'
p2819
(dp2820
g6
(dp2821
g8
S'user_system_serializers_schools___init__.html'
p2822
sg10
S'user_system/serializers/schools/__init__'
p2823
sg12
g13
(g14
g15
NtRp2824
(dp2825
g18
I1
sg19
I0
sg20
I5
sg21
I0
sg22
I0
sg23
I0
sg24
I0
sbssg25
S'\xb3\nx~\xfa\x92\xd4s\x82rx\x15\xc2b\x8f\xc7'
p2826
ssS'create_serializers_questions_question_choice_serializer'
p2827
(dp2828
g6
(dp2829
g8
S'create_serializers_questions_question_choice_serializer.html'
p2830
sg10
S'create/serializers/questions/question_choice_serializer'
p2831
sg12
g13
(g14
g15
NtRp2832
(dp2833
g18
I1
sg19
I0
sg20
I10
sg21
I0
sg22
I0
sg23
I0
sg24
I0
sbssg25
S'\x0b\x01A\x81 \xfd\xdd\xbe\xee\xf6\x00\xbb\xf6\x8c*\xd8'
p2834
ssS'teach_views_summaries_top_answered_questions_summary_view'
p2835
(dp2836
g6
(dp2837
g8
S'teach_views_summaries_top_answered_questions_summary_view.html'
p2838
sg10
S'teach/views/summaries/top_answered_questions_summary_view'
p2839
sg12
g13
(g14
g15
NtRp2840
(dp2841
g18
I1
sg19
I0
sg20
I77
sg21
I0
sg22
I0
sg23
I54
sg24
I0
sbssg25
S"\xd9,j\x98\x11'\xf7m:\xf0\x1e\x05?\x920\xd0"
p2842
ssS'user_system_models_apps___init__'
p2843
(dp2844
g6
(dp2845
g8
S'user_system_models_apps___init__.html'
p2846
sg10
S'user_system/models/apps/__init__'
p2847
sg12
g13
(g14
g15
NtRp2848
(dp2849
g18
I1
sg19
I0
sg20
I1
sg21
I0
sg22
I0
sg23
I0
sg24
I0
sbssg25
S'\x17\x93\t\x90\xe3\x80\x88\xa7\xbaO\xb8\x06\xc0\n|\x1f'
p2850
ssS'create_models_tags_tests_test_tag_model'
p2851
(dp2852
g6
(dp2853
g8
S'create_models_tags_tests_test_tag_model.html'
p2854
sg10
S'create/models/tags/tests/test_tag_model'
p2855
sg12
g13
(g14
g15
NtRp2856
(dp2857
g18
I1
sg19
I0
sg20
I52
sg21
I0
sg22
I0
sg23
I0
sg24
I0
sbssg25
S'\x1c8\xba\xeaJ\xe1x=\xc2s\x86\xb6T\x83+\xd8'
p2858
ssS'create_models_quests___init__'
p2859
(dp2860
g6
(dp2861
g8
S'create_models_quests___init__.html'
p2862
sg10
S'create/models/quests/__init__'
p2863
sg12
g13
(g14
g15
NtRp2864
(dp2865
g18
I1
sg19
I0
sg20
I2
sg21
I0
sg22
I0
sg23
I0
sg24
I0
sbssg25
S'\x8d\x91\xf15\xad\xfc\xc8?:\xcc\xba\x05\x96\xe4xj'
p2866
ssS'privilege_serializers_privileges_privilege_serializer'
p2867
(dp2868
g6
(dp2869
g8
S'privilege_serializers_privileges_privilege_serializer.html'
p2870
sg10
S'privilege/serializers/privileges/privilege_serializer'
p2871
sg12
g13
(g14
g15
NtRp2872
(dp2873
g18
I1
sg19
I0
sg20
I7
sg21
I0
sg22
I0
sg23
I0
sg24
I0
sbssg25
S'\\734\x1e\x92\xa6\xe5_\x80\xa4\xcd\x83V\x9c\x12'
p2874
ssS'user_system_views_signups_hardcoded_tests_test_test_account_view'
p2875
(dp2876
g6
(dp2877
g8
S'user_system_views_signups_hardcoded_tests_test_test_account_view.html'
p2878
sg10
S'user_system/views/signups/hardcoded/tests/test_test_account_view'
p2879
sg12
g13
(g14
g15
NtRp2880
(dp2881
g18
I1
sg19
I0
sg20
I24
sg21
I0
sg22
I0
sg23
I0
sg24
I0
sbssg25
S'\xbaG\xaa\x82\xfb\x0eq\xbf\x97\x93\xc1\xc4{\xfd2.'
p2882
ssS'api_logging_models_query_stat_query_stat_model'
p2883
(dp2884
g6
(dp2885
g8
S'api_logging_models_query_stat_query_stat_model.html'
p2886
sg10
S'api_logging/models/query_stat/query_stat_model'
p2887
sg12
g13
(g14
g15
NtRp2888
(dp2889
g18
I1
sg19
I0
sg20
I16
sg21
I0
sg22
I0
sg23
I3
sg24
I0
sbssg25
S'S\xacH\xdb\x08\xd5\xe0)\xcc\xb5\xa0\x81f\xc2\xbbS'
p2890
ssS'create_models_tags_concept_model'
p2891
(dp2892
g6
(dp2893
g8
S'create_models_tags_concept_model.html'
p2894
sg10
S'create/models/tags/concept_model'
p2895
sg12
g13
(g14
g15
NtRp2896
(dp2897
g18
I1
sg19
I0
sg20
I10
sg21
I0
sg22
I0
sg23
I0
sg24
I0
sbssg25
S'\x8aw\x06\xae\x88\xf0\x8f\x862J\xc4 \x97,E\x10'
p2898
ssS'create_models_tags_tests___init__'
p2899
(dp2900
g6
(dp2901
g8
S'create_models_tags_tests___init__.html'
p2902
sg10
S'create/models/tags/tests/__init__'
p2903
sg12
g13
(g14
g15
NtRp2904
(dp2905
g18
I1
sg19
I0
sg20
I1
sg21
I0
sg22
I0
sg23
I0
sg24
I0
sbssg25
S'C<+\x18d[1i\xd1\xed\xdc\xe5\x83\xa3\xf8\x8b'
p2906
ssS'learn_admin'
p2907
(dp2908
g6
(dp2909
g8
S'learn_admin.html'
p2910
sg10
S'learn/admin'
p2911
sg12
g13
(g14
g15
NtRp2912
(dp2913
g18
I1
sg19
I0
sg20
I9
sg21
I0
sg22
I0
sg23
I0
sg24
I0
sbssg25
S'P/\x9ck-\x8d\x8d\xb4\xdb<\xefg\xc3,(\xb2'
p2914
ssS'user_system_models_schools_classroom_model'
p2915
(dp2916
g6
(dp2917
g8
S'user_system_models_schools_classroom_model.html'
p2918
sg10
S'user_system/models/schools/classroom_model'
p2919
sg12
g13
(g14
g15
NtRp2920
(dp2921
g18
I1
sg19
I0
sg20
I25
sg21
I0
sg22
I0
sg23
I0
sg24
I0
sbssg25
S'ru\xb0\xc9\xa7\x8et\x7f\x84\x07]\xff\xeb\x01\xb1\xcb'
p2922
ssS'teach_views_campaigns_campaign_view'
p2923
(dp2924
g6
(dp2925
g8
S'teach_views_campaigns_campaign_view.html'
p2926
sg10
S'teach/views/campaigns/campaign_view'
p2927
sg12
g13
(g14
g15
NtRp2928
(dp2929
g18
I1
sg19
I0
sg20
I32
sg21
I0
sg22
I0
sg23
I12
sg24
I0
sbssg25
S'\x1c\x1e\xfd\xf2\xf8\xb3\xa8\x01\xdf\xe8\xac6G\x91\xe1\x8c'
p2930
ssS'user_system_models_schools_semester_model'
p2931
(dp2932
g6
(dp2933
g8
S'user_system_models_schools_semester_model.html'
p2934
sg10
S'user_system/models/schools/semester_model'
p2935
sg12
g13
(g14
g15
NtRp2936
(dp2937
g18
I1
sg19
I0
sg20
I23
sg21
I0
sg22
I0
sg23
I0
sg24
I0
sbssg25
S'\x85\x0b\xf3\x06\x18\xa4\x9a\x01\x1ds\xa1\x9d\xdb\x7f\xc3\x9c'
p2938
ssS'create_views_daily_quest_copies_daily_quest_copy_view'
p2939
(dp2940
g6
(dp2941
g8
S'create_views_daily_quest_copies_daily_quest_copy_view.html'
p2942
sg10
S'create/views/daily_quest_copies/daily_quest_copy_view'
p2943
sg12
g13
(g14
g15
NtRp2944
(dp2945
g18
I1
sg19
I0
sg20
I14
sg21
I0
sg22
I0
sg23
I0
sg24
I0
sbssg25
S'\xad\xf3%\xd6\xe7\x92\x9c\xd0{\xbc\x88\xfc\xc4\xcfx\r'
p2946
ssS'flipped_helpers_parameters_helper'
p2947
(dp2948
g6
(dp2949
g8
S'flipped_helpers_parameters_helper.html'
p2950
sg10
S'flipped/helpers/parameters_helper'
p2951
sg12
g13
(g14
g15
NtRp2952
(dp2953
g18
I1
sg19
I0
sg20
I22
sg21
I0
sg22
I0
sg23
I4
sg24
I0
sbssg25
S'\xff\xcd\x0b\xc7\xcd\xcb0\x16cAg\xd1U\xab\xb4\xe4'
p2954
ssS'user_system_models___init__'
p2955
(dp2956
g6
(dp2957
g8
S'user_system_models___init__.html'
p2958
sg10
S'user_system/models/__init__'
p2959
sg12
g13
(g14
g15
NtRp2960
(dp2961
g18
I1
sg19
I0
sg20
I4
sg21
I0
sg22
I0
sg23
I0
sg24
I0
sbssg25
S'!re\x0f\xee\xf3\xea\xbf\xc7\t\xf5L\xb4l\xf3"'
p2962
ssS'create_models_questions_tests_test_question_model'
p2963
(dp2964
g6
(dp2965
g8
S'create_models_questions_tests_test_question_model.html'
p2966
sg10
S'create/models/questions/tests/test_question_model'
p2967
sg12
g13
(g14
g15
NtRp2968
(dp2969
g18
I1
sg19
I0
sg20
I58
sg21
I0
sg22
I0
sg23
I0
sg24
I0
sbssg25
S'Rp\xb4\xbe\xbf\xcc[\xa8\x85w\x1c\xdf\xed\xf6\xa0>'
p2970
ssS'user_system_models_users_tests_test_user_profile_history_model'
p2971
(dp2972
g6
(dp2973
g8
S'user_system_models_users_tests_test_user_profile_history_model.html'
p2974
sg10
S'user_system/models/users/tests/test_user_profile_history_model'
p2975
sg12
g13
(g14
g15
NtRp2976
(dp2977
g18
I1
sg19
I0
sg20
I54
sg21
I0
sg22
I0
sg23
I0
sg24
I0
sbssg25
S'\xa9%Z\xec\xb1U\x85W\x12z5\x99`Ai\r'
p2978
ssS'learn_views___init__'
p2979
(dp2980
g6
(dp2981
g8
S'learn_views___init__.html'
p2982
sg10
S'learn/views/__init__'
p2983
sg12
g13
(g14
g15
NtRp2984
(dp2985
g18
I1
sg19
I0
sg20
I2
sg21
I0
sg22
I0
sg23
I0
sg24
I0
sbssg25
S'k\t\xe3\xd3\xdf\xd5\xee\xb9\xf62@\x9e\x9eaN\x90'
p2986
ssS'create_serializers_questions___init__'
p2987
(dp2988
g6
(dp2989
g8
S'create_serializers_questions___init__.html'
p2990
sg10
S'create/serializers/questions/__init__'
p2991
sg12
g13
(g14
g15
NtRp2992
(dp2993
g18
I1
sg19
I0
sg20
I5
sg21
I0
sg22
I0
sg23
I0
sg24
I0
sbssg25
S'\xeb\xebR\xe8\x0e\xd8\x8fL\x19\x13\xa9\xf9\r\xd1\x1b\x1d'
p2994
ssS'user_system_views_signups_hardcoded_tests___init__'
p2995
(dp2996
g6
(dp2997
g8
S'user_system_views_signups_hardcoded_tests___init__.html'
p2998
sg10
S'user_system/views/signups/hardcoded/tests/__init__'
p2999
sg12
g13
(g14
g15
NtRp3000
(dp3001
g18
I1
sg19
I0
sg20
I0
sg21
I0
sg22
I0
sg23
I0
sg24
I0
sbssg25
S'\xca\xf5\x9f\x7f\x88\xdfa\x831|T\x1d\xbc}\xa5v'
p3002
ssS'create_serializers_questions_question_serializer'
p3003
(dp3004
g6
(dp3005
g8
S'create_serializers_questions_question_serializer.html'
p3006
sg10
S'create/serializers/questions/question_serializer'
p3007
sg12
g13
(g14
g15
NtRp3008
(dp3009
g18
I1
sg19
I0
sg20
I59
sg21
I0
sg22
I0
sg23
I11
sg24
I0
sbssg25
S'|&"y\xf8o\x0c\x0c\xff\xf0Q\xf7\x93\xd1\xc6\xb4'
p3010
ssS'user_system_views___init__'
p3011
(dp3012
g6
(dp3013
g8
S'user_system_views___init__.html'
p3014
sg10
S'user_system/views/__init__'
p3015
sg12
g13
(g14
g15
NtRp3016
(dp3017
g18
I1
sg19
I0
sg20
I6
sg21
I0
sg22
I0
sg23
I0
sg24
I0
sbssg25
S'el\xb0\x1d\xf9\xa9\xa6m\xefC\xfb\x12\xe4\x96\x05\xde'
p3018
ssS'user_system_views_users_user_profile_update_request_view'
p3019
(dp3020
g6
(dp3021
g8
S'user_system_views_users_user_profile_update_request_view.html'
p3022
sg10
S'user_system/views/users/user_profile_update_request_view'
p3023
sg12
g13
(g14
g15
NtRp3024
(dp3025
g18
I1
sg19
I0
sg20
I70
sg21
I0
sg22
I0
sg23
I51
sg24
I0
sbssg25
S'\xc1\x8cg%\x8b\xf26\xccm\xa5&\x11\xd4U\x0bf'
p3026
ssS'user_system_models_roles_role_model'
p3027
(dp3028
g6
(dp3029
g8
S'user_system_models_roles_role_model.html'
p3030
sg10
S'user_system/models/roles/role_model'
p3031
sg12
g13
(g14
g15
NtRp3032
(dp3033
g18
I1
sg19
I0
sg20
I16
sg21
I0
sg22
I0
sg23
I0
sg24
I0
sbssg25
S'\x8e\x92`\xa7\x13\x9aC\xa0\x969\xf0r,\x1a\xd3\xa9'
p3034
ssS'user_system_views_users_tests_test_remove_role_view'
p3035
(dp3036
g6
(dp3037
g8
S'user_system_views_users_tests_test_remove_role_view.html'
p3038
sg10
S'user_system/views/users/tests/test_remove_role_view'
p3039
sg12
g13
(g14
g15
NtRp3040
(dp3041
g18
I1
sg19
I0
sg20
I42
sg21
I0
sg22
I0
sg23
I0
sg24
I0
sbssg25
S'o\xc5NgBg\xafl\xa5PMz\xe6\xe5\xdd\x80'
p3042
ssS'create_models_questions_tests_test_question_history_remark_model'
p3043
(dp3044
g6
(dp3045
g8
S'create_models_questions_tests_test_question_history_remark_model.html'
p3046
sg10
S'create/models/questions/tests/test_question_history_remark_model'
p3047
sg12
g13
(g14
g15
NtRp3048
(dp3049
g18
I1
sg19
I0
sg20
I30
sg21
I0
sg22
I0
sg23
I0
sg24
I0
sbssg25
S'\xfc\xa3$A\x8e\x85/\x96\x02B\xa7\xf9\xeeb9\xec'
p3050
ssS'api_logging_serializers___init__'
p3051
(dp3052
g6
(dp3053
g8
S'api_logging_serializers___init__.html'
p3054
sg10
S'api_logging/serializers/__init__'
p3055
sg12
g13
(g14
g15
NtRp3056
(dp3057
g18
I1
sg19
I0
sg20
I3
sg21
I0
sg22
I0
sg23
I0
sg24
I0
sbssg25
S"7\xa4&\x81\xa2\x96`\xc6?\xb4$'\xb1\x83\xf7\xbe"
p3058
ssS'user_system_models_users_tests_test_user_facebook_model'
p3059
(dp3060
g6
(dp3061
g8
S'user_system_models_users_tests_test_user_facebook_model.html'
p3062
sg10
S'user_system/models/users/tests/test_user_facebook_model'
p3063
sg12
g13
(g14
g15
NtRp3064
(dp3065
g18
I1
sg19
I0
sg20
I29
sg21
I0
sg22
I0
sg23
I0
sg24
I0
sbssg25
S'\x84\x1c\x85\xd8\xe3\x8d\x18\x96\xa3z\x00\x9f\xcf\xb2d\x05'
p3066
ssS'user_system_models_users_user_credentials_model'
p3067
(dp3068
g6
(dp3069
g8
S'user_system_models_users_user_credentials_model.html'
p3070
sg10
S'user_system/models/users/user_credentials_model'
p3071
sg12
g13
(g14
g15
NtRp3072
(dp3073
g18
I1
sg19
I0
sg20
I7
sg21
I0
sg22
I0
sg23
I0
sg24
I0
sbssg25
S'<Q\xe2\xb1:JR\xd1\xdf\xder{\x17\x98\x14\x83'
p3074
ssS'create_serializers_books___init__'
p3075
(dp3076
g6
(dp3077
g8
S'create_serializers_books___init__.html'
p3078
sg10
S'create/serializers/books/__init__'
p3079
sg12
g13
(g14
g15
NtRp3080
(dp3081
g18
I1
sg19
I0
sg20
I0
sg21
I0
sg22
I0
sg23
I0
sg24
I0
sbssg25
S'\xca\xf5\x9f\x7f\x88\xdfa\x831|T\x1d\xbc}\xa5v'
p3082
ssS'api_logging_models_user_activities_user_agent_model'
p3083
(dp3084
g6
(dp3085
g8
S'api_logging_models_user_activities_user_agent_model.html'
p3086
sg10
S'api_logging/models/user_activities/user_agent_model'
p3087
sg12
g13
(g14
g15
NtRp3088
(dp3089
g18
I1
sg19
I0
sg20
I14
sg21
I0
sg22
I0
sg23
I3
sg24
I0
sbssg25
S"\x99\x01\xc3\xab\x85\xd3q'\x1b\xfc\xe02\x13\xd3\x9e\x12"
p3090
ssS'create_serializers_daily_quest_copies___init__'
p3091
(dp3092
g6
(dp3093
g8
S'create_serializers_daily_quest_copies___init__.html'
p3094
sg10
S'create/serializers/daily_quest_copies/__init__'
p3095
sg12
g13
(g14
g15
NtRp3096
(dp3097
g18
I1
sg19
I0
sg20
I1
sg21
I0
sg22
I0
sg23
I0
sg24
I0
sbssg25
S'\x128\xe9Kg>\xb4\xe3\xab(v\x01\xcbMZ\x18'
p3098
ssS'create_views_quests_tests_test_add_question_template_view'
p3099
(dp3100
g6
(dp3101
g8
S'create_views_quests_tests_test_add_question_template_view.html'
p3102
sg10
S'create/views/quests/tests/test_add_question_template_view'
p3103
sg12
g13
(g14
g15
NtRp3104
(dp3105
g18
I1
sg19
I0
sg20
I0
sg21
I0
sg22
I0
sg23
I0
sg24
I0
sbssg25
S'\xca\xf5\x9f\x7f\x88\xdfa\x831|T\x1d\xbc}\xa5v'
p3106
ssS'teach_serializers_campaigns_campaign_serializer'
p3107
(dp3108
g6
(dp3109
g8
S'teach_serializers_campaigns_campaign_serializer.html'
p3110
sg10
S'teach/serializers/campaigns/campaign_serializer'
p3111
sg12
g13
(g14
g15
NtRp3112
(dp3113
g18
I1
sg19
I0
sg20
I9
sg21
I0
sg22
I0
sg23
I0
sg24
I0
sbssg25
S'\x17\x19\x1c@M\xae\xefJ\xf7\x92\xa7\x92e8\x11\x88'
p3114
ssS'learn_models_points_tests___init__'
p3115
(dp3116
g6
(dp3117
g8
S'learn_models_points_tests___init__.html'
p3118
sg10
S'learn/models/points/tests/__init__'
p3119
sg12
g13
(g14
g15
NtRp3120
(dp3121
g18
I1
sg19
I0
sg20
I1
sg21
I0
sg22
I0
sg23
I0
sg24
I0
sbssg25
S'C<+\x18d[1i\xd1\xed\xdc\xe5\x83\xa3\xf8\x8b'
p3122
ssS'create_views_tags_tests_test_hide_tag_view'
p3123
(dp3124
g6
(dp3125
g8
S'create_views_tags_tests_test_hide_tag_view.html'
p3126
sg10
S'create/views/tags/tests/test_hide_tag_view'
p3127
sg12
g13
(g14
g15
NtRp3128
(dp3129
g18
I1
sg19
I0
sg20
I25
sg21
I0
sg22
I0
sg23
I0
sg24
I0
sbssg25
S'0\x9f:\x95\xe7\x1d\xa8\xb3\x04d\xd4\xdb\xcb\xe7\x0f\x89'
p3130
ssS'user_system_views_signups_tests___init__'
p3131
(dp3132
g6
(dp3133
g8
S'user_system_views_signups_tests___init__.html'
p3134
sg10
S'user_system/views/signups/tests/__init__'
p3135
sg12
g13
(g14
g15
NtRp3136
(dp3137
g18
I1
sg19
I0
sg20
I1
sg21
I0
sg22
I0
sg23
I0
sg24
I0
sbssg25
S'C<+\x18d[1i\xd1\xed\xdc\xe5\x83\xa3\xf8\x8b'
p3138
ssS'create_views_books_tests___init__'
p3139
(dp3140
g6
(dp3141
g8
S'create_views_books_tests___init__.html'
p3142
sg10
S'create/views/books/tests/__init__'
p3143
sg12
g13
(g14
g15
NtRp3144
(dp3145
g18
I1
sg19
I0
sg20
I0
sg21
I0
sg22
I0
sg23
I0
sg24
I0
sbssg25
S'\xca\xf5\x9f\x7f\x88\xdfa\x831|T\x1d\xbc}\xa5v'
p3146
ssS'user_system_models_users_tests_test_user_streak_history_model'
p3147
(dp3148
g6
(dp3149
g8
S'user_system_models_users_tests_test_user_streak_history_model.html'
p3150
sg10
S'user_system/models/users/tests/test_user_streak_history_model'
p3151
sg12
g13
(g14
g15
NtRp3152
(dp3153
g18
I1
sg19
I0
sg20
I19
sg21
I0
sg22
I0
sg23
I0
sg24
I0
sbssg25
S'I\x96\xe9\xf6\x0eX\x00\xb7\xc9\x85\xdd?\x03c*\xf4'
p3154
sssS'version'
p3155
S'3.7.1'
p3156
sS'settings'
p3157
S'\x8fo\x10\x15Pc\x17EE\xa4\xa0\x1d\x96T\x83\xf9'
p3158
sS'format'
p3159
I1
s.