(dp1
S'files'
p2
(dp3
S'create_views_quests_tests_test_add_tag_view'
p4
(dp5
S'index'
p6
(dp7
S'html_filename'
p8
S'create_views_quests_tests_test_add_tag_view.html'
p9
sS'name'
p10
S'create/views/quests/tests/test_add_tag_view'
p11
sS'nums'
p12
ccopy_reg
_reconstructor
p13
(ccoverage.results
Numbers
p14
c__builtin__
object
p15
NtRp16
(dp17
S'n_files'
p18
I1
sS'n_branches'
p19
I0
sS'n_statements'
p20
I35
sS'n_excluded'
p21
I0
sS'n_partial_branches'
p22
I0
sS'n_missing'
p23
I0
sS'n_missing_branches'
p24
I0
sbssS'hash'
p25
S'o\xbe\xf1\xf9\x80\xe5|\xbab\xcc\xe2F=\x1e\xacp'
p26
ssS'user_system_models_users_teacher_profile_model'
p27
(dp28
g6
(dp29
g8
S'user_system_models_users_teacher_profile_model.html'
p30
sg10
S'user_system/models/users/teacher_profile_model'
p31
sg12
g13
(g14
g15
NtRp32
(dp33
g18
I1
sg19
I0
sg20
I27
sg21
I0
sg22
I0
sg23
I0
sg24
I0
sbssg25
S'x\x9e\x06\xe6\x8d\x87\xed\xaf\x91\x87\x16\xfc"\x96\xf2\xfc'
p34
ssS'user_system_views_signups_facebook_signup_view'
p35
(dp36
g6
(dp37
g8
S'user_system_views_signups_facebook_signup_view.html'
p38
sg10
S'user_system/views/signups/facebook_signup_view'
p39
sg12
g13
(g14
g15
NtRp40
(dp41
g18
I1
sg19
I8
sg20
I38
sg21
I0
sg22
I0
sg23
I0
sg24
I0
sbssg25
S'\x04E\'\x17r8\x14\xf6 \x98\xb5\xa0sx"@'
p42
ssS'create_models_books_book_history_model'
p43
(dp44
g6
(dp45
g8
S'create_models_books_book_history_model.html'
p46
sg10
S'create/models/books/book_history_model'
p47
sg12
g13
(g14
g15
NtRp48
(dp49
g18
I1
sg19
I4
sg20
I43
sg21
I0
sg22
I1
sg23
I0
sg24
I1
sbssg25
S'\xd71\x9e\xd0\x9bqR\xb9(!\x9f2\x10O|\xeb'
p50
ssS'teach_models_teacher_tags___init__'
p51
(dp52
g6
(dp53
g8
S'teach_models_teacher_tags___init__.html'
p54
sg10
S'teach/models/teacher_tags/__init__'
p55
sg12
g13
(g14
g15
NtRp56
(dp57
g18
I1
sg19
I0
sg20
I1
sg21
I0
sg22
I0
sg23
I0
sg24
I0
sbssg25
S"\x15#y\x16\x1a\x9d\xc6mE\xccg]\x07\xb9'\xe0"
p58
ssS'user_system_models_users_user_facebook_model'
p59
(dp60
g6
(dp61
g8
S'user_system_models_users_user_facebook_model.html'
p62
sg10
S'user_system/models/users/user_facebook_model'
p63
sg12
g13
(g14
g15
NtRp64
(dp65
g18
I1
sg19
I0
sg20
I22
sg21
I0
sg22
I0
sg23
I0
sg24
I0
sbssg25
S'!d\xff\xbcl0O(`\x1b1\xf7\xb3*{X'
p66
ssS'teach_models_teacher_chapters___init__'
p67
(dp68
g6
(dp69
g8
S'teach_models_teacher_chapters___init__.html'
p70
sg10
S'teach/models/teacher_chapters/__init__'
p71
sg12
g13
(g14
g15
NtRp72
(dp73
g18
I1
sg19
I0
sg20
I1
sg21
I0
sg22
I0
sg23
I0
sg24
I0
sbssg25
S'\xfa\xce(\x03\x8d\xd7\xc1h\xedT\xf9d\xae\x03w^'
p74
ssS'user_system_views_logins_facebook_login_view'
p75
(dp76
g6
(dp77
g8
S'user_system_views_logins_facebook_login_view.html'
p78
sg10
S'user_system/views/logins/facebook_login_view'
p79
sg12
g13
(g14
g15
NtRp80
(dp81
g18
I1
sg19
I4
sg20
I24
sg21
I0
sg22
I0
sg23
I0
sg24
I0
sbssg25
S',\xf8~\x8d\x9b\xfe\xa6wQ5\x92t\x15\xe5\x95\x8d'
p82
ssS'create_serializers_questions_question_history_serializer'
p83
(dp84
g6
(dp85
g8
S'create_serializers_questions_question_history_serializer.html'
p86
sg10
S'create/serializers/questions/question_history_serializer'
p87
sg12
g13
(g14
g15
NtRp88
(dp89
g18
I1
sg19
I2
sg20
I30
sg21
I0
sg22
I1
sg23
I2
sg24
I1
sbssg25
S'C\x93,\xa4\xac3\xb6\xb8\xca\x076\xae\x14\x15\xc0J'
p90
ssS'create_serializers_quests_quest_history_serializer'
p91
(dp92
g6
(dp93
g8
S'create_serializers_quests_quest_history_serializer.html'
p94
sg10
S'create/serializers/quests/quest_history_serializer'
p95
sg12
g13
(g14
g15
NtRp96
(dp97
g18
I1
sg19
I0
sg20
I38
sg21
I0
sg22
I0
sg23
I15
sg24
I0
sbssg25
S'\x0c\x10\x81\x11\xc3\xff\x01\x8d<#\xe5~\x84\xec\x18\xfd'
p98
ssS'learn_views_daily_quests_student_submission_view'
p99
(dp100
g6
(dp101
g8
S'learn_views_daily_quests_student_submission_view.html'
p102
sg10
S'learn/views/daily_quests/student_submission_view'
p103
sg12
g13
(g14
g15
NtRp104
(dp105
g18
I1
sg19
I10
sg20
I39
sg21
I0
sg22
I0
sg23
I22
sg24
I10
sbssg25
S'\xa1\xb8\xa5\x15\xe6;\xce4\xd7\x05\x02\xc5]N\x7f\x91'
p106
ssS'user_system_models_users_tests_test_student_profile_request_model'
p107
(dp108
g6
(dp109
g8
S'user_system_models_users_tests_test_student_profile_request_model.html'
p110
sg10
S'user_system/models/users/tests/test_student_profile_request_model'
p111
sg12
g13
(g14
g15
NtRp112
(dp113
g18
I1
sg19
I0
sg20
I42
sg21
I0
sg22
I0
sg23
I0
sg24
I0
sbssg25
S'\x0c4FG\x9bD\x9e\xaa\xb9a\xd6\xee\xc6&0T'
p114
ssS'create_views_books_tests_test_add_chapter_view'
p115
(dp116
g6
(dp117
g8
S'create_views_books_tests_test_add_chapter_view.html'
p118
sg10
S'create/views/books/tests/test_add_chapter_view'
p119
sg12
g13
(g14
g15
NtRp120
(dp121
g18
I1
sg19
I0
sg20
I69
sg21
I0
sg22
I0
sg23
I0
sg24
I0
sbssg25
S'\xea\xcd\x81\xff\xe6p74\xe3\xab\xc2R\x1aZ#Y'
p122
ssS'teach_models_teacher_chapters_tests_test_teacher_chapter_model'
p123
(dp124
g6
(dp125
g8
S'teach_models_teacher_chapters_tests_test_teacher_chapter_model.html'
p126
sg10
S'teach/models/teacher_chapters/tests/test_teacher_chapter_model'
p127
sg12
g13
(g14
g15
NtRp128
(dp129
g18
I1
sg19
I0
sg20
I28
sg21
I0
sg22
I0
sg23
I0
sg24
I0
sbssg25
S'm\xb2B\x1a\x04\xa5\x94N\xbe\xb6\xfa\xa9\x16J\x10\x92'
p130
ssS'create_serializers_question_datasets___init__'
p131
(dp132
g6
(dp133
g8
S'create_serializers_question_datasets___init__.html'
p134
sg10
S'create/serializers/question_datasets/__init__'
p135
sg12
g13
(g14
g15
NtRp136
(dp137
g18
I1
sg19
I0
sg20
I1
sg21
I0
sg22
I0
sg23
I0
sg24
I0
sbssg25
S'Z\xf8\x02Tc\xc1C;<_\x87\xc6\xc2H\xa6\xdc'
p138
ssS'user_system_models_users_user_profile_model'
p139
(dp140
g6
(dp141
g8
S'user_system_models_users_user_profile_model.html'
p142
sg10
S'user_system/models/users/user_profile_model'
p143
sg12
g13
(g14
g15
NtRp144
(dp145
g18
I1
sg19
I48
sg20
I178
sg21
I0
sg22
I0
sg23
I24
sg24
I6
sbssg25
S'\xf2\xb8\xecp\xaf\xff\n\xe3b\x06\xe8\xc3p\xf9\xe4W'
p146
ssS'create_models_question_datasets_tests_test_question_dataset_model'
p147
(dp148
g6
(dp149
g8
S'create_models_question_datasets_tests_test_question_dataset_model.html'
p150
sg10
S'create/models/question_datasets/tests/test_question_dataset_model'
p151
sg12
g13
(g14
g15
NtRp152
(dp153
g18
I1
sg19
I2
sg20
I39
sg21
I0
sg22
I0
sg23
I0
sg24
I0
sbssg25
S'!\t\x88\xfc\x0f\xaa\x0c\x88\xe3\xf9\x04\xd1\\0w\xf1'
p154
ssS'create_views_books_tests_test_remove_tag_from_subchapter_view'
p155
(dp156
g6
(dp157
g8
S'create_views_books_tests_test_remove_tag_from_subchapter_view.html'
p158
sg10
S'create/views/books/tests/test_remove_tag_from_subchapter_view'
p159
sg12
g13
(g14
g15
NtRp160
(dp161
g18
I1
sg19
I0
sg20
I40
sg21
I0
sg22
I0
sg23
I0
sg24
I0
sbssg25
S"(Vo#\xdd\x9a\xbc\x11\xff\xd6'\xd7\xeb\xca\x1aM"
p162
ssS'teach_urls'
p163
(dp164
g6
(dp165
g8
S'teach_urls.html'
p166
sg10
S'teach/urls'
p167
sg12
g13
(g14
g15
NtRp168
(dp169
g18
I1
sg19
I0
sg20
I15
sg21
I0
sg22
I0
sg23
I0
sg24
I0
sbssg25
S'\xdf\xeb\xd5b\xe0\xd9\x18\xe1V\xa1\xd3\x1d\x96\xb4\xb5\x12'
p170
ssS'create_serializers_questions_question_template_serializer'
p171
(dp172
g6
(dp173
g8
S'create_serializers_questions_question_template_serializer.html'
p174
sg10
S'create/serializers/questions/question_template_serializer'
p175
sg12
g13
(g14
g15
NtRp176
(dp177
g18
I1
sg19
I0
sg20
I43
sg21
I0
sg22
I0
sg23
I9
sg24
I0
sbssg25
S'\x1a\x149\xdb\xb8\xc7\xfc\xb6\xbc\x8b\xfe\x8e~N\xb9J'
p178
ssS'user_system_models_schools___init__'
p179
(dp180
g6
(dp181
g8
S'user_system_models_schools___init__.html'
p182
sg10
S'user_system/models/schools/__init__'
p183
sg12
g13
(g14
g15
NtRp184
(dp185
g18
I1
sg19
I0
sg20
I6
sg21
I0
sg22
I0
sg23
I0
sg24
I0
sbssg25
S'\xbe\xc9\xb2f\x05\x1f\xe6\xee\xef\x01#\xe8\x16\xc2\x83\xdb'
p186
ssS'create_views_questions_tests_test_remove_tag_view'
p187
(dp188
g6
(dp189
g8
S'create_views_questions_tests_test_remove_tag_view.html'
p190
sg10
S'create/views/questions/tests/test_remove_tag_view'
p191
sg12
g13
(g14
g15
NtRp192
(dp193
g18
I1
sg19
I0
sg20
I36
sg21
I0
sg22
I0
sg23
I0
sg24
I0
sbssg25
S'\xbdV1EN\xfe\x8e;\xe4\x92\x91r\xd6Q\x03\x80'
p194
ssS'user_system_models_users_tests_test_student_profile_model'
p195
(dp196
g6
(dp197
g8
S'user_system_models_users_tests_test_student_profile_model.html'
p198
sg10
S'user_system/models/users/tests/test_student_profile_model'
p199
sg12
g13
(g14
g15
NtRp200
(dp201
g18
I1
sg19
I0
sg20
I48
sg21
I0
sg22
I0
sg23
I0
sg24
I0
sbssg25
S'\n_\xb5B0\x1dR\x0b\x16i\x1fy.Z\x14#'
p202
ssS'learn___init__'
p203
(dp204
g6
(dp205
g8
S'learn___init__.html'
p206
sg10
S'learn/__init__'
p207
sg12
g13
(g14
g15
NtRp208
(dp209
g18
I1
sg19
I0
sg20
I0
sg21
I0
sg22
I0
sg23
I0
sg24
I0
sbssg25
S'\x19g\xdfM\x1a\x019\xaf\x1baIeR\xe5u\xa7'
p210
ssS'api_logging_urls'
p211
(dp212
g6
(dp213
g8
S'api_logging_urls.html'
p214
sg10
S'api_logging/urls'
p215
sg12
g13
(g14
g15
NtRp216
(dp217
g18
I1
sg19
I0
sg20
I14
sg21
I0
sg22
I0
sg23
I0
sg24
I0
sbssg25
S'\x89\xca#\xfe\xc8\xc0\xbfd\xd8>\x1c/\xbbdMP'
p218
ssS'teach_views_teacher_chapters___init__'
p219
(dp220
g6
(dp221
g8
S'teach_views_teacher_chapters___init__.html'
p222
sg10
S'teach/views/teacher_chapters/__init__'
p223
sg12
g13
(g14
g15
NtRp224
(dp225
g18
I1
sg19
I0
sg20
I1
sg21
I0
sg22
I0
sg23
I0
sg24
I0
sbssg25
S'\x10AP\xc9\nC\xd2REz\xf6\xe5\xd2(\xee`'
p226
ssS'user_system_models_users_student_profile_request_model'
p227
(dp228
g6
(dp229
g8
S'user_system_models_users_student_profile_request_model.html'
p230
sg10
S'user_system/models/users/student_profile_request_model'
p231
sg12
g13
(g14
g15
NtRp232
(dp233
g18
I1
sg19
I0
sg20
I45
sg21
I0
sg22
I0
sg23
I0
sg24
I0
sbssg25
S'\xeeZA}\xa0\xf5\x88k0a2\x9fS\xf3}\x05'
p234
ssS'privilege_models___init__'
p235
(dp236
g6
(dp237
g8
S'privilege_models___init__.html'
p238
sg10
S'privilege/models/__init__'
p239
sg12
g13
(g14
g15
NtRp240
(dp241
g18
I1
sg19
I0
sg20
I1
sg21
I0
sg22
I0
sg23
I0
sg24
I0
sbssg25
S'\x13V\xca}S\xd3\x98Rp?\xb0\xe1\x904>b'
p242
ssS'user_system_views_users_teacher_mapping_view'
p243
(dp244
g6
(dp245
g8
S'user_system_views_users_teacher_mapping_view.html'
p246
sg10
S'user_system/views/users/teacher_mapping_view'
p247
sg12
g13
(g14
g15
NtRp248
(dp249
g18
I1
sg19
I0
sg20
I14
sg21
I0
sg22
I0
sg23
I0
sg24
I0
sbssg25
S'B\x04t\x93Z\x86Q.\x17\xf9\xa0*\xf6\x86\xcf\x10'
p250
ssS'create_views_tags_tests_test_search_tag_view'
p251
(dp252
g6
(dp253
g8
S'create_views_tags_tests_test_search_tag_view.html'
p254
sg10
S'create/views/tags/tests/test_search_tag_view'
p255
sg12
g13
(g14
g15
NtRp256
(dp257
g18
I1
sg19
I0
sg20
I22
sg21
I0
sg22
I0
sg23
I0
sg24
I0
sbssg25
S'\rh\xcb\xb3g\x15\x9c\xe3hR\xc5r\xb9\x9c\xb2\x1f'
p258
ssS'create_views_questions_tests_test_hide_question_view'
p259
(dp260
g6
(dp261
g8
S'create_views_questions_tests_test_hide_question_view.html'
p262
sg10
S'create/views/questions/tests/test_hide_question_view'
p263
sg12
g13
(g14
g15
NtRp264
(dp265
g18
I1
sg19
I0
sg20
I30
sg21
I0
sg22
I0
sg23
I0
sg24
I0
sbssg25
S'\xb3\x10S\x8a\x9b\xecw\xaa\xd3\x81\x1b\xf2\xab\xb2QG'
p266
ssS'user_system_serializers_users_student_profile_request_serializer'
p267
(dp268
g6
(dp269
g8
S'user_system_serializers_users_student_profile_request_serializer.html'
p270
sg10
S'user_system/serializers/users/student_profile_request_serializer'
p271
sg12
g13
(g14
g15
NtRp272
(dp273
g18
I1
sg19
I0
sg20
I8
sg21
I0
sg22
I0
sg23
I0
sg24
I0
sbssg25
S'\xa9VJ\x07M\x02\xee$\t\xc8O\xc43$\x1a-'
p274
ssS'user_system_models_users_tests_test_teacher_profile_model'
p275
(dp276
g6
(dp277
g8
S'user_system_models_users_tests_test_teacher_profile_model.html'
p278
sg10
S'user_system/models/users/tests/test_teacher_profile_model'
p279
sg12
g13
(g14
g15
NtRp280
(dp281
g18
I1
sg19
I0
sg20
I32
sg21
I0
sg22
I0
sg23
I0
sg24
I0
sbssg25
S'\xe7n\x9a\x17\x9d0\x01\xa6\x0f\x18\x10l\x8ckmy'
p282
ssS'teach_models_campaigns___init__'
p283
(dp284
g6
(dp285
g8
S'teach_models_campaigns___init__.html'
p286
sg10
S'teach/models/campaigns/__init__'
p287
sg12
g13
(g14
g15
NtRp288
(dp289
g18
I1
sg19
I0
sg20
I1
sg21
I0
sg22
I0
sg23
I0
sg24
I0
sbssg25
S'\xba\x82\x818\x88\xe0\xf2#\xe9\x89\xffso\xdc\xe6\xd4'
p290
ssS'create_serializers_books_book_chapter_serializer'
p291
(dp292
g6
(dp293
g8
S'create_serializers_books_book_chapter_serializer.html'
p294
sg10
S'create/serializers/books/book_chapter_serializer'
p295
sg12
g13
(g14
g15
NtRp296
(dp297
g18
I1
sg19
I0
sg20
I23
sg21
I0
sg22
I0
sg23
I3
sg24
I0
sbssg25
S'\xf1~, f\x89\xad\xc8p\xcc\xd4E_\x0b3\x06'
p298
ssS'api_logging_models_api_logging_api_logging_model'
p299
(dp300
g6
(dp301
g8
S'api_logging_models_api_logging_api_logging_model.html'
p302
sg10
S'api_logging/models/api_logging/api_logging_model'
p303
sg12
g13
(g14
g15
NtRp304
(dp305
g18
I1
sg19
I0
sg20
I21
sg21
I0
sg22
I0
sg23
I0
sg24
I0
sbssg25
S'\x0c\x96WFX%\xe9\xcf+\xcf\xc2s\xa7a1\xbd'
p306
ssS'privilege_models_privileges_tests_test_user_privilege_model'
p307
(dp308
g6
(dp309
g8
S'privilege_models_privileges_tests_test_user_privilege_model.html'
p310
sg10
S'privilege/models/privileges/tests/test_user_privilege_model'
p311
sg12
g13
(g14
g15
NtRp312
(dp313
g18
I1
sg19
I0
sg20
I19
sg21
I0
sg22
I0
sg23
I0
sg24
I0
sbssg25
S'\xcd\xf2\x96G\xfe\xbc/\xb5\x15\xceNf\x0f\x0b5\xd4'
p314
ssS'user_system_urls'
p315
(dp316
g6
(dp317
g8
S'user_system_urls.html'
p318
sg10
S'user_system/urls'
p319
sg12
g13
(g14
g15
NtRp320
(dp321
g18
I1
sg19
I0
sg20
I21
sg21
I0
sg22
I0
sg23
I0
sg24
I0
sbssg25
S'm:T\x0e\x95\x83\x84\x9f\xc3#7a\xc8E\xc02'
p322
ssS'create_models_tags_tests_test_tag_type_model'
p323
(dp324
g6
(dp325
g8
S'create_models_tags_tests_test_tag_type_model.html'
p326
sg10
S'create/models/tags/tests/test_tag_type_model'
p327
sg12
g13
(g14
g15
NtRp328
(dp329
g18
I1
sg19
I0
sg20
I17
sg21
I0
sg22
I0
sg23
I0
sg24
I0
sbssg25
S'?6\xfcg\xce\x11\x1a7E\xaf\xb2\x02\t"\xddA'
p330
ssS'create_models_quests_quest_history_model'
p331
(dp332
g6
(dp333
g8
S'create_models_quests_quest_history_model.html'
p334
sg10
S'create/models/quests/quest_history_model'
p335
sg12
g13
(g14
g15
NtRp336
(dp337
g18
I1
sg19
I8
sg20
I75
sg21
I0
sg22
I3
sg23
I4
sg24
I3
sbssg25
S'@\xe7\xfa\x02?w\xe7\x93\xa3\x85\x0f\x0fz\xf0\xdbR'
p338
ssS'learn_models_daily_quests_tests_test_daily_quest_question_history_model'
p339
(dp340
g6
(dp341
g8
S'learn_models_daily_quests_tests_test_daily_quest_question_history_model.html'
p342
sg10
S'learn/models/daily_quests/tests/test_daily_quest_question_history_model'
p343
sg12
g13
(g14
g15
NtRp344
(dp345
g18
I1
sg19
I0
sg20
I202
sg21
I0
sg22
I0
sg23
I0
sg24
I0
sbssg25
S"(\xfe\xfc\x9b\xd9\xaf\n\x08\x83_\xc9Ko'\xc4\xb9"
p346
ssS'create_models_daily_quest_copies_daily_quest_copy_model'
p347
(dp348
g6
(dp349
g8
S'create_models_daily_quest_copies_daily_quest_copy_model.html'
p350
sg10
S'create/models/daily_quest_copies/daily_quest_copy_model'
p351
sg12
g13
(g14
g15
NtRp352
(dp353
g18
I1
sg19
I6
sg20
I47
sg21
I0
sg22
I0
sg23
I14
sg24
I6
sbssg25
S'\x90\xa7\xba\xee\x88\xf84\xf7\xd1B\x9b9@\\\x80P'
p354
ssS'create_views_tags_tests___init__'
p355
(dp356
g6
(dp357
g8
S'create_views_tags_tests___init__.html'
p358
sg10
S'create/views/tags/tests/__init__'
p359
sg12
g13
(g14
g15
NtRp360
(dp361
g18
I1
sg19
I0
sg20
I0
sg21
I0
sg22
I0
sg23
I0
sg24
I0
sbssg25
S'\x19g\xdfM\x1a\x019\xaf\x1baIeR\xe5u\xa7'
p362
ssS'create_views_tags_tests_test_create_tag_view'
p363
(dp364
g6
(dp365
g8
S'create_views_tags_tests_test_create_tag_view.html'
p366
sg10
S'create/views/tags/tests/test_create_tag_view'
p367
sg12
g13
(g14
g15
NtRp368
(dp369
g18
I1
sg19
I0
sg20
I33
sg21
I0
sg22
I0
sg23
I0
sg24
I0
sbssg25
S'\\\x91{\x1a ;Qg\xbd\x81\xe2\xaf\xa41\xac\x1b'
p370
ssS'user_system_views_apps_tests___init__'
p371
(dp372
g6
(dp373
g8
S'user_system_views_apps_tests___init__.html'
p374
sg10
S'user_system/views/apps/tests/__init__'
p375
sg12
g13
(g14
g15
NtRp376
(dp377
g18
I1
sg19
I0
sg20
I0
sg21
I0
sg22
I0
sg23
I0
sg24
I0
sbssg25
S'\x19g\xdfM\x1a\x019\xaf\x1baIeR\xe5u\xa7'
p378
ssS'privilege___init__'
p379
(dp380
g6
(dp381
g8
S'privilege___init__.html'
p382
sg10
S'privilege/__init__'
p383
sg12
g13
(g14
g15
NtRp384
(dp385
g18
I1
sg19
I0
sg20
I0
sg21
I0
sg22
I0
sg23
I0
sg24
I0
sbssg25
S'\x19g\xdfM\x1a\x019\xaf\x1baIeR\xe5u\xa7'
p386
ssS'create_views_books___init__'
p387
(dp388
g6
(dp389
g8
S'create_views_books___init__.html'
p390
sg10
S'create/views/books/__init__'
p391
sg12
g13
(g14
g15
NtRp392
(dp393
g18
I1
sg19
I0
sg20
I3
sg21
I0
sg22
I0
sg23
I0
sg24
I0
sbssg25
S'\xce\x13\xc8S|wF\xe3\x148\xa0?ez,\xc4'
p394
ssS'create_models_books_book_chapter_model'
p395
(dp396
g6
(dp397
g8
S'create_models_books_book_chapter_model.html'
p398
sg10
S'create/models/books/book_chapter_model'
p399
sg12
g13
(g14
g15
NtRp400
(dp401
g18
I1
sg19
I8
sg20
I58
sg21
I0
sg22
I1
sg23
I3
sg24
I3
sbssg25
S'5h\xa3E\x99\xf4H\x97\xbf\x08?=+K\xe7\xad'
p402
ssS'user_system_admin'
p403
(dp404
g6
(dp405
g8
S'user_system_admin.html'
p406
sg10
S'user_system/admin'
p407
sg12
g13
(g14
g15
NtRp408
(dp409
g18
I1
sg19
I0
sg20
I25
sg21
I0
sg22
I0
sg23
I0
sg24
I0
sbssg25
S',\xc1@k;\x98\x80\xb5\xbc\xab\x11\xf3\xdc\x0b\xd1U'
p410
ssS'user_system_serializers_users_teacher_profile_serializer'
p411
(dp412
g6
(dp413
g8
S'user_system_serializers_users_teacher_profile_serializer.html'
p414
sg10
S'user_system/serializers/users/teacher_profile_serializer'
p415
sg12
g13
(g14
g15
NtRp416
(dp417
g18
I1
sg19
I4
sg20
I20
sg21
I0
sg22
I0
sg23
I9
sg24
I4
sbssg25
S'\xe2\xa5\xba\xd6e\xc2\x88\xab\xaes\x15\x08\xa9ta\xd6'
p418
ssS'user_system_models_users_tests___init__'
p419
(dp420
g6
(dp421
g8
S'user_system_models_users_tests___init__.html'
p422
sg10
S'user_system/models/users/tests/__init__'
p423
sg12
g13
(g14
g15
NtRp424
(dp425
g18
I1
sg19
I0
sg20
I0
sg21
I0
sg22
I0
sg23
I0
sg24
I0
sbssg25
S'\x19g\xdfM\x1a\x019\xaf\x1baIeR\xe5u\xa7'
p426
ssS'user_system_models_users_user_profile_picture_model'
p427
(dp428
g6
(dp429
g8
S'user_system_models_users_user_profile_picture_model.html'
p430
sg10
S'user_system/models/users/user_profile_picture_model'
p431
sg12
g13
(g14
g15
NtRp432
(dp433
g18
I1
sg19
I0
sg20
I18
sg21
I0
sg22
I0
sg23
I0
sg24
I0
sbssg25
S'$E\xff\xf5f,\xb2\xc7\xb4\x9b*\x0es|s\xcc'
p434
ssS'teach_models_teacher_tags_teacher_tag_model'
p435
(dp436
g6
(dp437
g8
S'teach_models_teacher_tags_teacher_tag_model.html'
p438
sg10
S'teach/models/teacher_tags/teacher_tag_model'
p439
sg12
g13
(g14
g15
NtRp440
(dp441
g18
I1
sg19
I0
sg20
I30
sg21
I0
sg22
I0
sg23
I0
sg24
I0
sbssg25
S'\\\xb6A\xa8\xa7\x93\x16K\xceQ>\xe8t\xdb<#'
p442
ssS'teach_models_daily_quest_templates_daily_quest_template_model'
p443
(dp444
g6
(dp445
g8
S'teach_models_daily_quest_templates_daily_quest_template_model.html'
p446
sg10
S'teach/models/daily_quest_templates/daily_quest_template_model'
p447
sg12
g13
(g14
g15
NtRp448
(dp449
g18
I1
sg19
I0
sg20
I32
sg21
I0
sg22
I0
sg23
I0
sg24
I0
sbssg25
S'\xd8?/FZ\xe7\xb6\xa6E&6\x86\xa5\x93\x7f='
p450
ssS'create_views_books_tests_test_add_subchapter_view'
p451
(dp452
g6
(dp453
g8
S'create_views_books_tests_test_add_subchapter_view.html'
p454
sg10
S'create/views/books/tests/test_add_subchapter_view'
p455
sg12
g13
(g14
g15
NtRp456
(dp457
g18
I1
sg19
I0
sg20
I60
sg21
I0
sg22
I0
sg23
I0
sg24
I0
sbssg25
S"\xcc^2\xc4\xf2\xb1\xdc\xe8\xf0t\xb6\xcc\x1f\xce\xf1'"
p458
ssS'create_models_quests_quest_model'
p459
(dp460
g6
(dp461
g8
S'create_models_quests_quest_model.html'
p462
sg10
S'create/models/quests/quest_model'
p463
sg12
g13
(g14
g15
NtRp464
(dp465
g18
I1
sg19
I4
sg20
I59
sg21
I0
sg22
I0
sg23
I13
sg24
I4
sbssg25
S'^g\x1e\x82\xee1[\xc0\xbe\x04\xca\xb1`M\xe7\xe9'
p466
ssS'user_system_views_roles_user_role_view'
p467
(dp468
g6
(dp469
g8
S'user_system_views_roles_user_role_view.html'
p470
sg10
S'user_system/views/roles/user_role_view'
p471
sg12
g13
(g14
g15
NtRp472
(dp473
g18
I1
sg19
I8
sg20
I31
sg21
I0
sg22
I0
sg23
I0
sg24
I0
sbssg25
S'S@\xea\xb7\xd6\xe1\x1b\x1dU\x18a\x9d\x80\xe3A\xb9'
p474
ssS'learn_views_daily_quests_daily_quest_view'
p475
(dp476
g6
(dp477
g8
S'learn_views_daily_quests_daily_quest_view.html'
p478
sg10
S'learn/views/daily_quests/daily_quest_view'
p479
sg12
g13
(g14
g15
NtRp480
(dp481
g18
I1
sg19
I16
sg20
I61
sg21
I0
sg22
I0
sg23
I40
sg24
I16
sbssg25
S'\xceiA\x93\xcd>Y\x85L\x07Oz\x9aw\xae;'
p482
ssS'create_models_tags_tests_test_tag_history_model'
p483
(dp484
g6
(dp485
g8
S'create_models_tags_tests_test_tag_history_model.html'
p486
sg10
S'create/models/tags/tests/test_tag_history_model'
p487
sg12
g13
(g14
g15
NtRp488
(dp489
g18
I1
sg19
I0
sg20
I58
sg21
I0
sg22
I0
sg23
I0
sg24
I0
sbssg25
S"\x05Y\xa9\xba\xf0\xa8\xd2*7_\xcb]\xfb*#'"
p490
ssS'teach_views_teacher_news_feed___init__'
p491
(dp492
g6
(dp493
g8
S'teach_views_teacher_news_feed___init__.html'
p494
sg10
S'teach/views/teacher_news_feed/__init__'
p495
sg12
g13
(g14
g15
NtRp496
(dp497
g18
I1
sg19
I0
sg20
I1
sg21
I0
sg22
I0
sg23
I0
sg24
I0
sbssg25
S'\xe8\xcd\xf3\x9f\xa3=;`\xf0oZ\xcb!\x98\xac\x1c'
p498
ssS'create_models_questions_question_history_remark_model'
p499
(dp500
g6
(dp501
g8
S'create_models_questions_question_history_remark_model.html'
p502
sg10
S'create/models/questions/question_history_remark_model'
p503
sg12
g13
(g14
g15
NtRp504
(dp505
g18
I1
sg19
I0
sg20
I27
sg21
I0
sg22
I0
sg23
I0
sg24
I0
sbssg25
S'\xac"G5\x1c\xf2\xef\xa9\x1dUd\xce4.\xac\xa4'
p506
ssS'learn_serializers___init__'
p507
(dp508
g6
(dp509
g8
S'learn_serializers___init__.html'
p510
sg10
S'learn/serializers/__init__'
p511
sg12
g13
(g14
g15
NtRp512
(dp513
g18
I1
sg19
I0
sg20
I1
sg21
I0
sg22
I0
sg23
I0
sg24
I0
sbssg25
S'cLP\xd9\xc0\x91mD\xa3\xd2\xbczr\xdak\xf4'
p514
ssS'user_system_views_schools___init__'
p515
(dp516
g6
(dp517
g8
S'user_system_views_schools___init__.html'
p518
sg10
S'user_system/views/schools/__init__'
p519
sg12
g13
(g14
g15
NtRp520
(dp521
g18
I1
sg19
I0
sg20
I4
sg21
I0
sg22
I0
sg23
I0
sg24
I0
sbssg25
S'\xb7\x05\xb1\x95\xf1V\x04[\x0e\xa0\xf7\x96.@Iw'
p522
ssS'create_views_quests___init__'
p523
(dp524
g6
(dp525
g8
S'create_views_quests___init__.html'
p526
sg10
S'create/views/quests/__init__'
p527
sg12
g13
(g14
g15
NtRp528
(dp529
g18
I1
sg19
I0
sg20
I1
sg21
I0
sg22
I0
sg23
I0
sg24
I0
sbssg25
S'\x8d\x97\x8c^6\xf0o\xc3_\x8dRQ}\xd2]a'
p530
ssS'user_system_models_schools_tests_test_course_model'
p531
(dp532
g6
(dp533
g8
S'user_system_models_schools_tests_test_course_model.html'
p534
sg10
S'user_system/models/schools/tests/test_course_model'
p535
sg12
g13
(g14
g15
NtRp536
(dp537
g18
I1
sg19
I8
sg20
I50
sg21
I0
sg22
I0
sg23
I0
sg24
I0
sbssg25
S'\xd7va\xe6uR6*v\xca\x885\xf3]$1'
p538
ssS'create_models_question_datasets_tests___init__'
p539
(dp540
g6
(dp541
g8
S'create_models_question_datasets_tests___init__.html'
p542
sg10
S'create/models/question_datasets/tests/__init__'
p543
sg12
g13
(g14
g15
NtRp544
(dp545
g18
I1
sg19
I0
sg20
I0
sg21
I0
sg22
I0
sg23
I0
sg24
I0
sbssg25
S'\x19g\xdfM\x1a\x019\xaf\x1baIeR\xe5u\xa7'
p546
ssS'api_logging_models_modal_logging_modal_model'
p547
(dp548
g6
(dp549
g8
S'api_logging_models_modal_logging_modal_model.html'
p550
sg10
S'api_logging/models/modal_logging/modal_model'
p551
sg12
g13
(g14
g15
NtRp552
(dp553
g18
I1
sg19
I0
sg20
I19
sg21
I0
sg22
I0
sg23
I5
sg24
I0
sbssg25
S'\x0f\x1e\xac\x00_hQ\xcb\xa2\xa8\xf4@\xb9\x97\x9c\x1e'
p554
ssS'user_system_views_signups_hardcoded_test_account_view'
p555
(dp556
g6
(dp557
g8
S'user_system_views_signups_hardcoded_test_account_view.html'
p558
sg10
S'user_system/views/signups/hardcoded/test_account_view'
p559
sg12
g13
(g14
g15
NtRp560
(dp561
g18
I1
sg19
I2
sg20
I18
sg21
I0
sg22
I0
sg23
I0
sg24
I0
sbssg25
S"\xb4\xf1\xfdH\x8f\xf1QX7'\\\xd3\xab.\xbc\x80"
p562
ssS'user_system_views_users_create_student_view'
p563
(dp564
g6
(dp565
g8
S'user_system_views_users_create_student_view.html'
p566
sg10
S'user_system/views/users/create_student_view'
p567
sg12
g13
(g14
g15
NtRp568
(dp569
g18
I1
sg19
I2
sg20
I37
sg21
I0
sg22
I0
sg23
I24
sg24
I2
sbssg25
S'\x8e\xce\xac\xe9\xe3J4\xbb\x88$\xefFS\x06Ow'
p570
ssS'teach_serializers_teacher_tags___init__'
p571
(dp572
g6
(dp573
g8
S'teach_serializers_teacher_tags___init__.html'
p574
sg10
S'teach/serializers/teacher_tags/__init__'
p575
sg12
g13
(g14
g15
NtRp576
(dp577
g18
I1
sg19
I0
sg20
I1
sg21
I0
sg22
I0
sg23
I0
sg24
I0
sbssg25
S'Q\xc1\xe2\xf5*\x8fJ\xddv\xe7\x91\xd1S\xf5\xa9\xa3'
p578
ssS'learn_models_daily_quests_tests___init__'
p579
(dp580
g6
(dp581
g8
S'learn_models_daily_quests_tests___init__.html'
p582
sg10
S'learn/models/daily_quests/tests/__init__'
p583
sg12
g13
(g14
g15
NtRp584
(dp585
g18
I1
sg19
I0
sg20
I1
sg21
I0
sg22
I0
sg23
I0
sg24
I0
sbssg25
S'\xbc\xd6\xeb\xb3\xba\xcaz\xf7{\xd4B\xb5}l\xdf\x96'
p586
ssS'user_system_views_signups___init__'
p587
(dp588
g6
(dp589
g8
S'user_system_views_signups___init__.html'
p590
sg10
S'user_system/views/signups/__init__'
p591
sg12
g13
(g14
g15
NtRp592
(dp593
g18
I1
sg19
I0
sg20
I5
sg21
I0
sg22
I0
sg23
I0
sg24
I0
sbssg25
S'\xad\xb5\x1c"8P^k\xe3\xaa\x7fv\xbc\xc9\xc6\x01'
p594
ssS'create_views_tags_tag_view'
p595
(dp596
g6
(dp597
g8
S'create_views_tags_tag_view.html'
p598
sg10
S'create/views/tags/tag_view'
p599
sg12
g13
(g14
g15
NtRp600
(dp601
g18
I1
sg19
I32
sg20
I92
sg21
I0
sg22
I8
sg23
I13
sg24
I16
sbssg25
S'\xd5\xd6\xf9\xa6U<\xf82\xe0xx\x06}\xa5\xeb\xe7'
p602
ssS'learn_models_daily_quests_daily_quest_model'
p603
(dp604
g6
(dp605
S'html_filename'
p606
S'learn_models_daily_quests_daily_quest_model.html'
p607
sS'name'
p608
S'learn/models/daily_quests/daily_quest_model'
p609
sS'nums'
p610
g13
(g14
g15
NtRp611
(dp612
g18
I1
sg19
I30
sg20
I148
sg21
I0
sg22
I3
sg23
I29
sg24
I13
sbssg25
S'w\x99k\x03wj\xb2\xb5!\xe4\xfbh\x01n\r{'
p613
ssS'teach_models_campaigns_campaign_model'
p614
(dp615
g6
(dp616
g8
S'teach_models_campaigns_campaign_model.html'
p617
sg10
S'teach/models/campaigns/campaign_model'
p618
sg12
g13
(g14
g15
NtRp619
(dp620
g18
I1
sg19
I0
sg20
I40
sg21
I0
sg22
I0
sg23
I0
sg24
I0
sbssg25
S'>\xc8\xe2\xfb\xdd\xc1"@\xea/\xe1\xbb\xf1\xa4\x80\x0f'
p621
ssS'create_views_tags_tests_test_add_prerequisite_view'
p622
(dp623
g6
(dp624
g8
S'create_views_tags_tests_test_add_prerequisite_view.html'
p625
sg10
S'create/views/tags/tests/test_add_prerequisite_view'
p626
sg12
g13
(g14
g15
NtRp627
(dp628
g18
I1
sg19
I0
sg20
I26
sg21
I0
sg22
I0
sg23
I0
sg24
I0
sbssg25
S'\xd2\xef\x02\xe1{\xbc\x9b\xf3\x8b\xbd\xf0\xd2\xe7\xcc\xb5\xa4'
p629
ssS'create_models_tags___init__'
p630
(dp631
g6
(dp632
g8
S'create_models_tags___init__.html'
p633
sg10
S'create/models/tags/__init__'
p634
sg12
g13
(g14
g15
NtRp635
(dp636
g18
I1
sg19
I0
sg20
I5
sg21
I0
sg22
I0
sg23
I0
sg24
I0
sbssg25
S'\xcck\xb0R5)\xa8c\xdb\xa6\xfb\xec\x18 \xde}'
p637
ssS'teach_models_campaigns_tests___init__'
p638
(dp639
g6
(dp640
g8
S'teach_models_campaigns_tests___init__.html'
p641
sg10
S'teach/models/campaigns/tests/__init__'
p642
sg12
g13
(g14
g15
NtRp643
(dp644
g18
I1
sg19
I0
sg20
I0
sg21
I0
sg22
I0
sg23
I0
sg24
I0
sbssg25
S'\x19g\xdfM\x1a\x019\xaf\x1baIeR\xe5u\xa7'
p645
ssS'learn_views_student_news_feed___init__'
p646
(dp647
g6
(dp648
g8
S'learn_views_student_news_feed___init__.html'
p649
sg10
S'learn/views/student_news_feed/__init__'
p650
sg12
g13
(g14
g15
NtRp651
(dp652
g18
I1
sg19
I0
sg20
I1
sg21
I0
sg22
I0
sg23
I0
sg24
I0
sbssg25
S'\xc5\x87\xccQ|\xa2\xee\x11p\x84\xfe\xed\xe3W\xfa\x07'
p653
ssS'teach_views_teacher_chapters_teacher_chapter_view'
p654
(dp655
g6
(dp656
g8
S'teach_views_teacher_chapters_teacher_chapter_view.html'
p657
sg10
S'teach/views/teacher_chapters/teacher_chapter_view'
p658
sg12
g13
(g14
g15
NtRp659
(dp660
g18
I1
sg19
I12
sg20
I44
sg21
I0
sg22
I0
sg23
I25
sg24
I12
sbssg25
S'Z\xc5\n\xdb\xe5!2~7\xe3i\xa7j\xd4\x10\x8c'
p661
ssS'create_serializers_tags_concept_serializer'
p662
(dp663
g6
(dp664
g8
S'create_serializers_tags_concept_serializer.html'
p665
sg10
S'create/serializers/tags/concept_serializer'
p666
sg12
g13
(g14
g15
NtRp667
(dp668
g18
I1
sg19
I0
sg20
I6
sg21
I0
sg22
I0
sg23
I0
sg24
I0
sbssg25
S'\xf1\xe0\xc7%%\xbd\xfc@\x12\x02\x96\xbb\x0c\xbf\x9fq'
p669
ssS'create_serializers_questions_question_history_remark_serializer'
p670
(dp671
g6
(dp672
g8
S'create_serializers_questions_question_history_remark_serializer.html'
p673
sg10
S'create/serializers/questions/question_history_remark_serializer'
p674
sg12
g13
(g14
g15
NtRp675
(dp676
g18
I1
sg19
I0
sg20
I6
sg21
I0
sg22
I0
sg23
I0
sg24
I0
sbssg25
S'\xb53\t\x11\xa6\x1b\xf7!D"\xc8\xa3\xcb41\x9d'
p677
ssS'user_system_models_roles_tests___init__'
p678
(dp679
g6
(dp680
g8
S'user_system_models_roles_tests___init__.html'
p681
sg10
S'user_system/models/roles/tests/__init__'
p682
sg12
g13
(g14
g15
NtRp683
(dp684
g18
I1
sg19
I0
sg20
I0
sg21
I0
sg22
I0
sg23
I0
sg24
I0
sbssg25
S'\x19g\xdfM\x1a\x019\xaf\x1baIeR\xe5u\xa7'
p685
ssS'create_serializers_tags___init__'
p686
(dp687
g6
(dp688
g8
S'create_serializers_tags___init__.html'
p689
sg10
S'create/serializers/tags/__init__'
p690
sg12
g13
(g14
g15
NtRp691
(dp692
g18
I1
sg19
I0
sg20
I0
sg21
I0
sg22
I0
sg23
I0
sg24
I0
sbssg25
S'\x19g\xdfM\x1a\x019\xaf\x1baIeR\xe5u\xa7'
p693
ssS'privilege_urls'
p694
(dp695
g6
(dp696
g8
S'privilege_urls.html'
p697
sg10
S'privilege/urls'
p698
sg12
g13
(g14
g15
NtRp699
(dp700
g18
I1
sg19
I0
sg20
I7
sg21
I0
sg22
I0
sg23
I0
sg24
I0
sbssg25
S'\x86\xbf\xcdE\x8fy\xc9\xd5\x13I\x11#-J.\xe8'
p701
ssS'flipped_helpers_time_helper'
p702
(dp703
g6
(dp704
g8
S'flipped_helpers_time_helper.html'
p705
sg10
S'flipped/helpers/time_helper'
p706
sg12
g13
(g14
g15
NtRp707
(dp708
g18
I1
sg19
I2
sg20
I31
sg21
I0
sg22
I0
sg23
I19
sg24
I2
sbssg25
S'\xca\x92a\xc5\xd9\xf1\xd2\xa6H\x16\xd9\xed\xcdv&\xdb'
p709
ssS'user_system_serializers_users_teacher_mapping_serializer'
p710
(dp711
g6
(dp712
g8
S'user_system_serializers_users_teacher_mapping_serializer.html'
p713
sg10
S'user_system/serializers/users/teacher_mapping_serializer'
p714
sg12
g13
(g14
g15
NtRp715
(dp716
g18
I1
sg19
I0
sg20
I7
sg21
I0
sg22
I0
sg23
I0
sg24
I0
sbssg25
S'\x13\xf7\x06\xcfN\x17?&3\xc5\xf6]6uj\xc1'
p717
ssS'api_logging_views_LoggingView'
p718
(dp719
g6
(dp720
g8
S'api_logging_views_LoggingView.html'
p721
sg10
S'api_logging/views/LoggingView'
p722
sg12
g13
(g14
g15
NtRp723
(dp724
g18
I1
sg19
I8
sg20
I41
sg21
I0
sg22
I0
sg23
I27
sg24
I8
sbssg25
S'\xe3\xefQ\x1e\x9e\xec\xea\xa7\xc5\x05\xb9\x90\xf6\xf3\x88\x9b'
p725
ssS'create_models_books_book_model'
p726
(dp727
g6
(dp728
g8
S'create_models_books_book_model.html'
p729
sg10
S'create/models/books/book_model'
p730
sg12
g13
(g14
g15
NtRp731
(dp732
g18
I1
sg19
I4
sg20
I37
sg21
I0
sg22
I0
sg23
I0
sg24
I0
sbssg25
S'Z\x88%\xfa\x8c7\x1e\xf9\x06qW\x80O\xe1\x85.'
p733
ssS'teach_models___init__'
p734
(dp735
g6
(dp736
g8
S'teach_models___init__.html'
p737
sg10
S'teach/models/__init__'
p738
sg12
g13
(g14
g15
NtRp739
(dp740
g18
I1
sg19
I0
sg20
I4
sg21
I0
sg22
I0
sg23
I0
sg24
I0
sbssg25
S'\x18\xb4\x9a\xf6\x89\xe4oR\x81\xdbb\xf7E\xf9\x92\xb7'
p741
ssS'create_models_tags_skill_model'
p742
(dp743
g6
(dp744
g8
S'create_models_tags_skill_model.html'
p745
sg10
S'create/models/tags/skill_model'
p746
sg12
g13
(g14
g15
NtRp747
(dp748
g18
I1
sg19
I0
sg20
I10
sg21
I0
sg22
I0
sg23
I0
sg24
I0
sbssg25
S'B&\x06S\xb6\x85A\xdbx\xd4\xc7#]\x13\xe1\xca'
p749
ssS'learn_views_daily_quests_daily_quest_history_date_group_view'
p750
(dp751
g6
(dp752
g8
S'learn_views_daily_quests_daily_quest_history_date_group_view.html'
p753
sg10
S'learn/views/daily_quests/daily_quest_history_date_group_view'
p754
sg12
g13
(g14
g15
NtRp755
(dp756
g18
I1
sg19
I36
sg20
I94
sg21
I0
sg22
I0
sg23
I71
sg24
I36
sbssg25
S'N}\x1am\x00\xe8_\xd4\xa8T\xd2R\xf7l^\xd3'
p757
ssS'learn_tests'
p758
(dp759
g6
(dp760
g8
S'learn_tests.html'
p761
sg10
S'learn/tests'
p762
sg12
g13
(g14
g15
NtRp763
(dp764
g18
I1
sg19
I0
sg20
I1
sg21
I0
sg22
I0
sg23
I0
sg24
I0
sbssg25
S'\xe3\x7f\x86\xaa\x99\xac\xc8\x80\xdblE4\x0f\xe7\x1d\xfc'
p765
ssS'api_logging_managers'
p766
(dp767
g6
(dp768
g8
S'api_logging_managers.html'
p769
sg10
S'api_logging/managers'
p770
sg12
g13
(g14
g15
NtRp771
(dp772
g18
I1
sg19
I0
sg20
I4
sg21
I0
sg22
I0
sg23
I0
sg24
I0
sbssg25
S'\xef\xaf\x98\xcd63\x10\x1c\xc1\xfcP\x12\xc1\xe7\xa5\xc7'
p773
ssS'api_logging_views___init__'
p774
(dp775
g6
(dp776
g8
S'api_logging_views___init__.html'
p777
sg10
S'api_logging/views/__init__'
p778
sg12
g13
(g14
g15
NtRp779
(dp780
g18
I1
sg19
I0
sg20
I5
sg21
I0
sg22
I0
sg23
I0
sg24
I0
sbssg25
S'E\xf0\xc8*y9Q5\x96\xa8]\xdf\x95Zq\xed'
p781
ssS'create_models_books___init__'
p782
(dp783
g6
(dp784
g8
S'create_models_books___init__.html'
p785
sg10
S'create/models/books/__init__'
p786
sg12
g13
(g14
g15
NtRp787
(dp788
g18
I1
sg19
I0
sg20
I4
sg21
I0
sg22
I0
sg23
I0
sg24
I0
sbssg25
S'\xba\x14\x87u\xc0\x80\x96\x82s\x8d\x8bU)\x1c\xc3\x91'
p789
ssS'api_logging_views_query_stat_query_stat_view'
p790
(dp791
g6
(dp792
g8
S'api_logging_views_query_stat_query_stat_view.html'
p793
sg10
S'api_logging/views/query_stat/query_stat_view'
p794
sg12
g13
(g14
g15
NtRp795
(dp796
g18
I1
sg19
I2
sg20
I57
sg21
I0
sg22
I0
sg23
I32
sg24
I2
sbssg25
S'\xb5\xf2e\xa5XF\xc0\xef\xc1\xdf!c\x99\xfe}j'
p797
ssS'create_models_quests_tests_test_quest_model'
p798
(dp799
g6
(dp800
g8
S'create_models_quests_tests_test_quest_model.html'
p801
sg10
S'create/models/quests/tests/test_quest_model'
p802
sg12
g13
(g14
g15
NtRp803
(dp804
g18
I1
sg19
I4
sg20
I48
sg21
I0
sg22
I0
sg23
I0
sg24
I0
sbssg25
S'\xcdF\x98\xd0k\x14\x9e\xe4\x90\x96\x03\xddNdiH'
p805
ssS'privilege_views_privileges_user_privilege_view'
p806
(dp807
g6
(dp808
g8
S'privilege_views_privileges_user_privilege_view.html'
p809
sg10
S'privilege/views/privileges/user_privilege_view'
p810
sg12
g13
(g14
g15
NtRp811
(dp812
g18
I1
sg19
I10
sg20
I38
sg21
I0
sg22
I0
sg23
I22
sg24
I10
sbssg25
S'\xf699\xa5A\xca\x9e\x91,l\xf8\x8dI[PR'
p813
ssS'learn_models_daily_quests_tests_test_daily_quest_model'
p814
(dp815
g6
(dp816
g8
S'learn_models_daily_quests_tests_test_daily_quest_model.html'
p817
sg10
S'learn/models/daily_quests/tests/test_daily_quest_model'
p818
sg12
g13
(g14
g15
NtRp819
(dp820
g18
I1
sg19
I12
sg20
I249
sg21
I0
sg22
I0
sg23
I0
sg24
I0
sbssg25
S'+\xfc\x0c\xee\x10\x00\x0f+\xad\x07l\xcf\x8b\xac\xefF'
p821
ssS'create_views_books_tests_test_get_book_by_id_view'
p822
(dp823
g6
(dp824
g8
S'create_views_books_tests_test_get_book_by_id_view.html'
p825
sg10
S'create/views/books/tests/test_get_book_by_id_view'
p826
sg12
g13
(g14
g15
NtRp827
(dp828
g18
I1
sg19
I0
sg20
I20
sg21
I0
sg22
I0
sg23
I0
sg24
I0
sbssg25
S'\xc88x\xaf\x84e\xaa6\x17\xdf\x0e\x8c`\xcaAO'
p829
ssS'user_system_views_roles_tests___init__'
p830
(dp831
g6
(dp832
g8
S'user_system_views_roles_tests___init__.html'
p833
sg10
S'user_system/views/roles/tests/__init__'
p834
sg12
g13
(g14
g15
NtRp835
(dp836
g18
I1
sg19
I0
sg20
I0
sg21
I0
sg22
I0
sg23
I0
sg24
I0
sbssg25
S'\x19g\xdfM\x1a\x019\xaf\x1baIeR\xe5u\xa7'
p837
ssS'teach_views_daily_quest_templates_daily_quest_template_view'
p838
(dp839
g6
(dp840
g8
S'teach_views_daily_quest_templates_daily_quest_template_view.html'
p841
sg10
S'teach/views/daily_quest_templates/daily_quest_template_view'
p842
sg12
g13
(g14
g15
NtRp843
(dp844
g18
I1
sg19
I18
sg20
I54
sg21
I0
sg22
I0
sg23
I33
sg24
I18
sbssg25
S'\x97J\xccM\x9b\xcd1\xaf\x95\xea\xd8\x8d\xdc(\x89['
p845
ssS'api_logging_views_summary___init__'
p846
(dp847
g6
(dp848
g8
S'api_logging_views_summary___init__.html'
p849
sg10
S'api_logging/views/summary/__init__'
p850
sg12
g13
(g14
g15
NtRp851
(dp852
g18
I1
sg19
I0
sg20
I1
sg21
I0
sg22
I0
sg23
I0
sg24
I0
sbssg25
S'\x04\x12bh\x96\xc5j\x88dm\x0e\xd7\xe1\x94Lq'
p853
ssS'privilege_serializers___init__'
p854
(dp855
g6
(dp856
g8
S'privilege_serializers___init__.html'
p857
sg10
S'privilege/serializers/__init__'
p858
sg12
g13
(g14
g15
NtRp859
(dp860
g18
I1
sg19
I0
sg20
I1
sg21
I0
sg22
I0
sg23
I0
sg24
I0
sbssg25
S'\x13V\xca}S\xd3\x98Rp?\xb0\xe1\x904>b'
p861
ssS'create_models_books_tests_test_book_subchapter_model'
p862
(dp863
g6
(dp864
g8
S'create_models_books_tests_test_book_subchapter_model.html'
p865
sg10
S'create/models/books/tests/test_book_subchapter_model'
p866
sg12
g13
(g14
g15
NtRp867
(dp868
g18
I1
sg19
I0
sg20
I42
sg21
I0
sg22
I0
sg23
I0
sg24
I0
sbssg25
S'\xe3*\xba\x94d#\xcd\t\xc9\xb8\x05w\nz\xb8\xc0'
p869
ssS'learn_models_daily_quests___init__'
p870
(dp871
g6
(dp872
g8
S'learn_models_daily_quests___init__.html'
p873
sg10
S'learn/models/daily_quests/__init__'
p874
sg12
g13
(g14
g15
NtRp875
(dp876
g18
I1
sg19
I0
sg20
I3
sg21
I0
sg22
I0
sg23
I0
sg24
I0
sbssg25
S"\xa4)\xb2\xc3\xc4X\x7f\xd1\x8f\x8c\xd1l'ge%"
p877
ssS'create_models_tags_tag_model'
p878
(dp879
g6
(dp880
g8
S'create_models_tags_tag_model.html'
p881
sg10
S'create/models/tags/tag_model'
p882
sg12
g13
(g14
g15
NtRp883
(dp884
g18
I1
sg19
I0
sg20
I37
sg21
I0
sg22
I0
sg23
I0
sg24
I0
sbssg25
S'rJ0\x91]\xe5\xfc\xa8\x8c\x00}RI\x18\xf0\x07'
p885
ssS'create_views_tags___init__'
p886
(dp887
g6
(dp888
g8
S'create_views_tags___init__.html'
p889
sg10
S'create/views/tags/__init__'
p890
sg12
g13
(g14
g15
NtRp891
(dp892
g18
I1
sg19
I0
sg20
I1
sg21
I0
sg22
I0
sg23
I0
sg24
I0
sbssg25
S'|r<\xaap\x01\xb1\xbc"\xe5\xbb\xd8\x87\xa5\xd2H'
p893
ssS'api_logging_models_query_stat___init__'
p894
(dp895
g6
(dp896
g8
S'api_logging_models_query_stat___init__.html'
p897
sg10
S'api_logging/models/query_stat/__init__'
p898
sg12
g13
(g14
g15
NtRp899
(dp900
g18
I1
sg19
I0
sg20
I1
sg21
I0
sg22
I0
sg23
I0
sg24
I0
sbssg25
S'lAVjsm\xf3\xa0\xf4\x14\x8bL\xb9S\xd6\xe6'
p901
ssS'create_serializers_tags_skill_serializer'
p902
(dp903
g6
(dp904
g8
S'create_serializers_tags_skill_serializer.html'
p905
sg10
S'create/serializers/tags/skill_serializer'
p906
sg12
g13
(g14
g15
NtRp907
(dp908
g18
I1
sg19
I0
sg20
I6
sg21
I0
sg22
I0
sg23
I0
sg24
I0
sbssg25
S'\x1b\x10O\xca\xd5i\\\x06C\x00q}\xf43\xcb\xa6'
p909
ssS'create_views_questions_question_history_remark_view'
p910
(dp911
g6
(dp912
g8
S'create_views_questions_question_history_remark_view.html'
p913
sg10
S'create/views/questions/question_history_remark_view'
p914
sg12
g13
(g14
g15
NtRp915
(dp916
g18
I1
sg19
I0
sg20
I14
sg21
I0
sg22
I0
sg23
I0
sg24
I0
sbssg25
S'{4O\x0e\xb3\xad\xc8\xb72\x8f\x1f\x11\xc0\x9e\xa0\xd6'
p917
ssS'create_serializers_tags_tag_type_serializer'
p918
(dp919
g6
(dp920
g8
S'create_serializers_tags_tag_type_serializer.html'
p921
sg10
S'create/serializers/tags/tag_type_serializer'
p922
sg12
g13
(g14
g15
NtRp923
(dp924
g18
I1
sg19
I0
sg20
I6
sg21
I0
sg22
I0
sg23
I0
sg24
I0
sbssg25
S'\xc3\xfd\x81\x18{\x97,\xb1\xb6\x9f\xee\xf2kZ\x1e\x02'
p925
ssS'learn_models_points_tests_test_point_history_model'
p926
(dp927
g6
(dp928
g8
S'learn_models_points_tests_test_point_history_model.html'
p929
sg10
S'learn/models/points/tests/test_point_history_model'
p930
sg12
g13
(g14
g15
NtRp931
(dp932
g18
I1
sg19
I0
sg20
I22
sg21
I0
sg22
I0
sg23
I0
sg24
I0
sbssg25
S"\x8d\xd7\x96\xe4\x1b\xf6\xc4\xed:B\x13\xa9MA'\x99"
p933
ssS'learn_serializers_daily_quests_daily_quest_serializer'
p934
(dp935
g6
(dp936
g8
S'learn_serializers_daily_quests_daily_quest_serializer.html'
p937
sg10
S'learn/serializers/daily_quests/daily_quest_serializer'
p938
sg12
g13
(g14
g15
NtRp939
(dp940
g18
I1
sg19
I0
sg20
I59
sg21
I0
sg22
I0
sg23
I23
sg24
I0
sbssg25
S'\rf\xa2\x81\xd4WL\x18\x9c\x80\x05\xd3\xe8\x1aT1'
p941
ssS'user_system_models_users_tests_test_user_profile_picture_model'
p942
(dp943
g6
(dp944
g8
S'user_system_models_users_tests_test_user_profile_picture_model.html'
p945
sg10
S'user_system/models/users/tests/test_user_profile_picture_model'
p946
sg12
g13
(g14
g15
NtRp947
(dp948
g18
I1
sg19
I0
sg20
I21
sg21
I0
sg22
I0
sg23
I0
sg24
I0
sbssg25
S'\xbc/\x93\xf6\x8a\x1eC\x99t\xd0\xdc\x96\xf8\x970\xc9'
p949
ssS'teach_views_teacher_news_feed_teacher_news_feed_view'
p950
(dp951
g6
(dp952
g8
S'teach_views_teacher_news_feed_teacher_news_feed_view.html'
p953
sg10
S'teach/views/teacher_news_feed/teacher_news_feed_view'
p954
sg12
g13
(g14
g15
NtRp955
(dp956
g18
I1
sg19
I8
sg20
I60
sg21
I0
sg22
I0
sg23
I38
sg24
I8
sbssg25
S'\n]Y\xde\x93\x8f\xd7O\x05\xcd\x92\x98!=\xcdd'
p957
ssS'user_system_serializers_schools_organization_serializer'
p958
(dp959
g6
(dp960
g8
S'user_system_serializers_schools_organization_serializer.html'
p961
sg10
S'user_system/serializers/schools/organization_serializer'
p962
sg12
g13
(g14
g15
NtRp963
(dp964
g18
I1
sg19
I0
sg20
I7
sg21
I0
sg22
I0
sg23
I0
sg24
I0
sbssg25
S'90~\xe3\x8f\x8e\xd9m\xb4\nInn\x03(\xdb'
p965
ssS'create_models_books_book_subchapter_model'
p966
(dp967
g6
(dp968
g8
S'create_models_books_book_subchapter_model.html'
p969
sg10
S'create/models/books/book_subchapter_model'
p970
sg12
g13
(g14
g15
NtRp971
(dp972
g18
I1
sg19
I2
sg20
I45
sg21
I0
sg22
I0
sg23
I0
sg24
I0
sbssg25
S'\xbc\xee\x91\x7f;\xa9\x15\xeaau\xef\x82\x07"\x02\xd3'
p973
ssS'teach_views_summaries_leaderboard_view'
p974
(dp975
g6
(dp976
g8
S'teach_views_summaries_leaderboard_view.html'
p977
sg10
S'teach/views/summaries/leaderboard_view'
p978
sg12
g13
(g14
g15
NtRp979
(dp980
g18
I1
sg19
I64
sg20
I159
sg21
I0
sg22
I0
sg23
I129
sg24
I64
sbssg25
S'\xc4A\xb6\x15>\xf4\xb1\x89\x13Ef?r\x92\xab\xac'
p981
ssS'api_logging_serializers_modal_loggings_modal_user_history_serializer'
p982
(dp983
g6
(dp984
g8
S'api_logging_serializers_modal_loggings_modal_user_history_serializer.html'
p985
sg10
S'api_logging/serializers/modal_loggings/modal_user_history_serializer'
p986
sg12
g13
(g14
g15
NtRp987
(dp988
g18
I1
sg19
I0
sg20
I7
sg21
I0
sg22
I0
sg23
I0
sg24
I0
sbssg25
S'\xc2\x8f\x89\xe8$\x9c~\x81\xa9\xca\xf8h\x80\xb7hp'
p989
ssS'learn_models_points___init__'
p990
(dp991
g6
(dp992
g8
S'learn_models_points___init__.html'
p993
sg10
S'learn/models/points/__init__'
p994
sg12
g13
(g14
g15
NtRp995
(dp996
g18
I1
sg19
I0
sg20
I2
sg21
I0
sg22
I0
sg23
I0
sg24
I0
sbssg25
S'\x1d_\xe1\xcei\x14zD\xd7\x8e\xa1\xf55\x1f\xd1\xd5'
p997
ssS'api_logging_models___init__'
p998
(dp999
g6
(dp1000
g8
S'api_logging_models___init__.html'
p1001
sg10
S'api_logging/models/__init__'
p1002
sg12
g13
(g14
g15
NtRp1003
(dp1004
g18
I1
sg19
I0
sg20
I4
sg21
I0
sg22
I0
sg23
I0
sg24
I0
sbssg25
S'\x1e\xe1SC\x84\x0bP\xec\xc0\xa61\xf48)\xde\xbb'
p1005
ssS'teach_serializers___init__'
p1006
(dp1007
g6
(dp1008
g8
S'teach_serializers___init__.html'
p1009
sg10
S'teach/serializers/__init__'
p1010
sg12
g13
(g14
g15
NtRp1011
(dp1012
g18
I1
sg19
I0
sg20
I3
sg21
I0
sg22
I0
sg23
I0
sg24
I0
sbssg25
S'3\x13\x12&\xcb\xecC\xee\xa8lR\x1a\x1d\xb9M\xba'
p1013
ssS'user_system_views_batch_processing___init__'
p1014
(dp1015
g6
(dp1016
g8
S'user_system_views_batch_processing___init__.html'
p1017
sg10
S'user_system/views/batch_processing/__init__'
p1018
sg12
g13
(g14
g15
NtRp1019
(dp1020
g18
I1
sg19
I0
sg20
I1
sg21
I0
sg22
I0
sg23
I0
sg24
I0
sbssg25
S'\x11\xaa\xa5O\xecz\xb9\x06\xf9\x1bZ\xd3\xf3\x8bm]'
p1021
ssS'api_logging_models_api_logging___init__'
p1022
(dp1023
g6
(dp1024
g8
S'api_logging_models_api_logging___init__.html'
p1025
sg10
S'api_logging/models/api_logging/__init__'
p1026
sg12
g13
(g14
g15
NtRp1027
(dp1028
g18
I1
sg19
I0
sg20
I1
sg21
I0
sg22
I0
sg23
I0
sg24
I0
sbssg25
S'C\xe8\xcf\x97-\xc6\xd3j\xcb\x90*\xea\xd3w\x83\xe0'
p1029
ssS'user_system_views_signups_email_signup_view'
p1030
(dp1031
g6
(dp1032
g8
S'user_system_views_signups_email_signup_view.html'
p1033
sg10
S'user_system/views/signups/email_signup_view'
p1034
sg12
g13
(g14
g15
NtRp1035
(dp1036
g18
I1
sg19
I8
sg20
I44
sg21
I0
sg22
I0
sg23
I0
sg24
I0
sbssg25
S'&G\xd1\xc4{\x9b\xbf\x14\x92F\xbe\x13\xeer\x84\x1b'
p1037
ssS'teach_views_teacher_tags___init__'
p1038
(dp1039
g6
(dp1040
g8
S'teach_views_teacher_tags___init__.html'
p1041
sg10
S'teach/views/teacher_tags/__init__'
p1042
sg12
g13
(g14
g15
NtRp1043
(dp1044
g18
I1
sg19
I0
sg20
I1
sg21
I0
sg22
I0
sg23
I0
sg24
I0
sbssg25
S'cp\x00\xdc\x00\xe5M\x9f\x1f\xaa\xb2Y\xd9%\x1d"'
p1045
ssS'flipped_helpers_success_response_helper'
p1046
(dp1047
g6
(dp1048
g8
S'flipped_helpers_success_response_helper.html'
p1049
sg10
S'flipped/helpers/success_response_helper'
p1050
sg12
g13
(g14
g15
NtRp1051
(dp1052
g18
I1
sg19
I2
sg20
I4
sg21
I0
sg22
I0
sg23
I0
sg24
I0
sbssg25
S"'Bp\xbe\xd9\xfa\x92\xa4;\xb6\t\xa8\xfe<\x9d\xa5"
p1053
ssS'create_models_questions_question_model'
p1054
(dp1055
g6
(dp1056
g8
S'create_models_questions_question_model.html'
p1057
sg10
S'create/models/questions/question_model'
p1058
sg12
g13
(g14
g15
NtRp1059
(dp1060
g18
I1
sg19
I0
sg20
I48
sg21
I0
sg22
I0
sg23
I0
sg24
I0
sbssg25
S'\tGy\xb6\x10\x17dQ\xd7\xd8N>\xd5\x96R\x82'
p1061
ssS'user_system_models_roles___init__'
p1062
(dp1063
g6
(dp1064
g8
S'user_system_models_roles___init__.html'
p1065
sg10
S'user_system/models/roles/__init__'
p1066
sg12
g13
(g14
g15
NtRp1067
(dp1068
g18
I1
sg19
I0
sg20
I2
sg21
I0
sg22
I0
sg23
I0
sg24
I0
sbssg25
S'\xa3\xc2\r\x1b\x1bC\x85\xa5\xads\x7fl\xab`*1'
p1069
ssS'create_models_questions_question_history_model'
p1070
(dp1071
g6
(dp1072
g8
S'create_models_questions_question_history_model.html'
p1073
sg10
S'create/models/questions/question_history_model'
p1074
sg12
g13
(g14
g15
NtRp1075
(dp1076
g18
I1
sg19
I8
sg20
I68
sg21
I0
sg22
I2
sg23
I2
sg24
I2
sbssg25
S'\xd0\xe9\x0bm$j\x15\x9b@\x93\xe5C\xa7\x97\xfd\xf4'
p1077
ssS'user_system_views_signups_tests_test_facebook_signup_view'
p1078
(dp1079
g6
(dp1080
g8
S'user_system_views_signups_tests_test_facebook_signup_view.html'
p1081
sg10
S'user_system/views/signups/tests/test_facebook_signup_view'
p1082
sg12
g13
(g14
g15
NtRp1083
(dp1084
g18
I1
sg19
I0
sg20
I60
sg21
I0
sg22
I0
sg23
I0
sg24
I0
sbssg25
S'\x93<\xc8]\x14\t\xa8/\xdd\xd1\xa4]\xfbp!\xbd'
p1085
ssS'user_system_models_users_tests_test_teacher_mapping_model'
p1086
(dp1087
g6
(dp1088
g8
S'user_system_models_users_tests_test_teacher_mapping_model.html'
p1089
sg10
S'user_system/models/users/tests/test_teacher_mapping_model'
p1090
sg12
g13
(g14
g15
NtRp1091
(dp1092
g18
I1
sg19
I4
sg20
I35
sg21
I0
sg22
I0
sg23
I0
sg24
I0
sbssg25
S'\x96\x93\xca\x00>\xf7\xc8\xe6:\xb8\x7f\xf5q:\xb6\xaa'
p1093
ssS'user_system_models_users___init__'
p1094
(dp1095
g6
(dp1096
g8
S'user_system_models_users___init__.html'
p1097
sg10
S'user_system/models/users/__init__'
p1098
sg12
g13
(g14
g15
NtRp1099
(dp1100
g18
I1
sg19
I0
sg20
I11
sg21
I0
sg22
I0
sg23
I0
sg24
I0
sbssg25
S'\x81\xefKrW:\x98\xa0\xfbl\x17\xe1E\xb8..'
p1101
ssS'teach_views_summaries_class_ranking_view'
p1102
(dp1103
g6
(dp1104
S'html_filename'
p1105
S'teach_views_summaries_class_ranking_view.html'
p1106
sS'name'
p1107
S'teach/views/summaries/class_ranking_view'
p1108
sS'nums'
p1109
g13
(g14
g15
NtRp1110
(dp1111
g18
I1
sg19
I18
sg20
I78
sg21
I0
sg22
I0
sg23
I55
sg24
I18
sbssg25
S'\x86\xe0\x0e\x1e\xa5A\x94Fv\xfb-|]\x1aq\x7f'
p1112
ssS'privilege_models_privileges_tests___init__'
p1113
(dp1114
g6
(dp1115
g8
S'privilege_models_privileges_tests___init__.html'
p1116
sg10
S'privilege/models/privileges/tests/__init__'
p1117
sg12
g13
(g14
g15
NtRp1118
(dp1119
g18
I1
sg19
I0
sg20
I0
sg21
I0
sg22
I0
sg23
I0
sg24
I0
sbssg25
S'\x19g\xdfM\x1a\x019\xaf\x1baIeR\xe5u\xa7'
p1120
ssS'teach_serializers_teacher_chapters___init__'
p1121
(dp1122
g6
(dp1123
g8
S'teach_serializers_teacher_chapters___init__.html'
p1124
sg10
S'teach/serializers/teacher_chapters/__init__'
p1125
sg12
g13
(g14
g15
NtRp1126
(dp1127
g18
I1
sg19
I0
sg20
I1
sg21
I0
sg22
I0
sg23
I0
sg24
I0
sbssg25
S'\xfe\x88\xda\x10\xec!\x99\xb7-\x8d\x90E\xe18K\xb1'
p1128
ssS'api_logging_admin'
p1129
(dp1130
g6
(dp1131
g8
S'api_logging_admin.html'
p1132
sg10
S'api_logging/admin'
p1133
sg12
g13
(g14
g15
NtRp1134
(dp1135
g18
I1
sg19
I0
sg20
I12
sg21
I0
sg22
I0
sg23
I0
sg24
I0
sbssg25
S'!\xbak\xf6\xdb\xef\xb4\xc9ra$\xb3\x10\xed\xbf\x8f'
p1136
ssS'user_system_models_users_user_streak_history_model'
p1137
(dp1138
g6
(dp1139
g8
S'user_system_models_users_user_streak_history_model.html'
p1140
sg10
S'user_system/models/users/user_streak_history_model'
p1141
sg12
g13
(g14
g15
NtRp1142
(dp1143
g18
I1
sg19
I0
sg20
I28
sg21
I0
sg22
I0
sg23
I0
sg24
I0
sbssg25
S'w\x85uw\r5\x1a\xa5\xea>\xdaqki`p'
p1144
ssS'create_models_tags_tests_test_concept_model'
p1145
(dp1146
g6
(dp1147
g8
S'create_models_tags_tests_test_concept_model.html'
p1148
sg10
S'create/models/tags/tests/test_concept_model'
p1149
sg12
g13
(g14
g15
NtRp1150
(dp1151
g18
I1
sg19
I0
sg20
I12
sg21
I0
sg22
I0
sg23
I0
sg24
I0
sbssg25
S'@\x95\xd9\xf7\xa5\xc4\x0c\xb1\xad\xa4\xf5p\x95\x06!N'
p1152
ssS'privilege_models_privileges_privilege_model'
p1153
(dp1154
g6
(dp1155
g8
S'privilege_models_privileges_privilege_model.html'
p1156
sg10
S'privilege/models/privileges/privilege_model'
p1157
sg12
g13
(g14
g15
NtRp1158
(dp1159
g18
I1
sg19
I0
sg20
I29
sg21
I0
sg22
I0
sg23
I0
sg24
I0
sbssg25
S'\xa3\xbf\x7fn\x8c\xe8#\xf8\xa9\x95#\xc7\xdb\xf0Y\xe6'
p1160
ssS'create_models_questions_tests_test_question_choice_model'
p1161
(dp1162
g6
(dp1163
g8
S'create_models_questions_tests_test_question_choice_model.html'
p1164
sg10
S'create/models/questions/tests/test_question_choice_model'
p1165
sg12
g13
(g14
g15
NtRp1166
(dp1167
g18
I1
sg19
I0
sg20
I46
sg21
I0
sg22
I0
sg23
I0
sg24
I0
sbssg25
S'$\x08N\xfb\nW\n\xecG\x9a[\xb7\xe2\xc1\xbd\x06'
p1168
ssS'user_system_views_users_tests_test_get_user_by_id_view'
p1169
(dp1170
g6
(dp1171
g8
S'user_system_views_users_tests_test_get_user_by_id_view.html'
p1172
sg10
S'user_system/views/users/tests/test_get_user_by_id_view'
p1173
sg12
g13
(g14
g15
NtRp1174
(dp1175
g18
I1
sg19
I0
sg20
I27
sg21
I0
sg22
I0
sg23
I0
sg24
I0
sbssg25
S'\xd7\x7f\x0c\xb9\xda.\xf1\x82\xb4\xdf*z\x10(o)'
p1176
ssS'create_models___init__'
p1177
(dp1178
g6
(dp1179
g8
S'create_models___init__.html'
p1180
sg10
S'create/models/__init__'
p1181
sg12
g13
(g14
g15
NtRp1182
(dp1183
g18
I1
sg19
I0
sg20
I6
sg21
I0
sg22
I0
sg23
I0
sg24
I0
sbssg25
S'\x1a\xde\xff\xb8/\x08R\x8e\xff\x13\x8b\xeb`\xfd\x98\xf8'
p1184
ssS'create_serializers_tags_tag_history_serializer'
p1185
(dp1186
g6
(dp1187
g8
S'create_serializers_tags_tag_history_serializer.html'
p1188
sg10
S'create/serializers/tags/tag_history_serializer'
p1189
sg12
g13
(g14
g15
NtRp1190
(dp1191
g18
I1
sg19
I0
sg20
I14
sg21
I0
sg22
I0
sg23
I0
sg24
I0
sbssg25
S'\xc1"\xf9l4\xe66\x8a\xd0)r!\x05Y+\xd2'
p1192
ssS'user_system_views_apps_tests_test_get_app_by_id_view'
p1193
(dp1194
g6
(dp1195
g8
S'user_system_views_apps_tests_test_get_app_by_id_view.html'
p1196
sg10
S'user_system/views/apps/tests/test_get_app_by_id_view'
p1197
sg12
g13
(g14
g15
NtRp1198
(dp1199
g18
I1
sg19
I0
sg20
I17
sg21
I0
sg22
I0
sg23
I0
sg24
I0
sbssg25
S"\xa2\x1eG%r{-~\xc5=\x8aj\x99X!'"
p1200
ssS'api_logging_models_modal_logging___init__'
p1201
(dp1202
g6
(dp1203
g8
S'api_logging_models_modal_logging___init__.html'
p1204
sg10
S'api_logging/models/modal_logging/__init__'
p1205
sg12
g13
(g14
g15
NtRp1206
(dp1207
g18
I1
sg19
I0
sg20
I2
sg21
I0
sg22
I0
sg23
I0
sg24
I0
sbssg25
S"+\x16\xa4\xd1\xf5m\xa9\x9e*\xd0\xa23O'}-"
p1208
ssS'user_system_serializers___init__'
p1209
(dp1210
g6
(dp1211
g8
S'user_system_serializers___init__.html'
p1212
sg10
S'user_system/serializers/__init__'
p1213
sg12
g13
(g14
g15
NtRp1214
(dp1215
g18
I1
sg19
I0
sg20
I3
sg21
I0
sg22
I0
sg23
I0
sg24
I0
sbssg25
S'\x85\x12\xbd.\x85L4\xea\t4\x9c\xcf\xb5 \x81\xb4'
p1216
ssS'teach_models_daily_quest_templates_tests___init__'
p1217
(dp1218
g6
(dp1219
g8
S'teach_models_daily_quest_templates_tests___init__.html'
p1220
sg10
S'teach/models/daily_quest_templates/tests/__init__'
p1221
sg12
g13
(g14
g15
NtRp1222
(dp1223
g18
I1
sg19
I0
sg20
I0
sg21
I0
sg22
I0
sg23
I0
sg24
I0
sbssg25
S'\x19g\xdfM\x1a\x019\xaf\x1baIeR\xe5u\xa7'
p1224
ssS'user_system_serializers_schools_grade_serializer'
p1225
(dp1226
g6
(dp1227
g8
S'user_system_serializers_schools_grade_serializer.html'
p1228
sg10
S'user_system/serializers/schools/grade_serializer'
p1229
sg12
g13
(g14
g15
NtRp1230
(dp1231
g18
I1
sg19
I0
sg20
I9
sg21
I0
sg22
I0
sg23
I0
sg24
I0
sbssg25
S"()\x18t._h'\x1c\x9bV\x14KS\xf6,"
p1232
ssS'create_models_questions_tests___init__'
p1233
(dp1234
g6
(dp1235
g8
S'create_models_questions_tests___init__.html'
p1236
sg10
S'create/models/questions/tests/__init__'
p1237
sg12
g13
(g14
g15
NtRp1238
(dp1239
g18
I1
sg19
I0
sg20
I0
sg21
I0
sg22
I0
sg23
I0
sg24
I0
sbssg25
S'\x19g\xdfM\x1a\x019\xaf\x1baIeR\xe5u\xa7'
p1240
ssS'teach_views___init__'
p1241
(dp1242
g6
(dp1243
g8
S'teach_views___init__.html'
p1244
sg10
S'teach/views/__init__'
p1245
sg12
g13
(g14
g15
NtRp1246
(dp1247
g18
I1
sg19
I0
sg20
I4
sg21
I0
sg22
I0
sg23
I0
sg24
I0
sbssg25
S'\xbb\xd5\x19}\x18\xa2M\x81f\xac\xd2>+1\xda@'
p1248
ssS'privilege_admin'
p1249
(dp1250
g6
(dp1251
g8
S'privilege_admin.html'
p1252
sg10
S'privilege/admin'
p1253
sg12
g13
(g14
g15
NtRp1254
(dp1255
g18
I1
sg19
I0
sg20
I4
sg21
I0
sg22
I0
sg23
I0
sg24
I0
sbssg25
S'\xa1\x9fb^\xc7l\x00\x1f\x0e\x9c\x06\x08\x99Kx\x94'
p1256
ssS'teach_models_teacher_tags_tests_test_teacher_tag_model'
p1257
(dp1258
g6
(dp1259
g8
S'teach_models_teacher_tags_tests_test_teacher_tag_model.html'
p1260
sg10
S'teach/models/teacher_tags/tests/test_teacher_tag_model'
p1261
sg12
g13
(g14
g15
NtRp1262
(dp1263
g18
I1
sg19
I0
sg20
I30
sg21
I0
sg22
I0
sg23
I0
sg24
I0
sbssg25
S'\xf3\x06\xd8\xd6\x93V\xab\xdc\x87\x05\xf6vJ\xa9`\xe6'
p1264
ssS'user_system_models_schools_academic_year_model'
p1265
(dp1266
g6
(dp1267
g8
S'user_system_models_schools_academic_year_model.html'
p1268
sg10
S'user_system/models/schools/academic_year_model'
p1269
sg12
g13
(g14
g15
NtRp1270
(dp1271
g18
I1
sg19
I0
sg20
I23
sg21
I0
sg22
I0
sg23
I0
sg24
I0
sbssg25
S'\xf1Zl\xd3\xdd4\xdcX&\xdf\xf0<.\x11FY'
p1272
ssS'learn_models___init__'
p1273
(dp1274
g6
(dp1275
g8
S'learn_models___init__.html'
p1276
sg10
S'learn/models/__init__'
p1277
sg12
g13
(g14
g15
NtRp1278
(dp1279
g18
I1
sg19
I0
sg20
I2
sg21
I0
sg22
I0
sg23
I0
sg24
I0
sbssg25
S'J\x07\xbfU\xe2\xd2\xed\xadY\xe2o$\x84\x86bd'
p1280
ssS'user_system_models_users_student_profile_model'
p1281
(dp1282
g6
(dp1283
g8
S'user_system_models_users_student_profile_model.html'
p1284
sg10
S'user_system/models/users/student_profile_model'
p1285
sg12
g13
(g14
g15
NtRp1286
(dp1287
g18
I1
sg19
I2
sg20
I41
sg21
I0
sg22
I0
sg23
I0
sg24
I0
sbssg25
S'q\x83gLh\x1e\xeb\xb5+w&@\xe2"=\xb8'
p1288
ssS'user_system_models_schools_organization_model'
p1289
(dp1290
g6
(dp1291
g8
S'user_system_models_schools_organization_model.html'
p1292
sg10
S'user_system/models/schools/organization_model'
p1293
sg12
g13
(g14
g15
NtRp1294
(dp1295
g18
I1
sg19
I0
sg20
I28
sg21
I0
sg22
I0
sg23
I0
sg24
I0
sbssg25
S']\xd3\xfd\x922s\xeb0\xfd\x8a\x88\xfe"\xbd<h'
p1296
ssS'create_views_books_tests_test_hide_book_view'
p1297
(dp1298
g6
(dp1299
g8
S'create_views_books_tests_test_hide_book_view.html'
p1300
sg10
S'create/views/books/tests/test_hide_book_view'
p1301
sg12
g13
(g14
g15
NtRp1302
(dp1303
g18
I1
sg19
I0
sg20
I25
sg21
I0
sg22
I0
sg23
I0
sg24
I0
sbssg25
S'\xe1\x17\x16\xca\x8a\xc5c\x1b\xce\xab\xb8\xf9G\x03\x9dQ'
p1304
ssS'user_system_views_batch_processing_update_user_streak_view'
p1305
(dp1306
g6
(dp1307
g8
S'user_system_views_batch_processing_update_user_streak_view.html'
p1308
sg10
S'user_system/views/batch_processing/update_user_streak_view'
p1309
sg12
g13
(g14
g15
NtRp1310
(dp1311
g18
I1
sg19
I4
sg20
I26
sg21
I0
sg22
I0
sg23
I13
sg24
I4
sbssg25
S'\x0c\xa4\xfc<-\xca\x06\xe7\x99B\xd5\x0bFC\x94c'
p1312
ssS'create_admin'
p1313
(dp1314
g6
(dp1315
g8
S'create_admin.html'
p1316
sg10
S'create/admin'
p1317
sg12
g13
(g14
g15
NtRp1318
(dp1319
g18
I1
sg19
I0
sg20
I20
sg21
I0
sg22
I0
sg23
I0
sg24
I0
sbssg25
S'\x03\xe6\xc2\xd5\xa8\xb1\x92\xa5/8\x0fZCN\r\x08'
p1320
ssS'create_views_questions_tests_test_get_question_list_view'
p1321
(dp1322
g6
(dp1323
g8
S'create_views_questions_tests_test_get_question_list_view.html'
p1324
sg10
S'create/views/questions/tests/test_get_question_list_view'
p1325
sg12
g13
(g14
g15
NtRp1326
(dp1327
g18
I1
sg19
I0
sg20
I32
sg21
I0
sg22
I0
sg23
I0
sg24
I0
sbssg25
S'\xa2&\x88;1\\\xa2 \xb4&ejB\xd1%\x06'
p1328
ssS'teach_serializers_teacher_tags_teacher_tag_serializer'
p1329
(dp1330
g6
(dp1331
g8
S'teach_serializers_teacher_tags_teacher_tag_serializer.html'
p1332
sg10
S'teach/serializers/teacher_tags/teacher_tag_serializer'
p1333
sg12
g13
(g14
g15
NtRp1334
(dp1335
g18
I1
sg19
I2
sg20
I26
sg21
I0
sg22
I0
sg23
I9
sg24
I2
sbssg25
S'\x07C\xdf\xcd\x92\x1eS\x1a#\x8e\x9d\x88Dj\n\x12'
p1336
ssS'user_system_views_logins___init__'
p1337
(dp1338
g6
(dp1339
g8
S'user_system_views_logins___init__.html'
p1340
sg10
S'user_system/views/logins/__init__'
p1341
sg12
g13
(g14
g15
NtRp1342
(dp1343
g18
I1
sg19
I0
sg20
I2
sg21
I0
sg22
I0
sg23
I0
sg24
I0
sbssg25
S'\xa0\xd3\xaas\xc2\xb93+ED.\xe5\xfe\xf2\xad\x87'
p1344
ssS'create_views_daily_quest_copies___init__'
p1345
(dp1346
g6
(dp1347
g8
S'create_views_daily_quest_copies___init__.html'
p1348
sg10
S'create/views/daily_quest_copies/__init__'
p1349
sg12
g13
(g14
g15
NtRp1350
(dp1351
g18
I1
sg19
I0
sg20
I1
sg21
I0
sg22
I0
sg23
I0
sg24
I0
sbssg25
S"'\xb6_z\x90s\x92\xdd\xc7\xb2\x87d\xba\xe24X"
p1352
ssS'create_views_quests_tests_test_hide_quest_view'
p1353
(dp1354
g6
(dp1355
g8
S'create_views_quests_tests_test_hide_quest_view.html'
p1356
sg10
S'create/views/quests/tests/test_hide_quest_view'
p1357
sg12
g13
(g14
g15
NtRp1358
(dp1359
g18
I1
sg19
I0
sg20
I26
sg21
I0
sg22
I0
sg23
I0
sg24
I0
sbssg25
S'G\xcb\xcf\xbb~*\xa2i\xd2\xff\x81\x81\xf0)G\xda'
p1360
ssS'create_views_books_tests_test_add_tag_to_subchapter_view'
p1361
(dp1362
g6
(dp1363
g8
S'create_views_books_tests_test_add_tag_to_subchapter_view.html'
p1364
sg10
S'create/views/books/tests/test_add_tag_to_subchapter_view'
p1365
sg12
g13
(g14
g15
NtRp1366
(dp1367
g18
I1
sg19
I0
sg20
I40
sg21
I0
sg22
I0
sg23
I0
sg24
I0
sbssg25
S'\xb78\xf4p\xcd\xec\xca\xaa\x93\xb9\xda\xa8Yo37'
p1368
ssS'api_logging_models_modal_logging_modal_user_history_model'
p1369
(dp1370
g6
(dp1371
g8
S'api_logging_models_modal_logging_modal_user_history_model.html'
p1372
sg10
S'api_logging/models/modal_logging/modal_user_history_model'
p1373
sg12
g13
(g14
g15
NtRp1374
(dp1375
g18
I1
sg19
I0
sg20
I15
sg21
I0
sg22
I0
sg23
I3
sg24
I0
sbssg25
S'\xabX\xd42<$9z\xc1]\xc12\xe9\xd8\xbf\xd2'
p1376
ssS'user_system_views_schools_classroom_view'
p1377
(dp1378
g6
(dp1379
g8
S'user_system_views_schools_classroom_view.html'
p1380
sg10
S'user_system/views/schools/classroom_view'
p1381
sg12
g13
(g14
g15
NtRp1382
(dp1383
g18
I1
sg19
I2
sg20
I25
sg21
I0
sg22
I0
sg23
I6
sg24
I2
sbssg25
S'\xc5\x9bb\xc9\x83\xc2\x88\xd8,\x01\xeb\x94.\x8b\xf7\xd6'
p1384
ssS'user_system_managers_user_manager'
p1385
(dp1386
g6
(dp1387
g8
S'user_system_managers_user_manager.html'
p1388
sg10
S'user_system/managers/user_manager'
p1389
sg12
g13
(g14
g15
NtRp1390
(dp1391
g18
I1
sg19
I28
sg20
I64
sg21
I0
sg22
I1
sg23
I0
sg24
I1
sbssg25
S'\xb9U\xa3],\xb4\xc8\xd1iE\xf6\x04;\xf0-h'
p1392
ssS'create_models_quests_tests___init__'
p1393
(dp1394
g6
(dp1395
g8
S'create_models_quests_tests___init__.html'
p1396
sg10
S'create/models/quests/tests/__init__'
p1397
sg12
g13
(g14
g15
NtRp1398
(dp1399
g18
I1
sg19
I0
sg20
I1
sg21
I0
sg22
I0
sg23
I0
sg24
I0
sbssg25
S'\xbc\xd6\xeb\xb3\xba\xcaz\xf7{\xd4B\xb5}l\xdf\x96'
p1400
ssS'create_views_questions___init__'
p1401
(dp1402
g6
(dp1403
g8
S'create_views_questions___init__.html'
p1404
sg10
S'create/views/questions/__init__'
p1405
sg12
g13
(g14
g15
NtRp1406
(dp1407
g18
I1
sg19
I0
sg20
I3
sg21
I0
sg22
I0
sg23
I0
sg24
I0
sbssg25
S'h\x154\xc5\xe58\xa8\xc8\xa9\xa6\xbea?\xcf?i'
p1408
ssS'user_system_views_users_create_teacher_view'
p1409
(dp1410
g6
(dp1411
g8
S'user_system_views_users_create_teacher_view.html'
p1412
sg10
S'user_system/views/users/create_teacher_view'
p1413
sg12
g13
(g14
g15
NtRp1414
(dp1415
g18
I1
sg19
I2
sg20
I34
sg21
I0
sg22
I0
sg23
I21
sg24
I2
sbssg25
S'=\xee\xed^jo\xc1\xebz\xedP\xf9\x91n\xec\x8d'
p1416
ssS'user_system_models_apps_tests___init__'
p1417
(dp1418
g6
(dp1419
g8
S'user_system_models_apps_tests___init__.html'
p1420
sg10
S'user_system/models/apps/tests/__init__'
p1421
sg12
g13
(g14
g15
NtRp1422
(dp1423
g18
I1
sg19
I0
sg20
I0
sg21
I0
sg22
I0
sg23
I0
sg24
I0
sbssg25
S'\x19g\xdfM\x1a\x019\xaf\x1baIeR\xe5u\xa7'
p1424
ssS'privilege_serializers_privileges_user_privilege_serializer'
p1425
(dp1426
g6
(dp1427
g8
S'privilege_serializers_privileges_user_privilege_serializer.html'
p1428
sg10
S'privilege/serializers/privileges/user_privilege_serializer'
p1429
sg12
g13
(g14
g15
NtRp1430
(dp1431
g18
I1
sg19
I0
sg20
I9
sg21
I0
sg22
I0
sg23
I0
sg24
I0
sbssg25
S'#\xe5\xcc\x9as5y,\xa1HiQ\xa2c\xdb2'
p1432
ssS'teach_views_summaries_daily_quest_daily_summary_view'
p1433
(dp1434
g6
(dp1435
g8
S'teach_views_summaries_daily_quest_daily_summary_view.html'
p1436
sg10
S'teach/views/summaries/daily_quest_daily_summary_view'
p1437
sg12
g13
(g14
g15
NtRp1438
(dp1439
g18
I1
sg19
I12
sg20
I61
sg21
I0
sg22
I0
sg23
I39
sg24
I12
sbssg25
S'\x06\\F.\x8c\xd3M\x8e\xc5\xc9\xd5<\x13V\xd6C'
p1440
ssS'create_views_summary___init__'
p1441
(dp1442
g6
(dp1443
g8
S'create_views_summary___init__.html'
p1444
sg10
S'create/views/summary/__init__'
p1445
sg12
g13
(g14
g15
NtRp1446
(dp1447
g18
I1
sg19
I0
sg20
I1
sg21
I0
sg22
I0
sg23
I0
sg24
I0
sbssg25
S'#\xb7\xbd\xa1M\xe4\xa0\x05\xf5x\x057hU[\xca'
p1448
ssS'create_views_tags_tests_test_get_tag_by_id_view'
p1449
(dp1450
g6
(dp1451
g8
S'create_views_tags_tests_test_get_tag_by_id_view.html'
p1452
sg10
S'create/views/tags/tests/test_get_tag_by_id_view'
p1453
sg12
g13
(g14
g15
NtRp1454
(dp1455
g18
I1
sg19
I0
sg20
I20
sg21
I0
sg22
I0
sg23
I0
sg24
I0
sbssg25
S'T\xd5\xd7\xd9\xb8\x12\x81xj\xca\x90\xa41\xcf\x02]'
p1456
ssS'api_logging_models_user_activities___init__'
p1457
(dp1458
g6
(dp1459
g8
S'api_logging_models_user_activities___init__.html'
p1460
sg10
S'api_logging/models/user_activities/__init__'
p1461
sg12
g13
(g14
g15
NtRp1462
(dp1463
g18
I1
sg19
I0
sg20
I2
sg21
I0
sg22
I0
sg23
I0
sg24
I0
sbssg25
S'[5wJ\x18h\x1e\xbf>\xcd\x82\x04\xf1,\xd1\xde'
p1464
ssS'user_system_models_users_tests_test_user_profile_model'
p1465
(dp1466
g6
(dp1467
g8
S'user_system_models_users_tests_test_user_profile_model.html'
p1468
sg10
S'user_system/models/users/tests/test_user_profile_model'
p1469
sg12
g13
(g14
g15
NtRp1470
(dp1471
g18
I1
sg19
I0
sg20
I142
sg21
I0
sg22
I0
sg23
I0
sg24
I0
sbssg25
S'\x00\xb8\xc5\xc0\xcb\xb1\xcaP@!\x086\x84\x1d\xd5\xed'
p1472
ssS'user_system_views_users_user_streak_history_view'
p1473
(dp1474
g6
(dp1475
g8
S'user_system_views_users_user_streak_history_view.html'
p1476
sg10
S'user_system/views/users/user_streak_history_view'
p1477
sg12
g13
(g14
g15
NtRp1478
(dp1479
g18
I1
sg19
I0
sg20
I15
sg21
I0
sg22
I0
sg23
I0
sg24
I0
sbssg25
S'\x82\xa4:\x84\x8dJE7\xc0"\xbb\xceU\xa9\xd6\x07'
p1480
ssS'user_system_views_roles_tests_test_user_role_view'
p1481
(dp1482
g6
(dp1483
g8
S'user_system_views_roles_tests_test_user_role_view.html'
p1484
sg10
S'user_system/views/roles/tests/test_user_role_view'
p1485
sg12
g13
(g14
g15
NtRp1486
(dp1487
g18
I1
sg19
I0
sg20
I41
sg21
I0
sg22
I0
sg23
I0
sg24
I0
sbssg25
S'\xaf \x02-\xd3\xa9\xee\x1e7\x87\xa8[\xd9\xd8V\xd8'
p1488
ssS'user_system_views_apps_tests_test_get_apps_list_view'
p1489
(dp1490
g6
(dp1491
g8
S'user_system_views_apps_tests_test_get_apps_list_view.html'
p1492
sg10
S'user_system/views/apps/tests/test_get_apps_list_view'
p1493
sg12
g13
(g14
g15
NtRp1494
(dp1495
g18
I1
sg19
I0
sg20
I18
sg21
I0
sg22
I0
sg23
I0
sg24
I0
sbssg25
S'\x87\xab;"\x01p\xf9\xe5\xa6\xb1\xaej\x8egl\x99'
p1496
ssS'api_logging_models_user_activities_user_activity_model'
p1497
(dp1498
g6
(dp1499
g8
S'api_logging_models_user_activities_user_activity_model.html'
p1500
sg10
S'api_logging/models/user_activities/user_activity_model'
p1501
sg12
g13
(g14
g15
NtRp1502
(dp1503
g18
I1
sg19
I0
sg20
I11
sg21
I0
sg22
I0
sg23
I0
sg24
I0
sbssg25
S'f\xe2(\xd3\xddS\xfd\x1e\xf0d\xb2,\xb2\x8f\x8c\x18'
p1504
ssS'create_views_books_tests_test_create_new_book'
p1505
(dp1506
g6
(dp1507
g8
S'create_views_books_tests_test_create_new_book.html'
p1508
sg10
S'create/views/books/tests/test_create_new_book'
p1509
sg12
g13
(g14
g15
NtRp1510
(dp1511
g18
I1
sg19
I0
sg20
I18
sg21
I0
sg22
I0
sg23
I0
sg24
I0
sbssg25
S'\xe3\xaew\xf8\xd7\x8f\xc5 \x85\xc1\xb6I\x82X(-'
p1512
ssS'create_serializers_questions_question_type_serializer'
p1513
(dp1514
g6
(dp1515
g8
S'create_serializers_questions_question_type_serializer.html'
p1516
sg10
S'create/serializers/questions/question_type_serializer'
p1517
sg12
g13
(g14
g15
NtRp1518
(dp1519
g18
I1
sg19
I0
sg20
I6
sg21
I0
sg22
I0
sg23
I0
sg24
I0
sbssg25
S'!\x8a\x91KA:\x92\x13/\xdd\xd9\xc2?\x8b\xe1\xc6'
p1520
ssS'create_models_books_tests_test_book_model'
p1521
(dp1522
g6
(dp1523
g8
S'create_models_books_tests_test_book_model.html'
p1524
sg10
S'create/models/books/tests/test_book_model'
p1525
sg12
g13
(g14
g15
NtRp1526
(dp1527
g18
I1
sg19
I6
sg20
I44
sg21
I0
sg22
I0
sg23
I0
sg24
I0
sbssg25
S'\xff\x88\xcd\xb0\x80\xb2\x9d\xf7\xf9G\xb1.\xaf\xdd\x07\xd7'
p1528
ssS'create_models_questions_question_choice_model'
p1529
(dp1530
g6
(dp1531
g8
S'create_models_questions_question_choice_model.html'
p1532
sg10
S'create/models/questions/question_choice_model'
p1533
sg12
g13
(g14
g15
NtRp1534
(dp1535
g18
I1
sg19
I0
sg20
I42
sg21
I0
sg22
I0
sg23
I0
sg24
I0
sbssg25
S'\xd7\xd8\x1f\xbf<\xee\xdd?}\xfe>\x82\\\x97\x15)'
p1536
ssS'flipped_helpers_tests___init__'
p1537
(dp1538
g6
(dp1539
g8
S'flipped_helpers_tests___init__.html'
p1540
sg10
S'flipped/helpers/tests/__init__'
p1541
sg12
g13
(g14
g15
NtRp1542
(dp1543
g18
I1
sg19
I0
sg20
I0
sg21
I0
sg22
I0
sg23
I0
sg24
I0
sbssg25
S'\x19g\xdfM\x1a\x019\xaf\x1baIeR\xe5u\xa7'
p1544
ssS'user_system_models_roles_role_app_model'
p1545
(dp1546
g6
(dp1547
g8
S'user_system_models_roles_role_app_model.html'
p1548
sg10
S'user_system/models/roles/role_app_model'
p1549
sg12
g13
(g14
g15
NtRp1550
(dp1551
g18
I1
sg19
I0
sg20
I18
sg21
I0
sg22
I0
sg23
I0
sg24
I0
sbssg25
S'\x8d\xa3&\x03\x9d\x1cO|\xces.\x11/\x8f`\xcc'
p1552
ssS'create_views_books_book_view'
p1553
(dp1554
g6
(dp1555
g8
S'create_views_books_book_view.html'
p1556
sg10
S'create/views/books/book_view'
p1557
sg12
g13
(g14
g15
NtRp1558
(dp1559
g18
I1
sg19
I34
sg20
I124
sg21
I0
sg22
I3
sg23
I8
sg24
I5
sbssg25
S'%\x96\xb2\x15\x98\xef\x0fL\xc0&\xf9\x18\x91-\xb28'
p1560
ssS'create_views_tags_tests_test_remove_prerequisite_view'
p1561
(dp1562
g6
(dp1563
g8
S'create_views_tags_tests_test_remove_prerequisite_view.html'
p1564
sg10
S'create/views/tags/tests/test_remove_prerequisite_view'
p1565
sg12
g13
(g14
g15
NtRp1566
(dp1567
g18
I1
sg19
I0
sg20
I31
sg21
I0
sg22
I0
sg23
I0
sg24
I0
sbssg25
S'\x8e\x8c~\xff\x85\x94\x8c~T\x7f\x80\x82W\x96\x19\x9c'
p1568
ssS'learn_models_points_tests_test_point_type_model'
p1569
(dp1570
g6
(dp1571
g8
S'learn_models_points_tests_test_point_type_model.html'
p1572
sg10
S'learn/models/points/tests/test_point_type_model'
p1573
sg12
g13
(g14
g15
NtRp1574
(dp1575
g18
I1
sg19
I0
sg20
I20
sg21
I0
sg22
I0
sg23
I0
sg24
I0
sbssg25
S'\x8a\x938\x82k\xa7\x10\xf1\x95\x07\xc4\xb2\x9d\n\xc6\x1f'
p1576
ssS'api_logging_views_user_activities___init__'
p1577
(dp1578
g6
(dp1579
g8
S'api_logging_views_user_activities___init__.html'
p1580
sg10
S'api_logging/views/user_activities/__init__'
p1581
sg12
g13
(g14
g15
NtRp1582
(dp1583
g18
I1
sg19
I0
sg20
I1
sg21
I0
sg22
I0
sg23
I0
sg24
I0
sbssg25
S'\xbc\x87\xa7&\xe2B=>v\tt\x06,\x1d<['
p1584
ssS'teach_serializers_teacher_chapters_teacher_chapter_serializer'
p1585
(dp1586
g6
(dp1587
g8
S'teach_serializers_teacher_chapters_teacher_chapter_serializer.html'
p1588
sg10
S'teach/serializers/teacher_chapters/teacher_chapter_serializer'
p1589
sg12
g13
(g14
g15
NtRp1590
(dp1591
g18
I1
sg19
I0
sg20
I12
sg21
I0
sg22
I0
sg23
I0
sg24
I0
sbssg25
S'\xac\x9b\xf1Q\x91\xf4J\x03y\xc4\xa7\x9c\x996\x13a'
p1592
ssS'user_system_serializers_app_serializer'
p1593
(dp1594
g6
(dp1595
g8
S'user_system_serializers_app_serializer.html'
p1596
sg10
S'user_system/serializers/app_serializer'
p1597
sg12
g13
(g14
g15
NtRp1598
(dp1599
g18
I1
sg19
I0
sg20
I7
sg21
I0
sg22
I0
sg23
I0
sg24
I0
sbssg25
S'\xc1\x87\xd6\x1b\xbe\x8f\xfb\xdd\x1a\xa9\x92A\xe2\xc3\xe2\xf1'
p1600
ssS'user_system_views_logins_tests_test_facebook_login_view'
p1601
(dp1602
g6
(dp1603
g8
S'user_system_views_logins_tests_test_facebook_login_view.html'
p1604
sg10
S'user_system/views/logins/tests/test_facebook_login_view'
p1605
sg12
g13
(g14
g15
NtRp1606
(dp1607
g18
I1
sg19
I0
sg20
I51
sg21
I0
sg22
I0
sg23
I0
sg24
I0
sbssg25
S'\x8eg\xfbA\xbdf+\x81\xe9\x8a\x16\x82\xe9\xe3\xc0\xf4'
p1608
ssS'api_logging_serializers_user_activities___init__'
p1609
(dp1610
g6
(dp1611
g8
S'api_logging_serializers_user_activities___init__.html'
p1612
sg10
S'api_logging/serializers/user_activities/__init__'
p1613
sg12
g13
(g14
g15
NtRp1614
(dp1615
g18
I1
sg19
I0
sg20
I1
sg21
I0
sg22
I0
sg23
I0
sg24
I0
sbssg25
S'Lrk4\xf7\x16t\xe2\x9f\xd6\xf5t\x0cO>\xdf'
p1616
ssS'teach_models_teacher_chapters_tests___init__'
p1617
(dp1618
g6
(dp1619
g8
S'teach_models_teacher_chapters_tests___init__.html'
p1620
sg10
S'teach/models/teacher_chapters/tests/__init__'
p1621
sg12
g13
(g14
g15
NtRp1622
(dp1623
g18
I1
sg19
I0
sg20
I0
sg21
I0
sg22
I0
sg23
I0
sg24
I0
sbssg25
S'\x19g\xdfM\x1a\x019\xaf\x1baIeR\xe5u\xa7'
p1624
ssS'create_views_quests_tests_test_remove_tag_view'
p1625
(dp1626
g6
(dp1627
g8
S'create_views_quests_tests_test_remove_tag_view.html'
p1628
sg10
S'create/views/quests/tests/test_remove_tag_view'
p1629
sg12
g13
(g14
g15
NtRp1630
(dp1631
g18
I1
sg19
I0
sg20
I0
sg21
I0
sg22
I0
sg23
I0
sg24
I0
sbssg25
S'\x19g\xdfM\x1a\x019\xaf\x1baIeR\xe5u\xa7'
p1632
ssS'create_models_questions_tests_test_question_type_model'
p1633
(dp1634
g6
(dp1635
g8
S'create_models_questions_tests_test_question_type_model.html'
p1636
sg10
S'create/models/questions/tests/test_question_type_model'
p1637
sg12
g13
(g14
g15
NtRp1638
(dp1639
g18
I1
sg19
I0
sg20
I17
sg21
I0
sg22
I0
sg23
I0
sg24
I0
sbssg25
S'e\x1b\x19\xbb)\x89\xff\xfa\xe5\xca\xde\x08\x08CUL'
p1640
ssS'create_views_books_tests_test_remove_chapter_view'
p1641
(dp1642
g6
(dp1643
g8
S'create_views_books_tests_test_remove_chapter_view.html'
p1644
sg10
S'create/views/books/tests/test_remove_chapter_view'
p1645
sg12
g13
(g14
g15
NtRp1646
(dp1647
g18
I1
sg19
I0
sg20
I39
sg21
I0
sg22
I0
sg23
I0
sg24
I0
sbssg25
S'lJ\xdc\xbe\xe2>\x9d\xde\xb5+ia5;\x042'
p1648
ssS'create_models_question_datasets___init__'
p1649
(dp1650
g6
(dp1651
g8
S'create_models_question_datasets___init__.html'
p1652
sg10
S'create/models/question_datasets/__init__'
p1653
sg12
g13
(g14
g15
NtRp1654
(dp1655
g18
I1
sg19
I0
sg20
I1
sg21
I0
sg22
I0
sg23
I0
sg24
I0
sbssg25
S'\xeb\xb7>&t\x02-\xeaaJ,\x8a\xae\xc3\x1a]'
p1656
ssS'privilege_views___init__'
p1657
(dp1658
g6
(dp1659
g8
S'privilege_views___init__.html'
p1660
sg10
S'privilege/views/__init__'
p1661
sg12
g13
(g14
g15
NtRp1662
(dp1663
g18
I1
sg19
I0
sg20
I0
sg21
I0
sg22
I0
sg23
I0
sg24
I0
sbssg25
S'\x19g\xdfM\x1a\x019\xaf\x1baIeR\xe5u\xa7'
p1664
ssS'api_logging_views_query_stat___init__'
p1665
(dp1666
g6
(dp1667
g8
S'api_logging_views_query_stat___init__.html'
p1668
sg10
S'api_logging/views/query_stat/__init__'
p1669
sg12
g13
(g14
g15
NtRp1670
(dp1671
g18
I1
sg19
I0
sg20
I1
sg21
I0
sg22
I0
sg23
I0
sg24
I0
sbssg25
S'\xbe{\x9f#C\x83\xe9\xa5\xf6B\xf2\xd6\x8a\x0eB\xd0'
p1672
ssS'user_system_views_users_tests___init__'
p1673
(dp1674
g6
(dp1675
g8
S'user_system_views_users_tests___init__.html'
p1676
sg10
S'user_system/views/users/tests/__init__'
p1677
sg12
g13
(g14
g15
NtRp1678
(dp1679
g18
I1
sg19
I0
sg20
I0
sg21
I0
sg22
I0
sg23
I0
sg24
I0
sbssg25
S'\x19g\xdfM\x1a\x019\xaf\x1baIeR\xe5u\xa7'
p1680
ssS'create_models_tags_tests_test_skill_model'
p1681
(dp1682
g6
(dp1683
g8
S'create_models_tags_tests_test_skill_model.html'
p1684
sg10
S'create/models/tags/tests/test_skill_model'
p1685
sg12
g13
(g14
g15
NtRp1686
(dp1687
g18
I1
sg19
I0
sg20
I12
sg21
I0
sg22
I0
sg23
I0
sg24
I0
sbssg25
S'\x08\x9e\x87e#\x02\x06O\x02l!\x0e\xe8\xeb\xc0.'
p1688
ssS'user_system_views_signups_hardcoded___init__'
p1689
(dp1690
g6
(dp1691
g8
S'user_system_views_signups_hardcoded___init__.html'
p1692
sg10
S'user_system/views/signups/hardcoded/__init__'
p1693
sg12
g13
(g14
g15
NtRp1694
(dp1695
g18
I1
sg19
I0
sg20
I1
sg21
I0
sg22
I0
sg23
I0
sg24
I0
sbssg25
S'?\xfac\x0c\x91\xa4\xd6\xd4\x1d\xe4\x99\xc2[\x83\xfc\xdf'
p1696
ssS'create_models_books_tests_test_book_chapter_model'
p1697
(dp1698
g6
(dp1699
g8
S'create_models_books_tests_test_book_chapter_model.html'
p1700
sg10
S'create/models/books/tests/test_book_chapter_model'
p1701
sg12
g13
(g14
g15
NtRp1702
(dp1703
g18
I1
sg19
I8
sg20
I55
sg21
I0
sg22
I0
sg23
I0
sg24
I0
sbssg25
S'\xc4\x1a\xd7\x12s\xd3V\xef\xac\xa7%\x0c\xdc\x17\x05c'
p1704
ssS'user_system_views_signups_tests_test_verify_email_view'
p1705
(dp1706
g6
(dp1707
g8
S'user_system_views_signups_tests_test_verify_email_view.html'
p1708
sg10
S'user_system/views/signups/tests/test_verify_email_view'
p1709
sg12
g13
(g14
g15
NtRp1710
(dp1711
g18
I1
sg19
I0
sg20
I51
sg21
I0
sg22
I0
sg23
I0
sg24
I0
sbssg25
S'\x81\xacj\x9d\x1f\xa9o\xcc\x1e\xa3\xe59^YT\x9e'
p1712
ssS'teach_models_daily_quest_templates___init__'
p1713
(dp1714
g6
(dp1715
g8
S'teach_models_daily_quest_templates___init__.html'
p1716
sg10
S'teach/models/daily_quest_templates/__init__'
p1717
sg12
g13
(g14
g15
NtRp1718
(dp1719
g18
I1
sg19
I0
sg20
I1
sg21
I0
sg22
I0
sg23
I0
sg24
I0
sbssg25
S'\x12\x89x\xb9F\xfb=b\x04\xddy\xb4\xccZb\xb8'
p1720
ssS'teach_serializers_daily_quest_templates_daily_quest_template_serializer'
p1721
(dp1722
g6
(dp1723
g8
S'teach_serializers_daily_quest_templates_daily_quest_template_serializer.html'
p1724
sg10
S'teach/serializers/daily_quest_templates/daily_quest_template_serializer'
p1725
sg12
g13
(g14
g15
NtRp1726
(dp1727
g18
I1
sg19
I0
sg20
I12
sg21
I0
sg22
I0
sg23
I0
sg24
I0
sbssg25
S"\xd9\x0bcm\x95?'mB\xf9\xdd\xa1\xfc>:="
p1728
ssS'create_views_questions_tests_test_add_tag_view'
p1729
(dp1730
g6
(dp1731
g8
S'create_views_questions_tests_test_add_tag_view.html'
p1732
sg10
S'create/views/questions/tests/test_add_tag_view'
p1733
sg12
g13
(g14
g15
NtRp1734
(dp1735
g18
I1
sg19
I0
sg20
I35
sg21
I0
sg22
I0
sg23
I0
sg24
I0
sbssg25
S'\x8e\x13\xdd\xbd\xba\r&,-|&W-a`\x7f'
p1736
ssS'create_views_quests_quest_view'
p1737
(dp1738
g6
(dp1739
g8
S'create_views_quests_quest_view.html'
p1740
sg10
S'create/views/quests/quest_view'
p1741
sg12
g13
(g14
g15
NtRp1742
(dp1743
g18
I1
sg19
I84
sg20
I249
sg21
I0
sg22
I0
sg23
I178
sg24
I78
sbssg25
S'(\xa2UK\xe2}\xa8\xe0\xc9 3#\xec\x01\xfd\x16'
p1744
ssS'privilege_models_privileges_tests_test_privilege_model'
p1745
(dp1746
g6
(dp1747
g8
S'privilege_models_privileges_tests_test_privilege_model.html'
p1748
sg10
S'privilege/models/privileges/tests/test_privilege_model'
p1749
sg12
g13
(g14
g15
NtRp1750
(dp1751
g18
I1
sg19
I0
sg20
I30
sg21
I0
sg22
I0
sg23
I0
sg24
I0
sbssg25
S'\xe0^\x80\xd5+a\xd9\xc4\xeabB\xc5\x142;\xc9'
p1752
ssS'flipped_helpers___init__'
p1753
(dp1754
g6
(dp1755
g8
S'flipped_helpers___init__.html'
p1756
sg10
S'flipped/helpers/__init__'
p1757
sg12
g13
(g14
g15
NtRp1758
(dp1759
g18
I1
sg19
I0
sg20
I5
sg21
I0
sg22
I0
sg23
I0
sg24
I0
sbssg25
S'\x8d&\xda\xf5\x1f\xe2\xe9/Cb\xfb\x88\x04UM6'
p1760
ssS'user_system_models_schools_tests_test_grade_model'
p1761
(dp1762
g6
(dp1763
g8
S'user_system_models_schools_tests_test_grade_model.html'
p1764
sg10
S'user_system/models/schools/tests/test_grade_model'
p1765
sg12
g13
(g14
g15
NtRp1766
(dp1767
g18
I1
sg19
I0
sg20
I28
sg21
I0
sg22
I0
sg23
I0
sg24
I0
sbssg25
S'\x1fm\x16s\xe7\xd2\x91\xda`\xab\xe0\x7f\x9dy\xcbd'
p1768
ssS'user_system_models_apps_tests_test_app_model'
p1769
(dp1770
g6
(dp1771
g8
S'user_system_models_apps_tests_test_app_model.html'
p1772
sg10
S'user_system/models/apps/tests/test_app_model'
p1773
sg12
g13
(g14
g15
NtRp1774
(dp1775
g18
I1
sg19
I0
sg20
I18
sg21
I0
sg22
I0
sg23
I0
sg24
I0
sbssg25
S'\xfb\xfc\xe0#\xe2\n\x8e\x9e\x94\xa8\x83\xc5\xb1U\xa3a'
p1776
ssS'user_system_views_signups_tests_test_email_signup_view'
p1777
(dp1778
g6
(dp1779
g8
S'user_system_views_signups_tests_test_email_signup_view.html'
p1780
sg10
S'user_system/views/signups/tests/test_email_signup_view'
p1781
sg12
g13
(g14
g15
NtRp1782
(dp1783
g18
I1
sg19
I0
sg20
I51
sg21
I0
sg22
I0
sg23
I0
sg24
I0
sbssg25
S'\xa3\xb2\xaf-\x99\xe3]\xcc\xe6\x8b\xeb\xf63=I\xb4'
p1784
ssS'user_system_models_schools_tests_test_organization_model'
p1785
(dp1786
g6
(dp1787
g8
S'user_system_models_schools_tests_test_organization_model.html'
p1788
sg10
S'user_system/models/schools/tests/test_organization_model'
p1789
sg12
g13
(g14
g15
NtRp1790
(dp1791
g18
I1
sg19
I0
sg20
I27
sg21
I0
sg22
I0
sg23
I0
sg24
I0
sbssg25
S"\xa3'h\xadZ,\x82G\xbc\x08wON /j"
p1792
ssS'create_serializers_books_book_subchapter_serializer'
p1793
(dp1794
g6
(dp1795
g8
S'create_serializers_books_book_subchapter_serializer.html'
p1796
sg10
S'create/serializers/books/book_subchapter_serializer'
p1797
sg12
g13
(g14
g15
NtRp1798
(dp1799
g18
I1
sg19
I0
sg20
I18
sg21
I0
sg22
I0
sg23
I3
sg24
I0
sbssg25
S'89\x89\x89\xd8\x94\xd2l\x98G]\xad\xe1\xf7\x93\xfc'
p1800
ssS'create_views_books_book_subchapter_view'
p1801
(dp1802
g6
(dp1803
g8
S'create_views_books_book_subchapter_view.html'
p1804
sg10
S'create/views/books/book_subchapter_view'
p1805
sg12
g13
(g14
g15
NtRp1806
(dp1807
g18
I1
sg19
I8
sg20
I46
sg21
I0
sg22
I0
sg23
I0
sg24
I0
sbssg25
S'\x0e\xa6\x19V\xf0\xf3;\xa2\x8d \xd8i\xb7*D\x87'
p1808
ssS'user_system_models_roles_tests_test_role_model'
p1809
(dp1810
g6
(dp1811
g8
S'user_system_models_roles_tests_test_role_model.html'
p1812
sg10
S'user_system/models/roles/tests/test_role_model'
p1813
sg12
g13
(g14
g15
NtRp1814
(dp1815
g18
I1
sg19
I0
sg20
I20
sg21
I0
sg22
I0
sg23
I0
sg24
I0
sbssg25
S'\xef\xba\x956\x96\xbc:\xa0\x0f\x00\x84\x80\x0elh\xed'
p1816
ssS'user_system_views_signups_verify_email_view'
p1817
(dp1818
g6
(dp1819
g8
S'user_system_views_signups_verify_email_view.html'
p1820
sg10
S'user_system/views/signups/verify_email_view'
p1821
sg12
g13
(g14
g15
NtRp1822
(dp1823
g18
I1
sg19
I6
sg20
I26
sg21
I0
sg22
I0
sg23
I0
sg24
I0
sbssg25
S"B+;\xbf\xb1A\x1f\n\x94\x0e\xeb\xd0\xf1Y'l"
p1824
ssS'user_system_views_logins_email_login_view'
p1825
(dp1826
g6
(dp1827
g8
S'user_system_views_logins_email_login_view.html'
p1828
sg10
S'user_system/views/logins/email_login_view'
p1829
sg12
g13
(g14
g15
NtRp1830
(dp1831
g18
I1
sg19
I8
sg20
I35
sg21
I0
sg22
I0
sg23
I0
sg24
I0
sbssg25
S'\x9e\xe3\x8e\xf9o\x8aYC\xa2\xcb\xe7\xbd\x94\xe1O\x1a'
p1832
ssS'user_system_serializers_users_list_user_serializer'
p1833
(dp1834
g6
(dp1835
g8
S'user_system_serializers_users_list_user_serializer.html'
p1836
sg10
S'user_system/serializers/users/list_user_serializer'
p1837
sg12
g13
(g14
g15
NtRp1838
(dp1839
g18
I1
sg19
I0
sg20
I18
sg21
I0
sg22
I0
sg23
I0
sg24
I0
sbssg25
S'\xdfK>6\xe0\x8d\xcd\xd4/O\xef\xaa\xd0\x9efX'
p1840
ssS'create_views_question_datasets_question_dataset_view'
p1841
(dp1842
g6
(dp1843
g8
S'create_views_question_datasets_question_dataset_view.html'
p1844
sg10
S'create/views/question_datasets/question_dataset_view'
p1845
sg12
g13
(g14
g15
NtRp1846
(dp1847
g18
I1
sg19
I4
sg20
I20
sg21
I0
sg22
I0
sg23
I5
sg24
I4
sbssg25
S'\x01\xfb\xf2\x86m\xd4\xf9\xc3\xe6\xb6\x11\x96u;\x1ez'
p1848
ssS'create_views_quests_tests_test_remove_question_template_view'
p1849
(dp1850
g6
(dp1851
g8
S'create_views_quests_tests_test_remove_question_template_view.html'
p1852
sg10
S'create/views/quests/tests/test_remove_question_template_view'
p1853
sg12
g13
(g14
g15
NtRp1854
(dp1855
g18
I1
sg19
I0
sg20
I0
sg21
I0
sg22
I0
sg23
I0
sg24
I0
sbssg25
S'\x19g\xdfM\x1a\x019\xaf\x1baIeR\xe5u\xa7'
p1856
ssS'user_system_serializers_users_user_profile_update_request_serializer'
p1857
(dp1858
g6
(dp1859
g8
S'user_system_serializers_users_user_profile_update_request_serializer.html'
p1860
sg10
S'user_system/serializers/users/user_profile_update_request_serializer'
p1861
sg12
g13
(g14
g15
NtRp1862
(dp1863
g18
I1
sg19
I0
sg20
I20
sg21
I0
sg22
I0
sg23
I2
sg24
I0
sbssg25
S'\x19EO\xe6\xb5\xdbWY\xb8\xd9\x1cP&\xe3\xc4\xca'
p1864
ssS'create_views_books_tests_test_get_books_list_view'
p1865
(dp1866
g6
(dp1867
g8
S'create_views_books_tests_test_get_books_list_view.html'
p1868
sg10
S'create/views/books/tests/test_get_books_list_view'
p1869
sg12
g13
(g14
g15
NtRp1870
(dp1871
g18
I1
sg19
I0
sg20
I21
sg21
I0
sg22
I0
sg23
I0
sg24
I0
sbssg25
S'\x16\x8f\xf1\x81>\x0f\xb4S\x19\xff\xcd\xc1Y\xe9;\x98'
p1872
ssS'user_system_serializers_schools_classroom_serializer'
p1873
(dp1874
g6
(dp1875
g8
S'user_system_serializers_schools_classroom_serializer.html'
p1876
sg10
S'user_system/serializers/schools/classroom_serializer'
p1877
sg12
g13
(g14
g15
NtRp1878
(dp1879
g18
I1
sg19
I0
sg20
I13
sg21
I0
sg22
I0
sg23
I2
sg24
I0
sbssg25
S'\\\x02 #\xfc|[\xb1g\x7f\x83+\xb6\xaa\x13\x01'
p1880
ssS'create_models_daily_quest_copies_tests___init__'
p1881
(dp1882
g6
(dp1883
g8
S'create_models_daily_quest_copies_tests___init__.html'
p1884
sg10
S'create/models/daily_quest_copies/tests/__init__'
p1885
sg12
g13
(g14
g15
NtRp1886
(dp1887
g18
I1
sg19
I0
sg20
I0
sg21
I0
sg22
I0
sg23
I0
sg24
I0
sbssg25
S'\x19g\xdfM\x1a\x019\xaf\x1baIeR\xe5u\xa7'
p1888
ssS'api_logging_views_summary_user_activity_summary_view'
p1889
(dp1890
g6
(dp1891
g8
S'api_logging_views_summary_user_activity_summary_view.html'
p1892
sg10
S'api_logging/views/summary/user_activity_summary_view'
p1893
sg12
g13
(g14
g15
NtRp1894
(dp1895
g18
I1
sg19
I8
sg20
I27
sg21
I0
sg22
I0
sg23
I13
sg24
I8
sbssg25
S'\x99\xfc\\\x0e\x10\x840(\x94\xd3(k\x9f\xb4\xd9M'
p1896
ssS'create_urls'
p1897
(dp1898
g6
(dp1899
g8
S'create_urls.html'
p1900
sg10
S'create/urls'
p1901
sg12
g13
(g14
g15
NtRp1902
(dp1903
g18
I1
sg19
I0
sg20
I22
sg21
I0
sg22
I0
sg23
I0
sg24
I0
sbssg25
S"k/4\x8e_h\xf3)p'\x8e\x80v\x1e\xbdg"
p1904
ssS'create_views_tags_tests_test_get_tags_list_view'
p1905
(dp1906
g6
(dp1907
g8
S'create_views_tags_tests_test_get_tags_list_view.html'
p1908
sg10
S'create/views/tags/tests/test_get_tags_list_view'
p1909
sg12
g13
(g14
g15
NtRp1910
(dp1911
g18
I1
sg19
I0
sg20
I21
sg21
I0
sg22
I0
sg23
I0
sg24
I0
sbssg25
S'F\xf6yk?\xb2\xc12\x93\x8b\xe6Bx\xa09\x89'
p1912
ssS'create_serializers_tags_tag_serializer'
p1913
(dp1914
g6
(dp1915
g8
S'create_serializers_tags_tag_serializer.html'
p1916
sg10
S'create/serializers/tags/tag_serializer'
p1917
sg12
g13
(g14
g15
NtRp1918
(dp1919
g18
I1
sg19
I0
sg20
I38
sg21
I0
sg22
I0
sg23
I0
sg24
I0
sbssg25
S'\xf7\xa8n\xd6\xf1\xe1\xf8\xaedX\x8e\xfe\ry\xd4\xc3'
p1920
ssS'user_system_models_users_teacher_mapping_model'
p1921
(dp1922
g6
(dp1923
g8
S'user_system_models_users_teacher_mapping_model.html'
p1924
sg10
S'user_system/models/users/teacher_mapping_model'
p1925
sg12
g13
(g14
g15
NtRp1926
(dp1927
g18
I1
sg19
I4
sg20
I26
sg21
I0
sg22
I0
sg23
I0
sg24
I0
sbssg25
S'\xbe\xceOL\xe0\x1eu?\xb0\x7f\x95\x03;\xe1\x12>'
p1928
ssS'create_models_questions___init__'
p1929
(dp1930
g6
(dp1931
g8
S'create_models_questions___init__.html'
p1932
sg10
S'create/models/questions/__init__'
p1933
sg12
g13
(g14
g15
NtRp1934
(dp1935
g18
I1
sg19
I0
sg20
I6
sg21
I0
sg22
I0
sg23
I0
sg24
I0
sbssg25
S'\xd4\xfd\xae\xf0N\xdd-\x07$U\xac\xf1\xc2\x0f\xa5H'
p1936
ssS'create_models_tags_tag_type_model'
p1937
(dp1938
g6
(dp1939
g8
S'create_models_tags_tag_type_model.html'
p1940
sg10
S'create/models/tags/tag_type_model'
p1941
sg12
g13
(g14
g15
NtRp1942
(dp1943
g18
I1
sg19
I0
sg20
I15
sg21
I0
sg22
I0
sg23
I0
sg24
I0
sbssg25
S'\x89\x07\x8e\xc7^0\x96Do\xbf\xa5\xca5\xe4\x92\xeb'
p1944
ssS'create_serializers___init__'
p1945
(dp1946
g6
(dp1947
g8
S'create_serializers___init__.html'
p1948
sg10
S'create/serializers/__init__'
p1949
sg12
g13
(g14
g15
NtRp1950
(dp1951
g18
I1
sg19
I0
sg20
I6
sg21
I0
sg22
I0
sg23
I0
sg24
I0
sbssg25
S'\x97\xc3"\xfe\x83V\xc1w\xa6r\x02s qES'
p1952
ssS'create_serializers_books_book_history_serializer'
p1953
(dp1954
g6
(dp1955
g8
S'create_serializers_books_book_history_serializer.html'
p1956
sg10
S'create/serializers/books/book_history_serializer'
p1957
sg12
g13
(g14
g15
NtRp1958
(dp1959
g18
I1
sg19
I0
sg20
I14
sg21
I0
sg22
I0
sg23
I0
sg24
I0
sbssg25
S'|g\x1e1\xcdq*ob~B\xca\xd92\x8b\x01'
p1960
ssS'teach_views_daily_quest_templates___init__'
p1961
(dp1962
g6
(dp1963
g8
S'teach_views_daily_quest_templates___init__.html'
p1964
sg10
S'teach/views/daily_quest_templates/__init__'
p1965
sg12
g13
(g14
g15
NtRp1966
(dp1967
g18
I1
sg19
I0
sg20
I1
sg21
I0
sg22
I0
sg23
I0
sg24
I0
sbssg25
S'\xc1b\x1f\x95\xabR`C\xe80\xb9tNC\r3'
p1968
ssS'teach___init__'
p1969
(dp1970
g6
(dp1971
g8
S'teach___init__.html'
p1972
sg10
S'teach/__init__'
p1973
sg12
g13
(g14
g15
NtRp1974
(dp1975
g18
I1
sg19
I0
sg20
I0
sg21
I0
sg22
I0
sg23
I0
sg24
I0
sbssg25
S'\x19g\xdfM\x1a\x019\xaf\x1baIeR\xe5u\xa7'
p1976
ssS'user_system_views_users___init__'
p1977
(dp1978
g6
(dp1979
g8
S'user_system_views_users___init__.html'
p1980
sg10
S'user_system/views/users/__init__'
p1981
sg12
g13
(g14
g15
NtRp1982
(dp1983
g18
I1
sg19
I0
sg20
I7
sg21
I0
sg22
I0
sg23
I0
sg24
I0
sbssg25
S']\x15\xfe\xc7\xefw\x97\xcc\x87v\xa2Z\x9b\xb1\x91\xaf'
p1984
ssS'teach_serializers_campaigns___init__'
p1985
(dp1986
g6
(dp1987
g8
S'teach_serializers_campaigns___init__.html'
p1988
sg10
S'teach/serializers/campaigns/__init__'
p1989
sg12
g13
(g14
g15
NtRp1990
(dp1991
g18
I1
sg19
I0
sg20
I1
sg21
I0
sg22
I0
sg23
I0
sg24
I0
sbssg25
S'\x01\xc4\xca\xda\xe9\x9e\x9d%\xea\xa8u\x92u\xc0Yo'
p1992
ssS'user_system_serializers_users_user_streak_history_serializer'
p1993
(dp1994
g6
(dp1995
g8
S'user_system_serializers_users_user_streak_history_serializer.html'
p1996
sg10
S'user_system/serializers/users/user_streak_history_serializer'
p1997
sg12
g13
(g14
g15
NtRp1998
(dp1999
g18
I1
sg19
I0
sg20
I7
sg21
I0
sg22
I0
sg23
I0
sg24
I0
sbssg25
S'\xc8\x05\x87\xf4N\xc27/(.\xaf\xf4NliE'
p2000
ssS'flipped_helpers_tests_test_email_helper'
p2001
(dp2002
g6
(dp2003
g8
S'flipped_helpers_tests_test_email_helper.html'
p2004
sg10
S'flipped/helpers/tests/test_email_helper'
p2005
sg12
g13
(g14
g15
NtRp2006
(dp2007
g18
I1
sg19
I0
sg20
I13
sg21
I0
sg22
I0
sg23
I0
sg24
I0
sbssg25
S'\x13\xee\xcb^E:3A\xff)v\x7f\xd3\xa7\xa2\xaa'
p2008
ssS'user_system_serializers_users___init__'
p2009
(dp2010
g6
(dp2011
g8
S'user_system_serializers_users___init__.html'
p2012
sg10
S'user_system/serializers/users/__init__'
p2013
sg12
g13
(g14
g15
NtRp2014
(dp2015
g18
I1
sg19
I0
sg20
I8
sg21
I0
sg22
I0
sg23
I0
sg24
I0
sbssg25
S'\xb6(Qu\xed\x1eu\xb3\x15,\xae\x0c\xe6>\xe2\x80'
p2016
ssS'user_system_models_schools_tests_test_semester_model'
p2017
(dp2018
g6
(dp2019
g8
S'user_system_models_schools_tests_test_semester_model.html'
p2020
sg10
S'user_system/models/schools/tests/test_semester_model'
p2021
sg12
g13
(g14
g15
NtRp2022
(dp2023
g18
I1
sg19
I0
sg20
I29
sg21
I0
sg22
I0
sg23
I0
sg24
I0
sbssg25
S'\xe9\xd9\xdc\\\xb9\x93\xb1\x93Q\x02\xe9\xb7Y,\xa6w'
p2024
ssS'create_views_quests_tests___init__'
p2025
(dp2026
g6
(dp2027
g8
S'create_views_quests_tests___init__.html'
p2028
sg10
S'create/views/quests/tests/__init__'
p2029
sg12
g13
(g14
g15
NtRp2030
(dp2031
g18
I1
sg19
I0
sg20
I0
sg21
I0
sg22
I0
sg23
I0
sg24
I0
sbssg25
S'\x19g\xdfM\x1a\x019\xaf\x1baIeR\xe5u\xa7'
p2032
ssS'user_system_serializers_schools_course_serializer'
p2033
(dp2034
g6
(dp2035
g8
S'user_system_serializers_schools_course_serializer.html'
p2036
sg10
S'user_system/serializers/schools/course_serializer'
p2037
sg12
g13
(g14
g15
NtRp2038
(dp2039
g18
I1
sg19
I0
sg20
I16
sg21
I0
sg22
I0
sg23
I2
sg24
I0
sbssg25
S'\xb0\xa8O3\x01\xce\xfe3\x12\x94\xc0\xc4\xe0@\xafJ'
p2040
ssS'user_system_views_schools_course_view'
p2041
(dp2042
g6
(dp2043
g8
S'user_system_views_schools_course_view.html'
p2044
sg10
S'user_system/views/schools/course_view'
p2045
sg12
g13
(g14
g15
NtRp2046
(dp2047
g18
I1
sg19
I0
sg20
I17
sg21
I0
sg22
I0
sg23
I0
sg24
I0
sbssg25
S'\xd7\xc8\x06z,\xe1\xceN\xa2.OL]\xcd\xb1\x83'
p2048
ssS'user_system_views_users_tests_test_delete_user_view'
p2049
(dp2050
g6
(dp2051
g8
S'user_system_views_users_tests_test_delete_user_view.html'
p2052
sg10
S'user_system/views/users/tests/test_delete_user_view'
p2053
sg12
g13
(g14
g15
NtRp2054
(dp2055
g18
I1
sg19
I0
sg20
I22
sg21
I0
sg22
I0
sg23
I0
sg24
I0
sbssg25
S'\xe4S$\xa1t\xc6\xbe\xc7\xb9^Y\x05{\x92KQ'
p2056
ssS'learn_models_daily_quests_daily_quest_question_history_model'
p2057
(dp2058
g6
(dp2059
g8
S'learn_models_daily_quests_daily_quest_question_history_model.html'
p2060
sg10
S'learn/models/daily_quests/daily_quest_question_history_model'
p2061
sg12
g13
(g14
g15
NtRp2062
(dp2063
g18
I1
sg19
I8
sg20
I74
sg21
I0
sg22
I1
sg23
I5
sg24
I3
sbssg25
S'\xae\x13\x1b\xcf\xd8xv\xf1\xef\x18\xd4\xe8\xc9fX\xa5'
p2064
ssS'user_system_models_users_user_profile_update_request_model'
p2065
(dp2066
g6
(dp2067
g8
S'user_system_models_users_user_profile_update_request_model.html'
p2068
sg10
S'user_system/models/users/user_profile_update_request_model'
p2069
sg12
g13
(g14
g15
NtRp2070
(dp2071
g18
I1
sg19
I0
sg20
I58
sg21
I0
sg22
I0
sg23
I0
sg24
I0
sbssg25
S'\xc8t\x16>\xb9"\xff\x93\xe3\x00\xa5z0[\xacM'
p2072
ssS'create_models_tags_tag_history_model'
p2073
(dp2074
g6
(dp2075
g8
S'create_models_tags_tag_history_model.html'
p2076
sg10
S'create/models/tags/tag_history_model'
p2077
sg12
g13
(g14
g15
NtRp2078
(dp2079
g18
I1
sg19
I0
sg20
I37
sg21
I0
sg22
I0
sg23
I0
sg24
I0
sbssg25
S'\xae\xc8g\xc1\xf5l<\x1f\x9c\xaf\x17\xf98\r\xa1\xe2'
p2080
ssS'create_models_questions_tests_test_question_template_model'
p2081
(dp2082
g6
(dp2083
g8
S'create_models_questions_tests_test_question_template_model.html'
p2084
sg10
S'create/models/questions/tests/test_question_template_model'
p2085
sg12
g13
(g14
g15
NtRp2086
(dp2087
g18
I1
sg19
I8
sg20
I74
sg21
I0
sg22
I0
sg23
I0
sg24
I0
sbssg25
S"~\xca\x9c'\x89\x11\x82V\xb3v\x0c4]\x9c\xce4"
p2088
ssS'user_system_models_schools_course_model'
p2089
(dp2090
g6
(dp2091
g8
S'user_system_models_schools_course_model.html'
p2092
sg10
S'user_system/models/schools/course_model'
p2093
sg12
g13
(g14
g15
NtRp2094
(dp2095
g18
I1
sg19
I6
sg20
I37
sg21
I0
sg22
I0
sg23
I0
sg24
I0
sbssg25
S']\xfb\xca\\\xbf\x86n\xc3fj\xc2\x1ej\\q\x14'
p2096
ssS'create_models_daily_quest_copies_tests_test_daily_quest_copy_model'
p2097
(dp2098
g6
(dp2099
g8
S'create_models_daily_quest_copies_tests_test_daily_quest_copy_model.html'
p2100
sg10
S'create/models/daily_quest_copies/tests/test_daily_quest_copy_model'
p2101
sg12
g13
(g14
g15
NtRp2102
(dp2103
g18
I1
sg19
I4
sg20
I45
sg21
I0
sg22
I0
sg23
I0
sg24
I0
sbssg25
S'\xcd\xeeU\x8a\xd7\x95\x9e5E\xd0\xaf\xd07\x80\x85\xe0'
p2104
ssS'privilege_views_privileges___init__'
p2105
(dp2106
g6
(dp2107
g8
S'privilege_views_privileges___init__.html'
p2108
sg10
S'privilege/views/privileges/__init__'
p2109
sg12
g13
(g14
g15
NtRp2110
(dp2111
g18
I1
sg19
I0
sg20
I1
sg21
I0
sg22
I0
sg23
I0
sg24
I0
sbssg25
S']\x14S\xdf\xb4:Tx\xb9\x98\x89\xe7\x01%DZ'
p2112
ssS'teach_models_teacher_chapters_teacher_chapter_model'
p2113
(dp2114
g6
(dp2115
g8
S'teach_models_teacher_chapters_teacher_chapter_model.html'
p2116
sg10
S'teach/models/teacher_chapters/teacher_chapter_model'
p2117
sg12
g13
(g14
g15
NtRp2118
(dp2119
g18
I1
sg19
I0
sg20
I23
sg21
I0
sg22
I0
sg23
I0
sg24
I0
sbssg25
S'\x97T&\xd0\x81q\xc2M\xc3\x03\x01U\xf5S!h'
p2120
ssS'create_models_questions_question_template_model'
p2121
(dp2122
g6
(dp2123
g8
S'create_models_questions_question_template_model.html'
p2124
sg10
S'create/models/questions/question_template_model'
p2125
sg12
g13
(g14
g15
NtRp2126
(dp2127
g18
I1
sg19
I0
sg20
I40
sg21
I0
sg22
I0
sg23
I0
sg24
I0
sbssg25
S'\x845gz\x1d\x17\x1dv\x81\n\x96G\x99pE\\'
p2128
ssS'create_views_questions_tests_test_get_question_by_id_view'
p2129
(dp2130
g6
(dp2131
g8
S'create_views_questions_tests_test_get_question_by_id_view.html'
p2132
sg10
S'create/views/questions/tests/test_get_question_by_id_view'
p2133
sg12
g13
(g14
g15
NtRp2134
(dp2135
g18
I1
sg19
I0
sg20
I24
sg21
I0
sg22
I0
sg23
I0
sg24
I0
sbssg25
S'\xa7[\x91\xa9\xa6\xb4\xbd&n$O^O\xec\xf2X'
p2136
ssS'teach_models_teacher_tags_tests___init__'
p2137
(dp2138
g6
(dp2139
g8
S'teach_models_teacher_tags_tests___init__.html'
p2140
sg10
S'teach/models/teacher_tags/tests/__init__'
p2141
sg12
g13
(g14
g15
NtRp2142
(dp2143
g18
I1
sg19
I0
sg20
I0
sg21
I0
sg22
I0
sg23
I0
sg24
I0
sbssg25
S'\x19g\xdfM\x1a\x019\xaf\x1baIeR\xe5u\xa7'
p2144
ssS'create_serializers_quests___init__'
p2145
(dp2146
g6
(dp2147
g8
S'create_serializers_quests___init__.html'
p2148
sg10
S'create/serializers/quests/__init__'
p2149
sg12
g13
(g14
g15
NtRp2150
(dp2151
g18
I1
sg19
I0
sg20
I2
sg21
I0
sg22
I0
sg23
I0
sg24
I0
sbssg25
S'\xc0,Fh\xaf\xa0(\x8f\xde\x02{\x88!\x04\x7f\xb6'
p2152
ssS'api_logging_serializers_LoggingSerializer'
p2153
(dp2154
g6
(dp2155
g8
S'api_logging_serializers_LoggingSerializer.html'
p2156
sg10
S'api_logging/serializers/LoggingSerializer'
p2157
sg12
g13
(g14
g15
NtRp2158
(dp2159
g18
I1
sg19
I0
sg20
I12
sg21
I0
sg22
I0
sg23
I0
sg24
I0
sbssg25
S'1\xdb}\x8eJ\x1a\xe6@D\xcc}\xf4\x11(\x11\xb0'
p2160
ssS'create_views_books_tests_test_remove_subchapter_view'
p2161
(dp2162
g6
(dp2163
g8
S'create_views_books_tests_test_remove_subchapter_view.html'
p2164
sg10
S'create/views/books/tests/test_remove_subchapter_view'
p2165
sg12
g13
(g14
g15
NtRp2166
(dp2167
g18
I1
sg19
I0
sg20
I44
sg21
I0
sg22
I0
sg23
I0
sg24
I0
sbssg25
S'\x0b\xddi\xaa_d\x8c\xf3b\xa2\x12\xbc\xce\xa5\xbf\x8b'
p2168
ssS'create_models_quests_tests_test_quest_history_model'
p2169
(dp2170
g6
(dp2171
g8
S'create_models_quests_tests_test_quest_history_model.html'
p2172
sg10
S'create/models/quests/tests/test_quest_history_model'
p2173
sg12
g13
(g14
g15
NtRp2174
(dp2175
g18
I1
sg19
I8
sg20
I79
sg21
I0
sg22
I0
sg23
I0
sg24
I0
sbssg25
S'##\xeax]g;Ka\xb3\xc0Py,oE'
p2176
ssS'learn_models_points_point_history_model'
p2177
(dp2178
g6
(dp2179
g8
S'learn_models_points_point_history_model.html'
p2180
sg10
S'learn/models/points/point_history_model'
p2181
sg12
g13
(g14
g15
NtRp2182
(dp2183
g18
I1
sg19
I0
sg20
I16
sg21
I0
sg22
I0
sg23
I0
sg24
I0
sbssg25
S'\xa8\xbaH\x19\x11\xbeT\xe2N=\xfe\xed\x9d\xd4\x83\x1e'
p2184
ssS'user_system___init__'
p2185
(dp2186
g6
(dp2187
g8
S'user_system___init__.html'
p2188
sg10
S'user_system/__init__'
p2189
sg12
g13
(g14
g15
NtRp2190
(dp2191
g18
I1
sg19
I0
sg20
I0
sg21
I0
sg22
I0
sg23
I0
sg24
I0
sbssg25
S'\x19g\xdfM\x1a\x019\xaf\x1baIeR\xe5u\xa7'
p2192
ssS'create_models_question_datasets_question_dataset_model'
p2193
(dp2194
g6
(dp2195
g8
S'create_models_question_datasets_question_dataset_model.html'
p2196
sg10
S'create/models/question_datasets/question_dataset_model'
p2197
sg12
g13
(g14
g15
NtRp2198
(dp2199
g18
I1
sg19
I0
sg20
I25
sg21
I0
sg22
I0
sg23
I0
sg24
I0
sbssg25
S'\x9e\x8d\xc6\xe6\xe4\x9f#\xfdc\xc9q\r\x17Y\x8e\xb1'
p2200
ssS'create_views_question_datasets___init__'
p2201
(dp2202
g6
(dp2203
g8
S'create_views_question_datasets___init__.html'
p2204
sg10
S'create/views/question_datasets/__init__'
p2205
sg12
g13
(g14
g15
NtRp2206
(dp2207
g18
I1
sg19
I0
sg20
I1
sg21
I0
sg22
I0
sg23
I0
sg24
I0
sbssg25
S'\x87x\xd1\xbe\x15\xd3\xbc\x99\x86\x08\xf8\x06S\xcf\x00\x87'
p2208
ssS'teach_serializers_daily_quest_templates___init__'
p2209
(dp2210
g6
(dp2211
g8
S'teach_serializers_daily_quest_templates___init__.html'
p2212
sg10
S'teach/serializers/daily_quest_templates/__init__'
p2213
sg12
g13
(g14
g15
NtRp2214
(dp2215
g18
I1
sg19
I0
sg20
I1
sg21
I0
sg22
I0
sg23
I0
sg24
I0
sbssg25
S'\xa2\xd34\x1b\xe2+\x16\xa9un\x8f\xa5\xe6\xc4\\p'
p2216
ssS'learn_models_daily_quests_daily_quest_history_date_group_model'
p2217
(dp2218
g6
(dp2219
g8
S'learn_models_daily_quests_daily_quest_history_date_group_model.html'
p2220
sg10
S'learn/models/daily_quests/daily_quest_history_date_group_model'
p2221
sg12
g13
(g14
g15
NtRp2222
(dp2223
g18
I1
sg19
I0
sg20
I16
sg21
I0
sg22
I0
sg23
I0
sg24
I0
sbssg25
S'\xb5Y\x104a\x19\x18|M\xdd\xbe`bHf\x13'
p2224
ssS'flipped_helpers_email_helper'
p2225
(dp2226
g6
(dp2227
g8
S'flipped_helpers_email_helper.html'
p2228
sg10
S'flipped/helpers/email_helper'
p2229
sg12
g13
(g14
g15
NtRp2230
(dp2231
g18
I1
sg19
I2
sg20
I9
sg21
I0
sg22
I0
sg23
I0
sg24
I0
sbssg25
S"\xeal\t\x03)\xcc\xc4\x0b\r\xe2&\x83a'I\xad"
p2232
ssS'flipped_urls'
p2233
(dp2234
g6
(dp2235
g8
S'flipped_urls.html'
p2236
sg10
S'flipped/urls'
p2237
sg12
g13
(g14
g15
NtRp2238
(dp2239
g18
I1
sg19
I0
sg20
I9
sg21
I0
sg22
I0
sg23
I0
sg24
I0
sbssg25
S'\xcbN{\xd0A\x0b\xa0\xc3\xd4\x8cr\xe3\x1e\x12\x1e\xb0'
p2240
ssS'api_logging_views_user_activities_user_agent_view'
p2241
(dp2242
g6
(dp2243
g8
S'api_logging_views_user_activities_user_agent_view.html'
p2244
sg10
S'api_logging/views/user_activities/user_agent_view'
p2245
sg12
g13
(g14
g15
NtRp2246
(dp2247
g18
I1
sg19
I26
sg20
I68
sg21
I0
sg22
I0
sg23
I50
sg24
I26
sbssg25
S'\xc4\xc5\xa3P\xc7\xa8\xdc\x1b#\x14\xe4\xe7o\x17\xba\x82'
p2248
ssS'teach_views_summaries_daily_quest_summary_view'
p2249
(dp2250
g6
(dp2251
g8
S'teach_views_summaries_daily_quest_summary_view.html'
p2252
sg10
S'teach/views/summaries/daily_quest_summary_view'
p2253
sg12
g13
(g14
g15
NtRp2254
(dp2255
g18
I1
sg19
I28
sg20
I80
sg21
I0
sg22
I0
sg23
I59
sg24
I28
sbssg25
S'\x9fe\xf9\x1c\x8a\xe2\xf4dr\xd6i\xd4\x89\xae\x1b\xf6'
p2256
ssS'user_system_views_users_student_profile_request_view'
p2257
(dp2258
g6
(dp2259
g8
S'user_system_views_users_student_profile_request_view.html'
p2260
sg10
S'user_system/views/users/student_profile_request_view'
p2261
sg12
g13
(g14
g15
NtRp2262
(dp2263
g18
I1
sg19
I0
sg20
I14
sg21
I0
sg22
I0
sg23
I0
sg24
I0
sbssg25
S'\x87:\xd0\xef\x04\xf3-q\r\xe7\xec \xceS\xee<'
p2264
ssS'user_system_views_logins_tests___init__'
p2265
(dp2266
g6
(dp2267
g8
S'user_system_views_logins_tests___init__.html'
p2268
sg10
S'user_system/views/logins/tests/__init__'
p2269
sg12
g13
(g14
g15
NtRp2270
(dp2271
g18
I1
sg19
I0
sg20
I1
sg21
I0
sg22
I0
sg23
I0
sg24
I0
sbssg25
S'\xbc\xd6\xeb\xb3\xba\xcaz\xf7{\xd4B\xb5}l\xdf\x96'
p2272
ssS'api_logging_views_modal_loggings___init__'
p2273
(dp2274
g6
(dp2275
g8
S'api_logging_views_modal_loggings___init__.html'
p2276
sg10
S'api_logging/views/modal_loggings/__init__'
p2277
sg12
g13
(g14
g15
NtRp2278
(dp2279
g18
I1
sg19
I0
sg20
I1
sg21
I0
sg22
I0
sg23
I0
sg24
I0
sbssg25
S'\xf1\x0fWK\x0c\x9eD\xe8\x12\xaf\x93\xfa\xd7q\xa8\x91'
p2280
ssS'user_system_views_users_tests_test_get_users_by_signup_type_view'
p2281
(dp2282
g6
(dp2283
g8
S'user_system_views_users_tests_test_get_users_by_signup_type_view.html'
p2284
sg10
S'user_system/views/users/tests/test_get_users_by_signup_type_view'
p2285
sg12
g13
(g14
g15
NtRp2286
(dp2287
g18
I1
sg19
I0
sg20
I44
sg21
I0
sg22
I0
sg23
I0
sg24
I0
sbssg25
S'T/\xf9\xf8\x94\xd6Lm\x89o\xb6\x99/Z\xc1]'
p2288
ssS'user_system_serializers_users_user_serializer'
p2289
(dp2290
g6
(dp2291
g8
S'user_system_serializers_users_user_serializer.html'
p2292
sg10
S'user_system/serializers/users/user_serializer'
p2293
sg12
g13
(g14
g15
NtRp2294
(dp2295
g18
I1
sg19
I8
sg20
I46
sg21
I0
sg22
I2
sg23
I8
sg24
I6
sbssg25
S'\xb2\xee\xa4\xa6\x8b\xe1\xe1\xce\xaa\xe6\xdd\xbd\xb3\xf2\x81/'
p2296
ssS'create_serializers_daily_quest_copies_daily_quest_copy_serializer'
p2297
(dp2298
g6
(dp2299
g8
S'create_serializers_daily_quest_copies_daily_quest_copy_serializer.html'
p2300
sg10
S'create/serializers/daily_quest_copies/daily_quest_copy_serializer'
p2301
sg12
g13
(g14
g15
NtRp2302
(dp2303
g18
I1
sg19
I0
sg20
I18
sg21
I0
sg22
I0
sg23
I3
sg24
I0
sbssg25
S'\xb6\xc6tAeANu\xae\n4T\xc1.\xe2\xfd'
p2304
ssS'create_models_books_tests_test_book_history_model'
p2305
(dp2306
g6
(dp2307
g8
S'create_models_books_tests_test_book_history_model.html'
p2308
sg10
S'create/models/books/tests/test_book_history_model'
p2309
sg12
g13
(g14
g15
NtRp2310
(dp2311
g18
I1
sg19
I0
sg20
I65
sg21
I0
sg22
I0
sg23
I0
sg24
I0
sbssg25
S'\xedQI\xf5\x17. 8I\x938\xca4\x05=\xf3'
p2312
ssS'user_system_managers_tests_test_user_manager'
p2313
(dp2314
g6
(dp2315
g8
S'user_system_managers_tests_test_user_manager.html'
p2316
sg10
S'user_system/managers/tests/test_user_manager'
p2317
sg12
g13
(g14
g15
NtRp2318
(dp2319
g18
I1
sg19
I22
sg20
I99
sg21
I0
sg22
I1
sg23
I0
sg24
I1
sbssg25
S'ns\xdd\x8c\x1c\x1a\x12Q5\x15\x132\x836o\xe1'
p2320
ssS'create_views_quests_tests_test_remove_question_view'
p2321
(dp2322
g6
(dp2323
g8
S'create_views_quests_tests_test_remove_question_view.html'
p2324
sg10
S'create/views/quests/tests/test_remove_question_view'
p2325
sg12
g13
(g14
g15
NtRp2326
(dp2327
g18
I1
sg19
I0
sg20
I0
sg21
I0
sg22
I0
sg23
I0
sg24
I0
sbssg25
S'\x19g\xdfM\x1a\x019\xaf\x1baIeR\xe5u\xa7'
p2328
ssS'user_system_managers___init__'
p2329
(dp2330
g6
(dp2331
g8
S'user_system_managers___init__.html'
p2332
sg10
S'user_system/managers/__init__'
p2333
sg12
g13
(g14
g15
NtRp2334
(dp2335
g18
I1
sg19
I0
sg20
I2
sg21
I0
sg22
I0
sg23
I0
sg24
I0
sbssg25
S'\xa5\xc9\x8d9\xe4\xb5\xce\xe3R\xccW\x976\xcdI\xa4'
p2336
ssS'teach_models_campaigns_tests_test_campaign_model'
p2337
(dp2338
g6
(dp2339
g8
S'teach_models_campaigns_tests_test_campaign_model.html'
p2340
sg10
S'teach/models/campaigns/tests/test_campaign_model'
p2341
sg12
g13
(g14
g15
NtRp2342
(dp2343
g18
I1
sg19
I0
sg20
I43
sg21
I0
sg22
I0
sg23
I0
sg24
I0
sbssg25
S"\x1b\xbbi{\xe8\xa9o\xd3w\xfb'\x1e\xca\x1b\xd9\xc7"
p2344
ssS'api_logging_views_modal_loggings_modal_user_history_view'
p2345
(dp2346
g6
(dp2347
g8
S'api_logging_views_modal_loggings_modal_user_history_view.html'
p2348
sg10
S'api_logging/views/modal_loggings/modal_user_history_view'
p2349
sg12
g13
(g14
g15
NtRp2350
(dp2351
g18
I1
sg19
I0
sg20
I12
sg21
I0
sg22
I0
sg23
I0
sg24
I0
sbssg25
S'\xe0g\x1c\xea/\xf3m\xa8\x9d\x1f7\xba\x82w\x88\x9c'
p2352
ssS'user_system_views_logins_tests_test_email_login_view'
p2353
(dp2354
g6
(dp2355
g8
S'user_system_views_logins_tests_test_email_login_view.html'
p2356
sg10
S'user_system/views/logins/tests/test_email_login_view'
p2357
sg12
g13
(g14
g15
NtRp2358
(dp2359
g18
I1
sg19
I0
sg20
I61
sg21
I0
sg22
I0
sg23
I0
sg24
I0
sbssg25
S'\x926\xe8\xcdL\xf3U\xc1C\x1b\x0f\xaf\xf0c\x9b\xd0'
p2360
ssS'create_views_books_book_chapter_view'
p2361
(dp2362
g6
(dp2363
g8
S'create_views_books_book_chapter_view.html'
p2364
sg10
S'create/views/books/book_chapter_view'
p2365
sg12
g13
(g14
g15
NtRp2366
(dp2367
g18
I1
sg19
I12
sg20
I44
sg21
I0
sg22
I0
sg23
I22
sg24
I12
sbssg25
S'\x0b3\xd8 \xe1\x08#79\x0c\x7f\x1f6\xad0\xe9'
p2368
ssS'create_views___init__'
p2369
(dp2370
g6
(dp2371
g8
S'create_views___init__.html'
p2372
sg10
S'create/views/__init__'
p2373
sg12
g13
(g14
g15
NtRp2374
(dp2375
g18
I1
sg19
I0
sg20
I7
sg21
I0
sg22
I0
sg23
I0
sg24
I0
sbssg25
S'\x8f\x98\x9b$~\xde\xc2\xfc\x97/\x14^\xe8\xf8\x10M'
p2376
ssS'api_logging_serializers_user_activities_user_agent_serializer'
p2377
(dp2378
g6
(dp2379
g8
S'api_logging_serializers_user_activities_user_agent_serializer.html'
p2380
sg10
S'api_logging/serializers/user_activities/user_agent_serializer'
p2381
sg12
g13
(g14
g15
NtRp2382
(dp2383
g18
I1
sg19
I0
sg20
I7
sg21
I0
sg22
I0
sg23
I0
sg24
I0
sbssg25
S'\x03\x03.3u\r\xc1\x91\xbc\xba/Kv4\xa5\x85'
p2384
ssS'user_system_serializers_users_student_profile_serializer'
p2385
(dp2386
g6
(dp2387
g8
S'user_system_serializers_users_student_profile_serializer.html'
p2388
sg10
S'user_system/serializers/users/student_profile_serializer'
p2389
sg12
g13
(g14
g15
NtRp2390
(dp2391
g18
I1
sg19
I0
sg20
I17
sg21
I0
sg22
I0
sg23
I4
sg24
I0
sbssg25
S'\xc4\x88\x8d\xdd\xa1\xf5H \xfeB\xa4<!8\x8c\x9e'
p2392
ssS'flipped_helpers_errors_helper'
p2393
(dp2394
g6
(dp2395
g8
S'flipped_helpers_errors_helper.html'
p2396
sg10
S'flipped/helpers/errors_helper'
p2397
sg12
g13
(g14
g15
NtRp2398
(dp2399
g18
I1
sg19
I0
sg20
I5
sg21
I0
sg22
I0
sg23
I0
sg24
I0
sbssg25
S'\x91\x04\x1c\xf86c\xad\xf7\xe3\xf13\xf5n8eP'
p2400
ssS'teach_views_teacher_tags_teacher_tag_view'
p2401
(dp2402
g6
(dp2403
g8
S'teach_views_teacher_tags_teacher_tag_view.html'
p2404
sg10
S'teach/views/teacher_tags/teacher_tag_view'
p2405
sg12
g13
(g14
g15
NtRp2406
(dp2407
g18
I1
sg19
I20
sg20
I55
sg21
I0
sg22
I2
sg23
I30
sg24
I18
sbssg25
S'\xd6\xdf\xb7\xf7\xc0\x9b\xae\x8c\x81\x0f\x89C\xb0k\xaf\xd5'
p2408
ssS'create_models_questions_tests_test_question_history_model'
p2409
(dp2410
g6
(dp2411
g8
S'create_models_questions_tests_test_question_history_model.html'
p2412
sg10
S'create/models/questions/tests/test_question_history_model'
p2413
sg12
g13
(g14
g15
NtRp2414
(dp2415
g18
I1
sg19
I2
sg20
I73
sg21
I0
sg22
I0
sg23
I0
sg24
I0
sbssg25
S'i\xd4 \xdcI\x9f\xbc\x0c|\x95\x15wW\xb4\xa9\x15'
p2416
ssS'user_system_models_apps_app_model'
p2417
(dp2418
g6
(dp2419
g8
S'user_system_models_apps_app_model.html'
p2420
sg10
S'user_system/models/apps/app_model'
p2421
sg12
g13
(g14
g15
NtRp2422
(dp2423
g18
I1
sg19
I0
sg20
I16
sg21
I0
sg22
I0
sg23
I0
sg24
I0
sbssg25
S',\x89\x9d;<\xa3\xdc\x92@\xa5\x9c\x7fcg\x05?'
p2424
ssS'create_views_questions_tests___init__'
p2425
(dp2426
g6
(dp2427
g8
S'create_views_questions_tests___init__.html'
p2428
sg10
S'create/views/questions/tests/__init__'
p2429
sg12
g13
(g14
g15
NtRp2430
(dp2431
g18
I1
sg19
I0
sg20
I0
sg21
I0
sg22
I0
sg23
I0
sg24
I0
sbssg25
S'\x19g\xdfM\x1a\x019\xaf\x1baIeR\xe5u\xa7'
p2432
ssS'flipped___init__'
p2433
(dp2434
g6
(dp2435
g8
S'flipped___init__.html'
p2436
sg10
S'flipped/__init__'
p2437
sg12
g13
(g14
g15
NtRp2438
(dp2439
g18
I1
sg19
I0
sg20
I0
sg21
I0
sg22
I0
sg23
I0
sg24
I0
sbssg25
S'\x19g\xdfM\x1a\x019\xaf\x1baIeR\xe5u\xa7'
p2440
ssS'user_system_views_roles___init__'
p2441
(dp2442
g6
(dp2443
g8
S'user_system_views_roles___init__.html'
p2444
sg10
S'user_system/views/roles/__init__'
p2445
sg12
g13
(g14
g15
NtRp2446
(dp2447
g18
I1
sg19
I0
sg20
I1
sg21
I0
sg22
I0
sg23
I0
sg24
I0
sbssg25
S'\xeb\x15\r\x85I\x9e<\xbc\x15\xd1P\xef\x16\x8c\xe0l'
p2448
ssS'teach_views_summaries___init__'
p2449
(dp2450
g6
(dp2451
g8
S'teach_views_summaries___init__.html'
p2452
sg10
S'teach/views/summaries/__init__'
p2453
sg12
g13
(g14
g15
NtRp2454
(dp2455
g18
I1
sg19
I0
sg20
I6
sg21
I0
sg22
I0
sg23
I0
sg24
I0
sbssg25
S'\xf1\xa7@\xae\xc1+T\x8d\tr\xacb\x91s,\xbf'
p2456
ssS'user_system_models_users_user_profile_history_model'
p2457
(dp2458
g6
(dp2459
g8
S'user_system_models_users_user_profile_history_model.html'
p2460
sg10
S'user_system/models/users/user_profile_history_model'
p2461
sg12
g13
(g14
g15
NtRp2462
(dp2463
g18
I1
sg19
I4
sg20
I72
sg21
I0
sg22
I2
sg23
I12
sg24
I2
sbssg25
S'\x9a\x0c\xe2p\x8b\xee\x01\x87\xfd\x81\xb4\x9bzp\x90\xb6'
p2464
ssS'teach_admin'
p2465
(dp2466
g6
(dp2467
g8
S'teach_admin.html'
p2468
sg10
S'teach/admin'
p2469
sg12
g13
(g14
g15
NtRp2470
(dp2471
g18
I1
sg19
I0
sg20
I6
sg21
I0
sg22
I0
sg23
I0
sg24
I0
sbssg25
S'\xa5$\xa3\xb8$\xe4Z\x9b\xcbO\x9f\xc1\x02b\x95N'
p2472
ssS'user_system_views_users_user_view'
p2473
(dp2474
g6
(dp2475
g8
S'user_system_views_users_user_view.html'
p2476
sg10
S'user_system/views/users/user_view'
p2477
sg12
g13
(g14
g15
NtRp2478
(dp2479
g18
I1
sg19
I66
sg20
I191
sg21
I0
sg22
I0
sg23
I110
sg24
I44
sbssg25
S'\xc15\x8d)\x8f\xca@r\xd5%m#\x11{\x13\x9b'
p2480
ssS'teach_views_campaigns___init__'
p2481
(dp2482
g6
(dp2483
g8
S'teach_views_campaigns___init__.html'
p2484
sg10
S'teach/views/campaigns/__init__'
p2485
sg12
g13
(g14
g15
NtRp2486
(dp2487
g18
I1
sg19
I0
sg20
I1
sg21
I0
sg22
I0
sg23
I0
sg24
I0
sbssg25
S'\xdd3^z\xa4\xd5\x95X\x1fk\x83<\xed@\x053'
p2488
ssS'teach_models_daily_quest_templates_tests_test_daily_quest_template_model'
p2489
(dp2490
g6
(dp2491
g8
S'teach_models_daily_quest_templates_tests_test_daily_quest_template_model.html'
p2492
sg10
S'teach/models/daily_quest_templates/tests/test_daily_quest_template_model'
p2493
sg12
g13
(g14
g15
NtRp2494
(dp2495
g18
I1
sg19
I0
sg20
I37
sg21
I0
sg22
I0
sg23
I0
sg24
I0
sbssg25
S'\x01\x04)\xffw\x13\x9aqx\xb2\x9f\x02\xb0\x90\xf3\xa5'
p2496
ssS'user_system_views_apps___init__'
p2497
(dp2498
g6
(dp2499
g8
S'user_system_views_apps___init__.html'
p2500
sg10
S'user_system/views/apps/__init__'
p2501
sg12
g13
(g14
g15
NtRp2502
(dp2503
g18
I1
sg19
I0
sg20
I1
sg21
I0
sg22
I0
sg23
I0
sg24
I0
sbssg25
S'?:\xf2A\xfa^]\xc5NR\xc9\x13\xb0\xe4\xfa\x9e'
p2504
ssS'user_system_views_users_tests_test_get_users_list_view'
p2505
(dp2506
g6
(dp2507
g8
S'user_system_views_users_tests_test_get_users_list_view.html'
p2508
sg10
S'user_system/views/users/tests/test_get_users_list_view'
p2509
sg12
g13
(g14
g15
NtRp2510
(dp2511
g18
I1
sg19
I0
sg20
I34
sg21
I0
sg22
I0
sg23
I0
sg24
I0
sbssg25
S'\xf5\xe3\x1a\x14e\xf8\xc2\xf0\xa8^$\xf7\x9dv\xb8f'
p2512
ssS'create_models_questions_question_type_model'
p2513
(dp2514
g6
(dp2515
g8
S'create_models_questions_question_type_model.html'
p2516
sg10
S'create/models/questions/question_type_model'
p2517
sg12
g13
(g14
g15
NtRp2518
(dp2519
g18
I1
sg19
I0
sg20
I19
sg21
I0
sg22
I0
sg23
I0
sg24
I0
sbssg25
S'\xb9\xe7I\x93\x8b\xa8\xa8H\x80\x02_\xf9\x87\xa2\xe7\xa5'
p2520
ssS'user_system_managers_tests___init__'
p2521
(dp2522
g6
(dp2523
g8
S'user_system_managers_tests___init__.html'
p2524
sg10
S'user_system/managers/tests/__init__'
p2525
sg12
g13
(g14
g15
NtRp2526
(dp2527
g18
I1
sg19
I0
sg20
I0
sg21
I0
sg22
I0
sg23
I0
sg24
I0
sbssg25
S'\x19g\xdfM\x1a\x019\xaf\x1baIeR\xe5u\xa7'
p2528
ssS'privilege_models_privileges___init__'
p2529
(dp2530
g6
(dp2531
g8
S'privilege_models_privileges___init__.html'
p2532
sg10
S'privilege/models/privileges/__init__'
p2533
sg12
g13
(g14
g15
NtRp2534
(dp2535
g18
I1
sg19
I0
sg20
I2
sg21
I0
sg22
I0
sg23
I0
sg24
I0
sbssg25
S'\x14\x97Z\xa7<\xbd\xe6Z\xa0jIA\xc0I\xfd"'
p2536
ssS'teach_views_summaries_student_list_summary'
p2537
(dp2538
g6
(dp2539
g1105
S'teach_views_summaries_student_list_summary.html'
p2540
sg1107
S'teach/views/summaries/student_list_summary'
p2541
sg1109
g13
(g14
g15
NtRp2542
(dp2543
g18
I1
sg19
I26
sg20
I81
sg21
I0
sg22
I0
sg23
I63
sg24
I26
sbssg25
S'\x17\x86$I\x85\xac/p\xf1\x8b\x14(r\xb5\x82O'
p2544
ssS'user_system_models_schools_tests_test_classroom_model'
p2545
(dp2546
g6
(dp2547
g8
S'user_system_models_schools_tests_test_classroom_model.html'
p2548
sg10
S'user_system/models/schools/tests/test_classroom_model'
p2549
sg12
g13
(g14
g15
NtRp2550
(dp2551
g18
I1
sg19
I0
sg20
I31
sg21
I0
sg22
I0
sg23
I0
sg24
I0
sbssg25
S'\xfd\xfd\xa2\x92;\xc3\xaa\x06D\x93\xddbD\xda\xa2\x1e'
p2552
ssS'user_system_views_schools_school_view'
p2553
(dp2554
g6
(dp2555
g8
S'user_system_views_schools_school_view.html'
p2556
sg10
S'user_system/views/schools/school_view'
p2557
sg12
g13
(g14
g15
NtRp2558
(dp2559
g18
I1
sg19
I0
sg20
I16
sg21
I0
sg22
I0
sg23
I0
sg24
I0
sbssg25
S'\xc8\x0b\xef\x9e86\xe5\x19\xaa\x9e\x93+\x03\xfb\x98\x99'
p2560
ssS'learn_models_points_point_type_model'
p2561
(dp2562
g6
(dp2563
g8
S'learn_models_points_point_type_model.html'
p2564
sg10
S'learn/models/points/point_type_model'
p2565
sg12
g13
(g14
g15
NtRp2566
(dp2567
g18
I1
sg19
I0
sg20
I20
sg21
I0
sg22
I0
sg23
I0
sg24
I0
sbssg25
S'\x84\x1b\x18\n\xa9\xae\xe5\xd57\xa7}h\xdaD\x19+'
p2568
ssS'user_system_models_roles_tests_test_role_app_model'
p2569
(dp2570
g6
(dp2571
g8
S'user_system_models_roles_tests_test_role_app_model.html'
p2572
sg10
S'user_system/models/roles/tests/test_role_app_model'
p2573
sg12
g13
(g14
g15
NtRp2574
(dp2575
g18
I1
sg19
I0
sg20
I21
sg21
I0
sg22
I0
sg23
I0
sg24
I0
sbssg25
S"\x80\xd7v\xbb\xe5d.\xeb\xfd\xc4\x04\xb2\x04'\xc6V"
p2576
ssS'user_system_views_schools_grade_view'
p2577
(dp2578
g6
(dp2579
g8
S'user_system_views_schools_grade_view.html'
p2580
sg10
S'user_system/views/schools/grade_view'
p2581
sg12
g13
(g14
g15
NtRp2582
(dp2583
g18
I1
sg19
I0
sg20
I16
sg21
I0
sg22
I0
sg23
I0
sg24
I0
sbssg25
S'_i&b\x01\x08$\xe7\xbe\nW\x92\x80\x97\xf1Q'
p2584
ssS'create_serializers_question_datasets_question_dataset_serializer'
p2585
(dp2586
g6
(dp2587
g8
S'create_serializers_question_datasets_question_dataset_serializer.html'
p2588
sg10
S'create/serializers/question_datasets/question_dataset_serializer'
p2589
sg12
g13
(g14
g15
NtRp2590
(dp2591
g18
I1
sg19
I0
sg20
I6
sg21
I0
sg22
I0
sg23
I0
sg24
I0
sbssg25
S'\x1e}6\x82\x0c\x96\xdb\x00{jK\xdb\xc0\x8c\x97\xcd'
p2592
ssS'privilege_models_privileges_user_privilege_model'
p2593
(dp2594
g6
(dp2595
g8
S'privilege_models_privileges_user_privilege_model.html'
p2596
sg10
S'privilege/models/privileges/user_privilege_model'
p2597
sg12
g13
(g14
g15
NtRp2598
(dp2599
g18
I1
sg19
I0
sg20
I17
sg21
I0
sg22
I0
sg23
I1
sg24
I0
sbssg25
S'\xe4\xbfo\xb6Sy\xef\x85\xf2\xf3=\xf3\xc3\xc0\xc9\xc6'
p2600
ssS'create_views_questions_question_template_view'
p2601
(dp2602
g6
(dp2603
g8
S'create_views_questions_question_template_view.html'
p2604
sg10
S'create/views/questions/question_template_view'
p2605
sg12
g13
(g14
g15
NtRp2606
(dp2607
g18
I1
sg19
I40
sg20
I115
sg21
I0
sg22
I0
sg23
I86
sg24
I40
sbssg25
S'\x15\xd2EN\xe9c\xe5\x17\xc5Fh\x02\x1a\xd3\xc4*'
p2608
ssS'create_serializers_quests_quest_serializer'
p2609
(dp2610
g6
(dp2611
g8
S'create_serializers_quests_quest_serializer.html'
p2612
sg10
S'create/serializers/quests/quest_serializer'
p2613
sg12
g13
(g14
g15
NtRp2614
(dp2615
g18
I1
sg19
I0
sg20
I50
sg21
I0
sg22
I0
sg23
I15
sg24
I0
sbssg25
S'\x96:\xdf\x9a\x02\xee\xf5\x97F[z\x16p\x8f\x08\xb2'
p2616
ssS'create_views_summary_create_summary_view'
p2617
(dp2618
g6
(dp2619
g8
S'create_views_summary_create_summary_view.html'
p2620
sg10
S'create/views/summary/create_summary_view'
p2621
sg12
g13
(g14
g15
NtRp2622
(dp2623
g18
I1
sg19
I0
sg20
I59
sg21
I0
sg22
I0
sg23
I48
sg24
I0
sbssg25
S"'\xfe\xf4\x8c\xed2\xc3\x18\xf6\x85\x1f\xb0\xf0G\xb7\x8f"
p2624
ssS'create_serializers_books_book_serializer'
p2625
(dp2626
g6
(dp2627
g8
S'create_serializers_books_book_serializer.html'
p2628
sg10
S'create/serializers/books/book_serializer'
p2629
sg12
g13
(g14
g15
NtRp2630
(dp2631
g18
I1
sg19
I0
sg20
I25
sg21
I0
sg22
I0
sg23
I0
sg24
I0
sbssg25
S"o\r\r\x1e8\xe6\xa9\xd1\x83X.\xcf1\x98\xa3'"
p2632
ssS'user_system_models_schools_tests___init__'
p2633
(dp2634
g6
(dp2635
g8
S'user_system_models_schools_tests___init__.html'
p2636
sg10
S'user_system/models/schools/tests/__init__'
p2637
sg12
g13
(g14
g15
NtRp2638
(dp2639
g18
I1
sg19
I0
sg20
I0
sg21
I0
sg22
I0
sg23
I0
sg24
I0
sbssg25
S'\x19g\xdfM\x1a\x019\xaf\x1baIeR\xe5u\xa7'
p2640
ssS'api_logging_mixins'
p2641
(dp2642
g6
(dp2643
g8
S'api_logging_mixins.html'
p2644
sg10
S'api_logging/mixins'
p2645
sg12
g13
(g14
g15
NtRp2646
(dp2647
g18
I1
sg19
I4
sg20
I26
sg21
I0
sg22
I2
sg23
I2
sg24
I2
sbssg25
S'w\xa7\xcf,\xf7\x87[\xb0\xc5\xb2\x1f\xa5+\x1dSF'
p2648
ssS'privilege_serializers_privileges___init__'
p2649
(dp2650
g6
(dp2651
g8
S'privilege_serializers_privileges___init__.html'
p2652
sg10
S'privilege/serializers/privileges/__init__'
p2653
sg12
g13
(g14
g15
NtRp2654
(dp2655
g18
I1
sg19
I0
sg20
I2
sg21
I0
sg22
I0
sg23
I0
sg24
I0
sbssg25
S'\x1f\xd4u<\xf4\x9bW\xb0\xa9\xd2\xc1\x06\x14`C\xc6'
p2656
ssS'create___init__'
p2657
(dp2658
g6
(dp2659
g8
S'create___init__.html'
p2660
sg10
S'create/__init__'
p2661
sg12
g13
(g14
g15
NtRp2662
(dp2663
g18
I1
sg19
I0
sg20
I0
sg21
I0
sg22
I0
sg23
I0
sg24
I0
sbssg25
S'\x19g\xdfM\x1a\x019\xaf\x1baIeR\xe5u\xa7'
p2664
ssS'user_system_serializers_schools_school_serializer'
p2665
(dp2666
g6
(dp2667
g8
S'user_system_serializers_schools_school_serializer.html'
p2668
sg10
S'user_system/serializers/schools/school_serializer'
p2669
sg12
g13
(g14
g15
NtRp2670
(dp2671
g18
I1
sg19
I0
sg20
I9
sg21
I0
sg22
I0
sg23
I0
sg24
I0
sbssg25
S'_\x0c\x17V\x00H\x8f\xc9x\xe5I\xcb\t\x08\xb9/'
p2672
ssS'user_system_models_users_tests_test_user_profile_update_request_model'
p2673
(dp2674
g6
(dp2675
g8
S'user_system_models_users_tests_test_user_profile_update_request_model.html'
p2676
sg10
S'user_system/models/users/tests/test_user_profile_update_request_model'
p2677
sg12
g13
(g14
g15
NtRp2678
(dp2679
g18
I1
sg19
I0
sg20
I56
sg21
I0
sg22
I0
sg23
I0
sg24
I0
sbssg25
S'U\ng\x0eY\xe2\xc0a\x07f\xb4\x9bFP\x14\x86'
p2680
ssS'user_system_views_users_tests_test_add_role_view'
p2681
(dp2682
g6
(dp2683
g8
S'user_system_views_users_tests_test_add_role_view.html'
p2684
sg10
S'user_system/views/users/tests/test_add_role_view'
p2685
sg12
g13
(g14
g15
NtRp2686
(dp2687
g18
I1
sg19
I0
sg20
I36
sg21
I0
sg22
I0
sg23
I0
sg24
I0
sbssg25
S'\x0eh\xf7\xba\x08_N\xdeM\xdf\x03\xbd\x8c\x8a\x89\xd0'
p2688
ssS'learn_urls'
p2689
(dp2690
g6
(dp2691
g8
S'learn_urls.html'
p2692
sg10
S'learn/urls'
p2693
sg12
g13
(g14
g15
NtRp2694
(dp2695
g18
I1
sg19
I0
sg20
I9
sg21
I0
sg22
I0
sg23
I0
sg24
I0
sbssg25
S'l\xce\xea\r\x18\x86\xf7\x9f\xb7]\xc1\x1d\xf0\x1a\xa2x'
p2696
ssS'api_logging___init__'
p2697
(dp2698
g6
(dp2699
g8
S'api_logging___init__.html'
p2700
sg10
S'api_logging/__init__'
p2701
sg12
g13
(g14
g15
NtRp2702
(dp2703
g18
I1
sg19
I0
sg20
I0
sg21
I0
sg22
I0
sg23
I0
sg24
I0
sbssg25
S'\x19g\xdfM\x1a\x019\xaf\x1baIeR\xe5u\xa7'
p2704
ssS'learn_serializers_daily_quests___init__'
p2705
(dp2706
g6
(dp2707
g8
S'learn_serializers_daily_quests___init__.html'
p2708
sg10
S'learn/serializers/daily_quests/__init__'
p2709
sg12
g13
(g14
g15
NtRp2710
(dp2711
g18
I1
sg19
I0
sg20
I3
sg21
I0
sg22
I0
sg23
I0
sg24
I0
sbssg25
S'\xbdN\xd5Q7o\x96QS\xc9E\xb9%\\\xb41'
p2712
ssS'create_views_questions_question_view'
p2713
(dp2714
g6
(dp2715
g8
S'create_views_questions_question_view.html'
p2716
sg10
S'create/views/questions/question_view'
p2717
sg12
g13
(g14
g15
NtRp2718
(dp2719
g18
I1
sg19
I34
sg20
I113
sg21
I0
sg22
I1
sg23
I40
sg24
I21
sbssg25
S'x\x1b\xf3\x9b\x13Z\xdalU\x8bJ\x89\xb3qc\x8d'
p2720
ssS'create_views_quests_tests_test_add_question_view'
p2721
(dp2722
g6
(dp2723
g8
S'create_views_quests_tests_test_add_question_view.html'
p2724
sg10
S'create/views/quests/tests/test_add_question_view'
p2725
sg12
g13
(g14
g15
NtRp2726
(dp2727
g18
I1
sg19
I0
sg20
I0
sg21
I0
sg22
I0
sg23
I0
sg24
I0
sbssg25
S'\x19g\xdfM\x1a\x019\xaf\x1baIeR\xe5u\xa7'
p2728
ssS'create_models_daily_quest_copies___init__'
p2729
(dp2730
g6
(dp2731
g8
S'create_models_daily_quest_copies___init__.html'
p2732
sg10
S'create/models/daily_quest_copies/__init__'
p2733
sg12
g13
(g14
g15
NtRp2734
(dp2735
g18
I1
sg19
I0
sg20
I1
sg21
I0
sg22
I0
sg23
I0
sg24
I0
sbssg25
S'\xee\xef\xb8!Z;\x9e_\xb5g4\xe9\xac@l\xe6'
p2736
ssS'create_models_books_tests___init__'
p2737
(dp2738
g6
(dp2739
g8
S'create_models_books_tests___init__.html'
p2740
sg10
S'create/models/books/tests/__init__'
p2741
sg12
g13
(g14
g15
NtRp2742
(dp2743
g18
I1
sg19
I0
sg20
I0
sg21
I0
sg22
I0
sg23
I0
sg24
I0
sbssg25
S'\x19g\xdfM\x1a\x019\xaf\x1baIeR\xe5u\xa7'
p2744
ssS'user_system_views_apps_app_view'
p2745
(dp2746
g6
(dp2747
g8
S'user_system_views_apps_app_view.html'
p2748
sg10
S'user_system/views/apps/app_view'
p2749
sg12
g13
(g14
g15
NtRp2750
(dp2751
g18
I1
sg19
I0
sg20
I13
sg21
I0
sg22
I0
sg23
I0
sg24
I0
sbssg25
S'\xf7n\xffX\xe7\xd2\xb6\xa5\xc5\xe5\x96\x13\xf4\x9c\xac\x1e'
p2752
ssS'learn_serializers_daily_quests_daily_quest_history_date_group_serializer'
p2753
(dp2754
g6
(dp2755
g8
S'learn_serializers_daily_quests_daily_quest_history_date_group_serializer.html'
p2756
sg10
S'learn/serializers/daily_quests/daily_quest_history_date_group_serializer'
p2757
sg12
g13
(g14
g15
NtRp2758
(dp2759
g18
I1
sg19
I0
sg20
I19
sg21
I0
sg22
I0
sg23
I0
sg24
I0
sbssg25
S'\x88\xa94\xf4l\xe7\x98\xab\x84\xebTm\xe8\xdag\x17'
p2760
ssS'user_system_managers_streak_manager'
p2761
(dp2762
g6
(dp2763
g8
S'user_system_managers_streak_manager.html'
p2764
sg10
S'user_system/managers/streak_manager'
p2765
sg12
g13
(g14
g15
NtRp2766
(dp2767
g18
I1
sg19
I30
sg20
I66
sg21
I0
sg22
I2
sg23
I48
sg24
I28
sbssg25
S'9\x9e\xa2\xbd\x80\x8b\xa4\xb3N>\xb8ZsW\xe8\xd0'
p2768
ssS'user_system_views_signups_map_demo_signup_view'
p2769
(dp2770
g6
(dp2771
g8
S'user_system_views_signups_map_demo_signup_view.html'
p2772
sg10
S'user_system/views/signups/map_demo_signup_view'
p2773
sg12
g13
(g14
g15
NtRp2774
(dp2775
g18
I1
sg19
I18
sg20
I134
sg21
I0
sg22
I0
sg23
I115
sg24
I18
sbssg25
S"\xc8(\xb1Q\xfb\xb0\xdfc\x94\xe2\x99\r\xb4'G["
p2776
ssS'learn_views_student_news_feed_student_news_feed_view'
p2777
(dp2778
g6
(dp2779
g8
S'learn_views_student_news_feed_student_news_feed_view.html'
p2780
sg10
S'learn/views/student_news_feed/student_news_feed_view'
p2781
sg12
g13
(g14
g15
NtRp2782
(dp2783
g18
I1
sg19
I14
sg20
I64
sg21
I0
sg22
I0
sg23
I43
sg24
I14
sbssg25
S'$\x9f\xf4\xd0\x91\x0e\xf7\xe7\xb3\x8b\x1f\x87S:\xa0\xec'
p2784
ssS'user_system_models_schools_tests_test_academic_year_model'
p2785
(dp2786
g6
(dp2787
g8
S'user_system_models_schools_tests_test_academic_year_model.html'
p2788
sg10
S'user_system/models/schools/tests/test_academic_year_model'
p2789
sg12
g13
(g14
g15
NtRp2790
(dp2791
g18
I1
sg19
I0
sg20
I28
sg21
I0
sg22
I0
sg23
I0
sg24
I0
sbssg25
S'{=\xee\xbc8\xbd\xa7\xdd\x0f!3\xf8\xf0os\xe2'
p2792
ssS'learn_serializers_daily_quests_daily_quest_question_history_serializer'
p2793
(dp2794
g6
(dp2795
g8
S'learn_serializers_daily_quests_daily_quest_question_history_serializer.html'
p2796
sg10
S'learn/serializers/daily_quests/daily_quest_question_history_serializer'
p2797
sg12
g13
(g14
g15
NtRp2798
(dp2799
g18
I1
sg19
I0
sg20
I8
sg21
I0
sg22
I0
sg23
I0
sg24
I0
sbssg25
S'q$\xc8~\x9a\xbb\x03\x1a\x12[aG\x9a\x87\xc6\x0c'
p2800
ssS'api_logging_serializers_modal_loggings___init__'
p2801
(dp2802
g6
(dp2803
g8
S'api_logging_serializers_modal_loggings___init__.html'
p2804
sg10
S'api_logging/serializers/modal_loggings/__init__'
p2805
sg12
g13
(g14
g15
NtRp2806
(dp2807
g18
I1
sg19
I0
sg20
I1
sg21
I0
sg22
I0
sg23
I0
sg24
I0
sbssg25
S'\xff)\x01pU0i\x848\xea\xfc\x08\x0b\x0bS\xa4'
p2808
ssS'user_system_models_schools_grade_model'
p2809
(dp2810
g6
(dp2811
g8
S'user_system_models_schools_grade_model.html'
p2812
sg10
S'user_system/models/schools/grade_model'
p2813
sg12
g13
(g14
g15
NtRp2814
(dp2815
g18
I1
sg19
I0
sg20
I29
sg21
I0
sg22
I0
sg23
I0
sg24
I0
sbssg25
S'\xc4\x17\xf7\xf5n\x1b\x199\xa5j\xf1\x14\xd0\xbb Z'
p2816
ssS'user_system_serializers_schools___init__'
p2817
(dp2818
g6
(dp2819
g8
S'user_system_serializers_schools___init__.html'
p2820
sg10
S'user_system/serializers/schools/__init__'
p2821
sg12
g13
(g14
g15
NtRp2822
(dp2823
g18
I1
sg19
I0
sg20
I5
sg21
I0
sg22
I0
sg23
I0
sg24
I0
sbssg25
S'8yN\xa2\x98\xe3%\xd4\xe2\xfd\xf2@\xcc\xa7\x02\xdb'
p2824
ssS'create_serializers_questions_question_choice_serializer'
p2825
(dp2826
g6
(dp2827
g8
S'create_serializers_questions_question_choice_serializer.html'
p2828
sg10
S'create/serializers/questions/question_choice_serializer'
p2829
sg12
g13
(g14
g15
NtRp2830
(dp2831
g18
I1
sg19
I0
sg20
I10
sg21
I0
sg22
I0
sg23
I0
sg24
I0
sbssg25
S'\xe4\xc0O\xa2\x80M\x05Wf\xdeO=\xf7\xaaT\x95'
p2832
ssS'teach_views_summaries_top_answered_questions_summary_view'
p2833
(dp2834
g6
(dp2835
g8
S'teach_views_summaries_top_answered_questions_summary_view.html'
p2836
sg10
S'teach/views/summaries/top_answered_questions_summary_view'
p2837
sg12
g13
(g14
g15
NtRp2838
(dp2839
g18
I1
sg19
I34
sg20
I77
sg21
I0
sg22
I0
sg23
I54
sg24
I34
sbssg25
S'\x9e\xb0khf9\xceHZ\x1e\x91\x1ac,\x8c\x0c'
p2840
ssS'user_system_models_apps___init__'
p2841
(dp2842
g6
(dp2843
g8
S'user_system_models_apps___init__.html'
p2844
sg10
S'user_system/models/apps/__init__'
p2845
sg12
g13
(g14
g15
NtRp2846
(dp2847
g18
I1
sg19
I0
sg20
I1
sg21
I0
sg22
I0
sg23
I0
sg24
I0
sbssg25
S'\n\xe9\xce\x15)\x8d\xc6\xdd\xe0\x9b\x990[\xae\x8cl'
p2848
ssS'create_models_tags_tests_test_tag_model'
p2849
(dp2850
g6
(dp2851
g8
S'create_models_tags_tests_test_tag_model.html'
p2852
sg10
S'create/models/tags/tests/test_tag_model'
p2853
sg12
g13
(g14
g15
NtRp2854
(dp2855
g18
I1
sg19
I6
sg20
I52
sg21
I0
sg22
I0
sg23
I0
sg24
I0
sbssg25
S'1\x992\xc0\xbb\xb6d *5\xfa\xd2\xdc1\xb2\x92'
p2856
ssS'create_models_quests___init__'
p2857
(dp2858
g6
(dp2859
g8
S'create_models_quests___init__.html'
p2860
sg10
S'create/models/quests/__init__'
p2861
sg12
g13
(g14
g15
NtRp2862
(dp2863
g18
I1
sg19
I0
sg20
I2
sg21
I0
sg22
I0
sg23
I0
sg24
I0
sbssg25
S'\x1e\x87\x83\xe2\x04\x1d\xcd:`\x99V\x85#\xca\x12^'
p2864
ssS'privilege_serializers_privileges_privilege_serializer'
p2865
(dp2866
g6
(dp2867
g8
S'privilege_serializers_privileges_privilege_serializer.html'
p2868
sg10
S'privilege/serializers/privileges/privilege_serializer'
p2869
sg12
g13
(g14
g15
NtRp2870
(dp2871
g18
I1
sg19
I0
sg20
I7
sg21
I0
sg22
I0
sg23
I0
sg24
I0
sbssg25
S'?v\x87\xf3\x00\x8cw`\xd8\x0b\xeb\x98\x18\xbd\x1dR'
p2872
ssS'user_system_views_signups_hardcoded_tests_test_test_account_view'
p2873
(dp2874
g6
(dp2875
g8
S'user_system_views_signups_hardcoded_tests_test_test_account_view.html'
p2876
sg10
S'user_system/views/signups/hardcoded/tests/test_test_account_view'
p2877
sg12
g13
(g14
g15
NtRp2878
(dp2879
g18
I1
sg19
I0
sg20
I24
sg21
I0
sg22
I0
sg23
I0
sg24
I0
sbssg25
S'@\xc3::\xf8h\x1aT\x9f\x83\xee1\xb7\x9a\xe0\xf9'
p2880
ssS'api_logging_models_query_stat_query_stat_model'
p2881
(dp2882
g6
(dp2883
g8
S'api_logging_models_query_stat_query_stat_model.html'
p2884
sg10
S'api_logging/models/query_stat/query_stat_model'
p2885
sg12
g13
(g14
g15
NtRp2886
(dp2887
g18
I1
sg19
I0
sg20
I16
sg21
I0
sg22
I0
sg23
I3
sg24
I0
sbssg25
S'\xa3=\x10\x13c\x11z=\xd9\x93q\x14\x17\x00\x0e\x8a'
p2888
ssS'create_models_tags_concept_model'
p2889
(dp2890
g6
(dp2891
g8
S'create_models_tags_concept_model.html'
p2892
sg10
S'create/models/tags/concept_model'
p2893
sg12
g13
(g14
g15
NtRp2894
(dp2895
g18
I1
sg19
I0
sg20
I10
sg21
I0
sg22
I0
sg23
I0
sg24
I0
sbssg25
S'@vb\xbd\xcay\xb1b\x9e\xaf\xc0v/\xd6\x13\xd3'
p2896
ssS'create_models_tags_tests___init__'
p2897
(dp2898
g6
(dp2899
g8
S'create_models_tags_tests___init__.html'
p2900
sg10
S'create/models/tags/tests/__init__'
p2901
sg12
g13
(g14
g15
NtRp2902
(dp2903
g18
I1
sg19
I0
sg20
I1
sg21
I0
sg22
I0
sg23
I0
sg24
I0
sbssg25
S'\xbc\xd6\xeb\xb3\xba\xcaz\xf7{\xd4B\xb5}l\xdf\x96'
p2904
ssS'learn_admin'
p2905
(dp2906
g6
(dp2907
g8
S'learn_admin.html'
p2908
sg10
S'learn/admin'
p2909
sg12
g13
(g14
g15
NtRp2910
(dp2911
g18
I1
sg19
I0
sg20
I9
sg21
I0
sg22
I0
sg23
I0
sg24
I0
sbssg25
S'x\x01B\xa4Q:G\x8dZ4\xff7\xa96\xaa\x1f'
p2912
ssS'user_system_models_schools_classroom_model'
p2913
(dp2914
g6
(dp2915
g8
S'user_system_models_schools_classroom_model.html'
p2916
sg10
S'user_system/models/schools/classroom_model'
p2917
sg12
g13
(g14
g15
NtRp2918
(dp2919
g18
I1
sg19
I2
sg20
I25
sg21
I0
sg22
I0
sg23
I0
sg24
I0
sbssg25
S'4\xd4E/\xd8\xd6\xca\xde\xb8\xfa\x1e\xd4\xcd\x12\xafQ'
p2920
ssS'teach_views_campaigns_campaign_view'
p2921
(dp2922
g6
(dp2923
g8
S'teach_views_campaigns_campaign_view.html'
p2924
sg10
S'teach/views/campaigns/campaign_view'
p2925
sg12
g13
(g14
g15
NtRp2926
(dp2927
g18
I1
sg19
I4
sg20
I32
sg21
I0
sg22
I0
sg23
I12
sg24
I4
sbssg25
S'\xb5\xbcP\n\xf1\xe8z\x0bC`h\xbf\x08\x16\x16\x17'
p2928
ssS'user_system_models_schools_semester_model'
p2929
(dp2930
g6
(dp2931
g8
S'user_system_models_schools_semester_model.html'
p2932
sg10
S'user_system/models/schools/semester_model'
p2933
sg12
g13
(g14
g15
NtRp2934
(dp2935
g18
I1
sg19
I0
sg20
I23
sg21
I0
sg22
I0
sg23
I0
sg24
I0
sbssg25
S'\x9f&7d<%\x13 \xcaht\xc4\xd4N\xee&'
p2936
ssS'create_views_daily_quest_copies_daily_quest_copy_view'
p2937
(dp2938
g6
(dp2939
g8
S'create_views_daily_quest_copies_daily_quest_copy_view.html'
p2940
sg10
S'create/views/daily_quest_copies/daily_quest_copy_view'
p2941
sg12
g13
(g14
g15
NtRp2942
(dp2943
g18
I1
sg19
I0
sg20
I14
sg21
I0
sg22
I0
sg23
I0
sg24
I0
sbssg25
S'?\x95&\\\xae\xf0@\xfc\x96\xc15\xc9\x13\xf6_R'
p2944
ssS'flipped_helpers_parameters_helper'
p2945
(dp2946
g6
(dp2947
g8
S'flipped_helpers_parameters_helper.html'
p2948
sg10
S'flipped/helpers/parameters_helper'
p2949
sg12
g13
(g14
g15
NtRp2950
(dp2951
g18
I1
sg19
I14
sg20
I22
sg21
I0
sg22
I1
sg23
I4
sg24
I3
sbssg25
S'v\xe1\xf5\xb3r\x1f\xae\xee\x872U\xa1I\xf8\xef\x00'
p2952
ssS'user_system_models___init__'
p2953
(dp2954
g6
(dp2955
g8
S'user_system_models___init__.html'
p2956
sg10
S'user_system/models/__init__'
p2957
sg12
g13
(g14
g15
NtRp2958
(dp2959
g18
I1
sg19
I0
sg20
I4
sg21
I0
sg22
I0
sg23
I0
sg24
I0
sbssg25
S"\xe9'\xed1xn\xd7\xe4\x91\x8ei\xc0\x0f\x1b\x9eY"
p2960
ssS'create_models_questions_tests_test_question_model'
p2961
(dp2962
g6
(dp2963
g8
S'create_models_questions_tests_test_question_model.html'
p2964
sg10
S'create/models/questions/tests/test_question_model'
p2965
sg12
g13
(g14
g15
NtRp2966
(dp2967
g18
I1
sg19
I8
sg20
I58
sg21
I0
sg22
I0
sg23
I0
sg24
I0
sbssg25
S'l\x9e\xee!<,L\xbf\xa0\xe6\r\xd7W\xc9tu'
p2968
ssS'user_system_models_users_tests_test_user_profile_history_model'
p2969
(dp2970
g6
(dp2971
g8
S'user_system_models_users_tests_test_user_profile_history_model.html'
p2972
sg10
S'user_system/models/users/tests/test_user_profile_history_model'
p2973
sg12
g13
(g14
g15
NtRp2974
(dp2975
g18
I1
sg19
I0
sg20
I54
sg21
I0
sg22
I0
sg23
I0
sg24
I0
sbssg25
S'<IT\xa7\x05\xe0ML\xb0gu{\xd2>\xc8$'
p2976
ssS'learn_views___init__'
p2977
(dp2978
g6
(dp2979
g8
S'learn_views___init__.html'
p2980
sg10
S'learn/views/__init__'
p2981
sg12
g13
(g14
g15
NtRp2982
(dp2983
g18
I1
sg19
I0
sg20
I2
sg21
I0
sg22
I0
sg23
I0
sg24
I0
sbssg25
S"?\xc0'\xcb\x1c\xf1\xaa\xf0\x9d\xc7\x0e\xf1\xda\x0eU\x17"
p2984
ssS'create_serializers_questions___init__'
p2985
(dp2986
g6
(dp2987
g8
S'create_serializers_questions___init__.html'
p2988
sg10
S'create/serializers/questions/__init__'
p2989
sg12
g13
(g14
g15
NtRp2990
(dp2991
g18
I1
sg19
I0
sg20
I5
sg21
I0
sg22
I0
sg23
I0
sg24
I0
sbssg25
S'\xe6(4O\xf6\xd4\xe4\x154\xe9\xa1;\x0cD\x90\t'
p2992
ssS'user_system_views_signups_hardcoded_tests___init__'
p2993
(dp2994
g6
(dp2995
g8
S'user_system_views_signups_hardcoded_tests___init__.html'
p2996
sg10
S'user_system/views/signups/hardcoded/tests/__init__'
p2997
sg12
g13
(g14
g15
NtRp2998
(dp2999
g18
I1
sg19
I0
sg20
I0
sg21
I0
sg22
I0
sg23
I0
sg24
I0
sbssg25
S'\x19g\xdfM\x1a\x019\xaf\x1baIeR\xe5u\xa7'
p3000
ssS'create_serializers_questions_question_serializer'
p3001
(dp3002
g6
(dp3003
g8
S'create_serializers_questions_question_serializer.html'
p3004
sg10
S'create/serializers/questions/question_serializer'
p3005
sg12
g13
(g14
g15
NtRp3006
(dp3007
g18
I1
sg19
I0
sg20
I59
sg21
I0
sg22
I0
sg23
I11
sg24
I0
sbssg25
S'\xd6f\xc4\xe6\x97\xe4~\xa4n\xcc+|\xcc\xdayh'
p3008
ssS'user_system_views___init__'
p3009
(dp3010
g6
(dp3011
g8
S'user_system_views___init__.html'
p3012
sg10
S'user_system/views/__init__'
p3013
sg12
g13
(g14
g15
NtRp3014
(dp3015
g18
I1
sg19
I0
sg20
I6
sg21
I0
sg22
I0
sg23
I0
sg24
I0
sbssg25
S'F\xa0L<\x89\xf6\x17C\x98\xb9\xf9\x9c\x08\xff\x8d\x8a'
p3016
ssS'user_system_views_users_user_profile_update_request_view'
p3017
(dp3018
g6
(dp3019
g8
S'user_system_views_users_user_profile_update_request_view.html'
p3020
sg10
S'user_system/views/users/user_profile_update_request_view'
p3021
sg12
g13
(g14
g15
NtRp3022
(dp3023
g18
I1
sg19
I24
sg20
I70
sg21
I0
sg22
I0
sg23
I51
sg24
I24
sbssg25
S"\x04\xfd\x81?\x1e<^\xb0%\xad\xa6'\xcf\xa1\xc3)"
p3024
ssS'user_system_models_roles_role_model'
p3025
(dp3026
g6
(dp3027
g8
S'user_system_models_roles_role_model.html'
p3028
sg10
S'user_system/models/roles/role_model'
p3029
sg12
g13
(g14
g15
NtRp3030
(dp3031
g18
I1
sg19
I0
sg20
I16
sg21
I0
sg22
I0
sg23
I0
sg24
I0
sbssg25
S'\x180j\xc8\x05 \xa05\xa7\xffj\x1dJ\x8a6\xcb'
p3032
ssS'user_system_views_users_tests_test_remove_role_view'
p3033
(dp3034
g6
(dp3035
g8
S'user_system_views_users_tests_test_remove_role_view.html'
p3036
sg10
S'user_system/views/users/tests/test_remove_role_view'
p3037
sg12
g13
(g14
g15
NtRp3038
(dp3039
g18
I1
sg19
I0
sg20
I42
sg21
I0
sg22
I0
sg23
I0
sg24
I0
sbssg25
S'\xfb\x9b\xa3\xe5\x90\xe7q99\x19\x10"<@L\x8c'
p3040
ssS'create_models_questions_tests_test_question_history_remark_model'
p3041
(dp3042
g6
(dp3043
g8
S'create_models_questions_tests_test_question_history_remark_model.html'
p3044
sg10
S'create/models/questions/tests/test_question_history_remark_model'
p3045
sg12
g13
(g14
g15
NtRp3046
(dp3047
g18
I1
sg19
I0
sg20
I30
sg21
I0
sg22
I0
sg23
I0
sg24
I0
sbssg25
S'K>pG_\xbd\x15\x8b\xd8\x05\xd4\x15\xb3\x9b\xcaP'
p3048
ssS'api_logging_serializers___init__'
p3049
(dp3050
g6
(dp3051
g8
S'api_logging_serializers___init__.html'
p3052
sg10
S'api_logging/serializers/__init__'
p3053
sg12
g13
(g14
g15
NtRp3054
(dp3055
g18
I1
sg19
I0
sg20
I3
sg21
I0
sg22
I0
sg23
I0
sg24
I0
sbssg25
S'k\xcf\xab\xc1\x97\xc9\x1a\x1f\xc7f\x86\xc9\x05S\xc4\x15'
p3056
ssS'user_system_models_users_tests_test_user_facebook_model'
p3057
(dp3058
g6
(dp3059
g8
S'user_system_models_users_tests_test_user_facebook_model.html'
p3060
sg10
S'user_system/models/users/tests/test_user_facebook_model'
p3061
sg12
g13
(g14
g15
NtRp3062
(dp3063
g18
I1
sg19
I0
sg20
I29
sg21
I0
sg22
I0
sg23
I0
sg24
I0
sbssg25
S'B\xac\x06Z\x1f7\xba2\x81\xd7\xb4\x17\xaf\x84u+'
p3064
ssS'user_system_models_users_user_credentials_model'
p3065
(dp3066
g6
(dp3067
g8
S'user_system_models_users_user_credentials_model.html'
p3068
sg10
S'user_system/models/users/user_credentials_model'
p3069
sg12
g13
(g14
g15
NtRp3070
(dp3071
g18
I1
sg19
I0
sg20
I7
sg21
I0
sg22
I0
sg23
I0
sg24
I0
sbssg25
S'g\x10U/\x1f\x83\x0bO\x95o\x9c9\xefV\x81\x8e'
p3072
ssS'create_serializers_books___init__'
p3073
(dp3074
g6
(dp3075
g8
S'create_serializers_books___init__.html'
p3076
sg10
S'create/serializers/books/__init__'
p3077
sg12
g13
(g14
g15
NtRp3078
(dp3079
g18
I1
sg19
I0
sg20
I0
sg21
I0
sg22
I0
sg23
I0
sg24
I0
sbssg25
S'\x19g\xdfM\x1a\x019\xaf\x1baIeR\xe5u\xa7'
p3080
ssS'api_logging_models_user_activities_user_agent_model'
p3081
(dp3082
g6
(dp3083
g8
S'api_logging_models_user_activities_user_agent_model.html'
p3084
sg10
S'api_logging/models/user_activities/user_agent_model'
p3085
sg12
g13
(g14
g15
NtRp3086
(dp3087
g18
I1
sg19
I0
sg20
I14
sg21
I0
sg22
I0
sg23
I3
sg24
I0
sbssg25
S'\xff%\xca\x02Mb5a\xf8Qr\x85\x95|\xa4\x95'
p3088
ssS'create_serializers_daily_quest_copies___init__'
p3089
(dp3090
g6
(dp3091
g8
S'create_serializers_daily_quest_copies___init__.html'
p3092
sg10
S'create/serializers/daily_quest_copies/__init__'
p3093
sg12
g13
(g14
g15
NtRp3094
(dp3095
g18
I1
sg19
I0
sg20
I1
sg21
I0
sg22
I0
sg23
I0
sg24
I0
sbssg25
S'\nX]\x85Nc\xb8\xc0\xe1\xaf\xa0\xda_\x9e\xb9u'
p3096
ssS'create_views_quests_tests_test_add_question_template_view'
p3097
(dp3098
g6
(dp3099
g8
S'create_views_quests_tests_test_add_question_template_view.html'
p3100
sg10
S'create/views/quests/tests/test_add_question_template_view'
p3101
sg12
g13
(g14
g15
NtRp3102
(dp3103
g18
I1
sg19
I0
sg20
I0
sg21
I0
sg22
I0
sg23
I0
sg24
I0
sbssg25
S'\x19g\xdfM\x1a\x019\xaf\x1baIeR\xe5u\xa7'
p3104
ssS'teach_serializers_campaigns_campaign_serializer'
p3105
(dp3106
g6
(dp3107
g8
S'teach_serializers_campaigns_campaign_serializer.html'
p3108
sg10
S'teach/serializers/campaigns/campaign_serializer'
p3109
sg12
g13
(g14
g15
NtRp3110
(dp3111
g18
I1
sg19
I0
sg20
I9
sg21
I0
sg22
I0
sg23
I0
sg24
I0
sbssg25
S'G\xecr\x9cj\xea\xe8\xf2>\xd5.d\x17\xd1\xce.'
p3112
ssS'learn_models_points_tests___init__'
p3113
(dp3114
g6
(dp3115
g8
S'learn_models_points_tests___init__.html'
p3116
sg10
S'learn/models/points/tests/__init__'
p3117
sg12
g13
(g14
g15
NtRp3118
(dp3119
g18
I1
sg19
I0
sg20
I1
sg21
I0
sg22
I0
sg23
I0
sg24
I0
sbssg25
S'\xbc\xd6\xeb\xb3\xba\xcaz\xf7{\xd4B\xb5}l\xdf\x96'
p3120
ssS'create_views_tags_tests_test_hide_tag_view'
p3121
(dp3122
g6
(dp3123
g8
S'create_views_tags_tests_test_hide_tag_view.html'
p3124
sg10
S'create/views/tags/tests/test_hide_tag_view'
p3125
sg12
g13
(g14
g15
NtRp3126
(dp3127
g18
I1
sg19
I0
sg20
I25
sg21
I0
sg22
I0
sg23
I0
sg24
I0
sbssg25
S'\x8a\x07\xe0\xe1Q\x820\x05R\x14E\xd0\xdf\x8e\xc5\x8a'
p3128
ssS'learn_views_daily_quests___init__'
p3129
(dp3130
g6
(dp3131
g8
S'learn_views_daily_quests___init__.html'
p3132
sg10
S'learn/views/daily_quests/__init__'
p3133
sg12
g13
(g14
g15
NtRp3134
(dp3135
g18
I1
sg19
I0
sg20
I3
sg21
I0
sg22
I0
sg23
I0
sg24
I0
sbssg25
S'\xabgT\x8f\xf6_\xecD=h\x94\xa6\x8fk\x9b\xd1'
p3136
ssS'user_system_views_signups_tests___init__'
p3137
(dp3138
g6
(dp3139
g8
S'user_system_views_signups_tests___init__.html'
p3140
sg10
S'user_system/views/signups/tests/__init__'
p3141
sg12
g13
(g14
g15
NtRp3142
(dp3143
g18
I1
sg19
I0
sg20
I1
sg21
I0
sg22
I0
sg23
I0
sg24
I0
sbssg25
S'\xbc\xd6\xeb\xb3\xba\xcaz\xf7{\xd4B\xb5}l\xdf\x96'
p3144
ssS'create_views_books_tests___init__'
p3145
(dp3146
g6
(dp3147
g8
S'create_views_books_tests___init__.html'
p3148
sg10
S'create/views/books/tests/__init__'
p3149
sg12
g13
(g14
g15
NtRp3150
(dp3151
g18
I1
sg19
I0
sg20
I0
sg21
I0
sg22
I0
sg23
I0
sg24
I0
sbssg25
S'\x19g\xdfM\x1a\x019\xaf\x1baIeR\xe5u\xa7'
p3152
ssS'user_system_models_users_tests_test_user_streak_history_model'
p3153
(dp3154
g6
(dp3155
g8
S'user_system_models_users_tests_test_user_streak_history_model.html'
p3156
sg10
S'user_system/models/users/tests/test_user_streak_history_model'
p3157
sg12
g13
(g14
g15
NtRp3158
(dp3159
g18
I1
sg19
I0
sg20
I19
sg21
I0
sg22
I0
sg23
I0
sg24
I0
sbssg25
S'\xc7I1\x11\xc9\xbf7\xee\x1c\x16@\x10JP\xaf\xfc'
p3160
sssS'version'
p3161
S'3.7.1'
p3162
sS'settings'
p3163
S'\x961E{\x0c29\xd1#\x83\xd3j9"\xd8\x10'
p3164
sS'format'
p3165
I1
s.