(dp1
S'files'
p2
(dp3
S'create_views_quests_tests_test_add_tag_view'
p4
(dp5
S'index'
p6
(dp7
S'html_filename'
p8
S'create_views_quests_tests_test_add_tag_view.html'
p9
sS'name'
p10
S'create/views/quests/tests/test_add_tag_view'
p11
sS'nums'
p12
ccopy_reg
_reconstructor
p13
(ccoverage.results
Numbers
p14
c__builtin__
object
p15
NtRp16
(dp17
S'n_files'
p18
I1
sS'n_branches'
p19
I0
sS'n_statements'
p20
I35
sS'n_excluded'
p21
I0
sS'n_partial_branches'
p22
I0
sS'n_missing'
p23
I0
sS'n_missing_branches'
p24
I0
sbssS'hash'
p25
S'o\xbe\xf1\xf9\x80\xe5|\xbab\xcc\xe2F=\x1e\xacp'
p26
ssS'user_system_models_users_teacher_profile_model'
p27
(dp28
S'index'
p29
(dp30
S'html_filename'
p31
S'user_system_models_users_teacher_profile_model.html'
p32
sS'name'
p33
S'user_system/models/users/teacher_profile_model'
p34
sS'nums'
p35
g13
(g14
g15
NtRp36
(dp37
g18
I1
sg19
I0
sg20
I27
sg21
I0
sg22
I0
sg23
I0
sg24
I0
sbssS'hash'
p38
S'x\x9e\x06\xe6\x8d\x87\xed\xaf\x91\x87\x16\xfc"\x96\xf2\xfc'
p39
ssS'user_system_views_signups_facebook_signup_view'
p40
(dp41
S'index'
p42
(dp43
S'html_filename'
p44
S'user_system_views_signups_facebook_signup_view.html'
p45
sS'name'
p46
S'user_system/views/signups/facebook_signup_view'
p47
sS'nums'
p48
g13
(g14
g15
NtRp49
(dp50
g18
I1
sg19
I8
sg20
I38
sg21
I0
sg22
I0
sg23
I0
sg24
I0
sbssS'hash'
p51
S'\x04E\'\x17r8\x14\xf6 \x98\xb5\xa0sx"@'
p52
ssS'teach_models_teacher_tags___init__'
p53
(dp54
S'index'
p55
(dp56
S'html_filename'
p57
S'teach_models_teacher_tags___init__.html'
p58
sS'name'
p59
S'teach/models/teacher_tags/__init__'
p60
sS'nums'
p61
g13
(g14
g15
NtRp62
(dp63
g18
I1
sg19
I0
sg20
I1
sg21
I0
sg22
I0
sg23
I0
sg24
I0
sbssS'hash'
p64
S"\x15#y\x16\x1a\x9d\xc6mE\xccg]\x07\xb9'\xe0"
p65
ssS'user_system_models_roles_tests_test_role_app_model'
p66
(dp67
g42
(dp68
g44
S'user_system_models_roles_tests_test_role_app_model.html'
p69
sg46
S'user_system/models/roles/tests/test_role_app_model'
p70
sg48
g13
(g14
g15
NtRp71
(dp72
g18
I1
sg19
I0
sg20
I21
sg21
I0
sg22
I0
sg23
I0
sg24
I0
sbssg51
S"\x80\xd7v\xbb\xe5d.\xeb\xfd\xc4\x04\xb2\x04'\xc6V"
p73
ssS'teach_models_teacher_chapters___init__'
p74
(dp75
g55
(dp76
g57
S'teach_models_teacher_chapters___init__.html'
p77
sg59
S'teach/models/teacher_chapters/__init__'
p78
sg61
g13
(g14
g15
NtRp79
(dp80
g18
I1
sg19
I0
sg20
I1
sg21
I0
sg22
I0
sg23
I0
sg24
I0
sbssg64
S'\xfa\xce(\x03\x8d\xd7\xc1h\xedT\xf9d\xae\x03w^'
p81
ssS'user_system_views_logins_facebook_login_view'
p82
(dp83
g42
(dp84
g44
S'user_system_views_logins_facebook_login_view.html'
p85
sg46
S'user_system/views/logins/facebook_login_view'
p86
sg48
g13
(g14
g15
NtRp87
(dp88
g18
I1
sg19
I4
sg20
I24
sg21
I0
sg22
I0
sg23
I0
sg24
I0
sbssg51
S',\xf8~\x8d\x9b\xfe\xa6wQ5\x92t\x15\xe5\x95\x8d'
p89
ssS'create_serializers_questions_question_history_serializer'
p90
(dp91
g42
(dp92
S'html_filename'
p93
S'create_serializers_questions_question_history_serializer.html'
p94
sS'name'
p95
S'create/serializers/questions/question_history_serializer'
p96
sS'nums'
p97
g13
(g14
g15
NtRp98
(dp99
g18
I1
sg19
I2
sg20
I30
sg21
I0
sg22
I1
sg23
I2
sg24
I1
sbssg51
S'C\x93,\xa4\xac3\xb6\xb8\xca\x076\xae\x14\x15\xc0J'
p100
ssS'create_serializers_quests_quest_history_serializer'
p101
(dp102
S'index'
p103
(dp104
S'html_filename'
p105
S'create_serializers_quests_quest_history_serializer.html'
p106
sS'name'
p107
S'create/serializers/quests/quest_history_serializer'
p108
sS'nums'
p109
g13
(g14
g15
NtRp110
(dp111
g18
I1
sg19
I0
sg20
I38
sg21
I0
sg22
I0
sg23
I15
sg24
I0
sbssS'hash'
p112
S'\x0c\x10\x81\x11\xc3\xff\x01\x8d<#\xe5~\x84\xec\x18\xfd'
p113
ssS'user_system_models_users_tests_test_student_profile_request_model'
p114
(dp115
S'index'
p116
(dp117
g31
S'user_system_models_users_tests_test_student_profile_request_model.html'
p118
sg33
S'user_system/models/users/tests/test_student_profile_request_model'
p119
sg35
g13
(g14
g15
NtRp120
(dp121
g18
I1
sg19
I0
sg20
I42
sg21
I0
sg22
I0
sg23
I0
sg24
I0
sbssS'hash'
p122
S'\x0c4FG\x9bD\x9e\xaa\xb9a\xd6\xee\xc6&0T'
p123
ssS'create_views_books_tests_test_add_chapter_view'
p124
(dp125
S'index'
p126
(dp127
g44
S'create_views_books_tests_test_add_chapter_view.html'
p128
sg46
S'create/views/books/tests/test_add_chapter_view'
p129
sg48
g13
(g14
g15
NtRp130
(dp131
g18
I1
sg19
I0
sg20
I69
sg21
I0
sg22
I0
sg23
I0
sg24
I0
sbssS'hash'
p132
S'\xea\xcd\x81\xff\xe6p74\xe3\xab\xc2R\x1aZ#Y'
p133
ssS'teach_models_teacher_chapters_tests_test_teacher_chapter_model'
p134
(dp135
g55
(dp136
g57
S'teach_models_teacher_chapters_tests_test_teacher_chapter_model.html'
p137
sg59
S'teach/models/teacher_chapters/tests/test_teacher_chapter_model'
p138
sg61
g13
(g14
g15
NtRp139
(dp140
g18
I1
sg19
I0
sg20
I28
sg21
I0
sg22
I0
sg23
I0
sg24
I0
sbssg64
S'm\xb2B\x1a\x04\xa5\x94N\xbe\xb6\xfa\xa9\x16J\x10\x92'
p141
ssS'create_serializers_question_datasets___init__'
p142
(dp143
S'index'
p144
(dp145
S'html_filename'
p146
S'create_serializers_question_datasets___init__.html'
p147
sS'name'
p148
S'create/serializers/question_datasets/__init__'
p149
sS'nums'
p150
g13
(g14
g15
NtRp151
(dp152
g18
I1
sg19
I0
sg20
I1
sg21
I0
sg22
I0
sg23
I0
sg24
I0
sbssS'hash'
p153
S'Z\xf8\x02Tc\xc1C;<_\x87\xc6\xc2H\xa6\xdc'
p154
ssS'user_system_models_users_user_profile_model'
p155
(dp156
g42
(dp157
S'html_filename'
p158
S'user_system_models_users_user_profile_model.html'
p159
sS'name'
p160
S'user_system/models/users/user_profile_model'
p161
sS'nums'
p162
g13
(g14
g15
NtRp163
(dp164
g18
I1
sg19
I48
sg20
I178
sg21
I0
sg22
I0
sg23
I176
sg24
I48
sbssg51
S'\xa9\xbaG\xb0o\xbbC\xc4\xf4~\x1d\xc6\xbbo\xf9\xe9'
p165
ssS'create_models_question_datasets_tests_test_question_dataset_model'
p166
(dp167
g144
(dp168
g146
S'create_models_question_datasets_tests_test_question_dataset_model.html'
p169
sg148
S'create/models/question_datasets/tests/test_question_dataset_model'
p170
sg150
g13
(g14
g15
NtRp171
(dp172
g18
I1
sg19
I2
sg20
I39
sg21
I0
sg22
I0
sg23
I0
sg24
I0
sbssg153
S'!\t\x88\xfc\x0f\xaa\x0c\x88\xe3\xf9\x04\xd1\\0w\xf1'
p173
ssS'user_system_models_users___init__'
p174
(dp175
g42
(dp176
g158
S'user_system_models_users___init__.html'
p177
sg160
S'user_system/models/users/__init__'
p178
sg162
g13
(g14
g15
NtRp179
(dp180
g18
I1
sg19
I0
sg20
I11
sg21
I0
sg22
I0
sg23
I10
sg24
I0
sbssg51
S'\xaeJ\xc0\xf21\xb3^@U\t\x071\xd8%\xfd\xcb'
p181
ssS'teach_urls'
p182
(dp183
g55
(dp184
S'html_filename'
p185
S'teach_urls.html'
p186
sS'name'
p187
S'teach/urls'
p188
sS'nums'
p189
g13
(g14
g15
NtRp190
(dp191
g18
I1
sg19
I0
sg20
I13
sg21
I0
sg22
I0
sg23
I0
sg24
I0
sbssg64
S'1\xa6\x90\x84\xbf\x9b\x9at\x1f4\xf1\x1b\x92\x03\xff%'
p192
ssS'learn_serializers_daily_quests___init__'
p193
(dp194
g55
(dp195
S'html_filename'
p196
S'learn_serializers_daily_quests___init__.html'
p197
sS'name'
p198
S'learn/serializers/daily_quests/__init__'
p199
sS'nums'
p200
g13
(g14
g15
NtRp201
(dp202
g18
I1
sg19
I0
sg20
I2
sg21
I0
sg22
I0
sg23
I0
sg24
I0
sbssg64
S'\x8e\x0b\xa4\xc1x\xdb]\xcc\xf6 \x7f\xbeO\x91\xca@'
p203
ssS'user_system_models_schools___init__'
p204
(dp205
S'index'
p206
(dp207
S'html_filename'
p208
S'user_system_models_schools___init__.html'
p209
sS'name'
p210
S'user_system/models/schools/__init__'
p211
sS'nums'
p212
g13
(g14
g15
NtRp213
(dp214
g18
I1
sg19
I0
sg20
I6
sg21
I0
sg22
I0
sg23
I0
sg24
I0
sbssS'hash'
p215
S'\xbe\xc9\xb2f\x05\x1f\xe6\xee\xef\x01#\xe8\x16\xc2\x83\xdb'
p216
ssS'create_views_questions_tests_test_remove_tag_view'
p217
(dp218
S'index'
p219
(dp220
S'html_filename'
p221
S'create_views_questions_tests_test_remove_tag_view.html'
p222
sS'name'
p223
S'create/views/questions/tests/test_remove_tag_view'
p224
sS'nums'
p225
g13
(g14
g15
NtRp226
(dp227
g18
I1
sg19
I0
sg20
I36
sg21
I0
sg22
I0
sg23
I0
sg24
I0
sbssS'hash'
p228
S'\xbdV1EN\xfe\x8e;\xe4\x92\x91r\xd6Q\x03\x80'
p229
ssS'user_system_models_users_tests_test_student_profile_model'
p230
(dp231
S'index'
p232
(dp233
g196
S'user_system_models_users_tests_test_student_profile_model.html'
p234
sg198
S'user_system/models/users/tests/test_student_profile_model'
p235
sg200
g13
(g14
g15
NtRp236
(dp237
g18
I1
sg19
I0
sg20
I48
sg21
I0
sg22
I0
sg23
I0
sg24
I0
sbssS'hash'
p238
S'\n_\xb5B0\x1dR\x0b\x16i\x1fy.Z\x14#'
p239
ssS'create_views_daily_quest_templates___init__'
p240
(dp241
S'index'
p242
(dp243
S'html_filename'
p244
S'create_views_daily_quest_templates___init__.html'
p245
sS'name'
p246
S'create/views/daily_quest_templates/__init__'
p247
sS'nums'
p248
g13
(g14
g15
NtRp249
(dp250
g18
I1
sg19
I0
sg20
I1
sg21
I0
sg22
I0
sg23
I0
sg24
I0
sbssS'hash'
p251
S'\xc1b\x1f\x95\xabR`C\xe80\xb9tNC\r3'
p252
ssS'api_logging_views_query_stat_query_stat_view'
p253
(dp254
S'index'
p255
(dp256
S'html_filename'
p257
S'api_logging_views_query_stat_query_stat_view.html'
p258
sS'name'
p259
S'api_logging/views/query_stat/query_stat_view'
p260
sS'nums'
p261
g13
(g14
g15
NtRp262
(dp263
g18
I1
sg19
I2
sg20
I40
sg21
I0
sg22
I0
sg23
I20
sg24
I2
sbssS'hash'
p264
S'\xd2\xdb!D8\xbd]\xc7\x91e\xc6\xc8\x19D3\xb1'
p265
ssS'learn___init__'
p266
(dp267
g55
(dp268
g57
S'learn___init__.html'
p269
sg59
S'learn/__init__'
p270
sg61
g13
(g14
g15
NtRp271
(dp272
g18
I1
sg19
I0
sg20
I0
sg21
I0
sg22
I0
sg23
I0
sg24
I0
sbssg64
S'\x19g\xdfM\x1a\x019\xaf\x1baIeR\xe5u\xa7'
p273
ssS'create_serializers_quests___init__'
p274
(dp275
g103
(dp276
g31
S'create_serializers_quests___init__.html'
p277
sg33
S'create/serializers/quests/__init__'
p278
sg35
g13
(g14
g15
NtRp279
(dp280
g18
I1
sg19
I0
sg20
I2
sg21
I0
sg22
I0
sg23
I0
sg24
I0
sbssg112
S'\xc0,Fh\xaf\xa0(\x8f\xde\x02{\x88!\x04\x7f\xb6'
p281
ssS'teach_views_teacher_chapters___init__'
p282
(dp283
g55
(dp284
g57
S'teach_views_teacher_chapters___init__.html'
p285
sg59
S'teach/views/teacher_chapters/__init__'
p286
sg61
g13
(g14
g15
NtRp287
(dp288
g18
I1
sg19
I0
sg20
I1
sg21
I0
sg22
I0
sg23
I0
sg24
I0
sbssg64
S'\x10AP\xc9\nC\xd2REz\xf6\xe5\xd2(\xee`'
p289
ssS'user_system_models_users_student_profile_request_model'
p290
(dp291
g116
(dp292
g31
S'user_system_models_users_student_profile_request_model.html'
p293
sg33
S'user_system/models/users/student_profile_request_model'
p294
sg35
g13
(g14
g15
NtRp295
(dp296
g18
I1
sg19
I0
sg20
I45
sg21
I0
sg22
I0
sg23
I0
sg24
I0
sbssg122
S'\xeeZA}\xa0\xf5\x88k0a2\x9fS\xf3}\x05'
p297
ssS'privilege_models___init__'
p298
(dp299
S'index'
p300
(dp301
g93
S'privilege_models___init__.html'
p302
sg95
S'privilege/models/__init__'
p303
sg97
g13
(g14
g15
NtRp304
(dp305
g18
I1
sg19
I0
sg20
I1
sg21
I0
sg22
I0
sg23
I0
sg24
I0
sbssS'hash'
p306
S'\x13V\xca}S\xd3\x98Rp?\xb0\xe1\x904>b'
p307
ssS'user_system_views_users_teacher_mapping_view'
p308
(dp309
S'index'
p310
(dp311
g196
S'user_system_views_users_teacher_mapping_view.html'
p312
sg198
S'user_system/views/users/teacher_mapping_view'
p313
sg200
g13
(g14
g15
NtRp314
(dp315
g18
I1
sg19
I0
sg20
I14
sg21
I0
sg22
I0
sg23
I0
sg24
I0
sbssS'hash'
p316
S'B\x04t\x93Z\x86Q.\x17\xf9\xa0*\xf6\x86\xcf\x10'
p317
ssS'create_views_tags_tests_test_search_tag_view'
p318
(dp319
S'index'
p320
(dp321
g93
S'create_views_tags_tests_test_search_tag_view.html'
p322
sg95
S'create/views/tags/tests/test_search_tag_view'
p323
sg97
g13
(g14
g15
NtRp324
(dp325
g18
I1
sg19
I0
sg20
I22
sg21
I0
sg22
I0
sg23
I0
sg24
I0
sbssS'hash'
p326
S'\rh\xcb\xb3g\x15\x9c\xe3hR\xc5r\xb9\x9c\xb2\x1f'
p327
ssS'create_views_questions_tests_test_hide_question_view'
p328
(dp329
g42
(dp330
g44
S'create_views_questions_tests_test_hide_question_view.html'
p331
sg46
S'create/views/questions/tests/test_hide_question_view'
p332
sg48
g13
(g14
g15
NtRp333
(dp334
g18
I1
sg19
I0
sg20
I30
sg21
I0
sg22
I0
sg23
I0
sg24
I0
sbssg51
S'\xb3\x10S\x8a\x9b\xecw\xaa\xd3\x81\x1b\xf2\xab\xb2QG'
p335
ssS'user_system_serializers_users_student_profile_request_serializer'
p336
(dp337
g116
(dp338
g31
S'user_system_serializers_users_student_profile_request_serializer.html'
p339
sg33
S'user_system/serializers/users/student_profile_request_serializer'
p340
sg35
g13
(g14
g15
NtRp341
(dp342
g18
I1
sg19
I0
sg20
I8
sg21
I0
sg22
I0
sg23
I0
sg24
I0
sbssg122
S'\xa9VJ\x07M\x02\xee$\t\xc8O\xc43$\x1a-'
p343
ssS'user_system_models_users_tests_test_teacher_profile_model'
p344
(dp345
g29
(dp346
S'html_filename'
p347
S'user_system_models_users_tests_test_teacher_profile_model.html'
p348
sS'name'
p349
S'user_system/models/users/tests/test_teacher_profile_model'
p350
sS'nums'
p351
g13
(g14
g15
NtRp352
(dp353
g18
I1
sg19
I0
sg20
I32
sg21
I0
sg22
I0
sg23
I0
sg24
I0
sbssg38
S'\xe7n\x9a\x17\x9d0\x01\xa6\x0f\x18\x10l\x8ckmy'
p354
ssS'teach_models_campaigns___init__'
p355
(dp356
g116
(dp357
g31
S'teach_models_campaigns___init__.html'
p358
sg33
S'teach/models/campaigns/__init__'
p359
sg35
g13
(g14
g15
NtRp360
(dp361
g18
I1
sg19
I0
sg20
I1
sg21
I0
sg22
I0
sg23
I0
sg24
I0
sbssg122
S'\xba\x82\x818\x88\xe0\xf2#\xe9\x89\xffso\xdc\xe6\xd4'
p362
ssS'create_serializers_books_book_chapter_serializer'
p363
(dp364
S'index'
p365
(dp366
g57
S'create_serializers_books_book_chapter_serializer.html'
p367
sg59
S'create/serializers/books/book_chapter_serializer'
p368
sg61
g13
(g14
g15
NtRp369
(dp370
g18
I1
sg19
I0
sg20
I23
sg21
I0
sg22
I0
sg23
I3
sg24
I0
sbssS'hash'
p371
S'\xf1~, f\x89\xad\xc8p\xcc\xd4E_\x0b3\x06'
p372
ssS'api_logging_models_api_logging_api_logging_model'
p373
(dp374
g310
(dp375
g196
S'api_logging_models_api_logging_api_logging_model.html'
p376
sg198
S'api_logging/models/api_logging/api_logging_model'
p377
sg200
g13
(g14
g15
NtRp378
(dp379
g18
I1
sg19
I0
sg20
I21
sg21
I0
sg22
I0
sg23
I0
sg24
I0
sbssg316
S'\x0c\x96WFX%\xe9\xcf+\xcf\xc2s\xa7a1\xbd'
p380
ssS'privilege_models_privileges_tests_test_user_privilege_model'
p381
(dp382
g300
(dp383
g93
S'privilege_models_privileges_tests_test_user_privilege_model.html'
p384
sg95
S'privilege/models/privileges/tests/test_user_privilege_model'
p385
sg97
g13
(g14
g15
NtRp386
(dp387
g18
I1
sg19
I0
sg20
I19
sg21
I0
sg22
I0
sg23
I0
sg24
I0
sbssg306
S'\xcd\xf2\x96G\xfe\xbc/\xb5\x15\xceNf\x0f\x0b5\xd4'
p388
ssS'user_system_urls'
p389
(dp390
g42
(dp391
S'html_filename'
p392
S'user_system_urls.html'
p393
sS'name'
p394
S'user_system/urls'
p395
sS'nums'
p396
g13
(g14
g15
NtRp397
(dp398
g18
I1
sg19
I0
sg20
I18
sg21
I0
sg22
I0
sg23
I0
sg24
I0
sbssg51
S'\x00\x8ala|\xefj\x9c-\x8e\x9d\xca\xbe"W\x9f'
p399
ssS'create_models_tags_tests_test_tag_type_model'
p400
(dp401
S'index'
p402
(dp403
g44
S'create_models_tags_tests_test_tag_type_model.html'
p404
sg46
S'create/models/tags/tests/test_tag_type_model'
p405
sg48
g13
(g14
g15
NtRp406
(dp407
g18
I1
sg19
I0
sg20
I17
sg21
I0
sg22
I0
sg23
I0
sg24
I0
sbssS'hash'
p408
S'?6\xfcg\xce\x11\x1a7E\xaf\xb2\x02\t"\xddA'
p409
ssS'create_models_quests_quest_history_model'
p410
(dp411
g103
(dp412
g8
S'create_models_quests_quest_history_model.html'
p413
sg10
S'create/models/quests/quest_history_model'
p414
sg12
g13
(g14
g15
NtRp415
(dp416
g18
I1
sg19
I8
sg20
I75
sg21
I0
sg22
I3
sg23
I4
sg24
I3
sbssg112
S'@\xe7\xfa\x02?w\xe7\x93\xa3\x85\x0f\x0fz\xf0\xdbR'
p417
ssS'learn_models_daily_quests_tests_test_daily_quest_question_history_model'
p418
(dp419
S'index'
p420
(dp421
g392
S'learn_models_daily_quests_tests_test_daily_quest_question_history_model.html'
p422
sg394
S'learn/models/daily_quests/tests/test_daily_quest_question_history_model'
p423
sg396
g13
(g14
g15
NtRp424
(dp425
g18
I1
sg19
I0
sg20
I202
sg21
I0
sg22
I0
sg23
I0
sg24
I0
sbssS'hash'
p426
S"(\xfe\xfc\x9b\xd9\xaf\n\x08\x83_\xc9Ko'\xc4\xb9"
p427
ssS'create_models_daily_quest_copies_daily_quest_copy_model'
p428
(dp429
S'index'
p430
(dp431
S'html_filename'
p432
S'create_models_daily_quest_copies_daily_quest_copy_model.html'
p433
sS'name'
p434
S'create/models/daily_quest_copies/daily_quest_copy_model'
p435
sS'nums'
p436
g13
(g14
g15
NtRp437
(dp438
g18
I1
sg19
I6
sg20
I47
sg21
I0
sg22
I0
sg23
I14
sg24
I6
sbssS'hash'
p439
S'\x90\xa7\xba\xee\x88\xf84\xf7\xd1B\x9b9@\\\x80P'
p440
ssS'user_system_models_roles_role_app_model'
p441
(dp442
g42
(dp443
g44
S'user_system_models_roles_role_app_model.html'
p444
sg46
S'user_system/models/roles/role_app_model'
p445
sg48
g13
(g14
g15
NtRp446
(dp447
g18
I1
sg19
I0
sg20
I18
sg21
I0
sg22
I0
sg23
I0
sg24
I0
sbssg51
S'\x8d\xa3&\x03\x9d\x1cO|\xces.\x11/\x8f`\xcc'
p448
ssS'user_system_models_apps_app_model'
p449
(dp450
g42
(dp451
g44
S'user_system_models_apps_app_model.html'
p452
sg46
S'user_system/models/apps/app_model'
p453
sg48
g13
(g14
g15
NtRp454
(dp455
g18
I1
sg19
I0
sg20
I16
sg21
I0
sg22
I0
sg23
I0
sg24
I0
sbssg51
S',\x89\x9d;<\xa3\xdc\x92@\xa5\x9c\x7fcg\x05?'
p456
ssS'user_system_views_apps_tests___init__'
p457
(dp458
g42
(dp459
S'html_filename'
p460
S'user_system_views_apps_tests___init__.html'
p461
sS'name'
p462
S'user_system/views/apps/tests/__init__'
p463
sS'nums'
p464
g13
(g14
g15
NtRp465
(dp466
g18
I1
sg19
I0
sg20
I0
sg21
I0
sg22
I0
sg23
I0
sg24
I0
sbssg51
S'\x19g\xdfM\x1a\x019\xaf\x1baIeR\xe5u\xa7'
p467
ssS'privilege___init__'
p468
(dp469
g300
(dp470
g93
S'privilege___init__.html'
p471
sg95
S'privilege/__init__'
p472
sg97
g13
(g14
g15
NtRp473
(dp474
g18
I1
sg19
I0
sg20
I0
sg21
I0
sg22
I0
sg23
I0
sg24
I0
sbssg306
S'\x19g\xdfM\x1a\x019\xaf\x1baIeR\xe5u\xa7'
p475
ssS'create_views_books___init__'
p476
(dp477
g365
(dp478
S'html_filename'
p479
S'create_views_books___init__.html'
p480
sS'name'
p481
S'create/views/books/__init__'
p482
sS'nums'
p483
g13
(g14
g15
NtRp484
(dp485
g18
I1
sg19
I0
sg20
I3
sg21
I0
sg22
I0
sg23
I0
sg24
I0
sbssg371
S'\xce\x13\xc8S|wF\xe3\x148\xa0?ez,\xc4'
p486
ssS'create_models_books_book_chapter_model'
p487
(dp488
g365
(dp489
g31
S'create_models_books_book_chapter_model.html'
p490
sg33
S'create/models/books/book_chapter_model'
p491
sg35
g13
(g14
g15
NtRp492
(dp493
g18
I1
sg19
I8
sg20
I58
sg21
I0
sg22
I1
sg23
I3
sg24
I3
sbssg371
S'5h\xa3E\x99\xf4H\x97\xbf\x08?=+K\xe7\xad'
p494
ssS'user_system_admin'
p495
(dp496
g42
(dp497
g196
S'user_system_admin.html'
p498
sg198
S'user_system/admin'
p499
sg200
g13
(g14
g15
NtRp500
(dp501
g18
I1
sg19
I0
sg20
I25
sg21
I0
sg22
I0
sg23
I0
sg24
I0
sbssg51
S',\xc1@k;\x98\x80\xb5\xbc\xab\x11\xf3\xdc\x0b\xd1U'
p502
ssS'user_system_serializers_users_teacher_profile_serializer'
p503
(dp504
g116
(dp505
g31
S'user_system_serializers_users_teacher_profile_serializer.html'
p506
sg33
S'user_system/serializers/users/teacher_profile_serializer'
p507
sg35
g13
(g14
g15
NtRp508
(dp509
g18
I1
sg19
I4
sg20
I20
sg21
I0
sg22
I0
sg23
I9
sg24
I4
sbssg122
S'\xe2\xa5\xba\xd6e\xc2\x88\xab\xaes\x15\x08\xa9ta\xd6'
p510
ssS'user_system_models_users_tests___init__'
p511
(dp512
g42
(dp513
g460
S'user_system_models_users_tests___init__.html'
p514
sg462
S'user_system/models/users/tests/__init__'
p515
sg464
g13
(g14
g15
NtRp516
(dp517
g18
I1
sg19
I0
sg20
I0
sg21
I0
sg22
I0
sg23
I0
sg24
I0
sbssg51
S'\x19g\xdfM\x1a\x019\xaf\x1baIeR\xe5u\xa7'
p518
ssS'user_system_models_users_user_profile_picture_model'
p519
(dp520
g116
(dp521
g31
S'user_system_models_users_user_profile_picture_model.html'
p522
sg33
S'user_system/models/users/user_profile_picture_model'
p523
sg35
g13
(g14
g15
NtRp524
(dp525
g18
I1
sg19
I0
sg20
I18
sg21
I0
sg22
I0
sg23
I0
sg24
I0
sbssg122
S'$E\xff\xf5f,\xb2\xc7\xb4\x9b*\x0es|s\xcc'
p526
ssS'teach_models_teacher_tags_teacher_tag_model'
p527
(dp528
g55
(dp529
g57
S'teach_models_teacher_tags_teacher_tag_model.html'
p530
sg59
S'teach/models/teacher_tags/teacher_tag_model'
p531
sg61
g13
(g14
g15
NtRp532
(dp533
g18
I1
sg19
I0
sg20
I30
sg21
I0
sg22
I0
sg23
I0
sg24
I0
sbssg64
S'\\\xb6A\xa8\xa7\x93\x16K\xceQ>\xe8t\xdb<#'
p534
ssS'teach_models_daily_quest_templates_daily_quest_template_model'
p535
(dp536
g55
(dp537
S'html_filename'
p538
S'teach_models_daily_quest_templates_daily_quest_template_model.html'
p539
sS'name'
p540
S'teach/models/daily_quest_templates/daily_quest_template_model'
p541
sS'nums'
p542
g13
(g14
g15
NtRp543
(dp544
g18
I1
sg19
I0
sg20
I32
sg21
I0
sg22
I0
sg23
I0
sg24
I0
sbssg64
S'\xd8?/FZ\xe7\xb6\xa6E&6\x86\xa5\x93\x7f='
p545
ssS'create_views_books_tests_test_add_subchapter_view'
p546
(dp547
S'index'
p548
(dp549
g44
S'create_views_books_tests_test_add_subchapter_view.html'
p550
sg46
S'create/views/books/tests/test_add_subchapter_view'
p551
sg48
g13
(g14
g15
NtRp552
(dp553
g18
I1
sg19
I0
sg20
I60
sg21
I0
sg22
I0
sg23
I0
sg24
I0
sbssS'hash'
p554
S"\xcc^2\xc4\xf2\xb1\xdc\xe8\xf0t\xb6\xcc\x1f\xce\xf1'"
p555
ssS'create_models_quests_quest_model'
p556
(dp557
g103
(dp558
S'html_filename'
p559
S'create_models_quests_quest_model.html'
p560
sS'name'
p561
S'create/models/quests/quest_model'
p562
sS'nums'
p563
g13
(g14
g15
NtRp564
(dp565
g18
I1
sg19
I4
sg20
I59
sg21
I0
sg22
I0
sg23
I13
sg24
I4
sbssg112
S'^g\x1e\x82\xee1[\xc0\xbe\x04\xca\xb1`M\xe7\xe9'
p566
ssS'user_system_views_users_tests_test_remove_role_view'
p567
(dp568
g42
(dp569
g44
S'user_system_views_users_tests_test_remove_role_view.html'
p570
sg46
S'user_system/views/users/tests/test_remove_role_view'
p571
sg48
g13
(g14
g15
NtRp572
(dp573
g18
I1
sg19
I0
sg20
I42
sg21
I0
sg22
I0
sg23
I0
sg24
I0
sbssg51
S'\xfb\x9b\xa3\xe5\x90\xe7q99\x19\x10"<@L\x8c'
p574
ssS'create_models_tags_tests_test_tag_history_model'
p575
(dp576
S'index'
p577
(dp578
g57
S'create_models_tags_tests_test_tag_history_model.html'
p579
sg59
S'create/models/tags/tests/test_tag_history_model'
p580
sg61
g13
(g14
g15
NtRp581
(dp582
g18
I1
sg19
I0
sg20
I58
sg21
I0
sg22
I0
sg23
I0
sg24
I0
sbssS'hash'
p583
S"\x05Y\xa9\xba\xf0\xa8\xd2*7_\xcb]\xfb*#'"
p584
ssS'teach_views_teacher_news_feed___init__'
p585
(dp586
g310
(dp587
g196
S'teach_views_teacher_news_feed___init__.html'
p588
sg198
S'teach/views/teacher_news_feed/__init__'
p589
sg200
g13
(g14
g15
NtRp590
(dp591
g18
I1
sg19
I0
sg20
I1
sg21
I0
sg22
I0
sg23
I0
sg24
I0
sbssg316
S'\xe8\xcd\xf3\x9f\xa3=;`\xf0oZ\xcb!\x98\xac\x1c'
p592
ssS'create_views_daily_quest_templates_daily_quest_template_view'
p593
(dp594
g242
(dp595
g244
S'create_views_daily_quest_templates_daily_quest_template_view.html'
p596
sg246
S'create/views/daily_quest_templates/daily_quest_template_view'
p597
sg248
g13
(g14
g15
NtRp598
(dp599
g18
I1
sg19
I4
sg20
I20
sg21
I0
sg22
I0
sg23
I5
sg24
I4
sbssg251
S'*(w\xa3\x82\x06\xe8D\x8c\xaa+3\xbc\xe3\xa5\x1d'
p600
ssS'create_models_questions_question_history_remark_model'
p601
(dp602
S'index'
p603
(dp604
S'html_filename'
p605
S'create_models_questions_question_history_remark_model.html'
p606
sS'name'
p607
S'create/models/questions/question_history_remark_model'
p608
sS'nums'
p609
g13
(g14
g15
NtRp610
(dp611
g18
I1
sg19
I0
sg20
I27
sg21
I0
sg22
I0
sg23
I0
sg24
I0
sbssS'hash'
p612
S'\xac"G5\x1c\xf2\xef\xa9\x1dUd\xce4.\xac\xa4'
p613
ssS'learn_serializers___init__'
p614
(dp615
g55
(dp616
g57
S'learn_serializers___init__.html'
p617
sg59
S'learn/serializers/__init__'
p618
sg61
g13
(g14
g15
NtRp619
(dp620
g18
I1
sg19
I0
sg20
I1
sg21
I0
sg22
I0
sg23
I0
sg24
I0
sbssg64
S'cLP\xd9\xc0\x91mD\xa3\xd2\xbczr\xdak\xf4'
p621
ssS'user_system_views_schools___init__'
p622
(dp623
g116
(dp624
g31
S'user_system_views_schools___init__.html'
p625
sg33
S'user_system/views/schools/__init__'
p626
sg35
g13
(g14
g15
NtRp627
(dp628
g18
I1
sg19
I0
sg20
I2
sg21
I0
sg22
I0
sg23
I0
sg24
I0
sbssg122
S'\x85\xe2\x7f\xa7\xac\x16HY\x8b\x10\x9b\xc0r\x17|\x8c'
p629
ssS'create_views_quests___init__'
p630
(dp631
g103
(dp632
S'html_filename'
p633
S'create_views_quests___init__.html'
p634
sS'name'
p635
S'create/views/quests/__init__'
p636
sS'nums'
p637
g13
(g14
g15
NtRp638
(dp639
g18
I1
sg19
I0
sg20
I1
sg21
I0
sg22
I0
sg23
I0
sg24
I0
sbssg112
S'\x8d\x97\x8c^6\xf0o\xc3_\x8dRQ}\xd2]a'
p640
ssS'user_system_models_schools_tests_test_course_model'
p641
(dp642
g232
(dp643
S'html_filename'
p644
S'user_system_models_schools_tests_test_course_model.html'
p645
sS'name'
p646
S'user_system/models/schools/tests/test_course_model'
p647
sS'nums'
p648
g13
(g14
g15
NtRp649
(dp650
g18
I1
sg19
I8
sg20
I50
sg21
I0
sg22
I0
sg23
I0
sg24
I0
sbssg238
S'\xd7va\xe6uR6*v\xca\x885\xf3]$1'
p651
ssS'create_models_question_datasets_tests___init__'
p652
(dp653
g144
(dp654
g146
S'create_models_question_datasets_tests___init__.html'
p655
sg148
S'create/models/question_datasets/tests/__init__'
p656
sg150
g13
(g14
g15
NtRp657
(dp658
g18
I1
sg19
I0
sg20
I0
sg21
I0
sg22
I0
sg23
I0
sg24
I0
sbssg153
S'\x19g\xdfM\x1a\x019\xaf\x1baIeR\xe5u\xa7'
p659
ssS'api_logging_models_modal_logging_modal_model'
p660
(dp661
g310
(dp662
g196
S'api_logging_models_modal_logging_modal_model.html'
p663
sg198
S'api_logging/models/modal_logging/modal_model'
p664
sg200
g13
(g14
g15
NtRp665
(dp666
g18
I1
sg19
I0
sg20
I19
sg21
I0
sg22
I0
sg23
I5
sg24
I0
sbssg316
S'\x0f\x1e\xac\x00_hQ\xcb\xa2\xa8\xf4@\xb9\x97\x9c\x1e'
p667
ssS'user_system_views_signups_hardcoded_test_account_view'
p668
(dp669
g42
(dp670
g44
S'user_system_views_signups_hardcoded_test_account_view.html'
p671
sg46
S'user_system/views/signups/hardcoded/test_account_view'
p672
sg48
g13
(g14
g15
NtRp673
(dp674
g18
I1
sg19
I2
sg20
I18
sg21
I0
sg22
I0
sg23
I0
sg24
I0
sbssg51
S"\xb4\xf1\xfdH\x8f\xf1QX7'\\\xd3\xab.\xbc\x80"
p675
ssS'user_system_views_users_create_student_view'
p676
(dp677
g310
(dp678
g196
S'user_system_views_users_create_student_view.html'
p679
sg198
S'user_system/views/users/create_student_view'
p680
sg200
g13
(g14
g15
NtRp681
(dp682
g18
I1
sg19
I2
sg20
I37
sg21
I0
sg22
I0
sg23
I24
sg24
I2
sbssg316
S'\x8e\xce\xac\xe9\xe3J4\xbb\x88$\xefFS\x06Ow'
p683
ssS'teach_serializers_teacher_tags___init__'
p684
(dp685
g55
(dp686
g57
S'teach_serializers_teacher_tags___init__.html'
p687
sg59
S'teach/serializers/teacher_tags/__init__'
p688
sg61
g13
(g14
g15
NtRp689
(dp690
g18
I1
sg19
I0
sg20
I1
sg21
I0
sg22
I0
sg23
I0
sg24
I0
sbssg64
S'Q\xc1\xe2\xf5*\x8fJ\xddv\xe7\x91\xd1S\xf5\xa9\xa3'
p691
ssS'learn_models_daily_quests_tests___init__'
p692
(dp693
g55
(dp694
g57
S'learn_models_daily_quests_tests___init__.html'
p695
sg59
S'learn/models/daily_quests/tests/__init__'
p696
sg61
g13
(g14
g15
NtRp697
(dp698
g18
I1
sg19
I0
sg20
I1
sg21
I0
sg22
I0
sg23
I0
sg24
I0
sbssg64
S'\xbc\xd6\xeb\xb3\xba\xcaz\xf7{\xd4B\xb5}l\xdf\x96'
p699
ssS'user_system_views_signups___init__'
p700
(dp701
g42
(dp702
g460
S'user_system_views_signups___init__.html'
p703
sg462
S'user_system/views/signups/__init__'
p704
sg464
g13
(g14
g15
NtRp705
(dp706
g18
I1
sg19
I0
sg20
I4
sg21
I0
sg22
I0
sg23
I0
sg24
I0
sbssg51
S'\x02\x1d\x90mQ#+\xc5\x93\xdb\xa4Hs\xcf\xa8\x97'
p707
ssS'create_views_tags_tag_view'
p708
(dp709
S'index'
p710
(dp711
g105
S'create_views_tags_tag_view.html'
p712
sg107
S'create/views/tags/tag_view'
p713
sg109
g13
(g14
g15
NtRp714
(dp715
g18
I1
sg19
I32
sg20
I92
sg21
I0
sg22
I8
sg23
I13
sg24
I16
sbssS'hash'
p716
S'\xd5\xd6\xf9\xa6U<\xf82\xe0xx\x06}\xa5\xeb\xe7'
p717
ssS'learn_models_daily_quests_daily_quest_model'
p718
(dp719
g55
(dp720
S'html_filename'
p721
S'learn_models_daily_quests_daily_quest_model.html'
p722
sS'name'
p723
S'learn/models/daily_quests/daily_quest_model'
p724
sS'nums'
p725
g13
(g14
g15
NtRp726
(dp727
g18
I1
sg19
I22
sg20
I123
sg21
I0
sg22
I3
sg23
I9
sg24
I5
sbssg64
S'V\xc0\xd6\x96s\xd6\x88\x97%.\xd5\x9dSII\xdb'
p728
ssS'teach_models_campaigns_campaign_model'
p729
(dp730
g116
(dp731
g196
S'teach_models_campaigns_campaign_model.html'
p732
sg198
S'teach/models/campaigns/campaign_model'
p733
sg200
g13
(g14
g15
NtRp734
(dp735
g18
I1
sg19
I0
sg20
I40
sg21
I0
sg22
I0
sg23
I0
sg24
I0
sbssg122
S'>\xc8\xe2\xfb\xdd\xc1"@\xea/\xe1\xbb\xf1\xa4\x80\x0f'
p736
ssS'create_views_tags_tests_test_add_prerequisite_view'
p737
(dp738
g320
(dp739
g44
S'create_views_tags_tests_test_add_prerequisite_view.html'
p740
sg46
S'create/views/tags/tests/test_add_prerequisite_view'
p741
sg48
g13
(g14
g15
NtRp742
(dp743
g18
I1
sg19
I0
sg20
I26
sg21
I0
sg22
I0
sg23
I0
sg24
I0
sbssg326
S'\xd2\xef\x02\xe1{\xbc\x9b\xf3\x8b\xbd\xf0\xd2\xe7\xcc\xb5\xa4'
p744
ssS'create_models_tags___init__'
p745
(dp746
g402
(dp747
S'html_filename'
p748
S'create_models_tags___init__.html'
p749
sS'name'
p750
S'create/models/tags/__init__'
p751
sS'nums'
p752
g13
(g14
g15
NtRp753
(dp754
g18
I1
sg19
I0
sg20
I5
sg21
I0
sg22
I0
sg23
I0
sg24
I0
sbssg408
S'\xcck\xb0R5)\xa8c\xdb\xa6\xfb\xec\x18 \xde}'
p755
ssS'teach_models_campaigns_tests___init__'
p756
(dp757
g116
(dp758
g31
S'teach_models_campaigns_tests___init__.html'
p759
sg33
S'teach/models/campaigns/tests/__init__'
p760
sg35
g13
(g14
g15
NtRp761
(dp762
g18
I1
sg19
I0
sg20
I0
sg21
I0
sg22
I0
sg23
I0
sg24
I0
sbssg122
S'\x19g\xdfM\x1a\x019\xaf\x1baIeR\xe5u\xa7'
p763
ssS'learn_views_student_news_feed___init__'
p764
(dp765
g310
(dp766
g196
S'learn_views_student_news_feed___init__.html'
p767
sg198
S'learn/views/student_news_feed/__init__'
p768
sg200
g13
(g14
g15
NtRp769
(dp770
g18
I1
sg19
I0
sg20
I1
sg21
I0
sg22
I0
sg23
I0
sg24
I0
sbssg316
S'\xc5\x87\xccQ|\xa2\xee\x11p\x84\xfe\xed\xe3W\xfa\x07'
p771
ssS'create_models_daily_quests___init__'
p772
(dp773
S'index'
p774
(dp775
S'html_filename'
p776
S'create_models_daily_quests___init__.html'
p777
sS'name'
p778
S'create/models/daily_quests/__init__'
p779
sS'nums'
p780
g13
(g14
g15
NtRp781
(dp782
g18
I1
sg19
I0
sg20
I1
sg21
I0
sg22
I0
sg23
I0
sg24
I0
sbssS'hash'
p783
S'\x94\x0eB\xb3\x8e\xc6\x81\xc0\x16\x84P.\x11:\x8e\xc9'
p784
ssS'teach_views_teacher_chapters_teacher_chapter_view'
p785
(dp786
g55
(dp787
g31
S'teach_views_teacher_chapters_teacher_chapter_view.html'
p788
sg33
S'teach/views/teacher_chapters/teacher_chapter_view'
p789
sg35
g13
(g14
g15
NtRp790
(dp791
g18
I1
sg19
I12
sg20
I44
sg21
I0
sg22
I0
sg23
I25
sg24
I12
sbssg64
S'Z\xc5\n\xdb\xe5!2~7\xe3i\xa7j\xd4\x10\x8c'
p792
ssS'create_serializers_tags_concept_serializer'
p793
(dp794
g365
(dp795
S'html_filename'
p796
S'create_serializers_tags_concept_serializer.html'
p797
sS'name'
p798
S'create/serializers/tags/concept_serializer'
p799
sS'nums'
p800
g13
(g14
g15
NtRp801
(dp802
g18
I1
sg19
I0
sg20
I6
sg21
I0
sg22
I0
sg23
I0
sg24
I0
sbssg371
S'\xf1\xe0\xc7%%\xbd\xfc@\x12\x02\x96\xbb\x0c\xbf\x9fq'
p803
ssS'create_serializers_questions_question_history_remark_serializer'
p804
(dp805
g603
(dp806
g605
S'create_serializers_questions_question_history_remark_serializer.html'
p807
sg607
S'create/serializers/questions/question_history_remark_serializer'
p808
sg609
g13
(g14
g15
NtRp809
(dp810
g18
I1
sg19
I0
sg20
I6
sg21
I0
sg22
I0
sg23
I0
sg24
I0
sbssg612
S'\xb53\t\x11\xa6\x1b\xf7!D"\xc8\xa3\xcb41\x9d'
p811
ssS'user_system_models_roles_tests___init__'
p812
(dp813
g42
(dp814
g460
S'user_system_models_roles_tests___init__.html'
p815
sg462
S'user_system/models/roles/tests/__init__'
p816
sg464
g13
(g14
g15
NtRp817
(dp818
g18
I1
sg19
I0
sg20
I0
sg21
I0
sg22
I0
sg23
I0
sg24
I0
sbssg51
S'\x19g\xdfM\x1a\x019\xaf\x1baIeR\xe5u\xa7'
p819
ssS'create_serializers_tags___init__'
p820
(dp821
S'index'
p822
(dp823
S'html_filename'
p824
S'create_serializers_tags___init__.html'
p825
sS'name'
p826
S'create/serializers/tags/__init__'
p827
sS'nums'
p828
g13
(g14
g15
NtRp829
(dp830
g18
I1
sg19
I0
sg20
I0
sg21
I0
sg22
I0
sg23
I0
sg24
I0
sbssS'hash'
p831
S'\x19g\xdfM\x1a\x019\xaf\x1baIeR\xe5u\xa7'
p832
ssS'privilege_urls'
p833
(dp834
g300
(dp835
g93
S'privilege_urls.html'
p836
sg95
S'privilege/urls'
p837
sg97
g13
(g14
g15
NtRp838
(dp839
g18
I1
sg19
I0
sg20
I7
sg21
I0
sg22
I0
sg23
I0
sg24
I0
sbssg306
S'\x86\xbf\xcdE\x8fy\xc9\xd5\x13I\x11#-J.\xe8'
p840
ssS'flipped_helpers_time_helper'
p841
(dp842
g116
(dp843
g392
S'flipped_helpers_time_helper.html'
p844
sg394
S'flipped/helpers/time_helper'
p845
sg396
g13
(g14
g15
NtRp846
(dp847
g18
I1
sg19
I2
sg20
I31
sg21
I0
sg22
I0
sg23
I19
sg24
I2
sbssg122
S'\xca\x92a\xc5\xd9\xf1\xd2\xa6H\x16\xd9\xed\xcdv&\xdb'
p848
ssS'user_system_serializers_users_teacher_mapping_serializer'
p849
(dp850
g310
(dp851
g196
S'user_system_serializers_users_teacher_mapping_serializer.html'
p852
sg198
S'user_system/serializers/users/teacher_mapping_serializer'
p853
sg200
g13
(g14
g15
NtRp854
(dp855
g18
I1
sg19
I0
sg20
I7
sg21
I0
sg22
I0
sg23
I0
sg24
I0
sbssg316
S'\x13\xf7\x06\xcfN\x17?&3\xc5\xf6]6uj\xc1'
p856
ssS'api_logging_views_LoggingView'
p857
(dp858
g310
(dp859
g196
S'api_logging_views_LoggingView.html'
p860
sg198
S'api_logging/views/LoggingView'
p861
sg200
g13
(g14
g15
NtRp862
(dp863
g18
I1
sg19
I8
sg20
I41
sg21
I0
sg22
I0
sg23
I27
sg24
I8
sbssg316
S'\xe3\xefQ\x1e\x9e\xec\xea\xa7\xc5\x05\xb9\x90\xf6\xf3\x88\x9b'
p864
ssS'create_models_questions_tests_test_question_type_model'
p865
(dp866
g42
(dp867
g44
S'create_models_questions_tests_test_question_type_model.html'
p868
sg46
S'create/models/questions/tests/test_question_type_model'
p869
sg48
g13
(g14
g15
NtRp870
(dp871
g18
I1
sg19
I0
sg20
I17
sg21
I0
sg22
I0
sg23
I0
sg24
I0
sbssg51
S'e\x1b\x19\xbb)\x89\xff\xfa\xe5\xca\xde\x08\x08CUL'
p872
ssS'teach_models___init__'
p873
(dp874
g55
(dp875
g31
S'teach_models___init__.html'
p876
sg33
S'teach/models/__init__'
p877
sg35
g13
(g14
g15
NtRp878
(dp879
g18
I1
sg19
I0
sg20
I4
sg21
I0
sg22
I0
sg23
I0
sg24
I0
sbssg64
S'\x18\xb4\x9a\xf6\x89\xe4oR\x81\xdbb\xf7E\xf9\x92\xb7'
p880
ssS'create_models_tags_skill_model'
p881
(dp882
g402
(dp883
g44
S'create_models_tags_skill_model.html'
p884
sg46
S'create/models/tags/skill_model'
p885
sg48
g13
(g14
g15
NtRp886
(dp887
g18
I1
sg19
I0
sg20
I10
sg21
I0
sg22
I0
sg23
I0
sg24
I0
sbssg408
S'B&\x06S\xb6\x85A\xdbx\xd4\xc7#]\x13\xe1\xca'
p888
ssS'learn_tests'
p889
(dp890
g55
(dp891
g57
S'learn_tests.html'
p892
sg59
S'learn/tests'
p893
sg61
g13
(g14
g15
NtRp894
(dp895
g18
I1
sg19
I0
sg20
I1
sg21
I0
sg22
I0
sg23
I0
sg24
I0
sbssg64
S'\xe3\x7f\x86\xaa\x99\xac\xc8\x80\xdblE4\x0f\xe7\x1d\xfc'
p896
ssS'api_logging_managers'
p897
(dp898
g577
(dp899
g44
S'api_logging_managers.html'
p900
sg46
S'api_logging/managers'
p901
sg48
g13
(g14
g15
NtRp902
(dp903
g18
I1
sg19
I0
sg20
I4
sg21
I0
sg22
I0
sg23
I0
sg24
I0
sbssg583
S'\xef\xaf\x98\xcd63\x10\x1c\xc1\xfcP\x12\xc1\xe7\xa5\xc7'
p904
ssS'api_logging_views___init__'
p905
(dp906
g310
(dp907
g257
S'api_logging_views___init__.html'
p908
sg259
S'api_logging/views/__init__'
p909
sg261
g13
(g14
g15
NtRp910
(dp911
g18
I1
sg19
I0
sg20
I4
sg21
I0
sg22
I0
sg23
I0
sg24
I0
sbssg316
S'\xdb\xe9\xd3\xd6\x86\x03\x82\x92\x17 \x05\xdb\xfec\x1e\x10'
p912
ssS'create_models_books___init__'
p913
(dp914
g365
(dp915
g796
S'create_models_books___init__.html'
p916
sg798
S'create/models/books/__init__'
p917
sg800
g13
(g14
g15
NtRp918
(dp919
g18
I1
sg19
I0
sg20
I4
sg21
I0
sg22
I0
sg23
I0
sg24
I0
sbssg371
S'\xba\x14\x87u\xc0\x80\x96\x82s\x8d\x8bU)\x1c\xc3\x91'
p920
ssS'flipped_helpers___init__'
p921
(dp922
g42
(dp923
g392
S'flipped_helpers___init__.html'
p924
sg394
S'flipped/helpers/__init__'
p925
sg396
g13
(g14
g15
NtRp926
(dp927
g18
I1
sg19
I0
sg20
I5
sg21
I0
sg22
I0
sg23
I0
sg24
I0
sbssg51
S'\x8d&\xda\xf5\x1f\xe2\xe9/Cb\xfb\x88\x04UM6'
p928
ssS'create_models_quests_tests_test_quest_model'
p929
(dp930
g103
(dp931
g559
S'create_models_quests_tests_test_quest_model.html'
p932
sg561
S'create/models/quests/tests/test_quest_model'
p933
sg563
g13
(g14
g15
NtRp934
(dp935
g18
I1
sg19
I4
sg20
I48
sg21
I0
sg22
I0
sg23
I0
sg24
I0
sbssg112
S'\xcdF\x98\xd0k\x14\x9e\xe4\x90\x96\x03\xddNdiH'
p936
ssS'privilege_views_privileges_user_privilege_view'
p937
(dp938
g300
(dp939
g93
S'privilege_views_privileges_user_privilege_view.html'
p940
sg95
S'privilege/views/privileges/user_privilege_view'
p941
sg97
g13
(g14
g15
NtRp942
(dp943
g18
I1
sg19
I10
sg20
I38
sg21
I0
sg22
I0
sg23
I22
sg24
I10
sbssg306
S'\xf699\xa5A\xca\x9e\x91,l\xf8\x8dI[PR'
p944
ssS'learn_models_daily_quests_tests_test_daily_quest_model'
p945
(dp946
g55
(dp947
g392
S'learn_models_daily_quests_tests_test_daily_quest_model.html'
p948
sg394
S'learn/models/daily_quests/tests/test_daily_quest_model'
p949
sg396
g13
(g14
g15
NtRp950
(dp951
g18
I1
sg19
I12
sg20
I249
sg21
I0
sg22
I0
sg23
I0
sg24
I0
sbssg64
S'+\xfc\x0c\xee\x10\x00\x0f+\xad\x07l\xcf\x8b\xac\xefF'
p952
ssS'create_views_books_tests_test_get_book_by_id_view'
p953
(dp954
S'index'
p955
(dp956
g93
S'create_views_books_tests_test_get_book_by_id_view.html'
p957
sg95
S'create/views/books/tests/test_get_book_by_id_view'
p958
sg97
g13
(g14
g15
NtRp959
(dp960
g18
I1
sg19
I0
sg20
I20
sg21
I0
sg22
I0
sg23
I0
sg24
I0
sbssS'hash'
p961
S'\xc88x\xaf\x84e\xaa6\x17\xdf\x0e\x8c`\xcaAO'
p962
ssS'user_system_views_apps_tests_test_get_app_by_id_view'
p963
(dp964
g42
(dp965
g44
S'user_system_views_apps_tests_test_get_app_by_id_view.html'
p966
sg46
S'user_system/views/apps/tests/test_get_app_by_id_view'
p967
sg48
g13
(g14
g15
NtRp968
(dp969
g18
I1
sg19
I0
sg20
I17
sg21
I0
sg22
I0
sg23
I0
sg24
I0
sbssg51
S"\xa2\x1eG%r{-~\xc5=\x8aj\x99X!'"
p970
ssS'teach_views_daily_quest_templates_daily_quest_template_view'
p971
(dp972
g55
(dp973
S'html_filename'
p974
S'teach_views_daily_quest_templates_daily_quest_template_view.html'
p975
sS'name'
p976
S'teach/views/daily_quest_templates/daily_quest_template_view'
p977
sS'nums'
p978
g13
(g14
g15
NtRp979
(dp980
g18
I1
sg19
I18
sg20
I54
sg21
I0
sg22
I0
sg23
I33
sg24
I18
sbssg64
S'\x97J\xccM\x9b\xcd1\xaf\x95\xea\xd8\x8d\xdc(\x89['
p981
ssS'api_logging_views_summary___init__'
p982
(dp983
g310
(dp984
g196
S'api_logging_views_summary___init__.html'
p985
sg198
S'api_logging/views/summary/__init__'
p986
sg200
g13
(g14
g15
NtRp987
(dp988
g18
I1
sg19
I0
sg20
I1
sg21
I0
sg22
I0
sg23
I0
sg24
I0
sbssg316
S'\x04\x12bh\x96\xc5j\x88dm\x0e\xd7\xe1\x94Lq'
p989
ssS'privilege_serializers___init__'
p990
(dp991
g300
(dp992
g93
S'privilege_serializers___init__.html'
p993
sg95
S'privilege/serializers/__init__'
p994
sg97
g13
(g14
g15
NtRp995
(dp996
g18
I1
sg19
I0
sg20
I1
sg21
I0
sg22
I0
sg23
I0
sg24
I0
sbssg306
S'\x13V\xca}S\xd3\x98Rp?\xb0\xe1\x904>b'
p997
ssS'create_models_books_tests_test_book_subchapter_model'
p998
(dp999
g365
(dp1000
S'html_filename'
p1001
S'create_models_books_tests_test_book_subchapter_model.html'
p1002
sS'name'
p1003
S'create/models/books/tests/test_book_subchapter_model'
p1004
sS'nums'
p1005
g13
(g14
g15
NtRp1006
(dp1007
g18
I1
sg19
I0
sg20
I42
sg21
I0
sg22
I0
sg23
I0
sg24
I0
sbssg371
S'\xe3*\xba\x94d#\xcd\t\xc9\xb8\x05w\nz\xb8\xc0'
p1008
ssS'learn_models_daily_quests___init__'
p1009
(dp1010
g55
(dp1011
S'html_filename'
p1012
S'learn_models_daily_quests___init__.html'
p1013
sS'name'
p1014
S'learn/models/daily_quests/__init__'
p1015
sS'nums'
p1016
g13
(g14
g15
NtRp1017
(dp1018
g18
I1
sg19
I0
sg20
I2
sg21
I0
sg22
I0
sg23
I0
sg24
I0
sbssg64
S's\x11\xbfV}\xab\xfcdH\xcf4Q\xc5\x86\xa3\xb4'
p1019
ssS'create_models_daily_quest_templates_tests___init__'
p1020
(dp1021
g242
(dp1022
g244
S'create_models_daily_quest_templates_tests___init__.html'
p1023
sg246
S'create/models/daily_quest_templates/tests/__init__'
p1024
sg248
g13
(g14
g15
NtRp1025
(dp1026
g18
I1
sg19
I0
sg20
I0
sg21
I0
sg22
I0
sg23
I0
sg24
I0
sbssg251
S'\x19g\xdfM\x1a\x019\xaf\x1baIeR\xe5u\xa7'
p1027
ssS'create_models_tags_tag_model'
p1028
(dp1029
g402
(dp1030
g93
S'create_models_tags_tag_model.html'
p1031
sg95
S'create/models/tags/tag_model'
p1032
sg97
g13
(g14
g15
NtRp1033
(dp1034
g18
I1
sg19
I0
sg20
I37
sg21
I0
sg22
I0
sg23
I0
sg24
I0
sbssg408
S'rJ0\x91]\xe5\xfc\xa8\x8c\x00}RI\x18\xf0\x07'
p1035
ssS'create_views_tags___init__'
p1036
(dp1037
g710
(dp1038
S'html_filename'
p1039
S'create_views_tags___init__.html'
p1040
sS'name'
p1041
S'create/views/tags/__init__'
p1042
sS'nums'
p1043
g13
(g14
g15
NtRp1044
(dp1045
g18
I1
sg19
I0
sg20
I1
sg21
I0
sg22
I0
sg23
I0
sg24
I0
sbssg716
S'|r<\xaap\x01\xb1\xbc"\xe5\xbb\xd8\x87\xa5\xd2H'
p1046
ssS'api_logging_models_query_stat___init__'
p1047
(dp1048
g255
(dp1049
g257
S'api_logging_models_query_stat___init__.html'
p1050
sg259
S'api_logging/models/query_stat/__init__'
p1051
sg261
g13
(g14
g15
NtRp1052
(dp1053
g18
I1
sg19
I0
sg20
I1
sg21
I0
sg22
I0
sg23
I0
sg24
I0
sbssg264
S'lAVjsm\xf3\xa0\xf4\x14\x8bL\xb9S\xd6\xe6'
p1054
ssS'create_serializers_tags_skill_serializer'
p1055
(dp1056
g365
(dp1057
g796
S'create_serializers_tags_skill_serializer.html'
p1058
sg798
S'create/serializers/tags/skill_serializer'
p1059
sg800
g13
(g14
g15
NtRp1060
(dp1061
g18
I1
sg19
I0
sg20
I6
sg21
I0
sg22
I0
sg23
I0
sg24
I0
sbssg371
S'\x1b\x10O\xca\xd5i\\\x06C\x00q}\xf43\xcb\xa6'
p1062
ssS'create_views_questions_question_history_remark_view'
p1063
(dp1064
g603
(dp1065
g605
S'create_views_questions_question_history_remark_view.html'
p1066
sg607
S'create/views/questions/question_history_remark_view'
p1067
sg609
g13
(g14
g15
NtRp1068
(dp1069
g18
I1
sg19
I0
sg20
I14
sg21
I0
sg22
I0
sg23
I0
sg24
I0
sbssg612
S'{4O\x0e\xb3\xad\xc8\xb72\x8f\x1f\x11\xc0\x9e\xa0\xd6'
p1070
ssS'create_serializers_tags_tag_type_serializer'
p1071
(dp1072
g365
(dp1073
g796
S'create_serializers_tags_tag_type_serializer.html'
p1074
sg798
S'create/serializers/tags/tag_type_serializer'
p1075
sg800
g13
(g14
g15
NtRp1076
(dp1077
g18
I1
sg19
I0
sg20
I6
sg21
I0
sg22
I0
sg23
I0
sg24
I0
sbssg371
S'\xc3\xfd\x81\x18{\x97,\xb1\xb6\x9f\xee\xf2kZ\x1e\x02'
p1078
ssS'learn_models_points_tests_test_point_history_model'
p1079
(dp1080
g310
(dp1081
g196
S'learn_models_points_tests_test_point_history_model.html'
p1082
sg198
S'learn/models/points/tests/test_point_history_model'
p1083
sg200
g13
(g14
g15
NtRp1084
(dp1085
g18
I1
sg19
I0
sg20
I22
sg21
I0
sg22
I0
sg23
I0
sg24
I0
sbssg316
S"\x8d\xd7\x96\xe4\x1b\xf6\xc4\xed:B\x13\xa9MA'\x99"
p1086
ssS'learn_serializers_daily_quests_daily_quest_serializer'
p1087
(dp1088
g55
(dp1089
S'html_filename'
p1090
S'learn_serializers_daily_quests_daily_quest_serializer.html'
p1091
sS'name'
p1092
S'learn/serializers/daily_quests/daily_quest_serializer'
p1093
sS'nums'
p1094
g13
(g14
g15
NtRp1095
(dp1096
g18
I1
sg19
I2
sg20
I61
sg21
I0
sg22
I0
sg23
I27
sg24
I2
sbssg64
S'[\x88\x15VYH\x14\xb8S\xb2\x02\xa7a<\x08\x7f'
p1097
ssS'user_system_models_users_tests_test_user_profile_picture_model'
p1098
(dp1099
g116
(dp1100
g31
S'user_system_models_users_tests_test_user_profile_picture_model.html'
p1101
sg33
S'user_system/models/users/tests/test_user_profile_picture_model'
p1102
sg35
g13
(g14
g15
NtRp1103
(dp1104
g18
I1
sg19
I0
sg20
I21
sg21
I0
sg22
I0
sg23
I0
sg24
I0
sbssg122
S'\xbc/\x93\xf6\x8a\x1eC\x99t\xd0\xdc\x96\xf8\x970\xc9'
p1105
ssS'teach_views_teacher_news_feed_teacher_news_feed_view'
p1106
(dp1107
g310
(dp1108
S'html_filename'
p1109
S'teach_views_teacher_news_feed_teacher_news_feed_view.html'
p1110
sS'name'
p1111
S'teach/views/teacher_news_feed/teacher_news_feed_view'
p1112
sS'nums'
p1113
g13
(g14
g15
NtRp1114
(dp1115
g18
I1
sg19
I2
sg20
I40
sg21
I0
sg22
I0
sg23
I20
sg24
I2
sbssg316
S'\x91\x13LD\x93S\xb7\xc7F\x89y\x9f\x0cO\xb9_'
p1116
ssS'user_system_serializers_schools_organization_serializer'
p1117
(dp1118
g55
(dp1119
g57
S'user_system_serializers_schools_organization_serializer.html'
p1120
sg59
S'user_system/serializers/schools/organization_serializer'
p1121
sg61
g13
(g14
g15
NtRp1122
(dp1123
g18
I1
sg19
I0
sg20
I7
sg21
I0
sg22
I0
sg23
I0
sg24
I0
sbssg64
S'90~\xe3\x8f\x8e\xd9m\xb4\nInn\x03(\xdb'
p1124
ssS'create_models_books_book_subchapter_model'
p1125
(dp1126
g365
(dp1127
S'html_filename'
p1128
S'create_models_books_book_subchapter_model.html'
p1129
sS'name'
p1130
S'create/models/books/book_subchapter_model'
p1131
sS'nums'
p1132
g13
(g14
g15
NtRp1133
(dp1134
g18
I1
sg19
I2
sg20
I45
sg21
I0
sg22
I0
sg23
I0
sg24
I0
sbssg371
S'\xbc\xee\x91\x7f;\xa9\x15\xeaau\xef\x82\x07"\x02\xd3'
p1135
ssS'teach_views_summaries_leaderboard_view'
p1136
(dp1137
g310
(dp1138
g1090
S'teach_views_summaries_leaderboard_view.html'
p1139
sg1092
S'teach/views/summaries/leaderboard_view'
p1140
sg1094
g13
(g14
g15
NtRp1141
(dp1142
g18
I1
sg19
I64
sg20
I160
sg21
I0
sg22
I0
sg23
I130
sg24
I64
sbssg316
S'\xb2\xf0\xf4&\x19\xffq\x0f\xb5Q\xc6.\xe9^\xbe\xfa'
p1143
ssS'api_logging_serializers_modal_loggings_modal_user_history_serializer'
p1144
(dp1145
g310
(dp1146
g196
S'api_logging_serializers_modal_loggings_modal_user_history_serializer.html'
p1147
sg198
S'api_logging/serializers/modal_loggings/modal_user_history_serializer'
p1148
sg200
g13
(g14
g15
NtRp1149
(dp1150
g18
I1
sg19
I0
sg20
I7
sg21
I0
sg22
I0
sg23
I0
sg24
I0
sbssg316
S'\xc2\x8f\x89\xe8$\x9c~\x81\xa9\xca\xf8h\x80\xb7hp'
p1151
ssS'learn_models_points___init__'
p1152
(dp1153
g310
(dp1154
g196
S'learn_models_points___init__.html'
p1155
sg198
S'learn/models/points/__init__'
p1156
sg200
g13
(g14
g15
NtRp1157
(dp1158
g18
I1
sg19
I0
sg20
I2
sg21
I0
sg22
I0
sg23
I0
sg24
I0
sbssg316
S'\x1d_\xe1\xcei\x14zD\xd7\x8e\xa1\xf55\x1f\xd1\xd5'
p1159
ssS'api_logging_models___init__'
p1160
(dp1161
g310
(dp1162
g257
S'api_logging_models___init__.html'
p1163
sg259
S'api_logging/models/__init__'
p1164
sg261
g13
(g14
g15
NtRp1165
(dp1166
g18
I1
sg19
I0
sg20
I4
sg21
I0
sg22
I0
sg23
I0
sg24
I0
sbssg316
S'\x1e\xe1SC\x84\x0bP\xec\xc0\xa61\xf48)\xde\xbb'
p1167
ssS'teach_serializers___init__'
p1168
(dp1169
g55
(dp1170
g57
S'teach_serializers___init__.html'
p1171
sg59
S'teach/serializers/__init__'
p1172
sg61
g13
(g14
g15
NtRp1173
(dp1174
g18
I1
sg19
I0
sg20
I3
sg21
I0
sg22
I0
sg23
I0
sg24
I0
sbssg64
S'3\x13\x12&\xcb\xecC\xee\xa8lR\x1a\x1d\xb9M\xba'
p1175
ssS'user_system_views_signups_tests___init__'
p1176
(dp1177
g42
(dp1178
g460
S'user_system_views_signups_tests___init__.html'
p1179
sg462
S'user_system/views/signups/tests/__init__'
p1180
sg464
g13
(g14
g15
NtRp1181
(dp1182
g18
I1
sg19
I0
sg20
I1
sg21
I0
sg22
I0
sg23
I0
sg24
I0
sbssg51
S'\xbc\xd6\xeb\xb3\xba\xcaz\xf7{\xd4B\xb5}l\xdf\x96'
p1183
ssS'create_models_daily_quests_tests___init__'
p1184
(dp1185
g774
(dp1186
g776
S'create_models_daily_quests_tests___init__.html'
p1187
sg778
S'create/models/daily_quests/tests/__init__'
p1188
sg780
g13
(g14
g15
NtRp1189
(dp1190
g18
I1
sg19
I0
sg20
I1
sg21
I0
sg22
I0
sg23
I0
sg24
I0
sbssg783
S'\xbc\xd6\xeb\xb3\xba\xcaz\xf7{\xd4B\xb5}l\xdf\x96'
p1191
ssS'api_logging_models_api_logging___init__'
p1192
(dp1193
g310
(dp1194
g196
S'api_logging_models_api_logging___init__.html'
p1195
sg198
S'api_logging/models/api_logging/__init__'
p1196
sg200
g13
(g14
g15
NtRp1197
(dp1198
g18
I1
sg19
I0
sg20
I1
sg21
I0
sg22
I0
sg23
I0
sg24
I0
sbssg316
S'C\xe8\xcf\x97-\xc6\xd3j\xcb\x90*\xea\xd3w\x83\xe0'
p1199
ssS'create_serializers_daily_quests_daily_quest_serializer'
p1200
(dp1201
g242
(dp1202
S'html_filename'
p1203
S'create_serializers_daily_quests_daily_quest_serializer.html'
p1204
sS'name'
p1205
S'create/serializers/daily_quests/daily_quest_serializer'
p1206
sS'nums'
p1207
g13
(g14
g15
NtRp1208
(dp1209
g18
I1
sg19
I0
sg20
I12
sg21
I0
sg22
I0
sg23
I3
sg24
I0
sbssg251
S' $!\xf6\xe6\x92\x9f\x9f\xafy\xe9\x8b\x1c\xf4\xb6\x01'
p1210
ssS'user_system_views_signups_email_signup_view'
p1211
(dp1212
g42
(dp1213
g44
S'user_system_views_signups_email_signup_view.html'
p1214
sg46
S'user_system/views/signups/email_signup_view'
p1215
sg48
g13
(g14
g15
NtRp1216
(dp1217
g18
I1
sg19
I8
sg20
I44
sg21
I0
sg22
I0
sg23
I0
sg24
I0
sbssg51
S'&G\xd1\xc4{\x9b\xbf\x14\x92F\xbe\x13\xeer\x84\x1b'
p1218
ssS'teach_views_teacher_tags___init__'
p1219
(dp1220
g55
(dp1221
g57
S'teach_views_teacher_tags___init__.html'
p1222
sg59
S'teach/views/teacher_tags/__init__'
p1223
sg61
g13
(g14
g15
NtRp1224
(dp1225
g18
I1
sg19
I0
sg20
I1
sg21
I0
sg22
I0
sg23
I0
sg24
I0
sbssg64
S'cp\x00\xdc\x00\xe5M\x9f\x1f\xaa\xb2Y\xd9%\x1d"'
p1226
ssS'flipped_helpers_success_response_helper'
p1227
(dp1228
g42
(dp1229
g44
S'flipped_helpers_success_response_helper.html'
p1230
sg46
S'flipped/helpers/success_response_helper'
p1231
sg48
g13
(g14
g15
NtRp1232
(dp1233
g18
I1
sg19
I2
sg20
I4
sg21
I0
sg22
I0
sg23
I0
sg24
I0
sbssg51
S"'Bp\xbe\xd9\xfa\x92\xa4;\xb6\t\xa8\xfe<\x9d\xa5"
p1234
ssS'create_models_questions_question_model'
p1235
(dp1236
g42
(dp1237
S'html_filename'
p1238
S'create_models_questions_question_model.html'
p1239
sS'name'
p1240
S'create/models/questions/question_model'
p1241
sS'nums'
p1242
g13
(g14
g15
NtRp1243
(dp1244
g18
I1
sg19
I0
sg20
I48
sg21
I0
sg22
I0
sg23
I0
sg24
I0
sbssg51
S'\tGy\xb6\x10\x17dQ\xd7\xd8N>\xd5\x96R\x82'
p1245
ssS'user_system_models_roles___init__'
p1246
(dp1247
g42
(dp1248
g460
S'user_system_models_roles___init__.html'
p1249
sg462
S'user_system/models/roles/__init__'
p1250
sg464
g13
(g14
g15
NtRp1251
(dp1252
g18
I1
sg19
I0
sg20
I2
sg21
I0
sg22
I0
sg23
I0
sg24
I0
sbssg51
S'\xa3\xc2\r\x1b\x1bC\x85\xa5\xads\x7fl\xab`*1'
p1253
ssS'create_models_questions_question_history_model'
p1254
(dp1255
g42
(dp1256
g93
S'create_models_questions_question_history_model.html'
p1257
sg95
S'create/models/questions/question_history_model'
p1258
sg97
g13
(g14
g15
NtRp1259
(dp1260
g18
I1
sg19
I8
sg20
I68
sg21
I0
sg22
I2
sg23
I2
sg24
I2
sbssg51
S'\xd0\xe9\x0bm$j\x15\x9b@\x93\xe5C\xa7\x97\xfd\xf4'
p1261
ssS'user_system_views_signups_tests_test_facebook_signup_view'
p1262
(dp1263
g42
(dp1264
g44
S'user_system_views_signups_tests_test_facebook_signup_view.html'
p1265
sg46
S'user_system/views/signups/tests/test_facebook_signup_view'
p1266
sg48
g13
(g14
g15
NtRp1267
(dp1268
g18
I1
sg19
I0
sg20
I60
sg21
I0
sg22
I0
sg23
I0
sg24
I0
sbssg51
S'\x93<\xc8]\x14\t\xa8/\xdd\xd1\xa4]\xfbp!\xbd'
p1269
ssS'user_system_models_users_tests_test_teacher_mapping_model'
p1270
(dp1271
g29
(dp1272
S'html_filename'
p1273
S'user_system_models_users_tests_test_teacher_mapping_model.html'
p1274
sS'name'
p1275
S'user_system/models/users/tests/test_teacher_mapping_model'
p1276
sS'nums'
p1277
g13
(g14
g15
NtRp1278
(dp1279
g18
I1
sg19
I4
sg20
I35
sg21
I0
sg22
I0
sg23
I0
sg24
I0
sbssg38
S'\x96\x93\xca\x00>\xf7\xc8\xe6:\xb8\x7f\xf5q:\xb6\xaa'
p1280
ssS'learn_views_daily_quests_daily_quest_view'
p1281
(dp1282
g55
(dp1283
g196
S'learn_views_daily_quests_daily_quest_view.html'
p1284
sg198
S'learn/views/daily_quests/daily_quest_view'
p1285
sg200
g13
(g14
g15
NtRp1286
(dp1287
g18
I1
sg19
I16
sg20
I61
sg21
I0
sg22
I0
sg23
I40
sg24
I16
sbssg64
S'\xceiA\x93\xcd>Y\x85L\x07Oz\x9aw\xae;'
p1288
ssS'teach_views_summaries_class_ranking_view'
p1289
(dp1290
g310
(dp1291
g1090
S'teach_views_summaries_class_ranking_view.html'
p1292
sg1092
S'teach/views/summaries/class_ranking_view'
p1293
sg1094
g13
(g14
g15
NtRp1294
(dp1295
g18
I1
sg19
I18
sg20
I78
sg21
I0
sg22
I0
sg23
I55
sg24
I18
sbssg316
S'\x86\xe0\x0e\x1e\xa5A\x94Fv\xfb-|]\x1aq\x7f'
p1296
ssS'privilege_models_privileges_tests___init__'
p1297
(dp1298
g300
(dp1299
g93
S'privilege_models_privileges_tests___init__.html'
p1300
sg95
S'privilege/models/privileges/tests/__init__'
p1301
sg97
g13
(g14
g15
NtRp1302
(dp1303
g18
I1
sg19
I0
sg20
I0
sg21
I0
sg22
I0
sg23
I0
sg24
I0
sbssg306
S'\x19g\xdfM\x1a\x019\xaf\x1baIeR\xe5u\xa7'
p1304
ssS'teach_serializers_teacher_chapters___init__'
p1305
(dp1306
g55
(dp1307
g57
S'teach_serializers_teacher_chapters___init__.html'
p1308
sg59
S'teach/serializers/teacher_chapters/__init__'
p1309
sg61
g13
(g14
g15
NtRp1310
(dp1311
g18
I1
sg19
I0
sg20
I1
sg21
I0
sg22
I0
sg23
I0
sg24
I0
sbssg64
S'\xfe\x88\xda\x10\xec!\x99\xb7-\x8d\x90E\xe18K\xb1'
p1312
ssS'api_logging_admin'
p1313
(dp1314
g577
(dp1315
g257
S'api_logging_admin.html'
p1316
sg259
S'api_logging/admin'
p1317
sg261
g13
(g14
g15
NtRp1318
(dp1319
g18
I1
sg19
I0
sg20
I11
sg21
I0
sg22
I0
sg23
I0
sg24
I0
sbssg583
S'\x9c\xc9Q\x0b\xd7D\x8a?p\xe97\x06/\xdd\x1cr'
p1320
ssS'user_system_models_users_user_streak_history_model'
p1321
(dp1322
g310
(dp1323
g1273
S'user_system_models_users_user_streak_history_model.html'
p1324
sg1275
S'user_system/models/users/user_streak_history_model'
p1325
sg1277
g13
(g14
g15
NtRp1326
(dp1327
g18
I1
sg19
I0
sg20
I28
sg21
I0
sg22
I0
sg23
I0
sg24
I0
sbssg316
S'w\x85uw\r5\x1a\xa5\xea>\xdaqki`p'
p1328
ssS'create_models_tags_tests_test_concept_model'
p1329
(dp1330
g402
(dp1331
g44
S'create_models_tags_tests_test_concept_model.html'
p1332
sg46
S'create/models/tags/tests/test_concept_model'
p1333
sg48
g13
(g14
g15
NtRp1334
(dp1335
g18
I1
sg19
I0
sg20
I12
sg21
I0
sg22
I0
sg23
I0
sg24
I0
sbssg408
S'@\x95\xd9\xf7\xa5\xc4\x0c\xb1\xad\xa4\xf5p\x95\x06!N'
p1336
ssS'privilege_models_privileges_privilege_model'
p1337
(dp1338
g300
(dp1339
g1273
S'privilege_models_privileges_privilege_model.html'
p1340
sg1275
S'privilege/models/privileges/privilege_model'
p1341
sg1277
g13
(g14
g15
NtRp1342
(dp1343
g18
I1
sg19
I0
sg20
I29
sg21
I0
sg22
I0
sg23
I0
sg24
I0
sbssg306
S'\xa3\xbf\x7fn\x8c\xe8#\xf8\xa9\x95#\xc7\xdb\xf0Y\xe6'
p1344
ssS'create_models_questions_tests_test_question_choice_model'
p1345
(dp1346
g42
(dp1347
S'html_filename'
p1348
S'create_models_questions_tests_test_question_choice_model.html'
p1349
sS'name'
p1350
S'create/models/questions/tests/test_question_choice_model'
p1351
sS'nums'
p1352
g13
(g14
g15
NtRp1353
(dp1354
g18
I1
sg19
I0
sg20
I46
sg21
I0
sg22
I0
sg23
I0
sg24
I0
sbssg51
S'$\x08N\xfb\nW\n\xecG\x9a[\xb7\xe2\xc1\xbd\x06'
p1355
ssS'user_system_views_users_tests_test_get_user_by_id_view'
p1356
(dp1357
g42
(dp1358
g93
S'user_system_views_users_tests_test_get_user_by_id_view.html'
p1359
sg95
S'user_system/views/users/tests/test_get_user_by_id_view'
p1360
sg97
g13
(g14
g15
NtRp1361
(dp1362
g18
I1
sg19
I0
sg20
I27
sg21
I0
sg22
I0
sg23
I0
sg24
I0
sbssg51
S'\xd7\x7f\x0c\xb9\xda.\xf1\x82\xb4\xdf*z\x10(o)'
p1363
ssS'create_models___init__'
p1364
(dp1365
g42
(dp1366
g57
S'create_models___init__.html'
p1367
sg59
S'create/models/__init__'
p1368
sg61
g13
(g14
g15
NtRp1369
(dp1370
g18
I1
sg19
I0
sg20
I6
sg21
I0
sg22
I0
sg23
I0
sg24
I0
sbssg51
S'\x1a\xde\xff\xb8/\x08R\x8e\xff\x13\x8b\xeb`\xfd\x98\xf8'
p1371
ssS'create_serializers_tags_tag_history_serializer'
p1372
(dp1373
S'index'
p1374
(dp1375
g105
S'create_serializers_tags_tag_history_serializer.html'
p1376
sg107
S'create/serializers/tags/tag_history_serializer'
p1377
sg109
g13
(g14
g15
NtRp1378
(dp1379
g18
I1
sg19
I0
sg20
I14
sg21
I0
sg22
I0
sg23
I0
sg24
I0
sbssS'hash'
p1380
S'\xc1"\xf9l4\xe66\x8a\xd0)r!\x05Y+\xd2'
p1381
ssS'create_serializers_daily_quest_templates___init__'
p1382
(dp1383
g242
(dp1384
g244
S'create_serializers_daily_quest_templates___init__.html'
p1385
sg246
S'create/serializers/daily_quest_templates/__init__'
p1386
sg248
g13
(g14
g15
NtRp1387
(dp1388
g18
I1
sg19
I0
sg20
I1
sg21
I0
sg22
I0
sg23
I0
sg24
I0
sbssg251
S'\xa2\xd34\x1b\xe2+\x16\xa9un\x8f\xa5\xe6\xc4\\p'
p1389
ssS'user_system_views_roles_tests___init__'
p1390
(dp1391
g42
(dp1392
g460
S'user_system_views_roles_tests___init__.html'
p1393
sg462
S'user_system/views/roles/tests/__init__'
p1394
sg464
g13
(g14
g15
NtRp1395
(dp1396
g18
I1
sg19
I0
sg20
I0
sg21
I0
sg22
I0
sg23
I0
sg24
I0
sbssg51
S'\x19g\xdfM\x1a\x019\xaf\x1baIeR\xe5u\xa7'
p1397
ssS'api_logging_models_modal_logging___init__'
p1398
(dp1399
g310
(dp1400
g196
S'api_logging_models_modal_logging___init__.html'
p1401
sg198
S'api_logging/models/modal_logging/__init__'
p1402
sg200
g13
(g14
g15
NtRp1403
(dp1404
g18
I1
sg19
I0
sg20
I2
sg21
I0
sg22
I0
sg23
I0
sg24
I0
sbssg316
S"+\x16\xa4\xd1\xf5m\xa9\x9e*\xd0\xa23O'}-"
p1405
ssS'user_system_serializers___init__'
p1406
(dp1407
g42
(dp1408
g57
S'user_system_serializers___init__.html'
p1409
sg59
S'user_system/serializers/__init__'
p1410
sg61
g13
(g14
g15
NtRp1411
(dp1412
g18
I1
sg19
I0
sg20
I3
sg21
I0
sg22
I0
sg23
I0
sg24
I0
sbssg51
S'\x85\x12\xbd.\x85L4\xea\t4\x9c\xcf\xb5 \x81\xb4'
p1413
ssS'teach_models_daily_quest_templates_tests___init__'
p1414
(dp1415
g55
(dp1416
g57
S'teach_models_daily_quest_templates_tests___init__.html'
p1417
sg59
S'teach/models/daily_quest_templates/tests/__init__'
p1418
sg61
g13
(g14
g15
NtRp1419
(dp1420
g18
I1
sg19
I0
sg20
I0
sg21
I0
sg22
I0
sg23
I0
sg24
I0
sbssg64
S'\x19g\xdfM\x1a\x019\xaf\x1baIeR\xe5u\xa7'
p1421
ssS'user_system_serializers_schools_grade_serializer'
p1422
(dp1423
g116
(dp1424
g31
S'user_system_serializers_schools_grade_serializer.html'
p1425
sg33
S'user_system/serializers/schools/grade_serializer'
p1426
sg35
g13
(g14
g15
NtRp1427
(dp1428
g18
I1
sg19
I0
sg20
I9
sg21
I0
sg22
I0
sg23
I0
sg24
I0
sbssg122
S"()\x18t._h'\x1c\x9bV\x14KS\xf6,"
p1429
ssS'create_models_questions_tests___init__'
p1430
(dp1431
g42
(dp1432
g460
S'create_models_questions_tests___init__.html'
p1433
sg462
S'create/models/questions/tests/__init__'
p1434
sg464
g13
(g14
g15
NtRp1435
(dp1436
g18
I1
sg19
I0
sg20
I0
sg21
I0
sg22
I0
sg23
I0
sg24
I0
sbssg51
S'\x19g\xdfM\x1a\x019\xaf\x1baIeR\xe5u\xa7'
p1437
ssS'teach_views___init__'
p1438
(dp1439
g55
(dp1440
g196
S'teach_views___init__.html'
p1441
sg198
S'teach/views/__init__'
p1442
sg200
g13
(g14
g15
NtRp1443
(dp1444
g18
I1
sg19
I0
sg20
I3
sg21
I0
sg22
I0
sg23
I0
sg24
I0
sbssg64
S'\xddN\x8bL\xe7O\xba\x93\x86:\xc2\x15\x13gc6'
p1445
ssS'privilege_admin'
p1446
(dp1447
g300
(dp1448
g93
S'privilege_admin.html'
p1449
sg95
S'privilege/admin'
p1450
sg97
g13
(g14
g15
NtRp1451
(dp1452
g18
I1
sg19
I0
sg20
I4
sg21
I0
sg22
I0
sg23
I0
sg24
I0
sbssg306
S'\xa1\x9fb^\xc7l\x00\x1f\x0e\x9c\x06\x08\x99Kx\x94'
p1453
ssS'teach_models_teacher_tags_tests_test_teacher_tag_model'
p1454
(dp1455
g55
(dp1456
g57
S'teach_models_teacher_tags_tests_test_teacher_tag_model.html'
p1457
sg59
S'teach/models/teacher_tags/tests/test_teacher_tag_model'
p1458
sg61
g13
(g14
g15
NtRp1459
(dp1460
g18
I1
sg19
I0
sg20
I30
sg21
I0
sg22
I0
sg23
I0
sg24
I0
sbssg64
S'\xf3\x06\xd8\xd6\x93V\xab\xdc\x87\x05\xf6vJ\xa9`\xe6'
p1461
ssS'user_system_models_schools_academic_year_model'
p1462
(dp1463
g206
(dp1464
g347
S'user_system_models_schools_academic_year_model.html'
p1465
sg349
S'user_system/models/schools/academic_year_model'
p1466
sg351
g13
(g14
g15
NtRp1467
(dp1468
g18
I1
sg19
I0
sg20
I23
sg21
I0
sg22
I0
sg23
I0
sg24
I0
sbssg215
S'\xf1Zl\xd3\xdd4\xdcX&\xdf\xf0<.\x11FY'
p1469
ssS'learn_models___init__'
p1470
(dp1471
g55
(dp1472
g196
S'learn_models___init__.html'
p1473
sg198
S'learn/models/__init__'
p1474
sg200
g13
(g14
g15
NtRp1475
(dp1476
g18
I1
sg19
I0
sg20
I2
sg21
I0
sg22
I0
sg23
I0
sg24
I0
sbssg64
S'J\x07\xbfU\xe2\xd2\xed\xadY\xe2o$\x84\x86bd'
p1477
ssS'user_system_models_users_student_profile_model'
p1478
(dp1479
g232
(dp1480
g196
S'user_system_models_users_student_profile_model.html'
p1481
sg198
S'user_system/models/users/student_profile_model'
p1482
sg200
g13
(g14
g15
NtRp1483
(dp1484
g18
I1
sg19
I2
sg20
I41
sg21
I0
sg22
I0
sg23
I0
sg24
I0
sbssg238
S'q\x83gLh\x1e\xeb\xb5+w&@\xe2"=\xb8'
p1485
ssS'user_system_models_schools_organization_model'
p1486
(dp1487
g206
(dp1488
g644
S'user_system_models_schools_organization_model.html'
p1489
sg646
S'user_system/models/schools/organization_model'
p1490
sg648
g13
(g14
g15
NtRp1491
(dp1492
g18
I1
sg19
I0
sg20
I28
sg21
I0
sg22
I0
sg23
I0
sg24
I0
sbssg215
S']\xd3\xfd\x922s\xeb0\xfd\x8a\x88\xfe"\xbd<h'
p1493
ssS'create_views_books_tests_test_hide_book_view'
p1494
(dp1495
g955
(dp1496
g44
S'create_views_books_tests_test_hide_book_view.html'
p1497
sg46
S'create/views/books/tests/test_hide_book_view'
p1498
sg48
g13
(g14
g15
NtRp1499
(dp1500
g18
I1
sg19
I0
sg20
I25
sg21
I0
sg22
I0
sg23
I0
sg24
I0
sbssg961
S'\xe1\x17\x16\xca\x8a\xc5c\x1b\xce\xab\xb8\xf9G\x03\x9dQ'
p1501
ssS'teach_serializers_teacher_tags_teacher_tag_serializer'
p1502
(dp1503
g55
(dp1504
g31
S'teach_serializers_teacher_tags_teacher_tag_serializer.html'
p1505
sg33
S'teach/serializers/teacher_tags/teacher_tag_serializer'
p1506
sg35
g13
(g14
g15
NtRp1507
(dp1508
g18
I1
sg19
I2
sg20
I26
sg21
I0
sg22
I0
sg23
I9
sg24
I2
sbssg64
S'\x07C\xdf\xcd\x92\x1eS\x1a#\x8e\x9d\x88Dj\n\x12'
p1509
ssS'create_models_daily_quests_tests_test_daily_quest_model'
p1510
(dp1511
g774
(dp1512
g244
S'create_models_daily_quests_tests_test_daily_quest_model.html'
p1513
sg246
S'create/models/daily_quests/tests/test_daily_quest_model'
p1514
sg248
g13
(g14
g15
NtRp1515
(dp1516
g18
I1
sg19
I2
sg20
I51
sg21
I0
sg22
I0
sg23
I0
sg24
I0
sbssg783
S'\x16\x87\xb8\xd4K\xb4\x87\xf9\x84\xc4V\x94\x17\xf6\x1a\xf0'
p1517
ssS'create_admin'
p1518
(dp1519
g42
(dp1520
g57
S'create_admin.html'
p1521
sg59
S'create/admin'
p1522
sg61
g13
(g14
g15
NtRp1523
(dp1524
g18
I1
sg19
I0
sg20
I20
sg21
I0
sg22
I0
sg23
I0
sg24
I0
sbssg51
S'\x03\xe6\xc2\xd5\xa8\xb1\x92\xa5/8\x0fZCN\r\x08'
p1525
ssS'create_views_questions_tests_test_get_question_list_view'
p1526
(dp1527
g42
(dp1528
g93
S'create_views_questions_tests_test_get_question_list_view.html'
p1529
sg95
S'create/views/questions/tests/test_get_question_list_view'
p1530
sg97
g13
(g14
g15
NtRp1531
(dp1532
g18
I1
sg19
I0
sg20
I32
sg21
I0
sg22
I0
sg23
I0
sg24
I0
sbssg51
S'\xa2&\x88;1\\\xa2 \xb4&ejB\xd1%\x06'
p1533
ssS'user_system_views_logins___init__'
p1534
(dp1535
g42
(dp1536
g460
S'user_system_views_logins___init__.html'
p1537
sg462
S'user_system/views/logins/__init__'
p1538
sg464
g13
(g14
g15
NtRp1539
(dp1540
g18
I1
sg19
I0
sg20
I2
sg21
I0
sg22
I0
sg23
I0
sg24
I0
sbssg51
S'\xa0\xd3\xaas\xc2\xb93+ED.\xe5\xfe\xf2\xad\x87'
p1541
ssS'create_views_daily_quest_copies___init__'
p1542
(dp1543
g430
(dp1544
S'html_filename'
p1545
S'create_views_daily_quest_copies___init__.html'
p1546
sS'name'
p1547
S'create/views/daily_quest_copies/__init__'
p1548
sS'nums'
p1549
g13
(g14
g15
NtRp1550
(dp1551
g18
I1
sg19
I0
sg20
I1
sg21
I0
sg22
I0
sg23
I0
sg24
I0
sbssg439
S"'\xb6_z\x90s\x92\xdd\xc7\xb2\x87d\xba\xe24X"
p1552
ssS'create_views_quests_tests_test_hide_quest_view'
p1553
(dp1554
g6
(dp1555
g8
S'create_views_quests_tests_test_hide_quest_view.html'
p1556
sg10
S'create/views/quests/tests/test_hide_quest_view'
p1557
sg12
g13
(g14
g15
NtRp1558
(dp1559
g18
I1
sg19
I0
sg20
I26
sg21
I0
sg22
I0
sg23
I0
sg24
I0
sbssg25
S'G\xcb\xcf\xbb~*\xa2i\xd2\xff\x81\x81\xf0)G\xda'
p1560
ssS'create_views_books_tests_test_add_tag_to_subchapter_view'
p1561
(dp1562
S'index'
p1563
(dp1564
g44
S'create_views_books_tests_test_add_tag_to_subchapter_view.html'
p1565
sg46
S'create/views/books/tests/test_add_tag_to_subchapter_view'
p1566
sg48
g13
(g14
g15
NtRp1567
(dp1568
g18
I1
sg19
I0
sg20
I40
sg21
I0
sg22
I0
sg23
I0
sg24
I0
sbssS'hash'
p1569
S'\xb78\xf4p\xcd\xec\xca\xaa\x93\xb9\xda\xa8Yo37'
p1570
ssS'api_logging_models_modal_logging_modal_user_history_model'
p1571
(dp1572
g310
(dp1573
g196
S'api_logging_models_modal_logging_modal_user_history_model.html'
p1574
sg198
S'api_logging/models/modal_logging/modal_user_history_model'
p1575
sg200
g13
(g14
g15
NtRp1576
(dp1577
g18
I1
sg19
I0
sg20
I15
sg21
I0
sg22
I0
sg23
I3
sg24
I0
sbssg316
S'\xabX\xd42<$9z\xc1]\xc12\xe9\xd8\xbf\xd2'
p1578
ssS'create_views_daily_quests_daily_quest_view'
p1579
(dp1580
g242
(dp1581
g244
S'create_views_daily_quests_daily_quest_view.html'
p1582
sg246
S'create/views/daily_quests/daily_quest_view'
p1583
sg248
g13
(g14
g15
NtRp1584
(dp1585
g18
I1
sg19
I8
sg20
I34
sg21
I0
sg22
I0
sg23
I17
sg24
I8
sbssg251
S'\x9b\xbe99\x1cP\x1d\xd8iT&I;\xb4\xbbf'
p1586
ssS'user_system_managers_user_manager'
p1587
(dp1588
g310
(dp1589
g1090
S'user_system_managers_user_manager.html'
p1590
sg1092
S'user_system/managers/user_manager'
p1591
sg1094
g13
(g14
g15
NtRp1592
(dp1593
g18
I1
sg19
I26
sg20
I62
sg21
I0
sg22
I0
sg23
I51
sg24
I26
sbssg316
S'x\xd5\xed\xa1\xa9\xbd\xbe\xee\xaa\xaaT%{\xff\xdc2'
p1594
ssS'create_models_quests_tests___init__'
p1595
(dp1596
g103
(dp1597
g633
S'create_models_quests_tests___init__.html'
p1598
sg635
S'create/models/quests/tests/__init__'
p1599
sg637
g13
(g14
g15
NtRp1600
(dp1601
g18
I1
sg19
I0
sg20
I1
sg21
I0
sg22
I0
sg23
I0
sg24
I0
sbssg112
S'\xbc\xd6\xeb\xb3\xba\xcaz\xf7{\xd4B\xb5}l\xdf\x96'
p1602
ssS'create_views_questions___init__'
p1603
(dp1604
g42
(dp1605
g605
S'create_views_questions___init__.html'
p1606
sg607
S'create/views/questions/__init__'
p1607
sg609
g13
(g14
g15
NtRp1608
(dp1609
g18
I1
sg19
I0
sg20
I3
sg21
I0
sg22
I0
sg23
I0
sg24
I0
sbssg51
S'h\x154\xc5\xe58\xa8\xc8\xa9\xa6\xbea?\xcf?i'
p1610
ssS'user_system_views_users_create_teacher_view'
p1611
(dp1612
g310
(dp1613
g196
S'user_system_views_users_create_teacher_view.html'
p1614
sg198
S'user_system/views/users/create_teacher_view'
p1615
sg200
g13
(g14
g15
NtRp1616
(dp1617
g18
I1
sg19
I2
sg20
I34
sg21
I0
sg22
I0
sg23
I21
sg24
I2
sbssg316
S'=\xee\xed^jo\xc1\xebz\xedP\xf9\x91n\xec\x8d'
p1618
ssS'user_system_models_apps_tests___init__'
p1619
(dp1620
g42
(dp1621
g460
S'user_system_models_apps_tests___init__.html'
p1622
sg462
S'user_system/models/apps/tests/__init__'
p1623
sg464
g13
(g14
g15
NtRp1624
(dp1625
g18
I1
sg19
I0
sg20
I0
sg21
I0
sg22
I0
sg23
I0
sg24
I0
sbssg51
S'\x19g\xdfM\x1a\x019\xaf\x1baIeR\xe5u\xa7'
p1626
ssS'privilege_serializers_privileges_user_privilege_serializer'
p1627
(dp1628
g300
(dp1629
g93
S'privilege_serializers_privileges_user_privilege_serializer.html'
p1630
sg95
S'privilege/serializers/privileges/user_privilege_serializer'
p1631
sg97
g13
(g14
g15
NtRp1632
(dp1633
g18
I1
sg19
I0
sg20
I9
sg21
I0
sg22
I0
sg23
I0
sg24
I0
sbssg306
S'#\xe5\xcc\x9as5y,\xa1HiQ\xa2c\xdb2'
p1634
ssS'teach_views_summaries_daily_quest_daily_summary_view'
p1635
(dp1636
g310
(dp1637
g392
S'teach_views_summaries_daily_quest_daily_summary_view.html'
p1638
sg394
S'teach/views/summaries/daily_quest_daily_summary_view'
p1639
sg396
g13
(g14
g15
NtRp1640
(dp1641
g18
I1
sg19
I12
sg20
I61
sg21
I0
sg22
I0
sg23
I39
sg24
I12
sbssg316
S'\x06\\F.\x8c\xd3M\x8e\xc5\xc9\xd5<\x13V\xd6C'
p1642
ssS'create_views_summary___init__'
p1643
(dp1644
S'index'
p1645
(dp1646
g1128
S'create_views_summary___init__.html'
p1647
sg1130
S'create/views/summary/__init__'
p1648
sg1132
g13
(g14
g15
NtRp1649
(dp1650
g18
I1
sg19
I0
sg20
I1
sg21
I0
sg22
I0
sg23
I0
sg24
I0
sbssS'hash'
p1651
S'#\xb7\xbd\xa1M\xe4\xa0\x05\xf5x\x057hU[\xca'
p1652
ssS'create_models_daily_quest_templates___init__'
p1653
(dp1654
g242
(dp1655
g244
S'create_models_daily_quest_templates___init__.html'
p1656
sg246
S'create/models/daily_quest_templates/__init__'
p1657
sg248
g13
(g14
g15
NtRp1658
(dp1659
g18
I1
sg19
I0
sg20
I1
sg21
I0
sg22
I0
sg23
I0
sg24
I0
sbssg251
S'\x12\x89x\xb9F\xfb=b\x04\xddy\xb4\xccZb\xb8'
p1660
ssS'create_views_tags_tests_test_get_tag_by_id_view'
p1661
(dp1662
g710
(dp1663
g93
S'create_views_tags_tests_test_get_tag_by_id_view.html'
p1664
sg95
S'create/views/tags/tests/test_get_tag_by_id_view'
p1665
sg97
g13
(g14
g15
NtRp1666
(dp1667
g18
I1
sg19
I0
sg20
I20
sg21
I0
sg22
I0
sg23
I0
sg24
I0
sbssg716
S'T\xd5\xd7\xd9\xb8\x12\x81xj\xca\x90\xa41\xcf\x02]'
p1668
ssS'api_logging_models_user_activities___init__'
p1669
(dp1670
g310
(dp1671
g196
S'api_logging_models_user_activities___init__.html'
p1672
sg198
S'api_logging/models/user_activities/__init__'
p1673
sg200
g13
(g14
g15
NtRp1674
(dp1675
g18
I1
sg19
I0
sg20
I1
sg21
I0
sg22
I0
sg23
I0
sg24
I0
sbssg316
S'\xd9\xe2\xb9\xa8[\x85h\x8ep\xd5\x12TW1\x9d\x1b'
p1676
ssS'user_system_models_users_tests_test_user_profile_model'
p1677
(dp1678
g42
(dp1679
S'html_filename'
p1680
S'user_system_models_users_tests_test_user_profile_model.html'
p1681
sS'name'
p1682
S'user_system/models/users/tests/test_user_profile_model'
p1683
sS'nums'
p1684
g13
(g14
g15
NtRp1685
(dp1686
g18
I1
sg19
I0
sg20
I142
sg21
I0
sg22
I0
sg23
I0
sg24
I0
sbssg51
S'\x00\xb8\xc5\xc0\xcb\xb1\xcaP@!\x086\x84\x1d\xd5\xed'
p1687
ssS'user_system_views_users_user_streak_history_view'
p1688
(dp1689
S'index'
p1690
(dp1691
g392
S'user_system_views_users_user_streak_history_view.html'
p1692
sg394
S'user_system/views/users/user_streak_history_view'
p1693
sg396
g13
(g14
g15
NtRp1694
(dp1695
g18
I1
sg19
I0
sg20
I15
sg21
I0
sg22
I0
sg23
I0
sg24
I0
sbssS'hash'
p1696
S'\x82\xa4:\x84\x8dJE7\xc0"\xbb\xceU\xa9\xd6\x07'
p1697
ssS'user_system_views_roles_tests_test_user_role_view'
p1698
(dp1699
g42
(dp1700
g44
S'user_system_views_roles_tests_test_user_role_view.html'
p1701
sg46
S'user_system/views/roles/tests/test_user_role_view'
p1702
sg48
g13
(g14
g15
NtRp1703
(dp1704
g18
I1
sg19
I0
sg20
I41
sg21
I0
sg22
I0
sg23
I0
sg24
I0
sbssg51
S'\xaf \x02-\xd3\xa9\xee\x1e7\x87\xa8[\xd9\xd8V\xd8'
p1705
ssS'user_system_views_apps_tests_test_get_apps_list_view'
p1706
(dp1707
g42
(dp1708
g44
S'user_system_views_apps_tests_test_get_apps_list_view.html'
p1709
sg46
S'user_system/views/apps/tests/test_get_apps_list_view'
p1710
sg48
g13
(g14
g15
NtRp1711
(dp1712
g18
I1
sg19
I0
sg20
I18
sg21
I0
sg22
I0
sg23
I0
sg24
I0
sbssg51
S'\x87\xab;"\x01p\xf9\xe5\xa6\xb1\xaej\x8egl\x99'
p1713
ssS'api_logging_models_user_activities_user_activity_model'
p1714
(dp1715
g310
(dp1716
g196
S'api_logging_models_user_activities_user_activity_model.html'
p1717
sg198
S'api_logging/models/user_activities/user_activity_model'
p1718
sg200
g13
(g14
g15
NtRp1719
(dp1720
g18
I1
sg19
I0
sg20
I11
sg21
I0
sg22
I0
sg23
I0
sg24
I0
sbssg316
S'f\xe2(\xd3\xddS\xfd\x1e\xf0d\xb2,\xb2\x8f\x8c\x18'
p1721
ssS'create_models_questions_question_type_model'
p1722
(dp1723
g42
(dp1724
g44
S'create_models_questions_question_type_model.html'
p1725
sg46
S'create/models/questions/question_type_model'
p1726
sg48
g13
(g14
g15
NtRp1727
(dp1728
g18
I1
sg19
I0
sg20
I19
sg21
I0
sg22
I0
sg23
I0
sg24
I0
sbssg51
S'\xb9\xe7I\x93\x8b\xa8\xa8H\x80\x02_\xf9\x87\xa2\xe7\xa5'
p1729
ssS'create_serializers_questions_question_type_serializer'
p1730
(dp1731
g42
(dp1732
g460
S'create_serializers_questions_question_type_serializer.html'
p1733
sg462
S'create/serializers/questions/question_type_serializer'
p1734
sg464
g13
(g14
g15
NtRp1735
(dp1736
g18
I1
sg19
I0
sg20
I6
sg21
I0
sg22
I0
sg23
I0
sg24
I0
sbssg51
S'!\x8a\x91KA:\x92\x13/\xdd\xd9\xc2?\x8b\xe1\xc6'
p1737
ssS'create_models_books_tests_test_book_model'
p1738
(dp1739
g365
(dp1740
S'html_filename'
p1741
S'create_models_books_tests_test_book_model.html'
p1742
sS'name'
p1743
S'create/models/books/tests/test_book_model'
p1744
sS'nums'
p1745
g13
(g14
g15
NtRp1746
(dp1747
g18
I1
sg19
I6
sg20
I44
sg21
I0
sg22
I0
sg23
I0
sg24
I0
sbssg371
S'\xff\x88\xcd\xb0\x80\xb2\x9d\xf7\xf9G\xb1.\xaf\xdd\x07\xd7'
p1748
ssS'create_serializers_daily_quests___init__'
p1749
(dp1750
g774
(dp1751
g244
S'create_serializers_daily_quests___init__.html'
p1752
sg246
S'create/serializers/daily_quests/__init__'
p1753
sg248
g13
(g14
g15
NtRp1754
(dp1755
g18
I1
sg19
I0
sg20
I1
sg21
I0
sg22
I0
sg23
I0
sg24
I0
sbssg783
S'N\xb8\x18\x1c\x0c\xc7\xca\x91\xa0|\xe1\x02L\xeeC\xbe'
p1756
ssS'create_models_questions_question_choice_model'
p1757
(dp1758
g42
(dp1759
g1348
S'create_models_questions_question_choice_model.html'
p1760
sg1350
S'create/models/questions/question_choice_model'
p1761
sg1352
g13
(g14
g15
NtRp1762
(dp1763
g18
I1
sg19
I0
sg20
I42
sg21
I0
sg22
I0
sg23
I0
sg24
I0
sbssg51
S'\xd7\xd8\x1f\xbf<\xee\xdd?}\xfe>\x82\\\x97\x15)'
p1764
ssS'flipped_helpers_tests___init__'
p1765
(dp1766
g42
(dp1767
g460
S'flipped_helpers_tests___init__.html'
p1768
sg462
S'flipped/helpers/tests/__init__'
p1769
sg464
g13
(g14
g15
NtRp1770
(dp1771
g18
I1
sg19
I0
sg20
I0
sg21
I0
sg22
I0
sg23
I0
sg24
I0
sbssg51
S'\x19g\xdfM\x1a\x019\xaf\x1baIeR\xe5u\xa7'
p1772
ssS'create_models_tags_tests_test_tag_model'
p1773
(dp1774
g402
(dp1775
S'html_filename'
p1776
S'create_models_tags_tests_test_tag_model.html'
p1777
sS'name'
p1778
S'create/models/tags/tests/test_tag_model'
p1779
sS'nums'
p1780
g13
(g14
g15
NtRp1781
(dp1782
g18
I1
sg19
I6
sg20
I52
sg21
I0
sg22
I0
sg23
I0
sg24
I0
sbssg408
S'1\x992\xc0\xbb\xb6d *5\xfa\xd2\xdc1\xb2\x92'
p1783
ssS'create_views_tags_tests_test_remove_prerequisite_view'
p1784
(dp1785
g320
(dp1786
g44
S'create_views_tags_tests_test_remove_prerequisite_view.html'
p1787
sg46
S'create/views/tags/tests/test_remove_prerequisite_view'
p1788
sg48
g13
(g14
g15
NtRp1789
(dp1790
g18
I1
sg19
I0
sg20
I31
sg21
I0
sg22
I0
sg23
I0
sg24
I0
sbssg326
S'\x8e\x8c~\xff\x85\x94\x8c~T\x7f\x80\x82W\x96\x19\x9c'
p1791
ssS'learn_models_points_tests_test_point_type_model'
p1792
(dp1793
g310
(dp1794
g644
S'learn_models_points_tests_test_point_type_model.html'
p1795
sg646
S'learn/models/points/tests/test_point_type_model'
p1796
sg648
g13
(g14
g15
NtRp1797
(dp1798
g18
I1
sg19
I0
sg20
I20
sg21
I0
sg22
I0
sg23
I0
sg24
I0
sbssg316
S'\x8a\x938\x82k\xa7\x10\xf1\x95\x07\xc4\xb2\x9d\n\xc6\x1f'
p1799
ssS'teach_serializers_teacher_chapters_teacher_chapter_serializer'
p1800
(dp1801
g55
(dp1802
g57
S'teach_serializers_teacher_chapters_teacher_chapter_serializer.html'
p1803
sg59
S'teach/serializers/teacher_chapters/teacher_chapter_serializer'
p1804
sg61
g13
(g14
g15
NtRp1805
(dp1806
g18
I1
sg19
I0
sg20
I12
sg21
I0
sg22
I0
sg23
I0
sg24
I0
sbssg64
S'\xac\x9b\xf1Q\x91\xf4J\x03y\xc4\xa7\x9c\x996\x13a'
p1807
ssS'user_system_serializers_app_serializer'
p1808
(dp1809
g42
(dp1810
g460
S'user_system_serializers_app_serializer.html'
p1811
sg462
S'user_system/serializers/app_serializer'
p1812
sg464
g13
(g14
g15
NtRp1813
(dp1814
g18
I1
sg19
I0
sg20
I7
sg21
I0
sg22
I0
sg23
I0
sg24
I0
sbssg51
S'\xc1\x87\xd6\x1b\xbe\x8f\xfb\xdd\x1a\xa9\x92A\xe2\xc3\xe2\xf1'
p1815
ssS'user_system_models_apps_tests_test_app_model'
p1816
(dp1817
g42
(dp1818
g44
S'user_system_models_apps_tests_test_app_model.html'
p1819
sg46
S'user_system/models/apps/tests/test_app_model'
p1820
sg48
g13
(g14
g15
NtRp1821
(dp1822
g18
I1
sg19
I0
sg20
I18
sg21
I0
sg22
I0
sg23
I0
sg24
I0
sbssg51
S'\xfb\xfc\xe0#\xe2\n\x8e\x9e\x94\xa8\x83\xc5\xb1U\xa3a'
p1823
ssS'create_models_books_book_history_model'
p1824
(dp1825
g365
(dp1826
g93
S'create_models_books_book_history_model.html'
p1827
sg95
S'create/models/books/book_history_model'
p1828
sg97
g13
(g14
g15
NtRp1829
(dp1830
g18
I1
sg19
I4
sg20
I43
sg21
I0
sg22
I1
sg23
I0
sg24
I1
sbssg371
S'\xd71\x9e\xd0\x9bqR\xb9(!\x9f2\x10O|\xeb'
p1831
ssS'teach_models_teacher_chapters_tests___init__'
p1832
(dp1833
g55
(dp1834
g57
S'teach_models_teacher_chapters_tests___init__.html'
p1835
sg59
S'teach/models/teacher_chapters/tests/__init__'
p1836
sg61
g13
(g14
g15
NtRp1837
(dp1838
g18
I1
sg19
I0
sg20
I0
sg21
I0
sg22
I0
sg23
I0
sg24
I0
sbssg64
S'\x19g\xdfM\x1a\x019\xaf\x1baIeR\xe5u\xa7'
p1839
ssS'create_views_quests_tests_test_remove_tag_view'
p1840
(dp1841
g6
(dp1842
g8
S'create_views_quests_tests_test_remove_tag_view.html'
p1843
sg10
S'create/views/quests/tests/test_remove_tag_view'
p1844
sg12
g13
(g14
g15
NtRp1845
(dp1846
g18
I1
sg19
I0
sg20
I0
sg21
I0
sg22
I0
sg23
I0
sg24
I0
sbssg25
S'\x19g\xdfM\x1a\x019\xaf\x1baIeR\xe5u\xa7'
p1847
ssS'create_models_books_book_model'
p1848
(dp1849
g365
(dp1850
S'html_filename'
p1851
S'create_models_books_book_model.html'
p1852
sS'name'
p1853
S'create/models/books/book_model'
p1854
sS'nums'
p1855
g13
(g14
g15
NtRp1856
(dp1857
g18
I1
sg19
I4
sg20
I37
sg21
I0
sg22
I0
sg23
I0
sg24
I0
sbssg371
S'Z\x88%\xfa\x8c7\x1e\xf9\x06qW\x80O\xe1\x85.'
p1858
ssS'create_views_books_tests_test_remove_chapter_view'
p1859
(dp1860
g126
(dp1861
g44
S'create_views_books_tests_test_remove_chapter_view.html'
p1862
sg46
S'create/views/books/tests/test_remove_chapter_view'
p1863
sg48
g13
(g14
g15
NtRp1864
(dp1865
g18
I1
sg19
I0
sg20
I39
sg21
I0
sg22
I0
sg23
I0
sg24
I0
sbssg132
S'lJ\xdc\xbe\xe2>\x9d\xde\xb5+ia5;\x042'
p1866
ssS'create_models_question_datasets___init__'
p1867
(dp1868
g144
(dp1869
g146
S'create_models_question_datasets___init__.html'
p1870
sg148
S'create/models/question_datasets/__init__'
p1871
sg150
g13
(g14
g15
NtRp1872
(dp1873
g18
I1
sg19
I0
sg20
I1
sg21
I0
sg22
I0
sg23
I0
sg24
I0
sbssg153
S'\xeb\xb7>&t\x02-\xeaaJ,\x8a\xae\xc3\x1a]'
p1874
ssS'privilege_views___init__'
p1875
(dp1876
g300
(dp1877
g93
S'privilege_views___init__.html'
p1878
sg95
S'privilege/views/__init__'
p1879
sg97
g13
(g14
g15
NtRp1880
(dp1881
g18
I1
sg19
I0
sg20
I0
sg21
I0
sg22
I0
sg23
I0
sg24
I0
sbssg306
S'\x19g\xdfM\x1a\x019\xaf\x1baIeR\xe5u\xa7'
p1882
ssS'api_logging_views_query_stat___init__'
p1883
(dp1884
g255
(dp1885
g257
S'api_logging_views_query_stat___init__.html'
p1886
sg259
S'api_logging/views/query_stat/__init__'
p1887
sg261
g13
(g14
g15
NtRp1888
(dp1889
g18
I1
sg19
I0
sg20
I1
sg21
I0
sg22
I0
sg23
I0
sg24
I0
sbssg264
S'\xbe{\x9f#C\x83\xe9\xa5\xf6B\xf2\xd6\x8a\x0eB\xd0'
p1890
ssS'user_system_views_users_tests___init__'
p1891
(dp1892
g42
(dp1893
g460
S'user_system_views_users_tests___init__.html'
p1894
sg462
S'user_system/views/users/tests/__init__'
p1895
sg464
g13
(g14
g15
NtRp1896
(dp1897
g18
I1
sg19
I0
sg20
I0
sg21
I0
sg22
I0
sg23
I0
sg24
I0
sbssg51
S'\x19g\xdfM\x1a\x019\xaf\x1baIeR\xe5u\xa7'
p1898
ssS'create_models_tags_tests_test_skill_model'
p1899
(dp1900
g402
(dp1901
g44
S'create_models_tags_tests_test_skill_model.html'
p1902
sg46
S'create/models/tags/tests/test_skill_model'
p1903
sg48
g13
(g14
g15
NtRp1904
(dp1905
g18
I1
sg19
I0
sg20
I12
sg21
I0
sg22
I0
sg23
I0
sg24
I0
sbssg408
S'\x08\x9e\x87e#\x02\x06O\x02l!\x0e\xe8\xeb\xc0.'
p1906
ssS'create_views_tags_tests___init__'
p1907
(dp1908
g710
(dp1909
g1039
S'create_views_tags_tests___init__.html'
p1910
sg1041
S'create/views/tags/tests/__init__'
p1911
sg1043
g13
(g14
g15
NtRp1912
(dp1913
g18
I1
sg19
I0
sg20
I0
sg21
I0
sg22
I0
sg23
I0
sg24
I0
sbssg716
S'\x19g\xdfM\x1a\x019\xaf\x1baIeR\xe5u\xa7'
p1914
ssS'user_system_views_signups_hardcoded___init__'
p1915
(dp1916
g42
(dp1917
g460
S'user_system_views_signups_hardcoded___init__.html'
p1918
sg462
S'user_system/views/signups/hardcoded/__init__'
p1919
sg464
g13
(g14
g15
NtRp1920
(dp1921
g18
I1
sg19
I0
sg20
I1
sg21
I0
sg22
I0
sg23
I0
sg24
I0
sbssg51
S'?\xfac\x0c\x91\xa4\xd6\xd4\x1d\xe4\x99\xc2[\x83\xfc\xdf'
p1922
ssS'create_models_daily_quest_templates_daily_quest_template_model'
p1923
(dp1924
g242
(dp1925
g244
S'create_models_daily_quest_templates_daily_quest_template_model.html'
p1926
sg246
S'create/models/daily_quest_templates/daily_quest_template_model'
p1927
sg248
g13
(g14
g15
NtRp1928
(dp1929
g18
I1
sg19
I0
sg20
I29
sg21
I0
sg22
I0
sg23
I0
sg24
I0
sbssg251
S'm:\xfa\nsk\x85\xa8p\x96\xc3\xca\xa1c\xb0+'
p1930
ssS'create_models_books_tests_test_book_chapter_model'
p1931
(dp1932
g365
(dp1933
g1741
S'create_models_books_tests_test_book_chapter_model.html'
p1934
sg1743
S'create/models/books/tests/test_book_chapter_model'
p1935
sg1745
g13
(g14
g15
NtRp1936
(dp1937
g18
I1
sg19
I8
sg20
I55
sg21
I0
sg22
I0
sg23
I0
sg24
I0
sbssg371
S'\xc4\x1a\xd7\x12s\xd3V\xef\xac\xa7%\x0c\xdc\x17\x05c'
p1938
ssS'user_system_views_signups_tests_test_verify_email_view'
p1939
(dp1940
g42
(dp1941
g44
S'user_system_views_signups_tests_test_verify_email_view.html'
p1942
sg46
S'user_system/views/signups/tests/test_verify_email_view'
p1943
sg48
g13
(g14
g15
NtRp1944
(dp1945
g18
I1
sg19
I0
sg20
I51
sg21
I0
sg22
I0
sg23
I0
sg24
I0
sbssg51
S'\x81\xacj\x9d\x1f\xa9o\xcc\x1e\xa3\xe59^YT\x9e'
p1946
ssS'teach_models_daily_quest_templates___init__'
p1947
(dp1948
g55
(dp1949
g57
S'teach_models_daily_quest_templates___init__.html'
p1950
sg59
S'teach/models/daily_quest_templates/__init__'
p1951
sg61
g13
(g14
g15
NtRp1952
(dp1953
g18
I1
sg19
I0
sg20
I1
sg21
I0
sg22
I0
sg23
I0
sg24
I0
sbssg64
S'\x12\x89x\xb9F\xfb=b\x04\xddy\xb4\xccZb\xb8'
p1954
ssS'teach_serializers_daily_quest_templates_daily_quest_template_serializer'
p1955
(dp1956
g55
(dp1957
g196
S'teach_serializers_daily_quest_templates_daily_quest_template_serializer.html'
p1958
sg198
S'teach/serializers/daily_quest_templates/daily_quest_template_serializer'
p1959
sg200
g13
(g14
g15
NtRp1960
(dp1961
g18
I1
sg19
I0
sg20
I12
sg21
I0
sg22
I0
sg23
I0
sg24
I0
sbssg64
S"\xd9\x0bcm\x95?'mB\xf9\xdd\xa1\xfc>:="
p1962
ssS'create_views_questions_tests_test_add_tag_view'
p1963
(dp1964
g219
(dp1965
g221
S'create_views_questions_tests_test_add_tag_view.html'
p1966
sg223
S'create/views/questions/tests/test_add_tag_view'
p1967
sg225
g13
(g14
g15
NtRp1968
(dp1969
g18
I1
sg19
I0
sg20
I35
sg21
I0
sg22
I0
sg23
I0
sg24
I0
sbssg228
S'\x8e\x13\xdd\xbd\xba\r&,-|&W-a`\x7f'
p1970
ssS'create_views_quests_quest_view'
p1971
(dp1972
g103
(dp1973
g1012
S'create_views_quests_quest_view.html'
p1974
sg1014
S'create/views/quests/quest_view'
p1975
sg1016
g13
(g14
g15
NtRp1976
(dp1977
g18
I1
sg19
I84
sg20
I249
sg21
I0
sg22
I0
sg23
I178
sg24
I78
sbssg112
S'(\xa2UK\xe2}\xa8\xe0\xc9 3#\xec\x01\xfd\x16'
p1978
ssS'privilege_models_privileges_tests_test_privilege_model'
p1979
(dp1980
g300
(dp1981
g1273
S'privilege_models_privileges_tests_test_privilege_model.html'
p1982
sg1275
S'privilege/models/privileges/tests/test_privilege_model'
p1983
sg1277
g13
(g14
g15
NtRp1984
(dp1985
g18
I1
sg19
I0
sg20
I30
sg21
I0
sg22
I0
sg23
I0
sg24
I0
sbssg306
S'\xe0^\x80\xd5+a\xd9\xc4\xeabB\xc5\x142;\xc9'
p1986
ssS'api_logging_models'
p1987
(dp1988
g577
(dp1989
g748
S'api_logging_models.html'
p1990
sg750
S'api_logging/models'
p1991
sg752
g13
(g14
g15
NtRp1992
(dp1993
g18
I1
sg19
I0
sg20
I21
sg21
I0
sg22
I0
sg23
I0
sg24
I0
sbssg583
S'\x0c\x96WFX%\xe9\xcf+\xcf\xc2s\xa7a1\xbd'
p1994
ssS'user_system_models_schools_tests_test_grade_model'
p1995
(dp1996
g232
(dp1997
g31
S'user_system_models_schools_tests_test_grade_model.html'
p1998
sg33
S'user_system/models/schools/tests/test_grade_model'
p1999
sg35
g13
(g14
g15
NtRp2000
(dp2001
g18
I1
sg19
I0
sg20
I24
sg21
I0
sg22
I0
sg23
I0
sg24
I0
sbssg238
S'\x1e|\xb0\x10\x05\x9c\xb5\xe9\xbc\xff\x8a\xaan\xdf\xd4\xb2'
p2002
ssS'user_system_views_logins_tests_test_facebook_login_view'
p2003
(dp2004
g42
(dp2005
g44
S'user_system_views_logins_tests_test_facebook_login_view.html'
p2006
sg46
S'user_system/views/logins/tests/test_facebook_login_view'
p2007
sg48
g13
(g14
g15
NtRp2008
(dp2009
g18
I1
sg19
I0
sg20
I51
sg21
I0
sg22
I0
sg23
I0
sg24
I0
sbssg51
S'\x8eg\xfbA\xbdf+\x81\xe9\x8a\x16\x82\xe9\xe3\xc0\xf4'
p2010
ssS'create_models_daily_quests_daily_quest_model'
p2011
(dp2012
g774
(dp2013
g1545
S'create_models_daily_quests_daily_quest_model.html'
p2014
sg1547
S'create/models/daily_quests/daily_quest_model'
p2015
sg1549
g13
(g14
g15
NtRp2016
(dp2017
g18
I1
sg19
I2
sg20
I48
sg21
I0
sg22
I0
sg23
I6
sg24
I2
sbssg783
S'\xae\'/"f\x1014\xdd\x0e\x85\xf4\x91\x02\\`'
p2018
ssS'user_system_views_signups_tests_test_email_signup_view'
p2019
(dp2020
g42
(dp2021
g44
S'user_system_views_signups_tests_test_email_signup_view.html'
p2022
sg46
S'user_system/views/signups/tests/test_email_signup_view'
p2023
sg48
g13
(g14
g15
NtRp2024
(dp2025
g18
I1
sg19
I0
sg20
I51
sg21
I0
sg22
I0
sg23
I0
sg24
I0
sbssg51
S'\xa3\xb2\xaf-\x99\xe3]\xcc\xe6\x8b\xeb\xf63=I\xb4'
p2026
ssS'user_system_models_schools_tests_test_organization_model'
p2027
(dp2028
g206
(dp2029
g644
S'user_system_models_schools_tests_test_organization_model.html'
p2030
sg646
S'user_system/models/schools/tests/test_organization_model'
p2031
sg648
g13
(g14
g15
NtRp2032
(dp2033
g18
I1
sg19
I0
sg20
I27
sg21
I0
sg22
I0
sg23
I0
sg24
I0
sbssg215
S"\xa3'h\xadZ,\x82G\xbc\x08wON /j"
p2034
ssS'create_serializers_books_book_subchapter_serializer'
p2035
(dp2036
g365
(dp2037
g1203
S'create_serializers_books_book_subchapter_serializer.html'
p2038
sg1205
S'create/serializers/books/book_subchapter_serializer'
p2039
sg1207
g13
(g14
g15
NtRp2040
(dp2041
g18
I1
sg19
I0
sg20
I18
sg21
I0
sg22
I0
sg23
I3
sg24
I0
sbssg371
S'89\x89\x89\xd8\x94\xd2l\x98G]\xad\xe1\xf7\x93\xfc'
p2042
ssS'create_views_books_book_subchapter_view'
p2043
(dp2044
g1563
(dp2045
g44
S'create_views_books_book_subchapter_view.html'
p2046
sg46
S'create/views/books/book_subchapter_view'
p2047
sg48
g13
(g14
g15
NtRp2048
(dp2049
g18
I1
sg19
I8
sg20
I46
sg21
I0
sg22
I0
sg23
I0
sg24
I0
sbssg1569
S'\x0e\xa6\x19V\xf0\xf3;\xa2\x8d \xd8i\xb7*D\x87'
p2050
ssS'user_system_models_roles_tests_test_role_model'
p2051
(dp2052
g42
(dp2053
g44
S'user_system_models_roles_tests_test_role_model.html'
p2054
sg46
S'user_system/models/roles/tests/test_role_model'
p2055
sg48
g13
(g14
g15
NtRp2056
(dp2057
g18
I1
sg19
I0
sg20
I20
sg21
I0
sg22
I0
sg23
I0
sg24
I0
sbssg51
S'\xef\xba\x956\x96\xbc:\xa0\x0f\x00\x84\x80\x0elh\xed'
p2058
ssS'user_system_views_signups_verify_email_view'
p2059
(dp2060
g42
(dp2061
g44
S'user_system_views_signups_verify_email_view.html'
p2062
sg46
S'user_system/views/signups/verify_email_view'
p2063
sg48
g13
(g14
g15
NtRp2064
(dp2065
g18
I1
sg19
I6
sg20
I26
sg21
I0
sg22
I0
sg23
I0
sg24
I0
sbssg51
S"B+;\xbf\xb1A\x1f\n\x94\x0e\xeb\xd0\xf1Y'l"
p2066
ssS'user_system_views_logins_email_login_view'
p2067
(dp2068
g42
(dp2069
g196
S'user_system_views_logins_email_login_view.html'
p2070
sg198
S'user_system/views/logins/email_login_view'
p2071
sg200
g13
(g14
g15
NtRp2072
(dp2073
g18
I1
sg19
I8
sg20
I35
sg21
I0
sg22
I0
sg23
I0
sg24
I0
sbssg51
S'\x9e\xe3\x8e\xf9o\x8aYC\xa2\xcb\xe7\xbd\x94\xe1O\x1a'
p2074
ssS'user_system_serializers_users_list_user_serializer'
p2075
(dp2076
g42
(dp2077
g44
S'user_system_serializers_users_list_user_serializer.html'
p2078
sg46
S'user_system/serializers/users/list_user_serializer'
p2079
sg48
g13
(g14
g15
NtRp2080
(dp2081
g18
I1
sg19
I0
sg20
I18
sg21
I0
sg22
I0
sg23
I0
sg24
I0
sbssg51
S'\xdfK>6\xe0\x8d\xcd\xd4/O\xef\xaa\xd0\x9efX'
p2082
ssS'create_views_question_datasets_question_dataset_view'
p2083
(dp2084
g144
(dp2085
g146
S'create_views_question_datasets_question_dataset_view.html'
p2086
sg148
S'create/views/question_datasets/question_dataset_view'
p2087
sg150
g13
(g14
g15
NtRp2088
(dp2089
g18
I1
sg19
I4
sg20
I20
sg21
I0
sg22
I0
sg23
I5
sg24
I4
sbssg153
S'\x01\xfb\xf2\x86m\xd4\xf9\xc3\xe6\xb6\x11\x96u;\x1ez'
p2090
ssS'create_views_quests_tests_test_remove_question_template_view'
p2091
(dp2092
g6
(dp2093
g8
S'create_views_quests_tests_test_remove_question_template_view.html'
p2094
sg10
S'create/views/quests/tests/test_remove_question_template_view'
p2095
sg12
g13
(g14
g15
NtRp2096
(dp2097
g18
I1
sg19
I0
sg20
I0
sg21
I0
sg22
I0
sg23
I0
sg24
I0
sbssg25
S'\x19g\xdfM\x1a\x019\xaf\x1baIeR\xe5u\xa7'
p2098
ssS'user_system_serializers_users_user_profile_update_request_serializer'
p2099
(dp2100
g116
(dp2101
S'html_filename'
p2102
S'user_system_serializers_users_user_profile_update_request_serializer.html'
p2103
sS'name'
p2104
S'user_system/serializers/users/user_profile_update_request_serializer'
p2105
sS'nums'
p2106
g13
(g14
g15
NtRp2107
(dp2108
g18
I1
sg19
I0
sg20
I20
sg21
I0
sg22
I0
sg23
I2
sg24
I0
sbssg122
S'\x19EO\xe6\xb5\xdbWY\xb8\xd9\x1cP&\xe3\xc4\xca'
p2109
ssS'create_views_books_tests_test_get_books_list_view'
p2110
(dp2111
g955
(dp2112
g93
S'create_views_books_tests_test_get_books_list_view.html'
p2113
sg95
S'create/views/books/tests/test_get_books_list_view'
p2114
sg97
g13
(g14
g15
NtRp2115
(dp2116
g18
I1
sg19
I0
sg20
I21
sg21
I0
sg22
I0
sg23
I0
sg24
I0
sbssg961
S'\x16\x8f\xf1\x81>\x0f\xb4S\x19\xff\xcd\xc1Y\xe9;\x98'
p2117
ssS'user_system_serializers_schools_classroom_serializer'
p2118
(dp2119
g116
(dp2120
g31
S'user_system_serializers_schools_classroom_serializer.html'
p2121
sg33
S'user_system/serializers/schools/classroom_serializer'
p2122
sg35
g13
(g14
g15
NtRp2123
(dp2124
g18
I1
sg19
I0
sg20
I13
sg21
I0
sg22
I0
sg23
I2
sg24
I0
sbssg122
S'\\\x02 #\xfc|[\xb1g\x7f\x83+\xb6\xaa\x13\x01'
p2125
ssS'create_models_daily_quest_copies_tests___init__'
p2126
(dp2127
g430
(dp2128
g1545
S'create_models_daily_quest_copies_tests___init__.html'
p2129
sg1547
S'create/models/daily_quest_copies/tests/__init__'
p2130
sg1549
g13
(g14
g15
NtRp2131
(dp2132
g18
I1
sg19
I0
sg20
I0
sg21
I0
sg22
I0
sg23
I0
sg24
I0
sbssg439
S'\x19g\xdfM\x1a\x019\xaf\x1baIeR\xe5u\xa7'
p2133
ssS'api_logging_views_summary_user_activity_summary_view'
p2134
(dp2135
g310
(dp2136
g196
S'api_logging_views_summary_user_activity_summary_view.html'
p2137
sg198
S'api_logging/views/summary/user_activity_summary_view'
p2138
sg200
g13
(g14
g15
NtRp2139
(dp2140
g18
I1
sg19
I8
sg20
I27
sg21
I0
sg22
I0
sg23
I13
sg24
I8
sbssg316
S'\x99\xfc\\\x0e\x10\x840(\x94\xd3(k\x9f\xb4\xd9M'
p2141
ssS'create_urls'
p2142
(dp2143
g42
(dp2144
g57
S'create_urls.html'
p2145
sg59
S'create/urls'
p2146
sg61
g13
(g14
g15
NtRp2147
(dp2148
g18
I1
sg19
I0
sg20
I22
sg21
I0
sg22
I0
sg23
I0
sg24
I0
sbssg51
S"k/4\x8e_h\xf3)p'\x8e\x80v\x1e\xbdg"
p2149
ssS'create_views_tags_tests_test_get_tags_list_view'
p2150
(dp2151
g710
(dp2152
g93
S'create_views_tags_tests_test_get_tags_list_view.html'
p2153
sg95
S'create/views/tags/tests/test_get_tags_list_view'
p2154
sg97
g13
(g14
g15
NtRp2155
(dp2156
g18
I1
sg19
I0
sg20
I21
sg21
I0
sg22
I0
sg23
I0
sg24
I0
sbssg716
S'F\xf6yk?\xb2\xc12\x93\x8b\xe6Bx\xa09\x89'
p2157
ssS'create_serializers_tags_tag_serializer'
p2158
(dp2159
g365
(dp2160
g93
S'create_serializers_tags_tag_serializer.html'
p2161
sg95
S'create/serializers/tags/tag_serializer'
p2162
sg97
g13
(g14
g15
NtRp2163
(dp2164
g18
I1
sg19
I0
sg20
I38
sg21
I0
sg22
I0
sg23
I0
sg24
I0
sbssg371
S'\xf7\xa8n\xd6\xf1\xe1\xf8\xaedX\x8e\xfe\ry\xd4\xc3'
p2165
ssS'user_system_models_users_teacher_mapping_model'
p2166
(dp2167
g29
(dp2168
g1273
S'user_system_models_users_teacher_mapping_model.html'
p2169
sg1275
S'user_system/models/users/teacher_mapping_model'
p2170
sg1277
g13
(g14
g15
NtRp2171
(dp2172
g18
I1
sg19
I4
sg20
I25
sg21
I0
sg22
I0
sg23
I0
sg24
I0
sbssg38
S'\xf8\xaf0\xe2\xc1q\x88\xa4\\\xde\x81@\xa4\xe3\xef\x12'
p2173
ssS'create_models_questions___init__'
p2174
(dp2175
g42
(dp2176
g605
S'create_models_questions___init__.html'
p2177
sg607
S'create/models/questions/__init__'
p2178
sg609
g13
(g14
g15
NtRp2179
(dp2180
g18
I1
sg19
I0
sg20
I6
sg21
I0
sg22
I0
sg23
I0
sg24
I0
sbssg51
S'\xd4\xfd\xae\xf0N\xdd-\x07$U\xac\xf1\xc2\x0f\xa5H'
p2181
ssS'create_models_tags_tag_type_model'
p2182
(dp2183
g402
(dp2184
g44
S'create_models_tags_tag_type_model.html'
p2185
sg46
S'create/models/tags/tag_type_model'
p2186
sg48
g13
(g14
g15
NtRp2187
(dp2188
g18
I1
sg19
I0
sg20
I15
sg21
I0
sg22
I0
sg23
I0
sg24
I0
sbssg408
S'\x89\x07\x8e\xc7^0\x96Do\xbf\xa5\xca5\xe4\x92\xeb'
p2189
ssS'create_serializers___init__'
p2190
(dp2191
g42
(dp2192
g57
S'create_serializers___init__.html'
p2193
sg59
S'create/serializers/__init__'
p2194
sg61
g13
(g14
g15
NtRp2195
(dp2196
g18
I1
sg19
I0
sg20
I6
sg21
I0
sg22
I0
sg23
I0
sg24
I0
sbssg51
S'\x97\xc3"\xfe\x83V\xc1w\xa6r\x02s qES'
p2197
ssS'create_serializers_books_book_history_serializer'
p2198
(dp2199
g955
(dp2200
g93
S'create_serializers_books_book_history_serializer.html'
p2201
sg95
S'create/serializers/books/book_history_serializer'
p2202
sg97
g13
(g14
g15
NtRp2203
(dp2204
g18
I1
sg19
I0
sg20
I14
sg21
I0
sg22
I0
sg23
I0
sg24
I0
sbssg961
S'|g\x1e1\xcdq*ob~B\xca\xd92\x8b\x01'
p2205
ssS'teach_views_daily_quest_templates___init__'
p2206
(dp2207
g55
(dp2208
g57
S'teach_views_daily_quest_templates___init__.html'
p2209
sg59
S'teach/views/daily_quest_templates/__init__'
p2210
sg61
g13
(g14
g15
NtRp2211
(dp2212
g18
I1
sg19
I0
sg20
I1
sg21
I0
sg22
I0
sg23
I0
sg24
I0
sbssg64
S'\xc1b\x1f\x95\xabR`C\xe80\xb9tNC\r3'
p2213
ssS'teach___init__'
p2214
(dp2215
g55
(dp2216
g57
S'teach___init__.html'
p2217
sg59
S'teach/__init__'
p2218
sg61
g13
(g14
g15
NtRp2219
(dp2220
g18
I1
sg19
I0
sg20
I0
sg21
I0
sg22
I0
sg23
I0
sg24
I0
sbssg64
S'\x19g\xdfM\x1a\x019\xaf\x1baIeR\xe5u\xa7'
p2221
ssS'user_system_views_users___init__'
p2222
(dp2223
g42
(dp2224
g392
S'user_system_views_users___init__.html'
p2225
sg394
S'user_system/views/users/__init__'
p2226
sg396
g13
(g14
g15
NtRp2227
(dp2228
g18
I1
sg19
I0
sg20
I7
sg21
I0
sg22
I0
sg23
I0
sg24
I0
sbssg51
S']\x15\xfe\xc7\xefw\x97\xcc\x87v\xa2Z\x9b\xb1\x91\xaf'
p2229
ssS'user_system_serializers_users_user_streak_history_serializer'
p2230
(dp2231
g1690
(dp2232
g392
S'user_system_serializers_users_user_streak_history_serializer.html'
p2233
sg394
S'user_system/serializers/users/user_streak_history_serializer'
p2234
sg396
g13
(g14
g15
NtRp2235
(dp2236
g18
I1
sg19
I0
sg20
I7
sg21
I0
sg22
I0
sg23
I0
sg24
I0
sbssg1696
S'\xc8\x05\x87\xf4N\xc27/(.\xaf\xf4NliE'
p2237
ssS'flipped_helpers_tests_test_email_helper'
p2238
(dp2239
g42
(dp2240
g44
S'flipped_helpers_tests_test_email_helper.html'
p2241
sg46
S'flipped/helpers/tests/test_email_helper'
p2242
sg48
g13
(g14
g15
NtRp2243
(dp2244
g18
I1
sg19
I0
sg20
I13
sg21
I0
sg22
I0
sg23
I0
sg24
I0
sbssg51
S'\x13\xee\xcb^E:3A\xff)v\x7f\xd3\xa7\xa2\xaa'
p2245
ssS'user_system_serializers_users___init__'
p2246
(dp2247
g42
(dp2248
g392
S'user_system_serializers_users___init__.html'
p2249
sg394
S'user_system/serializers/users/__init__'
p2250
sg396
g13
(g14
g15
NtRp2251
(dp2252
g18
I1
sg19
I0
sg20
I8
sg21
I0
sg22
I0
sg23
I0
sg24
I0
sbssg51
S'\xb6(Qu\xed\x1eu\xb3\x15,\xae\x0c\xe6>\xe2\x80'
p2253
ssS'user_system_models_schools_tests_test_semester_model'
p2254
(dp2255
g206
(dp2256
g347
S'user_system_models_schools_tests_test_semester_model.html'
p2257
sg349
S'user_system/models/schools/tests/test_semester_model'
p2258
sg351
g13
(g14
g15
NtRp2259
(dp2260
g18
I1
sg19
I0
sg20
I29
sg21
I0
sg22
I0
sg23
I0
sg24
I0
sbssg215
S'\xe9\xd9\xdc\\\xb9\x93\xb1\x93Q\x02\xe9\xb7Y,\xa6w'
p2261
ssS'create_views_quests_tests___init__'
p2262
(dp2263
g6
(dp2264
g8
S'create_views_quests_tests___init__.html'
p2265
sg10
S'create/views/quests/tests/__init__'
p2266
sg12
g13
(g14
g15
NtRp2267
(dp2268
g18
I1
sg19
I0
sg20
I0
sg21
I0
sg22
I0
sg23
I0
sg24
I0
sbssg25
S'\x19g\xdfM\x1a\x019\xaf\x1baIeR\xe5u\xa7'
p2269
ssS'user_system_serializers_schools_course_serializer'
p2270
(dp2271
g116
(dp2272
g31
S'user_system_serializers_schools_course_serializer.html'
p2273
sg33
S'user_system/serializers/schools/course_serializer'
p2274
sg35
g13
(g14
g15
NtRp2275
(dp2276
g18
I1
sg19
I0
sg20
I16
sg21
I0
sg22
I0
sg23
I2
sg24
I0
sbssg122
S'\xb0\xa8O3\x01\xce\xfe3\x12\x94\xc0\xc4\xe0@\xafJ'
p2277
ssS'user_system_views_users_tests_test_delete_user_view'
p2278
(dp2279
g42
(dp2280
g44
S'user_system_views_users_tests_test_delete_user_view.html'
p2281
sg46
S'user_system/views/users/tests/test_delete_user_view'
p2282
sg48
g13
(g14
g15
NtRp2283
(dp2284
g18
I1
sg19
I0
sg20
I22
sg21
I0
sg22
I0
sg23
I0
sg24
I0
sbssg51
S'\xe4S$\xa1t\xc6\xbe\xc7\xb9^Y\x05{\x92KQ'
p2285
ssS'learn_models_daily_quests_daily_quest_question_history_model'
p2286
(dp2287
S'index'
p2288
(dp2289
S'html_filename'
p2290
S'learn_models_daily_quests_daily_quest_question_history_model.html'
p2291
sS'name'
p2292
S'learn/models/daily_quests/daily_quest_question_history_model'
p2293
sS'nums'
p2294
g13
(g14
g15
NtRp2295
(dp2296
g18
I1
sg19
I6
sg20
I65
sg21
I0
sg22
I0
sg23
I4
sg24
I2
sbssS'hash'
p2297
S')\x12x?=\x06;DF\xf0#m\x85F\xbd*'
p2298
ssS'user_system_models_users_user_profile_update_request_model'
p2299
(dp2300
g116
(dp2301
g644
S'user_system_models_users_user_profile_update_request_model.html'
p2302
sg646
S'user_system/models/users/user_profile_update_request_model'
p2303
sg648
g13
(g14
g15
NtRp2304
(dp2305
g18
I1
sg19
I0
sg20
I58
sg21
I0
sg22
I0
sg23
I0
sg24
I0
sbssg122
S'\xc8t\x16>\xb9"\xff\x93\xe3\x00\xa5z0[\xacM'
p2306
ssS'create_models_tags_tag_history_model'
p2307
(dp2308
g577
(dp2309
g221
S'create_models_tags_tag_history_model.html'
p2310
sg223
S'create/models/tags/tag_history_model'
p2311
sg225
g13
(g14
g15
NtRp2312
(dp2313
g18
I1
sg19
I0
sg20
I37
sg21
I0
sg22
I0
sg23
I0
sg24
I0
sbssg583
S'\xae\xc8g\xc1\xf5l<\x1f\x9c\xaf\x17\xf98\r\xa1\xe2'
p2314
ssS'create_serializers_daily_quest_copies___init__'
p2315
(dp2316
g430
(dp2317
g1545
S'create_serializers_daily_quest_copies___init__.html'
p2318
sg1547
S'create/serializers/daily_quest_copies/__init__'
p2319
sg1549
g13
(g14
g15
NtRp2320
(dp2321
g18
I1
sg19
I0
sg20
I1
sg21
I0
sg22
I0
sg23
I0
sg24
I0
sbssg439
S'\nX]\x85Nc\xb8\xc0\xe1\xaf\xa0\xda_\x9e\xb9u'
p2322
ssS'user_system_models_schools_course_model'
p2323
(dp2324
g232
(dp2325
g644
S'user_system_models_schools_course_model.html'
p2326
sg646
S'user_system/models/schools/course_model'
p2327
sg648
g13
(g14
g15
NtRp2328
(dp2329
g18
I1
sg19
I6
sg20
I37
sg21
I0
sg22
I0
sg23
I0
sg24
I0
sbssg238
S']\xfb\xca\\\xbf\x86n\xc3fj\xc2\x1ej\\q\x14'
p2330
ssS'create_models_daily_quest_copies_tests_test_daily_quest_copy_model'
p2331
(dp2332
g430
(dp2333
g559
S'create_models_daily_quest_copies_tests_test_daily_quest_copy_model.html'
p2334
sg561
S'create/models/daily_quest_copies/tests/test_daily_quest_copy_model'
p2335
sg563
g13
(g14
g15
NtRp2336
(dp2337
g18
I1
sg19
I4
sg20
I45
sg21
I0
sg22
I0
sg23
I0
sg24
I0
sbssg439
S'\xcd\xeeU\x8a\xd7\x95\x9e5E\xd0\xaf\xd07\x80\x85\xe0'
p2338
ssS'privilege_views_privileges___init__'
p2339
(dp2340
g300
(dp2341
g93
S'privilege_views_privileges___init__.html'
p2342
sg95
S'privilege/views/privileges/__init__'
p2343
sg97
g13
(g14
g15
NtRp2344
(dp2345
g18
I1
sg19
I0
sg20
I1
sg21
I0
sg22
I0
sg23
I0
sg24
I0
sbssg306
S']\x14S\xdf\xb4:Tx\xb9\x98\x89\xe7\x01%DZ'
p2346
ssS'teach_models_teacher_chapters_teacher_chapter_model'
p2347
(dp2348
g55
(dp2349
S'html_filename'
p2350
S'teach_models_teacher_chapters_teacher_chapter_model.html'
p2351
sS'name'
p2352
S'teach/models/teacher_chapters/teacher_chapter_model'
p2353
sS'nums'
p2354
g13
(g14
g15
NtRp2355
(dp2356
g18
I1
sg19
I0
sg20
I23
sg21
I0
sg22
I0
sg23
I0
sg24
I0
sbssg64
S'\x97T&\xd0\x81q\xc2M\xc3\x03\x01U\xf5S!h'
p2357
ssS'create_models_questions_question_template_model'
p2358
(dp2359
g103
(dp2360
S'html_filename'
p2361
S'create_models_questions_question_template_model.html'
p2362
sS'name'
p2363
S'create/models/questions/question_template_model'
p2364
sS'nums'
p2365
g13
(g14
g15
NtRp2366
(dp2367
g18
I1
sg19
I0
sg20
I40
sg21
I0
sg22
I0
sg23
I0
sg24
I0
sbssg112
S'\x845gz\x1d\x17\x1dv\x81\n\x96G\x99pE\\'
p2368
ssS'create_views_questions_tests_test_get_question_by_id_view'
p2369
(dp2370
g42
(dp2371
g93
S'create_views_questions_tests_test_get_question_by_id_view.html'
p2372
sg95
S'create/views/questions/tests/test_get_question_by_id_view'
p2373
sg97
g13
(g14
g15
NtRp2374
(dp2375
g18
I1
sg19
I0
sg20
I24
sg21
I0
sg22
I0
sg23
I0
sg24
I0
sbssg51
S'\xa7[\x91\xa9\xa6\xb4\xbd&n$O^O\xec\xf2X'
p2376
ssS'teach_models_teacher_tags_tests___init__'
p2377
(dp2378
g55
(dp2379
g57
S'teach_models_teacher_tags_tests___init__.html'
p2380
sg59
S'teach/models/teacher_tags/tests/__init__'
p2381
sg61
g13
(g14
g15
NtRp2382
(dp2383
g18
I1
sg19
I0
sg20
I0
sg21
I0
sg22
I0
sg23
I0
sg24
I0
sbssg64
S'\x19g\xdfM\x1a\x019\xaf\x1baIeR\xe5u\xa7'
p2384
ssS'api_logging_urls'
p2385
(dp2386
g310
(dp2387
g257
S'api_logging_urls.html'
p2388
sg259
S'api_logging/urls'
p2389
sg261
g13
(g14
g15
NtRp2390
(dp2391
g18
I1
sg19
I0
sg20
I13
sg21
I0
sg22
I0
sg23
I0
sg24
I0
sbssg316
S'\x8a\n\x99\x1f\xc4\x0f\x94\xc9\x97\xde\xea\xfe\x15Y\xa7\x0c'
p2392
ssS'api_logging_serializers_LoggingSerializer'
p2393
(dp2394
g310
(dp2395
g196
S'api_logging_serializers_LoggingSerializer.html'
p2396
sg198
S'api_logging/serializers/LoggingSerializer'
p2397
sg200
g13
(g14
g15
NtRp2398
(dp2399
g18
I1
sg19
I0
sg20
I12
sg21
I0
sg22
I0
sg23
I0
sg24
I0
sbssg316
S'1\xdb}\x8eJ\x1a\xe6@D\xcc}\xf4\x11(\x11\xb0'
p2400
ssS'create_views_books_tests_test_remove_subchapter_view'
p2401
(dp2402
S'index'
p2403
(dp2404
g44
S'create_views_books_tests_test_remove_subchapter_view.html'
p2405
sg46
S'create/views/books/tests/test_remove_subchapter_view'
p2406
sg48
g13
(g14
g15
NtRp2407
(dp2408
g18
I1
sg19
I0
sg20
I44
sg21
I0
sg22
I0
sg23
I0
sg24
I0
sbssS'hash'
p2409
S'\x0b\xddi\xaa_d\x8c\xf3b\xa2\x12\xbc\xce\xa5\xbf\x8b'
p2410
ssS'create_models_quests_tests_test_quest_history_model'
p2411
(dp2412
g103
(dp2413
g1238
S'create_models_quests_tests_test_quest_history_model.html'
p2414
sg1240
S'create/models/quests/tests/test_quest_history_model'
p2415
sg1242
g13
(g14
g15
NtRp2416
(dp2417
g18
I1
sg19
I8
sg20
I79
sg21
I0
sg22
I0
sg23
I0
sg24
I0
sbssg112
S'##\xeax]g;Ka\xb3\xc0Py,oE'
p2418
ssS'learn_models_points_point_history_model'
p2419
(dp2420
g310
(dp2421
g196
S'learn_models_points_point_history_model.html'
p2422
sg198
S'learn/models/points/point_history_model'
p2423
sg200
g13
(g14
g15
NtRp2424
(dp2425
g18
I1
sg19
I0
sg20
I16
sg21
I0
sg22
I0
sg23
I0
sg24
I0
sbssg316
S'\xa8\xbaH\x19\x11\xbeT\xe2N=\xfe\xed\x9d\xd4\x83\x1e'
p2426
ssS'user_system___init__'
p2427
(dp2428
g42
(dp2429
g460
S'user_system___init__.html'
p2430
sg462
S'user_system/__init__'
p2431
sg464
g13
(g14
g15
NtRp2432
(dp2433
g18
I1
sg19
I0
sg20
I0
sg21
I0
sg22
I0
sg23
I0
sg24
I0
sbssg51
S'\x19g\xdfM\x1a\x019\xaf\x1baIeR\xe5u\xa7'
p2434
ssS'learn_views___init__'
p2435
(dp2436
g55
(dp2437
g196
S'learn_views___init__.html'
p2438
sg198
S'learn/views/__init__'
p2439
sg200
g13
(g14
g15
NtRp2440
(dp2441
g18
I1
sg19
I0
sg20
I2
sg21
I0
sg22
I0
sg23
I0
sg24
I0
sbssg64
S"?\xc0'\xcb\x1c\xf1\xaa\xf0\x9d\xc7\x0e\xf1\xda\x0eU\x17"
p2442
ssS'create_views_question_datasets___init__'
p2443
(dp2444
g144
(dp2445
g146
S'create_views_question_datasets___init__.html'
p2446
sg148
S'create/views/question_datasets/__init__'
p2447
sg150
g13
(g14
g15
NtRp2448
(dp2449
g18
I1
sg19
I0
sg20
I1
sg21
I0
sg22
I0
sg23
I0
sg24
I0
sbssg153
S'\x87x\xd1\xbe\x15\xd3\xbc\x99\x86\x08\xf8\x06S\xcf\x00\x87'
p2450
ssS'teach_serializers_daily_quest_templates___init__'
p2451
(dp2452
g55
(dp2453
g57
S'teach_serializers_daily_quest_templates___init__.html'
p2454
sg59
S'teach/serializers/daily_quest_templates/__init__'
p2455
sg61
g13
(g14
g15
NtRp2456
(dp2457
g18
I1
sg19
I0
sg20
I1
sg21
I0
sg22
I0
sg23
I0
sg24
I0
sbssg64
S'\xa2\xd34\x1b\xe2+\x16\xa9un\x8f\xa5\xe6\xc4\\p'
p2458
ssS'create_views_books_tests_test_remove_tag_from_subchapter_view'
p2459
(dp2460
g1563
(dp2461
g44
S'create_views_books_tests_test_remove_tag_from_subchapter_view.html'
p2462
sg46
S'create/views/books/tests/test_remove_tag_from_subchapter_view'
p2463
sg48
g13
(g14
g15
NtRp2464
(dp2465
g18
I1
sg19
I0
sg20
I40
sg21
I0
sg22
I0
sg23
I0
sg24
I0
sbssg1569
S"(Vo#\xdd\x9a\xbc\x11\xff\xd6'\xd7\xeb\xca\x1aM"
p2466
ssS'create_views_daily_quests___init__'
p2467
(dp2468
g242
(dp2469
g244
S'create_views_daily_quests___init__.html'
p2470
sg246
S'create/views/daily_quests/__init__'
p2471
sg248
g13
(g14
g15
NtRp2472
(dp2473
g18
I1
sg19
I0
sg20
I1
sg21
I0
sg22
I0
sg23
I0
sg24
I0
sbssg251
S'\xa3\x08\xf3\xbaF\xd5u\x88\x12\xa3V\x05K\xe5\xd0\xa9'
p2474
ssS'flipped_helpers_email_helper'
p2475
(dp2476
g42
(dp2477
g44
S'flipped_helpers_email_helper.html'
p2478
sg46
S'flipped/helpers/email_helper'
p2479
sg48
g13
(g14
g15
NtRp2480
(dp2481
g18
I1
sg19
I2
sg20
I9
sg21
I0
sg22
I0
sg23
I0
sg24
I0
sbssg51
S"\xeal\t\x03)\xcc\xc4\x0b\r\xe2&\x83a'I\xad"
p2482
ssS'flipped_urls'
p2483
(dp2484
g42
(dp2485
g93
S'flipped_urls.html'
p2486
sg95
S'flipped/urls'
p2487
sg97
g13
(g14
g15
NtRp2488
(dp2489
g18
I1
sg19
I0
sg20
I9
sg21
I0
sg22
I0
sg23
I0
sg24
I0
sbssg51
S'\xcbN{\xd0A\x0b\xa0\xc3\xd4\x8cr\xe3\x1e\x12\x1e\xb0'
p2490
ssS'teach_views_summaries_daily_quest_summary_view'
p2491
(dp2492
g310
(dp2493
g257
S'teach_views_summaries_daily_quest_summary_view.html'
p2494
sg259
S'teach/views/summaries/daily_quest_summary_view'
p2495
sg261
g13
(g14
g15
NtRp2496
(dp2497
g18
I1
sg19
I28
sg20
I80
sg21
I0
sg22
I0
sg23
I59
sg24
I28
sbssg316
S'^\xb6\x88U\xed\xcf9\x11\x87\x0c\x80\t\xd7\xf7\xad\x85'
p2498
ssS'user_system_views_users_student_profile_request_view'
p2499
(dp2500
g116
(dp2501
g31
S'user_system_views_users_student_profile_request_view.html'
p2502
sg33
S'user_system/views/users/student_profile_request_view'
p2503
sg35
g13
(g14
g15
NtRp2504
(dp2505
g18
I1
sg19
I0
sg20
I14
sg21
I0
sg22
I0
sg23
I0
sg24
I0
sbssg122
S'\x87:\xd0\xef\x04\xf3-q\r\xe7\xec \xceS\xee<'
p2506
ssS'user_system_views_logins_tests___init__'
p2507
(dp2508
g42
(dp2509
g460
S'user_system_views_logins_tests___init__.html'
p2510
sg462
S'user_system/views/logins/tests/__init__'
p2511
sg464
g13
(g14
g15
NtRp2512
(dp2513
g18
I1
sg19
I0
sg20
I1
sg21
I0
sg22
I0
sg23
I0
sg24
I0
sbssg51
S'\xbc\xd6\xeb\xb3\xba\xcaz\xf7{\xd4B\xb5}l\xdf\x96'
p2514
ssS'api_logging_views_modal_loggings___init__'
p2515
(dp2516
g310
(dp2517
g196
S'api_logging_views_modal_loggings___init__.html'
p2518
sg198
S'api_logging/views/modal_loggings/__init__'
p2519
sg200
g13
(g14
g15
NtRp2520
(dp2521
g18
I1
sg19
I0
sg20
I1
sg21
I0
sg22
I0
sg23
I0
sg24
I0
sbssg316
S'\xf1\x0fWK\x0c\x9eD\xe8\x12\xaf\x93\xfa\xd7q\xa8\x91'
p2522
ssS'user_system_views_users_tests_test_get_users_by_signup_type_view'
p2523
(dp2524
g42
(dp2525
g93
S'user_system_views_users_tests_test_get_users_by_signup_type_view.html'
p2526
sg95
S'user_system/views/users/tests/test_get_users_by_signup_type_view'
p2527
sg97
g13
(g14
g15
NtRp2528
(dp2529
g18
I1
sg19
I0
sg20
I44
sg21
I0
sg22
I0
sg23
I0
sg24
I0
sbssg51
S'T/\xf9\xf8\x94\xd6Lm\x89o\xb6\x99/Z\xc1]'
p2530
ssS'user_system_serializers_users_user_serializer'
p2531
(dp2532
g42
(dp2533
g93
S'user_system_serializers_users_user_serializer.html'
p2534
sg95
S'user_system/serializers/users/user_serializer'
p2535
sg97
g13
(g14
g15
NtRp2536
(dp2537
g18
I1
sg19
I8
sg20
I46
sg21
I0
sg22
I2
sg23
I8
sg24
I6
sbssg51
S'\xb2\xee\xa4\xa6\x8b\xe1\xe1\xce\xaa\xe6\xdd\xbd\xb3\xf2\x81/'
p2538
ssS'create_serializers_daily_quest_copies_daily_quest_copy_serializer'
p2539
(dp2540
g430
(dp2541
g1545
S'create_serializers_daily_quest_copies_daily_quest_copy_serializer.html'
p2542
sg1547
S'create/serializers/daily_quest_copies/daily_quest_copy_serializer'
p2543
sg1549
g13
(g14
g15
NtRp2544
(dp2545
g18
I1
sg19
I0
sg20
I18
sg21
I0
sg22
I0
sg23
I3
sg24
I0
sbssg439
S'\xb6\xc6tAeANu\xae\n4T\xc1.\xe2\xfd'
p2546
ssS'create_models_books_tests_test_book_history_model'
p2547
(dp2548
g365
(dp2549
g644
S'create_models_books_tests_test_book_history_model.html'
p2550
sg646
S'create/models/books/tests/test_book_history_model'
p2551
sg648
g13
(g14
g15
NtRp2552
(dp2553
g18
I1
sg19
I0
sg20
I65
sg21
I0
sg22
I0
sg23
I0
sg24
I0
sbssg371
S'\xedQI\xf5\x17. 8I\x938\xca4\x05=\xf3'
p2554
ssS'create_views_quests_tests_test_remove_question_view'
p2555
(dp2556
g6
(dp2557
g8
S'create_views_quests_tests_test_remove_question_view.html'
p2558
sg10
S'create/views/quests/tests/test_remove_question_view'
p2559
sg12
g13
(g14
g15
NtRp2560
(dp2561
g18
I1
sg19
I0
sg20
I0
sg21
I0
sg22
I0
sg23
I0
sg24
I0
sbssg25
S'\x19g\xdfM\x1a\x019\xaf\x1baIeR\xe5u\xa7'
p2562
ssS'create_serializers_daily_quest_templates_daily_quest_template_serializer'
p2563
(dp2564
g242
(dp2565
g244
S'create_serializers_daily_quest_templates_daily_quest_template_serializer.html'
p2566
sg246
S'create/serializers/daily_quest_templates/daily_quest_template_serializer'
p2567
sg248
g13
(g14
g15
NtRp2568
(dp2569
g18
I1
sg19
I0
sg20
I8
sg21
I0
sg22
I0
sg23
I0
sg24
I0
sbssg251
S'-b,\x8cFu\xd2b\x8b\rw5\xa4\xf7\xc3\xf2'
p2570
ssS'user_system_managers___init__'
p2571
(dp2572
g310
(dp2573
g1090
S'user_system_managers___init__.html'
p2574
sg1092
S'user_system/managers/__init__'
p2575
sg1094
g13
(g14
g15
NtRp2576
(dp2577
g18
I1
sg19
I0
sg20
I2
sg21
I0
sg22
I0
sg23
I0
sg24
I0
sbssg316
S'\xa5\xc9\x8d9\xe4\xb5\xce\xe3R\xccW\x976\xcdI\xa4'
p2578
ssS'teach_models_campaigns_tests_test_campaign_model'
p2579
(dp2580
g116
(dp2581
g31
S'teach_models_campaigns_tests_test_campaign_model.html'
p2582
sg33
S'teach/models/campaigns/tests/test_campaign_model'
p2583
sg35
g13
(g14
g15
NtRp2584
(dp2585
g18
I1
sg19
I0
sg20
I43
sg21
I0
sg22
I0
sg23
I0
sg24
I0
sbssg122
S"\x1b\xbbi{\xe8\xa9o\xd3w\xfb'\x1e\xca\x1b\xd9\xc7"
p2586
ssS'api_logging_views_modal_loggings_modal_user_history_view'
p2587
(dp2588
g310
(dp2589
g1090
S'api_logging_views_modal_loggings_modal_user_history_view.html'
p2590
sg1092
S'api_logging/views/modal_loggings/modal_user_history_view'
p2591
sg1094
g13
(g14
g15
NtRp2592
(dp2593
g18
I1
sg19
I0
sg20
I12
sg21
I0
sg22
I0
sg23
I0
sg24
I0
sbssg316
S'\xe0g\x1c\xea/\xf3m\xa8\x9d\x1f7\xba\x82w\x88\x9c'
p2594
ssS'user_system_views_logins_tests_test_email_login_view'
p2595
(dp2596
g42
(dp2597
g44
S'user_system_views_logins_tests_test_email_login_view.html'
p2598
sg46
S'user_system/views/logins/tests/test_email_login_view'
p2599
sg48
g13
(g14
g15
NtRp2600
(dp2601
g18
I1
sg19
I0
sg20
I61
sg21
I0
sg22
I0
sg23
I0
sg24
I0
sbssg51
S'\x926\xe8\xcdL\xf3U\xc1C\x1b\x0f\xaf\xf0c\x9b\xd0'
p2602
ssS'create_views_books_book_chapter_view'
p2603
(dp2604
g577
(dp2605
g196
S'create_views_books_book_chapter_view.html'
p2606
sg198
S'create/views/books/book_chapter_view'
p2607
sg200
g13
(g14
g15
NtRp2608
(dp2609
g18
I1
sg19
I12
sg20
I44
sg21
I0
sg22
I0
sg23
I22
sg24
I12
sbssg583
S'\x0b3\xd8 \xe1\x08#79\x0c\x7f\x1f6\xad0\xe9'
p2610
ssS'create_views___init__'
p2611
(dp2612
g42
(dp2613
g57
S'create_views___init__.html'
p2614
sg59
S'create/views/__init__'
p2615
sg61
g13
(g14
g15
NtRp2616
(dp2617
g18
I1
sg19
I0
sg20
I7
sg21
I0
sg22
I0
sg23
I0
sg24
I0
sbssg51
S'\x8f\x98\x9b$~\xde\xc2\xfc\x97/\x14^\xe8\xf8\x10M'
p2618
ssS'user_system_serializers_users_student_profile_serializer'
p2619
(dp2620
g116
(dp2621
g1090
S'user_system_serializers_users_student_profile_serializer.html'
p2622
sg1092
S'user_system/serializers/users/student_profile_serializer'
p2623
sg1094
g13
(g14
g15
NtRp2624
(dp2625
g18
I1
sg19
I0
sg20
I17
sg21
I0
sg22
I0
sg23
I4
sg24
I0
sbssg122
S'\xc4\x88\x8d\xdd\xa1\xf5H \xfeB\xa4<!8\x8c\x9e'
p2626
ssS'flipped_helpers_errors_helper'
p2627
(dp2628
g42
(dp2629
g44
S'flipped_helpers_errors_helper.html'
p2630
sg46
S'flipped/helpers/errors_helper'
p2631
sg48
g13
(g14
g15
NtRp2632
(dp2633
g18
I1
sg19
I0
sg20
I5
sg21
I0
sg22
I0
sg23
I0
sg24
I0
sbssg51
S'\x91\x04\x1c\xf86c\xad\xf7\xe3\xf13\xf5n8eP'
p2634
ssS'teach_views_teacher_tags_teacher_tag_view'
p2635
(dp2636
g55
(dp2637
g1090
S'teach_views_teacher_tags_teacher_tag_view.html'
p2638
sg1092
S'teach/views/teacher_tags/teacher_tag_view'
p2639
sg1094
g13
(g14
g15
NtRp2640
(dp2641
g18
I1
sg19
I20
sg20
I55
sg21
I0
sg22
I2
sg23
I30
sg24
I18
sbssg64
S'\xd6\xdf\xb7\xf7\xc0\x9b\xae\x8c\x81\x0f\x89C\xb0k\xaf\xd5'
p2642
ssS'create_models_questions_tests_test_question_history_model'
p2643
(dp2644
g42
(dp2645
g1012
S'create_models_questions_tests_test_question_history_model.html'
p2646
sg1014
S'create/models/questions/tests/test_question_history_model'
p2647
sg1016
g13
(g14
g15
NtRp2648
(dp2649
g18
I1
sg19
I2
sg20
I73
sg21
I0
sg22
I0
sg23
I0
sg24
I0
sbssg51
S'i\xd4 \xdcI\x9f\xbc\x0c|\x95\x15wW\xb4\xa9\x15'
p2650
ssS'create_views_tags_tests_test_create_tag_view'
p2651
(dp2652
g710
(dp2653
g44
S'create_views_tags_tests_test_create_tag_view.html'
p2654
sg46
S'create/views/tags/tests/test_create_tag_view'
p2655
sg48
g13
(g14
g15
NtRp2656
(dp2657
g18
I1
sg19
I0
sg20
I33
sg21
I0
sg22
I0
sg23
I0
sg24
I0
sbssg716
S'\\\x91{\x1a ;Qg\xbd\x81\xe2\xaf\xa41\xac\x1b'
p2658
ssS'create_views_questions_tests___init__'
p2659
(dp2660
g42
(dp2661
g460
S'create_views_questions_tests___init__.html'
p2662
sg462
S'create/views/questions/tests/__init__'
p2663
sg464
g13
(g14
g15
NtRp2664
(dp2665
g18
I1
sg19
I0
sg20
I0
sg21
I0
sg22
I0
sg23
I0
sg24
I0
sbssg51
S'\x19g\xdfM\x1a\x019\xaf\x1baIeR\xe5u\xa7'
p2666
ssS'flipped___init__'
p2667
(dp2668
g42
(dp2669
g460
S'flipped___init__.html'
p2670
sg462
S'flipped/__init__'
p2671
sg464
g13
(g14
g15
NtRp2672
(dp2673
g18
I1
sg19
I0
sg20
I0
sg21
I0
sg22
I0
sg23
I0
sg24
I0
sbssg51
S'\x19g\xdfM\x1a\x019\xaf\x1baIeR\xe5u\xa7'
p2674
ssS'user_system_views_roles___init__'
p2675
(dp2676
g42
(dp2677
g460
S'user_system_views_roles___init__.html'
p2678
sg462
S'user_system/views/roles/__init__'
p2679
sg464
g13
(g14
g15
NtRp2680
(dp2681
g18
I1
sg19
I0
sg20
I1
sg21
I0
sg22
I0
sg23
I0
sg24
I0
sbssg51
S'\xeb\x15\r\x85I\x9e<\xbc\x15\xd1P\xef\x16\x8c\xe0l'
p2682
ssS'create_models_daily_quest_templates_tests_test_daily_quest_template_model'
p2683
(dp2684
g242
(dp2685
g244
S'create_models_daily_quest_templates_tests_test_daily_quest_template_model.html'
p2686
sg246
S'create/models/daily_quest_templates/tests/test_daily_quest_template_model'
p2687
sg248
g13
(g14
g15
NtRp2688
(dp2689
g18
I1
sg19
I0
sg20
I37
sg21
I0
sg22
I0
sg23
I0
sg24
I0
sbssg251
S'\x01\x04)\xffw\x13\x9aqx\xb2\x9f\x02\xb0\x90\xf3\xa5'
p2690
ssS'teach_views_summaries___init__'
p2691
(dp2692
g310
(dp2693
g185
S'teach_views_summaries___init__.html'
p2694
sg187
S'teach/views/summaries/__init__'
p2695
sg189
g13
(g14
g15
NtRp2696
(dp2697
g18
I1
sg19
I0
sg20
I6
sg21
I0
sg22
I0
sg23
I0
sg24
I0
sbssg316
S'\xf1\xa7@\xae\xc1+T\x8d\tr\xacb\x91s,\xbf'
p2698
ssS'user_system_models_users_user_profile_history_model'
p2699
(dp2700
g116
(dp2701
g31
S'user_system_models_users_user_profile_history_model.html'
p2702
sg33
S'user_system/models/users/user_profile_history_model'
p2703
sg35
g13
(g14
g15
NtRp2704
(dp2705
g18
I1
sg19
I4
sg20
I72
sg21
I0
sg22
I2
sg23
I12
sg24
I2
sbssg122
S'\x9a\x0c\xe2p\x8b\xee\x01\x87\xfd\x81\xb4\x9bzp\x90\xb6'
p2706
ssS'teach_admin'
p2707
(dp2708
g55
(dp2709
g196
S'teach_admin.html'
p2710
sg198
S'teach/admin'
p2711
sg200
g13
(g14
g15
NtRp2712
(dp2713
g18
I1
sg19
I0
sg20
I6
sg21
I0
sg22
I0
sg23
I0
sg24
I0
sbssg64
S'\xa5$\xa3\xb8$\xe4Z\x9b\xcbO\x9f\xc1\x02b\x95N'
p2714
ssS'user_system_views_users_user_view'
p2715
(dp2716
g42
(dp2717
g392
S'user_system_views_users_user_view.html'
p2718
sg394
S'user_system/views/users/user_view'
p2719
sg396
g13
(g14
g15
NtRp2720
(dp2721
g18
I1
sg19
I66
sg20
I191
sg21
I0
sg22
I0
sg23
I110
sg24
I44
sbssg51
S'\xc15\x8d)\x8f\xca@r\xd5%m#\x11{\x13\x9b'
p2722
ssS'teach_models_daily_quest_templates_tests_test_daily_quest_template_model'
p2723
(dp2724
g55
(dp2725
g57
S'teach_models_daily_quest_templates_tests_test_daily_quest_template_model.html'
p2726
sg59
S'teach/models/daily_quest_templates/tests/test_daily_quest_template_model'
p2727
sg61
g13
(g14
g15
NtRp2728
(dp2729
g18
I1
sg19
I0
sg20
I37
sg21
I0
sg22
I0
sg23
I0
sg24
I0
sbssg64
S'\x01\x04)\xffw\x13\x9aqx\xb2\x9f\x02\xb0\x90\xf3\xa5'
p2730
ssS'user_system_views_apps___init__'
p2731
(dp2732
g42
(dp2733
g460
S'user_system_views_apps___init__.html'
p2734
sg462
S'user_system/views/apps/__init__'
p2735
sg464
g13
(g14
g15
NtRp2736
(dp2737
g18
I1
sg19
I0
sg20
I1
sg21
I0
sg22
I0
sg23
I0
sg24
I0
sbssg51
S'?:\xf2A\xfa^]\xc5NR\xc9\x13\xb0\xe4\xfa\x9e'
p2738
ssS'user_system_views_users_tests_test_get_users_list_view'
p2739
(dp2740
g42
(dp2741
g93
S'user_system_views_users_tests_test_get_users_list_view.html'
p2742
sg95
S'user_system/views/users/tests/test_get_users_list_view'
p2743
sg97
g13
(g14
g15
NtRp2744
(dp2745
g18
I1
sg19
I0
sg20
I34
sg21
I0
sg22
I0
sg23
I0
sg24
I0
sbssg51
S'\xf5\xe3\x1a\x14e\xf8\xc2\xf0\xa8^$\xf7\x9dv\xb8f'
p2746
ssS'create_views_books_tests_test_create_new_book'
p2747
(dp2748
S'index'
p2749
(dp2750
g44
S'create_views_books_tests_test_create_new_book.html'
p2751
sg46
S'create/views/books/tests/test_create_new_book'
p2752
sg48
g13
(g14
g15
NtRp2753
(dp2754
g18
I1
sg19
I0
sg20
I18
sg21
I0
sg22
I0
sg23
I0
sg24
I0
sbssS'hash'
p2755
S'\xe3\xaew\xf8\xd7\x8f\xc5 \x85\xc1\xb6I\x82X(-'
p2756
ssS'user_system_views_apps_app_view'
p2757
(dp2758
g42
(dp2759
S'html_filename'
p2760
S'user_system_views_apps_app_view.html'
p2761
sS'name'
p2762
S'user_system/views/apps/app_view'
p2763
sS'nums'
p2764
g13
(g14
g15
NtRp2765
(dp2766
g18
I1
sg19
I0
sg20
I13
sg21
I0
sg22
I0
sg23
I0
sg24
I0
sbssg51
S'\xf7n\xffX\xe7\xd2\xb6\xa5\xc5\xe5\x96\x13\xf4\x9c\xac\x1e'
p2767
ssS'teach_views_summaries_student_list_summary'
p2768
(dp2769
g310
(dp2770
g392
S'teach_views_summaries_student_list_summary.html'
p2771
sg394
S'teach/views/summaries/student_list_summary'
p2772
sg396
g13
(g14
g15
NtRp2773
(dp2774
g18
I1
sg19
I26
sg20
I81
sg21
I0
sg22
I0
sg23
I63
sg24
I26
sbssg316
S'i\x1e\xd7\x9f\xceE"\x92\xc3\xfd\xd9\xdd\xac%\xe7\x10'
p2775
ssS'user_system_models_schools_tests_test_classroom_model'
p2776
(dp2777
g232
(dp2778
g196
S'user_system_models_schools_tests_test_classroom_model.html'
p2779
sg198
S'user_system/models/schools/tests/test_classroom_model'
p2780
sg200
g13
(g14
g15
NtRp2781
(dp2782
g18
I1
sg19
I0
sg20
I31
sg21
I0
sg22
I0
sg23
I0
sg24
I0
sbssg238
S'\xfd\xfd\xa2\x92;\xc3\xaa\x06D\x93\xddbD\xda\xa2\x1e'
p2783
ssS'user_system_views_schools_school_view'
p2784
(dp2785
g116
(dp2786
g31
S'user_system_views_schools_school_view.html'
p2787
sg33
S'user_system/views/schools/school_view'
p2788
sg35
g13
(g14
g15
NtRp2789
(dp2790
g18
I1
sg19
I0
sg20
I16
sg21
I0
sg22
I0
sg23
I0
sg24
I0
sbssg122
S'\xc8\x0b\xef\x9e86\xe5\x19\xaa\x9e\x93+\x03\xfb\x98\x99'
p2791
ssS'learn_models_points_point_type_model'
p2792
(dp2793
g310
(dp2794
g644
S'learn_models_points_point_type_model.html'
p2795
sg646
S'learn/models/points/point_type_model'
p2796
sg648
g13
(g14
g15
NtRp2797
(dp2798
g18
I1
sg19
I0
sg20
I20
sg21
I0
sg22
I0
sg23
I0
sg24
I0
sbssg316
S'\x84\x1b\x18\n\xa9\xae\xe5\xd57\xa7}h\xdaD\x19+'
p2799
ssS'user_system_models_users_user_facebook_model'
p2800
(dp2801
g42
(dp2802
g44
S'user_system_models_users_user_facebook_model.html'
p2803
sg46
S'user_system/models/users/user_facebook_model'
p2804
sg48
g13
(g14
g15
NtRp2805
(dp2806
g18
I1
sg19
I0
sg20
I22
sg21
I0
sg22
I0
sg23
I0
sg24
I0
sbssg51
S'!d\xff\xbcl0O(`\x1b1\xf7\xb3*{X'
p2807
ssS'user_system_views_schools_grade_view'
p2808
(dp2809
g116
(dp2810
g31
S'user_system_views_schools_grade_view.html'
p2811
sg33
S'user_system/views/schools/grade_view'
p2812
sg35
g13
(g14
g15
NtRp2813
(dp2814
g18
I1
sg19
I0
sg20
I16
sg21
I0
sg22
I0
sg23
I0
sg24
I0
sbssg122
S'_i&b\x01\x08$\xe7\xbe\nW\x92\x80\x97\xf1Q'
p2815
ssS'create_serializers_question_datasets_question_dataset_serializer'
p2816
(dp2817
g144
(dp2818
g146
S'create_serializers_question_datasets_question_dataset_serializer.html'
p2819
sg148
S'create/serializers/question_datasets/question_dataset_serializer'
p2820
sg150
g13
(g14
g15
NtRp2821
(dp2822
g18
I1
sg19
I0
sg20
I6
sg21
I0
sg22
I0
sg23
I0
sg24
I0
sbssg153
S'\x1e}6\x82\x0c\x96\xdb\x00{jK\xdb\xc0\x8c\x97\xcd'
p2823
ssS'privilege_models_privileges_user_privilege_model'
p2824
(dp2825
g300
(dp2826
g93
S'privilege_models_privileges_user_privilege_model.html'
p2827
sg95
S'privilege/models/privileges/user_privilege_model'
p2828
sg97
g13
(g14
g15
NtRp2829
(dp2830
g18
I1
sg19
I0
sg20
I17
sg21
I0
sg22
I0
sg23
I1
sg24
I0
sbssg306
S'\xe4\xbfo\xb6Sy\xef\x85\xf2\xf3=\xf3\xc3\xc0\xc9\xc6'
p2831
ssS'create_views_questions_question_template_view'
p2832
(dp2833
g103
(dp2834
g105
S'create_views_questions_question_template_view.html'
p2835
sg107
S'create/views/questions/question_template_view'
p2836
sg109
g13
(g14
g15
NtRp2837
(dp2838
g18
I1
sg19
I40
sg20
I115
sg21
I0
sg22
I0
sg23
I86
sg24
I40
sbssg112
S'\x15\xd2EN\xe9c\xe5\x17\xc5Fh\x02\x1a\xd3\xc4*'
p2839
ssS'create_serializers_quests_quest_serializer'
p2840
(dp2841
g103
(dp2842
g31
S'create_serializers_quests_quest_serializer.html'
p2843
sg33
S'create/serializers/quests/quest_serializer'
p2844
sg35
g13
(g14
g15
NtRp2845
(dp2846
g18
I1
sg19
I0
sg20
I50
sg21
I0
sg22
I0
sg23
I15
sg24
I0
sbssg112
S'\x96:\xdf\x9a\x02\xee\xf5\x97F[z\x16p\x8f\x08\xb2'
p2847
ssS'create_views_summary_create_summary_view'
p2848
(dp2849
g1645
(dp2850
g1128
S'create_views_summary_create_summary_view.html'
p2851
sg1130
S'create/views/summary/create_summary_view'
p2852
sg1132
g13
(g14
g15
NtRp2853
(dp2854
g18
I1
sg19
I0
sg20
I59
sg21
I0
sg22
I0
sg23
I48
sg24
I0
sbssg1651
S"'\xfe\xf4\x8c\xed2\xc3\x18\xf6\x85\x1f\xb0\xf0G\xb7\x8f"
p2855
ssS'create_serializers_books_book_serializer'
p2856
(dp2857
g365
(dp2858
g93
S'create_serializers_books_book_serializer.html'
p2859
sg95
S'create/serializers/books/book_serializer'
p2860
sg97
g13
(g14
g15
NtRp2861
(dp2862
g18
I1
sg19
I0
sg20
I25
sg21
I0
sg22
I0
sg23
I0
sg24
I0
sbssg371
S"o\r\r\x1e8\xe6\xa9\xd1\x83X.\xcf1\x98\xa3'"
p2863
ssS'user_system_models_schools_tests___init__'
p2864
(dp2865
g206
(dp2866
S'html_filename'
p2867
S'user_system_models_schools_tests___init__.html'
p2868
sS'name'
p2869
S'user_system/models/schools/tests/__init__'
p2870
sS'nums'
p2871
g13
(g14
g15
NtRp2872
(dp2873
g18
I1
sg19
I0
sg20
I0
sg21
I0
sg22
I0
sg23
I0
sg24
I0
sbssg215
S'\x19g\xdfM\x1a\x019\xaf\x1baIeR\xe5u\xa7'
p2874
ssS'api_logging_mixins'
p2875
(dp2876
g710
(dp2877
g44
S'api_logging_mixins.html'
p2878
sg46
S'api_logging/mixins'
p2879
sg48
g13
(g14
g15
NtRp2880
(dp2881
g18
I1
sg19
I4
sg20
I26
sg21
I0
sg22
I2
sg23
I2
sg24
I2
sbssg716
S'w\xa7\xcf,\xf7\x87[\xb0\xc5\xb2\x1f\xa5+\x1dSF'
p2882
ssS'privilege_serializers_privileges___init__'
p2883
(dp2884
g300
(dp2885
g93
S'privilege_serializers_privileges___init__.html'
p2886
sg95
S'privilege/serializers/privileges/__init__'
p2887
sg97
g13
(g14
g15
NtRp2888
(dp2889
g18
I1
sg19
I0
sg20
I2
sg21
I0
sg22
I0
sg23
I0
sg24
I0
sbssg306
S'\x1f\xd4u<\xf4\x9bW\xb0\xa9\xd2\xc1\x06\x14`C\xc6'
p2890
ssS'create___init__'
p2891
(dp2892
g42
(dp2893
g460
S'create___init__.html'
p2894
sg462
S'create/__init__'
p2895
sg464
g13
(g14
g15
NtRp2896
(dp2897
g18
I1
sg19
I0
sg20
I0
sg21
I0
sg22
I0
sg23
I0
sg24
I0
sbssg51
S'\x19g\xdfM\x1a\x019\xaf\x1baIeR\xe5u\xa7'
p2898
ssS'user_system_serializers_schools_school_serializer'
p2899
(dp2900
g116
(dp2901
g31
S'user_system_serializers_schools_school_serializer.html'
p2902
sg33
S'user_system/serializers/schools/school_serializer'
p2903
sg35
g13
(g14
g15
NtRp2904
(dp2905
g18
I1
sg19
I0
sg20
I9
sg21
I0
sg22
I0
sg23
I0
sg24
I0
sbssg122
S'_\x0c\x17V\x00H\x8f\xc9x\xe5I\xcb\t\x08\xb9/'
p2906
ssS'user_system_models_users_tests_test_user_profile_update_request_model'
p2907
(dp2908
g116
(dp2909
g644
S'user_system_models_users_tests_test_user_profile_update_request_model.html'
p2910
sg646
S'user_system/models/users/tests/test_user_profile_update_request_model'
p2911
sg648
g13
(g14
g15
NtRp2912
(dp2913
g18
I1
sg19
I0
sg20
I56
sg21
I0
sg22
I0
sg23
I0
sg24
I0
sbssg122
S'U\ng\x0eY\xe2\xc0a\x07f\xb4\x9bFP\x14\x86'
p2914
ssS'user_system_views_users_tests_test_add_role_view'
p2915
(dp2916
g42
(dp2917
g44
S'user_system_views_users_tests_test_add_role_view.html'
p2918
sg46
S'user_system/views/users/tests/test_add_role_view'
p2919
sg48
g13
(g14
g15
NtRp2920
(dp2921
g18
I1
sg19
I0
sg20
I36
sg21
I0
sg22
I0
sg23
I0
sg24
I0
sbssg51
S'\x0eh\xf7\xba\x08_N\xdeM\xdf\x03\xbd\x8c\x8a\x89\xd0'
p2922
ssS'learn_urls'
p2923
(dp2924
g55
(dp2925
g196
S'learn_urls.html'
p2926
sg198
S'learn/urls'
p2927
sg200
g13
(g14
g15
NtRp2928
(dp2929
g18
I1
sg19
I0
sg20
I8
sg21
I0
sg22
I0
sg23
I0
sg24
I0
sbssg64
S'\x1a\xcd\x95\xa0\xd8s\xf6\xb3\x9e\xd7H\xe5*M\xbdG'
p2930
ssS'api_logging___init__'
p2931
(dp2932
g577
(dp2933
g748
S'api_logging___init__.html'
p2934
sg750
S'api_logging/__init__'
p2935
sg752
g13
(g14
g15
NtRp2936
(dp2937
g18
I1
sg19
I0
sg20
I0
sg21
I0
sg22
I0
sg23
I0
sg24
I0
sbssg583
S'\x19g\xdfM\x1a\x019\xaf\x1baIeR\xe5u\xa7'
p2938
ssS'create_views_questions_question_view'
p2939
(dp2940
g42
(dp2941
g257
S'create_views_questions_question_view.html'
p2942
sg259
S'create/views/questions/question_view'
p2943
sg261
g13
(g14
g15
NtRp2944
(dp2945
g18
I1
sg19
I34
sg20
I113
sg21
I0
sg22
I1
sg23
I40
sg24
I21
sbssg51
S'x\x1b\xf3\x9b\x13Z\xdalU\x8bJ\x89\xb3qc\x8d'
p2946
ssS'create_views_quests_tests_test_add_question_view'
p2947
(dp2948
g6
(dp2949
g8
S'create_views_quests_tests_test_add_question_view.html'
p2950
sg10
S'create/views/quests/tests/test_add_question_view'
p2951
sg12
g13
(g14
g15
NtRp2952
(dp2953
g18
I1
sg19
I0
sg20
I0
sg21
I0
sg22
I0
sg23
I0
sg24
I0
sbssg25
S'\x19g\xdfM\x1a\x019\xaf\x1baIeR\xe5u\xa7'
p2954
ssS'create_models_daily_quest_copies___init__'
p2955
(dp2956
g430
(dp2957
g1545
S'create_models_daily_quest_copies___init__.html'
p2958
sg1547
S'create/models/daily_quest_copies/__init__'
p2959
sg1549
g13
(g14
g15
NtRp2960
(dp2961
g18
I1
sg19
I0
sg20
I1
sg21
I0
sg22
I0
sg23
I0
sg24
I0
sbssg439
S'\xee\xef\xb8!Z;\x9e_\xb5g4\xe9\xac@l\xe6'
p2962
ssS'create_models_books_tests___init__'
p2963
(dp2964
g365
(dp2965
g796
S'create_models_books_tests___init__.html'
p2966
sg798
S'create/models/books/tests/__init__'
p2967
sg800
g13
(g14
g15
NtRp2968
(dp2969
g18
I1
sg19
I0
sg20
I0
sg21
I0
sg22
I0
sg23
I0
sg24
I0
sbssg371
S'\x19g\xdfM\x1a\x019\xaf\x1baIeR\xe5u\xa7'
p2970
ssS'privilege_models_privileges___init__'
p2971
(dp2972
g300
(dp2973
g93
S'privilege_models_privileges___init__.html'
p2974
sg95
S'privilege/models/privileges/__init__'
p2975
sg97
g13
(g14
g15
NtRp2976
(dp2977
g18
I1
sg19
I0
sg20
I2
sg21
I0
sg22
I0
sg23
I0
sg24
I0
sbssg306
S'\x14\x97Z\xa7<\xbd\xe6Z\xa0jIA\xc0I\xfd"'
p2978
ssS'user_system_managers_streak_manager'
p2979
(dp2980
g310
(dp2981
g392
S'user_system_managers_streak_manager.html'
p2982
sg394
S'user_system/managers/streak_manager'
p2983
sg396
g13
(g14
g15
NtRp2984
(dp2985
g18
I1
sg19
I30
sg20
I66
sg21
I0
sg22
I2
sg23
I48
sg24
I28
sbssg316
S'9\x9e\xa2\xbd\x80\x8b\xa4\xb3N>\xb8ZsW\xe8\xd0'
p2986
ssS'learn_views_student_news_feed_student_news_feed_view'
p2987
(dp2988
g310
(dp2989
g1109
S'learn_views_student_news_feed_student_news_feed_view.html'
p2990
sg1111
S'learn/views/student_news_feed/student_news_feed_view'
p2991
sg1113
g13
(g14
g15
NtRp2992
(dp2993
g18
I1
sg19
I10
sg20
I38
sg21
I0
sg22
I0
sg23
I22
sg24
I10
sbssg316
S'\xd4\xf5w\x10\xf0\xf4l\x18\x16\xdf\xaf\xd1\x9eM\x0e\xb5'
p2994
ssS'user_system_models_schools_tests_test_academic_year_model'
p2995
(dp2996
g206
(dp2997
g347
S'user_system_models_schools_tests_test_academic_year_model.html'
p2998
sg349
S'user_system/models/schools/tests/test_academic_year_model'
p2999
sg351
g13
(g14
g15
NtRp3000
(dp3001
g18
I1
sg19
I0
sg20
I28
sg21
I0
sg22
I0
sg23
I0
sg24
I0
sbssg215
S'{=\xee\xbc8\xbd\xa7\xdd\x0f!3\xf8\xf0os\xe2'
p3002
ssS'learn_serializers_daily_quests_daily_quest_question_history_serializer'
p3003
(dp3004
g310
(dp3005
g196
S'learn_serializers_daily_quests_daily_quest_question_history_serializer.html'
p3006
sg198
S'learn/serializers/daily_quests/daily_quest_question_history_serializer'
p3007
sg200
g13
(g14
g15
NtRp3008
(dp3009
g18
I1
sg19
I0
sg20
I8
sg21
I0
sg22
I0
sg23
I0
sg24
I0
sbssg316
S'q$\xc8~\x9a\xbb\x03\x1a\x12[aG\x9a\x87\xc6\x0c'
p3010
ssS'api_logging_serializers_modal_loggings___init__'
p3011
(dp3012
g310
(dp3013
g196
S'api_logging_serializers_modal_loggings___init__.html'
p3014
sg198
S'api_logging/serializers/modal_loggings/__init__'
p3015
sg200
g13
(g14
g15
NtRp3016
(dp3017
g18
I1
sg19
I0
sg20
I1
sg21
I0
sg22
I0
sg23
I0
sg24
I0
sbssg316
S'\xff)\x01pU0i\x848\xea\xfc\x08\x0b\x0bS\xa4'
p3018
ssS'user_system_models_schools_grade_model'
p3019
(dp3020
g232
(dp3021
g196
S'user_system_models_schools_grade_model.html'
p3022
sg198
S'user_system/models/schools/grade_model'
p3023
sg200
g13
(g14
g15
NtRp3024
(dp3025
g18
I1
sg19
I0
sg20
I29
sg21
I0
sg22
I0
sg23
I2
sg24
I0
sbssg238
S'\xfdv\xccR\xe0u\x91\x0f\x7f\x03\xcb\xc4y\xc19k'
p3026
ssS'user_system_serializers_schools___init__'
p3027
(dp3028
g55
(dp3029
g31
S'user_system_serializers_schools___init__.html'
p3030
sg33
S'user_system/serializers/schools/__init__'
p3031
sg35
g13
(g14
g15
NtRp3032
(dp3033
g18
I1
sg19
I0
sg20
I5
sg21
I0
sg22
I0
sg23
I0
sg24
I0
sbssg64
S'8yN\xa2\x98\xe3%\xd4\xe2\xfd\xf2@\xcc\xa7\x02\xdb'
p3034
ssS'create_serializers_questions_question_choice_serializer'
p3035
(dp3036
g42
(dp3037
g196
S'create_serializers_questions_question_choice_serializer.html'
p3038
sg198
S'create/serializers/questions/question_choice_serializer'
p3039
sg200
g13
(g14
g15
NtRp3040
(dp3041
g18
I1
sg19
I0
sg20
I10
sg21
I0
sg22
I0
sg23
I0
sg24
I0
sbssg51
S'\xe4\xc0O\xa2\x80M\x05Wf\xdeO=\xf7\xaaT\x95'
p3042
ssS'create_serializers_questions_question_template_serializer'
p3043
(dp3044
g103
(dp3045
g1203
S'create_serializers_questions_question_template_serializer.html'
p3046
sg1205
S'create/serializers/questions/question_template_serializer'
p3047
sg1207
g13
(g14
g15
NtRp3048
(dp3049
g18
I1
sg19
I0
sg20
I43
sg21
I0
sg22
I0
sg23
I9
sg24
I0
sbssg112
S'\x1a\x149\xdb\xb8\xc7\xfc\xb6\xbc\x8b\xfe\x8e~N\xb9J'
p3050
ssS'teach_views_summaries_top_answered_questions_summary_view'
p3051
(dp3052
g310
(dp3053
g392
S'teach_views_summaries_top_answered_questions_summary_view.html'
p3054
sg394
S'teach/views/summaries/top_answered_questions_summary_view'
p3055
sg396
g13
(g14
g15
NtRp3056
(dp3057
g18
I1
sg19
I34
sg20
I77
sg21
I0
sg22
I0
sg23
I54
sg24
I34
sbssg316
S'>\x87\t^\xa4\x99f`\xcc^\xb6\xcb\x8e\xec\nc'
p3058
ssS'user_system_models_apps___init__'
p3059
(dp3060
g42
(dp3061
g460
S'user_system_models_apps___init__.html'
p3062
sg462
S'user_system/models/apps/__init__'
p3063
sg464
g13
(g14
g15
NtRp3064
(dp3065
g18
I1
sg19
I0
sg20
I1
sg21
I0
sg22
I0
sg23
I0
sg24
I0
sbssg51
S'\n\xe9\xce\x15)\x8d\xc6\xdd\xe0\x9b\x990[\xae\x8cl'
p3066
ssS'create_views_books_book_view'
p3067
(dp3068
g365
(dp3069
g8
S'create_views_books_book_view.html'
p3070
sg10
S'create/views/books/book_view'
p3071
sg12
g13
(g14
g15
NtRp3072
(dp3073
g18
I1
sg19
I34
sg20
I124
sg21
I0
sg22
I3
sg23
I8
sg24
I5
sbssg371
S'%\x96\xb2\x15\x98\xef\x0fL\xc0&\xf9\x18\x91-\xb28'
p3074
ssS'create_models_quests___init__'
p3075
(dp3076
g103
(dp3077
g633
S'create_models_quests___init__.html'
p3078
sg635
S'create/models/quests/__init__'
p3079
sg637
g13
(g14
g15
NtRp3080
(dp3081
g18
I1
sg19
I0
sg20
I2
sg21
I0
sg22
I0
sg23
I0
sg24
I0
sbssg112
S'\x1e\x87\x83\xe2\x04\x1d\xcd:`\x99V\x85#\xca\x12^'
p3082
ssS'privilege_serializers_privileges_privilege_serializer'
p3083
(dp3084
g300
(dp3085
g93
S'privilege_serializers_privileges_privilege_serializer.html'
p3086
sg95
S'privilege/serializers/privileges/privilege_serializer'
p3087
sg97
g13
(g14
g15
NtRp3088
(dp3089
g18
I1
sg19
I0
sg20
I7
sg21
I0
sg22
I0
sg23
I0
sg24
I0
sbssg306
S'?v\x87\xf3\x00\x8cw`\xd8\x0b\xeb\x98\x18\xbd\x1dR'
p3090
ssS'user_system_views_signups_hardcoded_tests_test_test_account_view'
p3091
(dp3092
g42
(dp3093
g44
S'user_system_views_signups_hardcoded_tests_test_test_account_view.html'
p3094
sg46
S'user_system/views/signups/hardcoded/tests/test_test_account_view'
p3095
sg48
g13
(g14
g15
NtRp3096
(dp3097
g18
I1
sg19
I0
sg20
I24
sg21
I0
sg22
I0
sg23
I0
sg24
I0
sbssg51
S'@\xc3::\xf8h\x1aT\x9f\x83\xee1\xb7\x9a\xe0\xf9'
p3098
ssS'api_logging_models_query_stat_query_stat_model'
p3099
(dp3100
g255
(dp3101
g257
S'api_logging_models_query_stat_query_stat_model.html'
p3102
sg259
S'api_logging/models/query_stat/query_stat_model'
p3103
sg261
g13
(g14
g15
NtRp3104
(dp3105
g18
I1
sg19
I0
sg20
I9
sg21
I0
sg22
I0
sg23
I0
sg24
I0
sbssg264
S'\xc4\xa8]S\xe4!\r\xe0\xeb\xc1\x8bT[ !B'
p3106
ssS'create_models_tags_concept_model'
p3107
(dp3108
g402
(dp3109
g44
S'create_models_tags_concept_model.html'
p3110
sg46
S'create/models/tags/concept_model'
p3111
sg48
g13
(g14
g15
NtRp3112
(dp3113
g18
I1
sg19
I0
sg20
I10
sg21
I0
sg22
I0
sg23
I0
sg24
I0
sbssg408
S'@vb\xbd\xcay\xb1b\x9e\xaf\xc0v/\xd6\x13\xd3'
p3114
ssS'create_models_tags_tests___init__'
p3115
(dp3116
g402
(dp3117
S'html_filename'
p3118
S'create_models_tags_tests___init__.html'
p3119
sS'name'
p3120
S'create/models/tags/tests/__init__'
p3121
sS'nums'
p3122
g13
(g14
g15
NtRp3123
(dp3124
g18
I1
sg19
I0
sg20
I1
sg21
I0
sg22
I0
sg23
I0
sg24
I0
sbssg408
S'\xbc\xd6\xeb\xb3\xba\xcaz\xf7{\xd4B\xb5}l\xdf\x96'
p3125
ssS'learn_admin'
p3126
(dp3127
g55
(dp3128
g196
S'learn_admin.html'
p3129
sg198
S'learn/admin'
p3130
sg200
g13
(g14
g15
NtRp3131
(dp3132
g18
I1
sg19
I0
sg20
I6
sg21
I0
sg22
I0
sg23
I0
sg24
I0
sbssg64
S'\x01\xff=[_\x13,\xf8ES\x17G)\x1e\xfb\x10'
p3133
ssS'user_system_models_schools_classroom_model'
p3134
(dp3135
g232
(dp3136
g196
S'user_system_models_schools_classroom_model.html'
p3137
sg198
S'user_system/models/schools/classroom_model'
p3138
sg200
g13
(g14
g15
NtRp3139
(dp3140
g18
I1
sg19
I2
sg20
I24
sg21
I0
sg22
I0
sg23
I0
sg24
I0
sbssg238
S'\xb4}\xd2\xf3\xe4P\x96mC/hd\x0c\x17\x97m'
p3141
ssS'user_system_models_schools_semester_model'
p3142
(dp3143
g206
(dp3144
g347
S'user_system_models_schools_semester_model.html'
p3145
sg349
S'user_system/models/schools/semester_model'
p3146
sg351
g13
(g14
g15
NtRp3147
(dp3148
g18
I1
sg19
I0
sg20
I23
sg21
I0
sg22
I0
sg23
I0
sg24
I0
sbssg215
S'\x9f&7d<%\x13 \xcaht\xc4\xd4N\xee&'
p3149
ssS'create_views_daily_quest_copies_daily_quest_copy_view'
p3150
(dp3151
g430
(dp3152
g1545
S'create_views_daily_quest_copies_daily_quest_copy_view.html'
p3153
sg1547
S'create/views/daily_quest_copies/daily_quest_copy_view'
p3154
sg1549
g13
(g14
g15
NtRp3155
(dp3156
g18
I1
sg19
I0
sg20
I14
sg21
I0
sg22
I0
sg23
I0
sg24
I0
sbssg439
S'?\x95&\\\xae\xf0@\xfc\x96\xc15\xc9\x13\xf6_R'
p3157
ssS'flipped_helpers_parameters_helper'
p3158
(dp3159
g42
(dp3160
g31
S'flipped_helpers_parameters_helper.html'
p3161
sg33
S'flipped/helpers/parameters_helper'
p3162
sg35
g13
(g14
g15
NtRp3163
(dp3164
g18
I1
sg19
I14
sg20
I22
sg21
I0
sg22
I1
sg23
I4
sg24
I3
sbssg51
S'v\xe1\xf5\xb3r\x1f\xae\xee\x872U\xa1I\xf8\xef\x00'
p3165
ssS'user_system_models___init__'
p3166
(dp3167
g42
(dp3168
g158
S'user_system_models___init__.html'
p3169
sg160
S'user_system/models/__init__'
p3170
sg162
g13
(g14
g15
NtRp3171
(dp3172
g18
I1
sg19
I0
sg20
I4
sg21
I0
sg22
I0
sg23
I3
sg24
I0
sbssg51
S'V\x9d\x82\xf3\x89V\x80\x15\x8b\xa1\xb1\xa7\x8f\xe9d-'
p3173
ssS'create_models_questions_tests_test_question_model'
p3174
(dp3175
g42
(dp3176
g1238
S'create_models_questions_tests_test_question_model.html'
p3177
sg1240
S'create/models/questions/tests/test_question_model'
p3178
sg1242
g13
(g14
g15
NtRp3179
(dp3180
g18
I1
sg19
I8
sg20
I58
sg21
I0
sg22
I0
sg23
I0
sg24
I0
sbssg51
S'l\x9e\xee!<,L\xbf\xa0\xe6\r\xd7W\xc9tu'
p3181
ssS'user_system_models_users_tests_test_user_profile_history_model'
p3182
(dp3183
g116
(dp3184
g31
S'user_system_models_users_tests_test_user_profile_history_model.html'
p3185
sg33
S'user_system/models/users/tests/test_user_profile_history_model'
p3186
sg35
g13
(g14
g15
NtRp3187
(dp3188
g18
I1
sg19
I0
sg20
I54
sg21
I0
sg22
I0
sg23
I0
sg24
I0
sbssg122
S'<IT\xa7\x05\xe0ML\xb0gu{\xd2>\xc8$'
p3189
ssS'create_models_question_datasets_question_dataset_model'
p3190
(dp3191
g144
(dp3192
g146
S'create_models_question_datasets_question_dataset_model.html'
p3193
sg148
S'create/models/question_datasets/question_dataset_model'
p3194
sg150
g13
(g14
g15
NtRp3195
(dp3196
g18
I1
sg19
I0
sg20
I25
sg21
I0
sg22
I0
sg23
I0
sg24
I0
sbssg153
S'\x9e\x8d\xc6\xe6\xe4\x9f#\xfdc\xc9q\r\x17Y\x8e\xb1'
p3197
ssS'create_serializers_questions___init__'
p3198
(dp3199
g42
(dp3200
g196
S'create_serializers_questions___init__.html'
p3201
sg198
S'create/serializers/questions/__init__'
p3202
sg200
g13
(g14
g15
NtRp3203
(dp3204
g18
I1
sg19
I0
sg20
I5
sg21
I0
sg22
I0
sg23
I0
sg24
I0
sbssg51
S'\xe6(4O\xf6\xd4\xe4\x154\xe9\xa1;\x0cD\x90\t'
p3205
ssS'user_system_views_signups_hardcoded_tests___init__'
p3206
(dp3207
g42
(dp3208
g460
S'user_system_views_signups_hardcoded_tests___init__.html'
p3209
sg462
S'user_system/views/signups/hardcoded/tests/__init__'
p3210
sg464
g13
(g14
g15
NtRp3211
(dp3212
g18
I1
sg19
I0
sg20
I0
sg21
I0
sg22
I0
sg23
I0
sg24
I0
sbssg51
S'\x19g\xdfM\x1a\x019\xaf\x1baIeR\xe5u\xa7'
p3213
ssS'create_serializers_questions_question_serializer'
p3214
(dp3215
g42
(dp3216
g93
S'create_serializers_questions_question_serializer.html'
p3217
sg95
S'create/serializers/questions/question_serializer'
p3218
sg97
g13
(g14
g15
NtRp3219
(dp3220
g18
I1
sg19
I0
sg20
I59
sg21
I0
sg22
I0
sg23
I11
sg24
I0
sbssg51
S'\xd6f\xc4\xe6\x97\xe4~\xa4n\xcc+|\xcc\xdayh'
p3221
ssS'user_system_views___init__'
p3222
(dp3223
g42
(dp3224
g31
S'user_system_views___init__.html'
p3225
sg33
S'user_system/views/__init__'
p3226
sg35
g13
(g14
g15
NtRp3227
(dp3228
g18
I1
sg19
I0
sg20
I5
sg21
I0
sg22
I0
sg23
I0
sg24
I0
sbssg51
S'&v35\x98Nv\xc2>un\xb1\x9a\x93\xd2\xea'
p3229
ssS'user_system_views_users_user_profile_update_request_view'
p3230
(dp3231
g116
(dp3232
S'html_filename'
p3233
S'user_system_views_users_user_profile_update_request_view.html'
p3234
sS'name'
p3235
S'user_system/views/users/user_profile_update_request_view'
p3236
sS'nums'
p3237
g13
(g14
g15
NtRp3238
(dp3239
g18
I1
sg19
I24
sg20
I70
sg21
I0
sg22
I0
sg23
I51
sg24
I24
sbssg122
S"\x04\xfd\x81?\x1e<^\xb0%\xad\xa6'\xcf\xa1\xc3)"
p3240
ssS'user_system_models_roles_role_model'
p3241
(dp3242
g42
(dp3243
g44
S'user_system_models_roles_role_model.html'
p3244
sg46
S'user_system/models/roles/role_model'
p3245
sg48
g13
(g14
g15
NtRp3246
(dp3247
g18
I1
sg19
I0
sg20
I16
sg21
I0
sg22
I0
sg23
I0
sg24
I0
sbssg51
S'\x180j\xc8\x05 \xa05\xa7\xffj\x1dJ\x8a6\xcb'
p3248
ssS'user_system_views_roles_user_role_view'
p3249
(dp3250
g42
(dp3251
g44
S'user_system_views_roles_user_role_view.html'
p3252
sg46
S'user_system/views/roles/user_role_view'
p3253
sg48
g13
(g14
g15
NtRp3254
(dp3255
g18
I1
sg19
I8
sg20
I31
sg21
I0
sg22
I0
sg23
I0
sg24
I0
sbssg51
S'S@\xea\xb7\xd6\xe1\x1b\x1dU\x18a\x9d\x80\xe3A\xb9'
p3256
ssS'create_models_questions_tests_test_question_history_remark_model'
p3257
(dp3258
g603
(dp3259
g605
S'create_models_questions_tests_test_question_history_remark_model.html'
p3260
sg607
S'create/models/questions/tests/test_question_history_remark_model'
p3261
sg609
g13
(g14
g15
NtRp3262
(dp3263
g18
I1
sg19
I0
sg20
I30
sg21
I0
sg22
I0
sg23
I0
sg24
I0
sbssg612
S'K>pG_\xbd\x15\x8b\xd8\x05\xd4\x15\xb3\x9b\xcaP'
p3264
ssS'api_logging_serializers___init__'
p3265
(dp3266
g310
(dp3267
g196
S'api_logging_serializers___init__.html'
p3268
sg198
S'api_logging/serializers/__init__'
p3269
sg200
g13
(g14
g15
NtRp3270
(dp3271
g18
I1
sg19
I0
sg20
I2
sg21
I0
sg22
I0
sg23
I0
sg24
I0
sbssg316
S'\x02\xac\xc4\x02\x172\x90\xf3=\xcb\x89>\x99\xbc\x19\xd9'
p3272
ssS'user_system_models_users_tests_test_user_facebook_model'
p3273
(dp3274
g42
(dp3275
g44
S'user_system_models_users_tests_test_user_facebook_model.html'
p3276
sg46
S'user_system/models/users/tests/test_user_facebook_model'
p3277
sg48
g13
(g14
g15
NtRp3278
(dp3279
g18
I1
sg19
I0
sg20
I29
sg21
I0
sg22
I0
sg23
I0
sg24
I0
sbssg51
S'B\xac\x06Z\x1f7\xba2\x81\xd7\xb4\x17\xaf\x84u+'
p3280
ssS'user_system_models_users_user_credentials_model'
p3281
(dp3282
S'index'
p3283
(dp3284
g2102
S'user_system_models_users_user_credentials_model.html'
p3285
sg2104
S'user_system/models/users/user_credentials_model'
p3286
sg2106
g13
(g14
g15
NtRp3287
(dp3288
g18
I1
sg19
I0
sg20
I7
sg21
I0
sg22
I0
sg23
I0
sg24
I0
sbssS'hash'
p3289
S'g\x10U/\x1f\x83\x0bO\x95o\x9c9\xefV\x81\x8e'
p3290
ssS'create_serializers_books___init__'
p3291
(dp3292
g365
(dp3293
g796
S'create_serializers_books___init__.html'
p3294
sg798
S'create/serializers/books/__init__'
p3295
sg800
g13
(g14
g15
NtRp3296
(dp3297
g18
I1
sg19
I0
sg20
I0
sg21
I0
sg22
I0
sg23
I0
sg24
I0
sbssg371
S'\x19g\xdfM\x1a\x019\xaf\x1baIeR\xe5u\xa7'
p3298
ssS'create_models_questions_tests_test_question_template_model'
p3299
(dp3300
g103
(dp3301
g1012
S'create_models_questions_tests_test_question_template_model.html'
p3302
sg1014
S'create/models/questions/tests/test_question_template_model'
p3303
sg1016
g13
(g14
g15
NtRp3304
(dp3305
g18
I1
sg19
I8
sg20
I74
sg21
I0
sg22
I0
sg23
I0
sg24
I0
sbssg112
S"~\xca\x9c'\x89\x11\x82V\xb3v\x0c4]\x9c\xce4"
p3306
ssS'create_views_quests_tests_test_add_question_template_view'
p3307
(dp3308
g6
(dp3309
g8
S'create_views_quests_tests_test_add_question_template_view.html'
p3310
sg10
S'create/views/quests/tests/test_add_question_template_view'
p3311
sg12
g13
(g14
g15
NtRp3312
(dp3313
g18
I1
sg19
I0
sg20
I0
sg21
I0
sg22
I0
sg23
I0
sg24
I0
sbssg25
S'\x19g\xdfM\x1a\x019\xaf\x1baIeR\xe5u\xa7'
p3314
ssS'learn_models_points_tests___init__'
p3315
(dp3316
g310
(dp3317
g196
S'learn_models_points_tests___init__.html'
p3318
sg198
S'learn/models/points/tests/__init__'
p3319
sg200
g13
(g14
g15
NtRp3320
(dp3321
g18
I1
sg19
I0
sg20
I1
sg21
I0
sg22
I0
sg23
I0
sg24
I0
sbssg316
S'\xbc\xd6\xeb\xb3\xba\xcaz\xf7{\xd4B\xb5}l\xdf\x96'
p3322
ssS'create_views_tags_tests_test_hide_tag_view'
p3323
(dp3324
g710
(dp3325
g44
S'create_views_tags_tests_test_hide_tag_view.html'
p3326
sg46
S'create/views/tags/tests/test_hide_tag_view'
p3327
sg48
g13
(g14
g15
NtRp3328
(dp3329
g18
I1
sg19
I0
sg20
I25
sg21
I0
sg22
I0
sg23
I0
sg24
I0
sbssg716
S'\x8a\x07\xe0\xe1Q\x820\x05R\x14E\xd0\xdf\x8e\xc5\x8a'
p3330
ssS'learn_views_daily_quests___init__'
p3331
(dp3332
g55
(dp3333
g57
S'learn_views_daily_quests___init__.html'
p3334
sg59
S'learn/views/daily_quests/__init__'
p3335
sg61
g13
(g14
g15
NtRp3336
(dp3337
g18
I1
sg19
I0
sg20
I1
sg21
I0
sg22
I0
sg23
I0
sg24
I0
sbssg64
S'\xa3\x08\xf3\xbaF\xd5u\x88\x12\xa3V\x05K\xe5\xd0\xa9'
p3338
ssS'create_views_books_tests___init__'
p3339
(dp3340
g955
(dp3341
S'html_filename'
p3342
S'create_views_books_tests___init__.html'
p3343
sS'name'
p3344
S'create/views/books/tests/__init__'
p3345
sS'nums'
p3346
g13
(g14
g15
NtRp3347
(dp3348
g18
I1
sg19
I0
sg20
I0
sg21
I0
sg22
I0
sg23
I0
sg24
I0
sbssg961
S'\x19g\xdfM\x1a\x019\xaf\x1baIeR\xe5u\xa7'
p3349
ssS'user_system_models_users_tests_test_user_streak_history_model'
p3350
(dp3351
S'index'
p3352
(dp3353
g1273
S'user_system_models_users_tests_test_user_streak_history_model.html'
p3354
sg1275
S'user_system/models/users/tests/test_user_streak_history_model'
p3355
sg1277
g13
(g14
g15
NtRp3356
(dp3357
g18
I1
sg19
I0
sg20
I19
sg21
I0
sg22
I0
sg23
I0
sg24
I0
sbssS'hash'
p3358
S'\xc7I1\x11\xc9\xbf7\xee\x1c\x16@\x10JP\xaf\xfc'
p3359
sssS'version'
p3360
S'3.7.1'
p3361
sS'settings'
p3362
S'\x961E{\x0c29\xd1#\x83\xd3j9"\xd8\x10'
p3363
sS'format'
p3364
I1
s.