(dp1
S'files'
p2
(dp3
S'create_views_quests_tests_test_add_tag_view'
p4
(dp5
S'index'
p6
(dp7
S'html_filename'
p8
S'create_views_quests_tests_test_add_tag_view.html'
p9
sS'name'
p10
S'create/views/quests/tests/test_add_tag_view'
p11
sS'nums'
p12
ccopy_reg
_reconstructor
p13
(ccoverage.results
Numbers
p14
c__builtin__
object
p15
NtRp16
(dp17
S'n_files'
p18
I1
sS'n_branches'
p19
I0
sS'n_statements'
p20
I35
sS'n_excluded'
p21
I0
sS'n_partial_branches'
p22
I0
sS'n_missing'
p23
I0
sS'n_missing_branches'
p24
I0
sbssS'hash'
p25
S'o\xbe\xf1\xf9\x80\xe5|\xbab\xcc\xe2F=\x1e\xacp'
p26
ssS'user_system_models_users_teacher_profile_model'
p27
(dp28
S'index'
p29
(dp30
S'html_filename'
p31
S'user_system_models_users_teacher_profile_model.html'
p32
sS'name'
p33
S'user_system/models/users/teacher_profile_model'
p34
sS'nums'
p35
g13
(g14
g15
NtRp36
(dp37
g18
I1
sg19
I0
sg20
I27
sg21
I0
sg22
I0
sg23
I0
sg24
I0
sbssS'hash'
p38
S'x\x9e\x06\xe6\x8d\x87\xed\xaf\x91\x87\x16\xfc"\x96\xf2\xfc'
p39
ssS'user_system_views_signups_facebook_signup_view'
p40
(dp41
S'index'
p42
(dp43
S'html_filename'
p44
S'user_system_views_signups_facebook_signup_view.html'
p45
sS'name'
p46
S'user_system/views/signups/facebook_signup_view'
p47
sS'nums'
p48
g13
(g14
g15
NtRp49
(dp50
g18
I1
sg19
I8
sg20
I38
sg21
I0
sg22
I0
sg23
I0
sg24
I0
sbssS'hash'
p51
S'\x04E\'\x17r8\x14\xf6 \x98\xb5\xa0sx"@'
p52
ssS'teach_models_teacher_tags___init__'
p53
(dp54
S'index'
p55
(dp56
S'html_filename'
p57
S'teach_models_teacher_tags___init__.html'
p58
sS'name'
p59
S'teach/models/teacher_tags/__init__'
p60
sS'nums'
p61
g13
(g14
g15
NtRp62
(dp63
g18
I1
sg19
I0
sg20
I1
sg21
I0
sg22
I0
sg23
I0
sg24
I0
sbssS'hash'
p64
S"\x15#y\x16\x1a\x9d\xc6mE\xccg]\x07\xb9'\xe0"
p65
ssS'user_system_models_roles_tests_test_role_app_model'
p66
(dp67
g42
(dp68
g44
S'user_system_models_roles_tests_test_role_app_model.html'
p69
sg46
S'user_system/models/roles/tests/test_role_app_model'
p70
sg48
g13
(g14
g15
NtRp71
(dp72
g18
I1
sg19
I0
sg20
I21
sg21
I0
sg22
I0
sg23
I0
sg24
I0
sbssg51
S"\x80\xd7v\xbb\xe5d.\xeb\xfd\xc4\x04\xb2\x04'\xc6V"
p73
ssS'teach_models_teacher_chapters___init__'
p74
(dp75
g55
(dp76
g57
S'teach_models_teacher_chapters___init__.html'
p77
sg59
S'teach/models/teacher_chapters/__init__'
p78
sg61
g13
(g14
g15
NtRp79
(dp80
g18
I1
sg19
I0
sg20
I1
sg21
I0
sg22
I0
sg23
I0
sg24
I0
sbssg64
S'\xfa\xce(\x03\x8d\xd7\xc1h\xedT\xf9d\xae\x03w^'
p81
ssS'user_system_views_logins_facebook_login_view'
p82
(dp83
g42
(dp84
g44
S'user_system_views_logins_facebook_login_view.html'
p85
sg46
S'user_system/views/logins/facebook_login_view'
p86
sg48
g13
(g14
g15
NtRp87
(dp88
g18
I1
sg19
I4
sg20
I24
sg21
I0
sg22
I0
sg23
I0
sg24
I0
sbssg51
S',\xf8~\x8d\x9b\xfe\xa6wQ5\x92t\x15\xe5\x95\x8d'
p89
ssS'create_serializers_questions_question_history_serializer'
p90
(dp91
g42
(dp92
S'html_filename'
p93
S'create_serializers_questions_question_history_serializer.html'
p94
sS'name'
p95
S'create/serializers/questions/question_history_serializer'
p96
sS'nums'
p97
g13
(g14
g15
NtRp98
(dp99
g18
I1
sg19
I2
sg20
I30
sg21
I0
sg22
I1
sg23
I2
sg24
I1
sbssg51
S'C\x93,\xa4\xac3\xb6\xb8\xca\x076\xae\x14\x15\xc0J'
p100
ssS'create_serializers_quests_quest_history_serializer'
p101
(dp102
S'index'
p103
(dp104
S'html_filename'
p105
S'create_serializers_quests_quest_history_serializer.html'
p106
sS'name'
p107
S'create/serializers/quests/quest_history_serializer'
p108
sS'nums'
p109
g13
(g14
g15
NtRp110
(dp111
g18
I1
sg19
I0
sg20
I38
sg21
I0
sg22
I0
sg23
I15
sg24
I0
sbssS'hash'
p112
S'\x0c\x10\x81\x11\xc3\xff\x01\x8d<#\xe5~\x84\xec\x18\xfd'
p113
ssS'user_system_models_users_tests_test_student_profile_request_model'
p114
(dp115
S'index'
p116
(dp117
g31
S'user_system_models_users_tests_test_student_profile_request_model.html'
p118
sg33
S'user_system/models/users/tests/test_student_profile_request_model'
p119
sg35
g13
(g14
g15
NtRp120
(dp121
g18
I1
sg19
I0
sg20
I42
sg21
I0
sg22
I0
sg23
I0
sg24
I0
sbssS'hash'
p122
S'\x0c4FG\x9bD\x9e\xaa\xb9a\xd6\xee\xc6&0T'
p123
ssS'create_views_books_tests_test_add_chapter_view'
p124
(dp125
S'index'
p126
(dp127
g44
S'create_views_books_tests_test_add_chapter_view.html'
p128
sg46
S'create/views/books/tests/test_add_chapter_view'
p129
sg48
g13
(g14
g15
NtRp130
(dp131
g18
I1
sg19
I0
sg20
I69
sg21
I0
sg22
I0
sg23
I0
sg24
I0
sbssS'hash'
p132
S'\xea\xcd\x81\xff\xe6p74\xe3\xab\xc2R\x1aZ#Y'
p133
ssS'teach_models_teacher_chapters_tests_test_teacher_chapter_model'
p134
(dp135
g55
(dp136
g57
S'teach_models_teacher_chapters_tests_test_teacher_chapter_model.html'
p137
sg59
S'teach/models/teacher_chapters/tests/test_teacher_chapter_model'
p138
sg61
g13
(g14
g15
NtRp139
(dp140
g18
I1
sg19
I0
sg20
I28
sg21
I0
sg22
I0
sg23
I0
sg24
I0
sbssg64
S'm\xb2B\x1a\x04\xa5\x94N\xbe\xb6\xfa\xa9\x16J\x10\x92'
p141
ssS'create_serializers_question_datasets___init__'
p142
(dp143
S'index'
p144
(dp145
S'html_filename'
p146
S'create_serializers_question_datasets___init__.html'
p147
sS'name'
p148
S'create/serializers/question_datasets/__init__'
p149
sS'nums'
p150
g13
(g14
g15
NtRp151
(dp152
g18
I1
sg19
I0
sg20
I1
sg21
I0
sg22
I0
sg23
I0
sg24
I0
sbssS'hash'
p153
S'Z\xf8\x02Tc\xc1C;<_\x87\xc6\xc2H\xa6\xdc'
p154
ssS'user_system_models_users_user_profile_model'
p155
(dp156
g42
(dp157
g93
S'user_system_models_users_user_profile_model.html'
p158
sg95
S'user_system/models/users/user_profile_model'
p159
sg97
g13
(g14
g15
NtRp160
(dp161
g18
I1
sg19
I48
sg20
I178
sg21
I0
sg22
I0
sg23
I28
sg24
I8
sbssg51
S'\x82_G\x15\xbc\xdb\xee\xeb\xf1U\xf4<R\xf0\x83\xb4'
p162
ssS'create_models_question_datasets_tests_test_question_dataset_model'
p163
(dp164
g144
(dp165
g146
S'create_models_question_datasets_tests_test_question_dataset_model.html'
p166
sg148
S'create/models/question_datasets/tests/test_question_dataset_model'
p167
sg150
g13
(g14
g15
NtRp168
(dp169
g18
I1
sg19
I2
sg20
I39
sg21
I0
sg22
I0
sg23
I0
sg24
I0
sbssg153
S'!\t\x88\xfc\x0f\xaa\x0c\x88\xe3\xf9\x04\xd1\\0w\xf1'
p170
ssS'user_system_models_users___init__'
p171
(dp172
g42
(dp173
S'html_filename'
p174
S'user_system_models_users___init__.html'
p175
sS'name'
p176
S'user_system/models/users/__init__'
p177
sS'nums'
p178
g13
(g14
g15
NtRp179
(dp180
g18
I1
sg19
I0
sg20
I11
sg21
I0
sg22
I0
sg23
I0
sg24
I0
sbssg51
S'\x81\xefKrW:\x98\xa0\xfbl\x17\xe1E\xb8..'
p181
ssS'teach_urls'
p182
(dp183
g55
(dp184
S'html_filename'
p185
S'teach_urls.html'
p186
sS'name'
p187
S'teach/urls'
p188
sS'nums'
p189
g13
(g14
g15
NtRp190
(dp191
g18
I1
sg19
I0
sg20
I13
sg21
I0
sg22
I0
sg23
I0
sg24
I0
sbssg64
S'1\xa6\x90\x84\xbf\x9b\x9at\x1f4\xf1\x1b\x92\x03\xff%'
p192
ssS'learn_serializers_daily_quests___init__'
p193
(dp194
g55
(dp195
g174
S'learn_serializers_daily_quests___init__.html'
p196
sg176
S'learn/serializers/daily_quests/__init__'
p197
sg178
g13
(g14
g15
NtRp198
(dp199
g18
I1
sg19
I0
sg20
I2
sg21
I0
sg22
I0
sg23
I0
sg24
I0
sbssg64
S'\x8e\x0b\xa4\xc1x\xdb]\xcc\xf6 \x7f\xbeO\x91\xca@'
p200
ssS'user_system_models_schools___init__'
p201
(dp202
S'index'
p203
(dp204
S'html_filename'
p205
S'user_system_models_schools___init__.html'
p206
sS'name'
p207
S'user_system/models/schools/__init__'
p208
sS'nums'
p209
g13
(g14
g15
NtRp210
(dp211
g18
I1
sg19
I0
sg20
I6
sg21
I0
sg22
I0
sg23
I0
sg24
I0
sbssS'hash'
p212
S'\xbe\xc9\xb2f\x05\x1f\xe6\xee\xef\x01#\xe8\x16\xc2\x83\xdb'
p213
ssS'create_views_questions_tests_test_remove_tag_view'
p214
(dp215
S'index'
p216
(dp217
S'html_filename'
p218
S'create_views_questions_tests_test_remove_tag_view.html'
p219
sS'name'
p220
S'create/views/questions/tests/test_remove_tag_view'
p221
sS'nums'
p222
g13
(g14
g15
NtRp223
(dp224
g18
I1
sg19
I0
sg20
I36
sg21
I0
sg22
I0
sg23
I0
sg24
I0
sbssS'hash'
p225
S'\xbdV1EN\xfe\x8e;\xe4\x92\x91r\xd6Q\x03\x80'
p226
ssS'user_system_models_users_tests_test_student_profile_model'
p227
(dp228
S'index'
p229
(dp230
g174
S'user_system_models_users_tests_test_student_profile_model.html'
p231
sg176
S'user_system/models/users/tests/test_student_profile_model'
p232
sg178
g13
(g14
g15
NtRp233
(dp234
g18
I1
sg19
I0
sg20
I48
sg21
I0
sg22
I0
sg23
I0
sg24
I0
sbssS'hash'
p235
S'\n_\xb5B0\x1dR\x0b\x16i\x1fy.Z\x14#'
p236
ssS'create_views_daily_quest_templates___init__'
p237
(dp238
S'index'
p239
(dp240
S'html_filename'
p241
S'create_views_daily_quest_templates___init__.html'
p242
sS'name'
p243
S'create/views/daily_quest_templates/__init__'
p244
sS'nums'
p245
g13
(g14
g15
NtRp246
(dp247
g18
I1
sg19
I0
sg20
I1
sg21
I0
sg22
I0
sg23
I0
sg24
I0
sbssS'hash'
p248
S'\xc1b\x1f\x95\xabR`C\xe80\xb9tNC\r3'
p249
ssS'learn___init__'
p250
(dp251
g55
(dp252
g57
S'learn___init__.html'
p253
sg59
S'learn/__init__'
p254
sg61
g13
(g14
g15
NtRp255
(dp256
g18
I1
sg19
I0
sg20
I0
sg21
I0
sg22
I0
sg23
I0
sg24
I0
sbssg64
S'\x19g\xdfM\x1a\x019\xaf\x1baIeR\xe5u\xa7'
p257
ssS'create_serializers_quests___init__'
p258
(dp259
g103
(dp260
g31
S'create_serializers_quests___init__.html'
p261
sg33
S'create/serializers/quests/__init__'
p262
sg35
g13
(g14
g15
NtRp263
(dp264
g18
I1
sg19
I0
sg20
I2
sg21
I0
sg22
I0
sg23
I0
sg24
I0
sbssg112
S'\xc0,Fh\xaf\xa0(\x8f\xde\x02{\x88!\x04\x7f\xb6'
p265
ssS'teach_views_teacher_chapters___init__'
p266
(dp267
g55
(dp268
g57
S'teach_views_teacher_chapters___init__.html'
p269
sg59
S'teach/views/teacher_chapters/__init__'
p270
sg61
g13
(g14
g15
NtRp271
(dp272
g18
I1
sg19
I0
sg20
I1
sg21
I0
sg22
I0
sg23
I0
sg24
I0
sbssg64
S'\x10AP\xc9\nC\xd2REz\xf6\xe5\xd2(\xee`'
p273
ssS'user_system_models_users_student_profile_request_model'
p274
(dp275
g116
(dp276
g31
S'user_system_models_users_student_profile_request_model.html'
p277
sg33
S'user_system/models/users/student_profile_request_model'
p278
sg35
g13
(g14
g15
NtRp279
(dp280
g18
I1
sg19
I0
sg20
I45
sg21
I0
sg22
I0
sg23
I0
sg24
I0
sbssg122
S'\xeeZA}\xa0\xf5\x88k0a2\x9fS\xf3}\x05'
p281
ssS'privilege_models___init__'
p282
(dp283
S'index'
p284
(dp285
g93
S'privilege_models___init__.html'
p286
sg95
S'privilege/models/__init__'
p287
sg97
g13
(g14
g15
NtRp288
(dp289
g18
I1
sg19
I0
sg20
I1
sg21
I0
sg22
I0
sg23
I0
sg24
I0
sbssS'hash'
p290
S'\x13V\xca}S\xd3\x98Rp?\xb0\xe1\x904>b'
p291
ssS'user_system_views_users_teacher_mapping_view'
p292
(dp293
S'index'
p294
(dp295
g174
S'user_system_views_users_teacher_mapping_view.html'
p296
sg176
S'user_system/views/users/teacher_mapping_view'
p297
sg178
g13
(g14
g15
NtRp298
(dp299
g18
I1
sg19
I0
sg20
I14
sg21
I0
sg22
I0
sg23
I0
sg24
I0
sbssS'hash'
p300
S'B\x04t\x93Z\x86Q.\x17\xf9\xa0*\xf6\x86\xcf\x10'
p301
ssS'create_views_tags_tests_test_search_tag_view'
p302
(dp303
S'index'
p304
(dp305
g93
S'create_views_tags_tests_test_search_tag_view.html'
p306
sg95
S'create/views/tags/tests/test_search_tag_view'
p307
sg97
g13
(g14
g15
NtRp308
(dp309
g18
I1
sg19
I0
sg20
I22
sg21
I0
sg22
I0
sg23
I0
sg24
I0
sbssS'hash'
p310
S'\rh\xcb\xb3g\x15\x9c\xe3hR\xc5r\xb9\x9c\xb2\x1f'
p311
ssS'create_views_questions_tests_test_hide_question_view'
p312
(dp313
g42
(dp314
g44
S'create_views_questions_tests_test_hide_question_view.html'
p315
sg46
S'create/views/questions/tests/test_hide_question_view'
p316
sg48
g13
(g14
g15
NtRp317
(dp318
g18
I1
sg19
I0
sg20
I30
sg21
I0
sg22
I0
sg23
I0
sg24
I0
sbssg51
S'\xb3\x10S\x8a\x9b\xecw\xaa\xd3\x81\x1b\xf2\xab\xb2QG'
p319
ssS'user_system_serializers_users_student_profile_request_serializer'
p320
(dp321
g116
(dp322
g31
S'user_system_serializers_users_student_profile_request_serializer.html'
p323
sg33
S'user_system/serializers/users/student_profile_request_serializer'
p324
sg35
g13
(g14
g15
NtRp325
(dp326
g18
I1
sg19
I0
sg20
I8
sg21
I0
sg22
I0
sg23
I0
sg24
I0
sbssg122
S'\xa9VJ\x07M\x02\xee$\t\xc8O\xc43$\x1a-'
p327
ssS'user_system_models_users_tests_test_teacher_profile_model'
p328
(dp329
g29
(dp330
S'html_filename'
p331
S'user_system_models_users_tests_test_teacher_profile_model.html'
p332
sS'name'
p333
S'user_system/models/users/tests/test_teacher_profile_model'
p334
sS'nums'
p335
g13
(g14
g15
NtRp336
(dp337
g18
I1
sg19
I0
sg20
I32
sg21
I0
sg22
I0
sg23
I0
sg24
I0
sbssg38
S'\xe7n\x9a\x17\x9d0\x01\xa6\x0f\x18\x10l\x8ckmy'
p338
ssS'teach_models_campaigns___init__'
p339
(dp340
g116
(dp341
g31
S'teach_models_campaigns___init__.html'
p342
sg33
S'teach/models/campaigns/__init__'
p343
sg35
g13
(g14
g15
NtRp344
(dp345
g18
I1
sg19
I0
sg20
I1
sg21
I0
sg22
I0
sg23
I0
sg24
I0
sbssg122
S'\xba\x82\x818\x88\xe0\xf2#\xe9\x89\xffso\xdc\xe6\xd4'
p346
ssS'create_serializers_books_book_chapter_serializer'
p347
(dp348
S'index'
p349
(dp350
g57
S'create_serializers_books_book_chapter_serializer.html'
p351
sg59
S'create/serializers/books/book_chapter_serializer'
p352
sg61
g13
(g14
g15
NtRp353
(dp354
g18
I1
sg19
I0
sg20
I23
sg21
I0
sg22
I0
sg23
I3
sg24
I0
sbssS'hash'
p355
S'\xf1~, f\x89\xad\xc8p\xcc\xd4E_\x0b3\x06'
p356
ssS'api_logging_models_api_logging_api_logging_model'
p357
(dp358
g294
(dp359
g174
S'api_logging_models_api_logging_api_logging_model.html'
p360
sg176
S'api_logging/models/api_logging/api_logging_model'
p361
sg178
g13
(g14
g15
NtRp362
(dp363
g18
I1
sg19
I0
sg20
I21
sg21
I0
sg22
I0
sg23
I0
sg24
I0
sbssg300
S'\x0c\x96WFX%\xe9\xcf+\xcf\xc2s\xa7a1\xbd'
p364
ssS'privilege_models_privileges_tests_test_user_privilege_model'
p365
(dp366
g284
(dp367
g93
S'privilege_models_privileges_tests_test_user_privilege_model.html'
p368
sg95
S'privilege/models/privileges/tests/test_user_privilege_model'
p369
sg97
g13
(g14
g15
NtRp370
(dp371
g18
I1
sg19
I0
sg20
I19
sg21
I0
sg22
I0
sg23
I0
sg24
I0
sbssg290
S'\xcd\xf2\x96G\xfe\xbc/\xb5\x15\xceNf\x0f\x0b5\xd4'
p372
ssS'user_system_urls'
p373
(dp374
g42
(dp375
g174
S'user_system_urls.html'
p376
sg176
S'user_system/urls'
p377
sg178
g13
(g14
g15
NtRp378
(dp379
g18
I1
sg19
I0
sg20
I17
sg21
I0
sg22
I0
sg23
I0
sg24
I0
sbssg51
S'SKXe\xb2\x8f\xd8\xdc\xf3\x99\xa6\x9e.\x82\x96\xe9'
p380
ssS'create_models_tags_tests_test_tag_type_model'
p381
(dp382
S'index'
p383
(dp384
g44
S'create_models_tags_tests_test_tag_type_model.html'
p385
sg46
S'create/models/tags/tests/test_tag_type_model'
p386
sg48
g13
(g14
g15
NtRp387
(dp388
g18
I1
sg19
I0
sg20
I17
sg21
I0
sg22
I0
sg23
I0
sg24
I0
sbssS'hash'
p389
S'?6\xfcg\xce\x11\x1a7E\xaf\xb2\x02\t"\xddA'
p390
ssS'create_models_quests_quest_history_model'
p391
(dp392
g103
(dp393
g8
S'create_models_quests_quest_history_model.html'
p394
sg10
S'create/models/quests/quest_history_model'
p395
sg12
g13
(g14
g15
NtRp396
(dp397
g18
I1
sg19
I8
sg20
I75
sg21
I0
sg22
I3
sg23
I4
sg24
I3
sbssg112
S'@\xe7\xfa\x02?w\xe7\x93\xa3\x85\x0f\x0fz\xf0\xdbR'
p398
ssS'create_models_daily_quest_copies_daily_quest_copy_model'
p399
(dp400
S'index'
p401
(dp402
S'html_filename'
p403
S'create_models_daily_quest_copies_daily_quest_copy_model.html'
p404
sS'name'
p405
S'create/models/daily_quest_copies/daily_quest_copy_model'
p406
sS'nums'
p407
g13
(g14
g15
NtRp408
(dp409
g18
I1
sg19
I6
sg20
I47
sg21
I0
sg22
I0
sg23
I14
sg24
I6
sbssS'hash'
p410
S'\x90\xa7\xba\xee\x88\xf84\xf7\xd1B\x9b9@\\\x80P'
p411
ssS'user_system_models_roles_role_app_model'
p412
(dp413
g42
(dp414
g44
S'user_system_models_roles_role_app_model.html'
p415
sg46
S'user_system/models/roles/role_app_model'
p416
sg48
g13
(g14
g15
NtRp417
(dp418
g18
I1
sg19
I0
sg20
I18
sg21
I0
sg22
I0
sg23
I0
sg24
I0
sbssg51
S'\x8d\xa3&\x03\x9d\x1cO|\xces.\x11/\x8f`\xcc'
p419
ssS'user_system_models_apps_app_model'
p420
(dp421
g42
(dp422
g44
S'user_system_models_apps_app_model.html'
p423
sg46
S'user_system/models/apps/app_model'
p424
sg48
g13
(g14
g15
NtRp425
(dp426
g18
I1
sg19
I0
sg20
I16
sg21
I0
sg22
I0
sg23
I0
sg24
I0
sbssg51
S',\x89\x9d;<\xa3\xdc\x92@\xa5\x9c\x7fcg\x05?'
p427
ssS'user_system_views_apps_tests___init__'
p428
(dp429
g42
(dp430
S'html_filename'
p431
S'user_system_views_apps_tests___init__.html'
p432
sS'name'
p433
S'user_system/views/apps/tests/__init__'
p434
sS'nums'
p435
g13
(g14
g15
NtRp436
(dp437
g18
I1
sg19
I0
sg20
I0
sg21
I0
sg22
I0
sg23
I0
sg24
I0
sbssg51
S'\x19g\xdfM\x1a\x019\xaf\x1baIeR\xe5u\xa7'
p438
ssS'privilege___init__'
p439
(dp440
g284
(dp441
g93
S'privilege___init__.html'
p442
sg95
S'privilege/__init__'
p443
sg97
g13
(g14
g15
NtRp444
(dp445
g18
I1
sg19
I0
sg20
I0
sg21
I0
sg22
I0
sg23
I0
sg24
I0
sbssg290
S'\x19g\xdfM\x1a\x019\xaf\x1baIeR\xe5u\xa7'
p446
ssS'create_views_books___init__'
p447
(dp448
g349
(dp449
S'html_filename'
p450
S'create_views_books___init__.html'
p451
sS'name'
p452
S'create/views/books/__init__'
p453
sS'nums'
p454
g13
(g14
g15
NtRp455
(dp456
g18
I1
sg19
I0
sg20
I3
sg21
I0
sg22
I0
sg23
I0
sg24
I0
sbssg355
S'\xce\x13\xc8S|wF\xe3\x148\xa0?ez,\xc4'
p457
ssS'create_models_books_book_chapter_model'
p458
(dp459
g349
(dp460
g31
S'create_models_books_book_chapter_model.html'
p461
sg33
S'create/models/books/book_chapter_model'
p462
sg35
g13
(g14
g15
NtRp463
(dp464
g18
I1
sg19
I8
sg20
I58
sg21
I0
sg22
I1
sg23
I3
sg24
I3
sbssg355
S'5h\xa3E\x99\xf4H\x97\xbf\x08?=+K\xe7\xad'
p465
ssS'user_system_admin'
p466
(dp467
g42
(dp468
g174
S'user_system_admin.html'
p469
sg176
S'user_system/admin'
p470
sg178
g13
(g14
g15
NtRp471
(dp472
g18
I1
sg19
I0
sg20
I25
sg21
I0
sg22
I0
sg23
I0
sg24
I0
sbssg51
S',\xc1@k;\x98\x80\xb5\xbc\xab\x11\xf3\xdc\x0b\xd1U'
p473
ssS'user_system_serializers_users_teacher_profile_serializer'
p474
(dp475
g116
(dp476
g31
S'user_system_serializers_users_teacher_profile_serializer.html'
p477
sg33
S'user_system/serializers/users/teacher_profile_serializer'
p478
sg35
g13
(g14
g15
NtRp479
(dp480
g18
I1
sg19
I4
sg20
I20
sg21
I0
sg22
I0
sg23
I9
sg24
I4
sbssg122
S'\xe2\xa5\xba\xd6e\xc2\x88\xab\xaes\x15\x08\xa9ta\xd6'
p481
ssS'user_system_models_users_tests___init__'
p482
(dp483
g42
(dp484
g431
S'user_system_models_users_tests___init__.html'
p485
sg433
S'user_system/models/users/tests/__init__'
p486
sg435
g13
(g14
g15
NtRp487
(dp488
g18
I1
sg19
I0
sg20
I0
sg21
I0
sg22
I0
sg23
I0
sg24
I0
sbssg51
S'\x19g\xdfM\x1a\x019\xaf\x1baIeR\xe5u\xa7'
p489
ssS'user_system_models_users_user_profile_picture_model'
p490
(dp491
g116
(dp492
g31
S'user_system_models_users_user_profile_picture_model.html'
p493
sg33
S'user_system/models/users/user_profile_picture_model'
p494
sg35
g13
(g14
g15
NtRp495
(dp496
g18
I1
sg19
I0
sg20
I18
sg21
I0
sg22
I0
sg23
I0
sg24
I0
sbssg122
S'$E\xff\xf5f,\xb2\xc7\xb4\x9b*\x0es|s\xcc'
p497
ssS'teach_models_teacher_tags_teacher_tag_model'
p498
(dp499
g55
(dp500
g57
S'teach_models_teacher_tags_teacher_tag_model.html'
p501
sg59
S'teach/models/teacher_tags/teacher_tag_model'
p502
sg61
g13
(g14
g15
NtRp503
(dp504
g18
I1
sg19
I0
sg20
I30
sg21
I0
sg22
I0
sg23
I0
sg24
I0
sbssg64
S'\\\xb6A\xa8\xa7\x93\x16K\xceQ>\xe8t\xdb<#'
p505
ssS'teach_models_daily_quest_templates_daily_quest_template_model'
p506
(dp507
g55
(dp508
g174
S'teach_models_daily_quest_templates_daily_quest_template_model.html'
p509
sg176
S'teach/models/daily_quest_templates/daily_quest_template_model'
p510
sg178
g13
(g14
g15
NtRp511
(dp512
g18
I1
sg19
I0
sg20
I32
sg21
I0
sg22
I0
sg23
I1
sg24
I0
sbssg64
S"\xf8\xcd\xe9T\xea\x98\xb1\xcb\xd1\xfe\xdca\xa4b'`"
p513
ssS'create_views_books_tests_test_add_subchapter_view'
p514
(dp515
S'index'
p516
(dp517
g44
S'create_views_books_tests_test_add_subchapter_view.html'
p518
sg46
S'create/views/books/tests/test_add_subchapter_view'
p519
sg48
g13
(g14
g15
NtRp520
(dp521
g18
I1
sg19
I0
sg20
I60
sg21
I0
sg22
I0
sg23
I0
sg24
I0
sbssS'hash'
p522
S"\xcc^2\xc4\xf2\xb1\xdc\xe8\xf0t\xb6\xcc\x1f\xce\xf1'"
p523
ssS'create_models_quests_quest_model'
p524
(dp525
g103
(dp526
S'html_filename'
p527
S'create_models_quests_quest_model.html'
p528
sS'name'
p529
S'create/models/quests/quest_model'
p530
sS'nums'
p531
g13
(g14
g15
NtRp532
(dp533
g18
I1
sg19
I4
sg20
I59
sg21
I0
sg22
I0
sg23
I13
sg24
I4
sbssg112
S'^g\x1e\x82\xee1[\xc0\xbe\x04\xca\xb1`M\xe7\xe9'
p534
ssS'user_system_views_users_tests_test_remove_role_view'
p535
(dp536
g42
(dp537
g44
S'user_system_views_users_tests_test_remove_role_view.html'
p538
sg46
S'user_system/views/users/tests/test_remove_role_view'
p539
sg48
g13
(g14
g15
NtRp540
(dp541
g18
I1
sg19
I0
sg20
I42
sg21
I0
sg22
I0
sg23
I0
sg24
I0
sbssg51
S'\xfb\x9b\xa3\xe5\x90\xe7q99\x19\x10"<@L\x8c'
p542
ssS'create_models_tags_tests_test_tag_history_model'
p543
(dp544
S'index'
p545
(dp546
g57
S'create_models_tags_tests_test_tag_history_model.html'
p547
sg59
S'create/models/tags/tests/test_tag_history_model'
p548
sg61
g13
(g14
g15
NtRp549
(dp550
g18
I1
sg19
I0
sg20
I58
sg21
I0
sg22
I0
sg23
I0
sg24
I0
sbssS'hash'
p551
S"\x05Y\xa9\xba\xf0\xa8\xd2*7_\xcb]\xfb*#'"
p552
ssS'teach_views_teacher_news_feed___init__'
p553
(dp554
g294
(dp555
g174
S'teach_views_teacher_news_feed___init__.html'
p556
sg176
S'teach/views/teacher_news_feed/__init__'
p557
sg178
g13
(g14
g15
NtRp558
(dp559
g18
I1
sg19
I0
sg20
I1
sg21
I0
sg22
I0
sg23
I0
sg24
I0
sbssg300
S'\xe8\xcd\xf3\x9f\xa3=;`\xf0oZ\xcb!\x98\xac\x1c'
p560
ssS'create_views_daily_quest_templates_daily_quest_template_view'
p561
(dp562
g239
(dp563
g241
S'create_views_daily_quest_templates_daily_quest_template_view.html'
p564
sg243
S'create/views/daily_quest_templates/daily_quest_template_view'
p565
sg245
g13
(g14
g15
NtRp566
(dp567
g18
I1
sg19
I4
sg20
I20
sg21
I0
sg22
I0
sg23
I5
sg24
I4
sbssg248
S'*(w\xa3\x82\x06\xe8D\x8c\xaa+3\xbc\xe3\xa5\x1d'
p568
ssS'create_models_questions_question_history_remark_model'
p569
(dp570
S'index'
p571
(dp572
S'html_filename'
p573
S'create_models_questions_question_history_remark_model.html'
p574
sS'name'
p575
S'create/models/questions/question_history_remark_model'
p576
sS'nums'
p577
g13
(g14
g15
NtRp578
(dp579
g18
I1
sg19
I0
sg20
I27
sg21
I0
sg22
I0
sg23
I0
sg24
I0
sbssS'hash'
p580
S'\xac"G5\x1c\xf2\xef\xa9\x1dUd\xce4.\xac\xa4'
p581
ssS'learn_serializers___init__'
p582
(dp583
g55
(dp584
g57
S'learn_serializers___init__.html'
p585
sg59
S'learn/serializers/__init__'
p586
sg61
g13
(g14
g15
NtRp587
(dp588
g18
I1
sg19
I0
sg20
I1
sg21
I0
sg22
I0
sg23
I0
sg24
I0
sbssg64
S'cLP\xd9\xc0\x91mD\xa3\xd2\xbczr\xdak\xf4'
p589
ssS'user_system_views_schools___init__'
p590
(dp591
g116
(dp592
g31
S'user_system_views_schools___init__.html'
p593
sg33
S'user_system/views/schools/__init__'
p594
sg35
g13
(g14
g15
NtRp595
(dp596
g18
I1
sg19
I0
sg20
I2
sg21
I0
sg22
I0
sg23
I0
sg24
I0
sbssg122
S'\x85\xe2\x7f\xa7\xac\x16HY\x8b\x10\x9b\xc0r\x17|\x8c'
p597
ssS'create_views_quests___init__'
p598
(dp599
g103
(dp600
S'html_filename'
p601
S'create_views_quests___init__.html'
p602
sS'name'
p603
S'create/views/quests/__init__'
p604
sS'nums'
p605
g13
(g14
g15
NtRp606
(dp607
g18
I1
sg19
I0
sg20
I1
sg21
I0
sg22
I0
sg23
I0
sg24
I0
sbssg112
S'\x8d\x97\x8c^6\xf0o\xc3_\x8dRQ}\xd2]a'
p608
ssS'user_system_models_schools_tests_test_course_model'
p609
(dp610
g229
(dp611
g174
S'user_system_models_schools_tests_test_course_model.html'
p612
sg176
S'user_system/models/schools/tests/test_course_model'
p613
sg178
g13
(g14
g15
NtRp614
(dp615
g18
I1
sg19
I0
sg20
I26
sg21
I0
sg22
I0
sg23
I0
sg24
I0
sbssg235
S'5(h\xed\xfd\xee\x1b%Kox\xfa?w\xc6D'
p616
ssS'create_models_question_datasets_tests___init__'
p617
(dp618
g144
(dp619
g146
S'create_models_question_datasets_tests___init__.html'
p620
sg148
S'create/models/question_datasets/tests/__init__'
p621
sg150
g13
(g14
g15
NtRp622
(dp623
g18
I1
sg19
I0
sg20
I0
sg21
I0
sg22
I0
sg23
I0
sg24
I0
sbssg153
S'\x19g\xdfM\x1a\x019\xaf\x1baIeR\xe5u\xa7'
p624
ssS'api_logging_models_modal_logging_modal_model'
p625
(dp626
g294
(dp627
g174
S'api_logging_models_modal_logging_modal_model.html'
p628
sg176
S'api_logging/models/modal_logging/modal_model'
p629
sg178
g13
(g14
g15
NtRp630
(dp631
g18
I1
sg19
I0
sg20
I19
sg21
I0
sg22
I0
sg23
I5
sg24
I0
sbssg300
S'\x0f\x1e\xac\x00_hQ\xcb\xa2\xa8\xf4@\xb9\x97\x9c\x1e'
p632
ssS'user_system_views_signups_hardcoded_test_account_view'
p633
(dp634
g42
(dp635
g44
S'user_system_views_signups_hardcoded_test_account_view.html'
p636
sg46
S'user_system/views/signups/hardcoded/test_account_view'
p637
sg48
g13
(g14
g15
NtRp638
(dp639
g18
I1
sg19
I2
sg20
I18
sg21
I0
sg22
I0
sg23
I0
sg24
I0
sbssg51
S"\xb4\xf1\xfdH\x8f\xf1QX7'\\\xd3\xab.\xbc\x80"
p640
ssS'user_system_views_users_create_student_view'
p641
(dp642
g294
(dp643
g174
S'user_system_views_users_create_student_view.html'
p644
sg176
S'user_system/views/users/create_student_view'
p645
sg178
g13
(g14
g15
NtRp646
(dp647
g18
I1
sg19
I2
sg20
I37
sg21
I0
sg22
I0
sg23
I24
sg24
I2
sbssg300
S'\x8e\xce\xac\xe9\xe3J4\xbb\x88$\xefFS\x06Ow'
p648
ssS'teach_serializers_teacher_tags___init__'
p649
(dp650
g55
(dp651
g57
S'teach_serializers_teacher_tags___init__.html'
p652
sg59
S'teach/serializers/teacher_tags/__init__'
p653
sg61
g13
(g14
g15
NtRp654
(dp655
g18
I1
sg19
I0
sg20
I1
sg21
I0
sg22
I0
sg23
I0
sg24
I0
sbssg64
S'Q\xc1\xe2\xf5*\x8fJ\xddv\xe7\x91\xd1S\xf5\xa9\xa3'
p656
ssS'learn_models_daily_quests_tests___init__'
p657
(dp658
g55
(dp659
g57
S'learn_models_daily_quests_tests___init__.html'
p660
sg59
S'learn/models/daily_quests/tests/__init__'
p661
sg61
g13
(g14
g15
NtRp662
(dp663
g18
I1
sg19
I0
sg20
I1
sg21
I0
sg22
I0
sg23
I0
sg24
I0
sbssg64
S'\xbc\xd6\xeb\xb3\xba\xcaz\xf7{\xd4B\xb5}l\xdf\x96'
p664
ssS'user_system_views_signups___init__'
p665
(dp666
g42
(dp667
g431
S'user_system_views_signups___init__.html'
p668
sg433
S'user_system/views/signups/__init__'
p669
sg435
g13
(g14
g15
NtRp670
(dp671
g18
I1
sg19
I0
sg20
I4
sg21
I0
sg22
I0
sg23
I0
sg24
I0
sbssg51
S'\x02\x1d\x90mQ#+\xc5\x93\xdb\xa4Hs\xcf\xa8\x97'
p672
ssS'create_views_tags_tag_view'
p673
(dp674
S'index'
p675
(dp676
g105
S'create_views_tags_tag_view.html'
p677
sg107
S'create/views/tags/tag_view'
p678
sg109
g13
(g14
g15
NtRp679
(dp680
g18
I1
sg19
I32
sg20
I92
sg21
I0
sg22
I8
sg23
I13
sg24
I16
sbssS'hash'
p681
S'\xd5\xd6\xf9\xa6U<\xf82\xe0xx\x06}\xa5\xeb\xe7'
p682
ssS'learn_models_daily_quests_daily_quest_model'
p683
(dp684
g55
(dp685
S'html_filename'
p686
S'learn_models_daily_quests_daily_quest_model.html'
p687
sS'name'
p688
S'learn/models/daily_quests/daily_quest_model'
p689
sS'nums'
p690
g13
(g14
g15
NtRp691
(dp692
g18
I1
sg19
I20
sg20
I115
sg21
I0
sg22
I0
sg23
I49
sg24
I20
sbssg64
S'\x0b\x0e\x89\xb2>L\xf7D1_\xa8\xaf\xaf\x8f\xbc\x8a'
p693
ssS'teach_models_campaigns_campaign_model'
p694
(dp695
g116
(dp696
g174
S'teach_models_campaigns_campaign_model.html'
p697
sg176
S'teach/models/campaigns/campaign_model'
p698
sg178
g13
(g14
g15
NtRp699
(dp700
g18
I1
sg19
I0
sg20
I40
sg21
I0
sg22
I0
sg23
I0
sg24
I0
sbssg122
S'>\xc8\xe2\xfb\xdd\xc1"@\xea/\xe1\xbb\xf1\xa4\x80\x0f'
p701
ssS'create_views_tags_tests_test_add_prerequisite_view'
p702
(dp703
g304
(dp704
g44
S'create_views_tags_tests_test_add_prerequisite_view.html'
p705
sg46
S'create/views/tags/tests/test_add_prerequisite_view'
p706
sg48
g13
(g14
g15
NtRp707
(dp708
g18
I1
sg19
I0
sg20
I26
sg21
I0
sg22
I0
sg23
I0
sg24
I0
sbssg310
S'\xd2\xef\x02\xe1{\xbc\x9b\xf3\x8b\xbd\xf0\xd2\xe7\xcc\xb5\xa4'
p709
ssS'create_models_tags___init__'
p710
(dp711
g383
(dp712
S'html_filename'
p713
S'create_models_tags___init__.html'
p714
sS'name'
p715
S'create/models/tags/__init__'
p716
sS'nums'
p717
g13
(g14
g15
NtRp718
(dp719
g18
I1
sg19
I0
sg20
I5
sg21
I0
sg22
I0
sg23
I0
sg24
I0
sbssg389
S'\xcck\xb0R5)\xa8c\xdb\xa6\xfb\xec\x18 \xde}'
p720
ssS'teach_models_campaigns_tests___init__'
p721
(dp722
g116
(dp723
g31
S'teach_models_campaigns_tests___init__.html'
p724
sg33
S'teach/models/campaigns/tests/__init__'
p725
sg35
g13
(g14
g15
NtRp726
(dp727
g18
I1
sg19
I0
sg20
I0
sg21
I0
sg22
I0
sg23
I0
sg24
I0
sbssg122
S'\x19g\xdfM\x1a\x019\xaf\x1baIeR\xe5u\xa7'
p728
ssS'learn_views_student_news_feed___init__'
p729
(dp730
g294
(dp731
g174
S'learn_views_student_news_feed___init__.html'
p732
sg176
S'learn/views/student_news_feed/__init__'
p733
sg178
g13
(g14
g15
NtRp734
(dp735
g18
I1
sg19
I0
sg20
I1
sg21
I0
sg22
I0
sg23
I0
sg24
I0
sbssg300
S'\xc5\x87\xccQ|\xa2\xee\x11p\x84\xfe\xed\xe3W\xfa\x07'
p736
ssS'create_models_daily_quests___init__'
p737
(dp738
S'index'
p739
(dp740
S'html_filename'
p741
S'create_models_daily_quests___init__.html'
p742
sS'name'
p743
S'create/models/daily_quests/__init__'
p744
sS'nums'
p745
g13
(g14
g15
NtRp746
(dp747
g18
I1
sg19
I0
sg20
I1
sg21
I0
sg22
I0
sg23
I0
sg24
I0
sbssS'hash'
p748
S'\x94\x0eB\xb3\x8e\xc6\x81\xc0\x16\x84P.\x11:\x8e\xc9'
p749
ssS'teach_views_teacher_chapters_teacher_chapter_view'
p750
(dp751
g55
(dp752
g31
S'teach_views_teacher_chapters_teacher_chapter_view.html'
p753
sg33
S'teach/views/teacher_chapters/teacher_chapter_view'
p754
sg35
g13
(g14
g15
NtRp755
(dp756
g18
I1
sg19
I12
sg20
I44
sg21
I0
sg22
I0
sg23
I25
sg24
I12
sbssg64
S'Z\xc5\n\xdb\xe5!2~7\xe3i\xa7j\xd4\x10\x8c'
p757
ssS'create_serializers_tags_concept_serializer'
p758
(dp759
g349
(dp760
S'html_filename'
p761
S'create_serializers_tags_concept_serializer.html'
p762
sS'name'
p763
S'create/serializers/tags/concept_serializer'
p764
sS'nums'
p765
g13
(g14
g15
NtRp766
(dp767
g18
I1
sg19
I0
sg20
I6
sg21
I0
sg22
I0
sg23
I0
sg24
I0
sbssg355
S'\xf1\xe0\xc7%%\xbd\xfc@\x12\x02\x96\xbb\x0c\xbf\x9fq'
p768
ssS'create_serializers_questions_question_history_remark_serializer'
p769
(dp770
g571
(dp771
g573
S'create_serializers_questions_question_history_remark_serializer.html'
p772
sg575
S'create/serializers/questions/question_history_remark_serializer'
p773
sg577
g13
(g14
g15
NtRp774
(dp775
g18
I1
sg19
I0
sg20
I6
sg21
I0
sg22
I0
sg23
I0
sg24
I0
sbssg580
S'\xb53\t\x11\xa6\x1b\xf7!D"\xc8\xa3\xcb41\x9d'
p776
ssS'user_system_models_roles_tests___init__'
p777
(dp778
g42
(dp779
g431
S'user_system_models_roles_tests___init__.html'
p780
sg433
S'user_system/models/roles/tests/__init__'
p781
sg435
g13
(g14
g15
NtRp782
(dp783
g18
I1
sg19
I0
sg20
I0
sg21
I0
sg22
I0
sg23
I0
sg24
I0
sbssg51
S'\x19g\xdfM\x1a\x019\xaf\x1baIeR\xe5u\xa7'
p784
ssS'create_serializers_tags___init__'
p785
(dp786
S'index'
p787
(dp788
S'html_filename'
p789
S'create_serializers_tags___init__.html'
p790
sS'name'
p791
S'create/serializers/tags/__init__'
p792
sS'nums'
p793
g13
(g14
g15
NtRp794
(dp795
g18
I1
sg19
I0
sg20
I0
sg21
I0
sg22
I0
sg23
I0
sg24
I0
sbssS'hash'
p796
S'\x19g\xdfM\x1a\x019\xaf\x1baIeR\xe5u\xa7'
p797
ssS'privilege_urls'
p798
(dp799
g284
(dp800
g93
S'privilege_urls.html'
p801
sg95
S'privilege/urls'
p802
sg97
g13
(g14
g15
NtRp803
(dp804
g18
I1
sg19
I0
sg20
I7
sg21
I0
sg22
I0
sg23
I0
sg24
I0
sbssg290
S'\x86\xbf\xcdE\x8fy\xc9\xd5\x13I\x11#-J.\xe8'
p805
ssS'flipped_helpers_time_helper'
p806
(dp807
g116
(dp808
g174
S'flipped_helpers_time_helper.html'
p809
sg176
S'flipped/helpers/time_helper'
p810
sg178
g13
(g14
g15
NtRp811
(dp812
g18
I1
sg19
I2
sg20
I26
sg21
I0
sg22
I0
sg23
I17
sg24
I2
sbssg122
S'\xc4\x9dt\xafh9\xf1\xa5\xbe\xbd\xe6\xb9G\xd0\xcf\xad'
p813
ssS'user_system_serializers_users_teacher_mapping_serializer'
p814
(dp815
g294
(dp816
g174
S'user_system_serializers_users_teacher_mapping_serializer.html'
p817
sg176
S'user_system/serializers/users/teacher_mapping_serializer'
p818
sg178
g13
(g14
g15
NtRp819
(dp820
g18
I1
sg19
I0
sg20
I7
sg21
I0
sg22
I0
sg23
I0
sg24
I0
sbssg300
S'\x13\xf7\x06\xcfN\x17?&3\xc5\xf6]6uj\xc1'
p821
ssS'api_logging_views_LoggingView'
p822
(dp823
g294
(dp824
g174
S'api_logging_views_LoggingView.html'
p825
sg176
S'api_logging/views/LoggingView'
p826
sg178
g13
(g14
g15
NtRp827
(dp828
g18
I1
sg19
I8
sg20
I41
sg21
I0
sg22
I0
sg23
I27
sg24
I8
sbssg300
S'\xe3\xefQ\x1e\x9e\xec\xea\xa7\xc5\x05\xb9\x90\xf6\xf3\x88\x9b'
p829
ssS'create_models_questions_tests_test_question_type_model'
p830
(dp831
g42
(dp832
g44
S'create_models_questions_tests_test_question_type_model.html'
p833
sg46
S'create/models/questions/tests/test_question_type_model'
p834
sg48
g13
(g14
g15
NtRp835
(dp836
g18
I1
sg19
I0
sg20
I17
sg21
I0
sg22
I0
sg23
I0
sg24
I0
sbssg51
S'e\x1b\x19\xbb)\x89\xff\xfa\xe5\xca\xde\x08\x08CUL'
p837
ssS'teach_models___init__'
p838
(dp839
g55
(dp840
g31
S'teach_models___init__.html'
p841
sg33
S'teach/models/__init__'
p842
sg35
g13
(g14
g15
NtRp843
(dp844
g18
I1
sg19
I0
sg20
I4
sg21
I0
sg22
I0
sg23
I0
sg24
I0
sbssg64
S'\x18\xb4\x9a\xf6\x89\xe4oR\x81\xdbb\xf7E\xf9\x92\xb7'
p845
ssS'create_models_tags_skill_model'
p846
(dp847
g383
(dp848
g44
S'create_models_tags_skill_model.html'
p849
sg46
S'create/models/tags/skill_model'
p850
sg48
g13
(g14
g15
NtRp851
(dp852
g18
I1
sg19
I0
sg20
I10
sg21
I0
sg22
I0
sg23
I0
sg24
I0
sbssg389
S'B&\x06S\xb6\x85A\xdbx\xd4\xc7#]\x13\xe1\xca'
p853
ssS'learn_tests'
p854
(dp855
g55
(dp856
g57
S'learn_tests.html'
p857
sg59
S'learn/tests'
p858
sg61
g13
(g14
g15
NtRp859
(dp860
g18
I1
sg19
I0
sg20
I1
sg21
I0
sg22
I0
sg23
I0
sg24
I0
sbssg64
S'\xe3\x7f\x86\xaa\x99\xac\xc8\x80\xdblE4\x0f\xe7\x1d\xfc'
p861
ssS'api_logging_managers'
p862
(dp863
g545
(dp864
g44
S'api_logging_managers.html'
p865
sg46
S'api_logging/managers'
p866
sg48
g13
(g14
g15
NtRp867
(dp868
g18
I1
sg19
I0
sg20
I4
sg21
I0
sg22
I0
sg23
I0
sg24
I0
sbssg551
S'\xef\xaf\x98\xcd63\x10\x1c\xc1\xfcP\x12\xc1\xe7\xa5\xc7'
p869
ssS'api_logging_views___init__'
p870
(dp871
g294
(dp872
g174
S'api_logging_views___init__.html'
p873
sg176
S'api_logging/views/__init__'
p874
sg178
g13
(g14
g15
NtRp875
(dp876
g18
I1
sg19
I0
sg20
I3
sg21
I0
sg22
I0
sg23
I0
sg24
I0
sbssg300
S'_Q\x0f\x0cLb\xd8Cm\xa7\x81g\xaa\x95\xbdd'
p877
ssS'create_models_books___init__'
p878
(dp879
g349
(dp880
g761
S'create_models_books___init__.html'
p881
sg763
S'create/models/books/__init__'
p882
sg765
g13
(g14
g15
NtRp883
(dp884
g18
I1
sg19
I0
sg20
I4
sg21
I0
sg22
I0
sg23
I0
sg24
I0
sbssg355
S'\xba\x14\x87u\xc0\x80\x96\x82s\x8d\x8bU)\x1c\xc3\x91'
p885
ssS'flipped_helpers___init__'
p886
(dp887
g42
(dp888
g174
S'flipped_helpers___init__.html'
p889
sg176
S'flipped/helpers/__init__'
p890
sg178
g13
(g14
g15
NtRp891
(dp892
g18
I1
sg19
I0
sg20
I5
sg21
I0
sg22
I0
sg23
I0
sg24
I0
sbssg51
S'\x95\xcd\x9a\xf9\xe3\xd8\xff\x94\x81\xae\x9c\x14\xc0P\x95~'
p893
ssS'create_models_quests_tests_test_quest_model'
p894
(dp895
g103
(dp896
g527
S'create_models_quests_tests_test_quest_model.html'
p897
sg529
S'create/models/quests/tests/test_quest_model'
p898
sg531
g13
(g14
g15
NtRp899
(dp900
g18
I1
sg19
I4
sg20
I48
sg21
I0
sg22
I0
sg23
I0
sg24
I0
sbssg112
S'\xcdF\x98\xd0k\x14\x9e\xe4\x90\x96\x03\xddNdiH'
p901
ssS'privilege_views_privileges_user_privilege_view'
p902
(dp903
g284
(dp904
g93
S'privilege_views_privileges_user_privilege_view.html'
p905
sg95
S'privilege/views/privileges/user_privilege_view'
p906
sg97
g13
(g14
g15
NtRp907
(dp908
g18
I1
sg19
I10
sg20
I38
sg21
I0
sg22
I0
sg23
I22
sg24
I10
sbssg290
S'\xf699\xa5A\xca\x9e\x91,l\xf8\x8dI[PR'
p909
ssS'learn_models_daily_quests_tests_test_daily_quest_model'
p910
(dp911
g55
(dp912
g174
S'learn_models_daily_quests_tests_test_daily_quest_model.html'
p913
sg176
S'learn/models/daily_quests/tests/test_daily_quest_model'
p914
sg178
g13
(g14
g15
NtRp915
(dp916
g18
I1
sg19
I2
sg20
I59
sg21
I0
sg22
I0
sg23
I0
sg24
I0
sbssg64
S'\xf0jj\xb6D\xd2\xa2\x84\xdcX\x98H!\xb1=\x1b'
p917
ssS'create_views_books_tests_test_get_book_by_id_view'
p918
(dp919
S'index'
p920
(dp921
g93
S'create_views_books_tests_test_get_book_by_id_view.html'
p922
sg95
S'create/views/books/tests/test_get_book_by_id_view'
p923
sg97
g13
(g14
g15
NtRp924
(dp925
g18
I1
sg19
I0
sg20
I20
sg21
I0
sg22
I0
sg23
I0
sg24
I0
sbssS'hash'
p926
S'\xc88x\xaf\x84e\xaa6\x17\xdf\x0e\x8c`\xcaAO'
p927
ssS'user_system_views_apps_tests_test_get_app_by_id_view'
p928
(dp929
g42
(dp930
g44
S'user_system_views_apps_tests_test_get_app_by_id_view.html'
p931
sg46
S'user_system/views/apps/tests/test_get_app_by_id_view'
p932
sg48
g13
(g14
g15
NtRp933
(dp934
g18
I1
sg19
I0
sg20
I17
sg21
I0
sg22
I0
sg23
I0
sg24
I0
sbssg51
S"\xa2\x1eG%r{-~\xc5=\x8aj\x99X!'"
p935
ssS'teach_views_daily_quest_templates_daily_quest_template_view'
p936
(dp937
g55
(dp938
g174
S'teach_views_daily_quest_templates_daily_quest_template_view.html'
p939
sg176
S'teach/views/daily_quest_templates/daily_quest_template_view'
p940
sg178
g13
(g14
g15
NtRp941
(dp942
g18
I1
sg19
I18
sg20
I54
sg21
I0
sg22
I0
sg23
I33
sg24
I18
sbssg64
S'\x06\x9c2z\x06\xb6\xc0\xbf\x8b\xe2\x9b_E\xe0P\x1a'
p943
ssS'api_logging_views_summary___init__'
p944
(dp945
g294
(dp946
g174
S'api_logging_views_summary___init__.html'
p947
sg176
S'api_logging/views/summary/__init__'
p948
sg178
g13
(g14
g15
NtRp949
(dp950
g18
I1
sg19
I0
sg20
I1
sg21
I0
sg22
I0
sg23
I0
sg24
I0
sbssg300
S'\x04\x12bh\x96\xc5j\x88dm\x0e\xd7\xe1\x94Lq'
p951
ssS'privilege_serializers___init__'
p952
(dp953
g284
(dp954
g93
S'privilege_serializers___init__.html'
p955
sg95
S'privilege/serializers/__init__'
p956
sg97
g13
(g14
g15
NtRp957
(dp958
g18
I1
sg19
I0
sg20
I1
sg21
I0
sg22
I0
sg23
I0
sg24
I0
sbssg290
S'\x13V\xca}S\xd3\x98Rp?\xb0\xe1\x904>b'
p959
ssS'create_models_books_tests_test_book_subchapter_model'
p960
(dp961
g349
(dp962
S'html_filename'
p963
S'create_models_books_tests_test_book_subchapter_model.html'
p964
sS'name'
p965
S'create/models/books/tests/test_book_subchapter_model'
p966
sS'nums'
p967
g13
(g14
g15
NtRp968
(dp969
g18
I1
sg19
I0
sg20
I42
sg21
I0
sg22
I0
sg23
I0
sg24
I0
sbssg355
S'\xe3*\xba\x94d#\xcd\t\xc9\xb8\x05w\nz\xb8\xc0'
p970
ssS'learn_models_daily_quests___init__'
p971
(dp972
g55
(dp973
S'html_filename'
p974
S'learn_models_daily_quests___init__.html'
p975
sS'name'
p976
S'learn/models/daily_quests/__init__'
p977
sS'nums'
p978
g13
(g14
g15
NtRp979
(dp980
g18
I1
sg19
I0
sg20
I2
sg21
I0
sg22
I0
sg23
I0
sg24
I0
sbssg64
S's\x11\xbfV}\xab\xfcdH\xcf4Q\xc5\x86\xa3\xb4'
p981
ssS'create_models_daily_quest_templates_tests___init__'
p982
(dp983
g239
(dp984
g241
S'create_models_daily_quest_templates_tests___init__.html'
p985
sg243
S'create/models/daily_quest_templates/tests/__init__'
p986
sg245
g13
(g14
g15
NtRp987
(dp988
g18
I1
sg19
I0
sg20
I0
sg21
I0
sg22
I0
sg23
I0
sg24
I0
sbssg248
S'\x19g\xdfM\x1a\x019\xaf\x1baIeR\xe5u\xa7'
p989
ssS'create_models_tags_tag_model'
p990
(dp991
g383
(dp992
g93
S'create_models_tags_tag_model.html'
p993
sg95
S'create/models/tags/tag_model'
p994
sg97
g13
(g14
g15
NtRp995
(dp996
g18
I1
sg19
I0
sg20
I37
sg21
I0
sg22
I0
sg23
I0
sg24
I0
sbssg389
S'rJ0\x91]\xe5\xfc\xa8\x8c\x00}RI\x18\xf0\x07'
p997
ssS'create_views_tags___init__'
p998
(dp999
g675
(dp1000
S'html_filename'
p1001
S'create_views_tags___init__.html'
p1002
sS'name'
p1003
S'create/views/tags/__init__'
p1004
sS'nums'
p1005
g13
(g14
g15
NtRp1006
(dp1007
g18
I1
sg19
I0
sg20
I1
sg21
I0
sg22
I0
sg23
I0
sg24
I0
sbssg681
S'|r<\xaap\x01\xb1\xbc"\xe5\xbb\xd8\x87\xa5\xd2H'
p1008
ssS'create_serializers_tags_skill_serializer'
p1009
(dp1010
g349
(dp1011
g761
S'create_serializers_tags_skill_serializer.html'
p1012
sg763
S'create/serializers/tags/skill_serializer'
p1013
sg765
g13
(g14
g15
NtRp1014
(dp1015
g18
I1
sg19
I0
sg20
I6
sg21
I0
sg22
I0
sg23
I0
sg24
I0
sbssg355
S'\x1b\x10O\xca\xd5i\\\x06C\x00q}\xf43\xcb\xa6'
p1016
ssS'create_views_questions_question_history_remark_view'
p1017
(dp1018
g571
(dp1019
g573
S'create_views_questions_question_history_remark_view.html'
p1020
sg575
S'create/views/questions/question_history_remark_view'
p1021
sg577
g13
(g14
g15
NtRp1022
(dp1023
g18
I1
sg19
I0
sg20
I14
sg21
I0
sg22
I0
sg23
I0
sg24
I0
sbssg580
S'{4O\x0e\xb3\xad\xc8\xb72\x8f\x1f\x11\xc0\x9e\xa0\xd6'
p1024
ssS'create_serializers_tags_tag_type_serializer'
p1025
(dp1026
g349
(dp1027
g761
S'create_serializers_tags_tag_type_serializer.html'
p1028
sg763
S'create/serializers/tags/tag_type_serializer'
p1029
sg765
g13
(g14
g15
NtRp1030
(dp1031
g18
I1
sg19
I0
sg20
I6
sg21
I0
sg22
I0
sg23
I0
sg24
I0
sbssg355
S'\xc3\xfd\x81\x18{\x97,\xb1\xb6\x9f\xee\xf2kZ\x1e\x02'
p1032
ssS'learn_models_points_tests_test_point_history_model'
p1033
(dp1034
g294
(dp1035
g174
S'learn_models_points_tests_test_point_history_model.html'
p1036
sg176
S'learn/models/points/tests/test_point_history_model'
p1037
sg178
g13
(g14
g15
NtRp1038
(dp1039
g18
I1
sg19
I0
sg20
I22
sg21
I0
sg22
I0
sg23
I0
sg24
I0
sbssg300
S"\x8d\xd7\x96\xe4\x1b\xf6\xc4\xed:B\x13\xa9MA'\x99"
p1040
ssS'learn_serializers_daily_quests_daily_quest_serializer'
p1041
(dp1042
g55
(dp1043
g174
S'learn_serializers_daily_quests_daily_quest_serializer.html'
p1044
sg176
S'learn/serializers/daily_quests/daily_quest_serializer'
p1045
sg178
g13
(g14
g15
NtRp1046
(dp1047
g18
I1
sg19
I2
sg20
I61
sg21
I0
sg22
I0
sg23
I27
sg24
I2
sbssg64
S'\x00\xdc)#U\xf8\x03\xc2\xa7T\x0b\xa9\x13\xa3ds'
p1048
ssS'user_system_models_users_tests_test_user_profile_picture_model'
p1049
(dp1050
g116
(dp1051
g31
S'user_system_models_users_tests_test_user_profile_picture_model.html'
p1052
sg33
S'user_system/models/users/tests/test_user_profile_picture_model'
p1053
sg35
g13
(g14
g15
NtRp1054
(dp1055
g18
I1
sg19
I0
sg20
I21
sg21
I0
sg22
I0
sg23
I0
sg24
I0
sbssg122
S'\xbc/\x93\xf6\x8a\x1eC\x99t\xd0\xdc\x96\xf8\x970\xc9'
p1056
ssS'teach_views_teacher_news_feed_teacher_news_feed_view'
p1057
(dp1058
g294
(dp1059
g174
S'teach_views_teacher_news_feed_teacher_news_feed_view.html'
p1060
sg176
S'teach/views/teacher_news_feed/teacher_news_feed_view'
p1061
sg178
g13
(g14
g15
NtRp1062
(dp1063
g18
I1
sg19
I2
sg20
I40
sg21
I0
sg22
I0
sg23
I20
sg24
I2
sbssg300
S'\xb5\x1f\xeb\x1ec\xf1\x9e\x91\xdap\xb3%\xa2\xeb\x9a\xd8'
p1064
ssS'user_system_serializers_schools_organization_serializer'
p1065
(dp1066
g55
(dp1067
g57
S'user_system_serializers_schools_organization_serializer.html'
p1068
sg59
S'user_system/serializers/schools/organization_serializer'
p1069
sg61
g13
(g14
g15
NtRp1070
(dp1071
g18
I1
sg19
I0
sg20
I7
sg21
I0
sg22
I0
sg23
I0
sg24
I0
sbssg64
S'90~\xe3\x8f\x8e\xd9m\xb4\nInn\x03(\xdb'
p1072
ssS'create_models_books_book_subchapter_model'
p1073
(dp1074
g349
(dp1075
S'html_filename'
p1076
S'create_models_books_book_subchapter_model.html'
p1077
sS'name'
p1078
S'create/models/books/book_subchapter_model'
p1079
sS'nums'
p1080
g13
(g14
g15
NtRp1081
(dp1082
g18
I1
sg19
I2
sg20
I45
sg21
I0
sg22
I0
sg23
I0
sg24
I0
sbssg355
S'\xbc\xee\x91\x7f;\xa9\x15\xeaau\xef\x82\x07"\x02\xd3'
p1083
ssS'teach_views_summaries_leaderboard_view'
p1084
(dp1085
g294
(dp1086
g185
S'teach_views_summaries_leaderboard_view.html'
p1087
sg187
S'teach/views/summaries/leaderboard_view'
p1088
sg189
g13
(g14
g15
NtRp1089
(dp1090
g18
I1
sg19
I60
sg20
I149
sg21
I0
sg22
I0
sg23
I120
sg24
I60
sbssg300
S'\xac\xc4\x8a\xc1U8}\x03\xf9\x02\x91\xb0\xa8\x05{\x8f'
p1091
ssS'api_logging_serializers_modal_loggings_modal_user_history_serializer'
p1092
(dp1093
g294
(dp1094
g174
S'api_logging_serializers_modal_loggings_modal_user_history_serializer.html'
p1095
sg176
S'api_logging/serializers/modal_loggings/modal_user_history_serializer'
p1096
sg178
g13
(g14
g15
NtRp1097
(dp1098
g18
I1
sg19
I0
sg20
I7
sg21
I0
sg22
I0
sg23
I0
sg24
I0
sbssg300
S'\xc2\x8f\x89\xe8$\x9c~\x81\xa9\xca\xf8h\x80\xb7hp'
p1099
ssS'learn_models_points___init__'
p1100
(dp1101
g294
(dp1102
g174
S'learn_models_points___init__.html'
p1103
sg176
S'learn/models/points/__init__'
p1104
sg178
g13
(g14
g15
NtRp1105
(dp1106
g18
I1
sg19
I0
sg20
I2
sg21
I0
sg22
I0
sg23
I0
sg24
I0
sbssg300
S'\x1d_\xe1\xcei\x14zD\xd7\x8e\xa1\xf55\x1f\xd1\xd5'
p1107
ssS'api_logging_models___init__'
p1108
(dp1109
g294
(dp1110
g174
S'api_logging_models___init__.html'
p1111
sg176
S'api_logging/models/__init__'
p1112
sg178
g13
(g14
g15
NtRp1113
(dp1114
g18
I1
sg19
I0
sg20
I3
sg21
I0
sg22
I0
sg23
I0
sg24
I0
sbssg300
S'\x9d\r\xed\xba\xe8h@\xa4\xfa(\xf2\xdf\xf5IZ\x9c'
p1115
ssS'teach_serializers___init__'
p1116
(dp1117
g55
(dp1118
g57
S'teach_serializers___init__.html'
p1119
sg59
S'teach/serializers/__init__'
p1120
sg61
g13
(g14
g15
NtRp1121
(dp1122
g18
I1
sg19
I0
sg20
I3
sg21
I0
sg22
I0
sg23
I0
sg24
I0
sbssg64
S'3\x13\x12&\xcb\xecC\xee\xa8lR\x1a\x1d\xb9M\xba'
p1123
ssS'user_system_views_signups_tests___init__'
p1124
(dp1125
g42
(dp1126
g431
S'user_system_views_signups_tests___init__.html'
p1127
sg433
S'user_system/views/signups/tests/__init__'
p1128
sg435
g13
(g14
g15
NtRp1129
(dp1130
g18
I1
sg19
I0
sg20
I1
sg21
I0
sg22
I0
sg23
I0
sg24
I0
sbssg51
S'\xbc\xd6\xeb\xb3\xba\xcaz\xf7{\xd4B\xb5}l\xdf\x96'
p1131
ssS'create_models_daily_quests_tests___init__'
p1132
(dp1133
g739
(dp1134
g741
S'create_models_daily_quests_tests___init__.html'
p1135
sg743
S'create/models/daily_quests/tests/__init__'
p1136
sg745
g13
(g14
g15
NtRp1137
(dp1138
g18
I1
sg19
I0
sg20
I1
sg21
I0
sg22
I0
sg23
I0
sg24
I0
sbssg748
S'\xbc\xd6\xeb\xb3\xba\xcaz\xf7{\xd4B\xb5}l\xdf\x96'
p1139
ssS'api_logging_models_api_logging___init__'
p1140
(dp1141
g294
(dp1142
g174
S'api_logging_models_api_logging___init__.html'
p1143
sg176
S'api_logging/models/api_logging/__init__'
p1144
sg178
g13
(g14
g15
NtRp1145
(dp1146
g18
I1
sg19
I0
sg20
I1
sg21
I0
sg22
I0
sg23
I0
sg24
I0
sbssg300
S'C\xe8\xcf\x97-\xc6\xd3j\xcb\x90*\xea\xd3w\x83\xe0'
p1147
ssS'create_serializers_daily_quests_daily_quest_serializer'
p1148
(dp1149
g239
(dp1150
S'html_filename'
p1151
S'create_serializers_daily_quests_daily_quest_serializer.html'
p1152
sS'name'
p1153
S'create/serializers/daily_quests/daily_quest_serializer'
p1154
sS'nums'
p1155
g13
(g14
g15
NtRp1156
(dp1157
g18
I1
sg19
I0
sg20
I12
sg21
I0
sg22
I0
sg23
I3
sg24
I0
sbssg248
S' $!\xf6\xe6\x92\x9f\x9f\xafy\xe9\x8b\x1c\xf4\xb6\x01'
p1158
ssS'user_system_views_signups_email_signup_view'
p1159
(dp1160
g42
(dp1161
g44
S'user_system_views_signups_email_signup_view.html'
p1162
sg46
S'user_system/views/signups/email_signup_view'
p1163
sg48
g13
(g14
g15
NtRp1164
(dp1165
g18
I1
sg19
I8
sg20
I44
sg21
I0
sg22
I0
sg23
I0
sg24
I0
sbssg51
S'&G\xd1\xc4{\x9b\xbf\x14\x92F\xbe\x13\xeer\x84\x1b'
p1166
ssS'teach_views_teacher_tags___init__'
p1167
(dp1168
g55
(dp1169
g57
S'teach_views_teacher_tags___init__.html'
p1170
sg59
S'teach/views/teacher_tags/__init__'
p1171
sg61
g13
(g14
g15
NtRp1172
(dp1173
g18
I1
sg19
I0
sg20
I1
sg21
I0
sg22
I0
sg23
I0
sg24
I0
sbssg64
S'cp\x00\xdc\x00\xe5M\x9f\x1f\xaa\xb2Y\xd9%\x1d"'
p1174
ssS'flipped_helpers_success_response_helper'
p1175
(dp1176
g42
(dp1177
g44
S'flipped_helpers_success_response_helper.html'
p1178
sg46
S'flipped/helpers/success_response_helper'
p1179
sg48
g13
(g14
g15
NtRp1180
(dp1181
g18
I1
sg19
I2
sg20
I4
sg21
I0
sg22
I0
sg23
I0
sg24
I0
sbssg51
S"'Bp\xbe\xd9\xfa\x92\xa4;\xb6\t\xa8\xfe<\x9d\xa5"
p1182
ssS'create_models_questions_question_model'
p1183
(dp1184
g42
(dp1185
S'html_filename'
p1186
S'create_models_questions_question_model.html'
p1187
sS'name'
p1188
S'create/models/questions/question_model'
p1189
sS'nums'
p1190
g13
(g14
g15
NtRp1191
(dp1192
g18
I1
sg19
I0
sg20
I48
sg21
I0
sg22
I0
sg23
I0
sg24
I0
sbssg51
S'\tGy\xb6\x10\x17dQ\xd7\xd8N>\xd5\x96R\x82'
p1193
ssS'user_system_models_roles___init__'
p1194
(dp1195
g42
(dp1196
g431
S'user_system_models_roles___init__.html'
p1197
sg433
S'user_system/models/roles/__init__'
p1198
sg435
g13
(g14
g15
NtRp1199
(dp1200
g18
I1
sg19
I0
sg20
I2
sg21
I0
sg22
I0
sg23
I0
sg24
I0
sbssg51
S'\xa3\xc2\r\x1b\x1bC\x85\xa5\xads\x7fl\xab`*1'
p1201
ssS'create_models_questions_question_history_model'
p1202
(dp1203
g42
(dp1204
g93
S'create_models_questions_question_history_model.html'
p1205
sg95
S'create/models/questions/question_history_model'
p1206
sg97
g13
(g14
g15
NtRp1207
(dp1208
g18
I1
sg19
I8
sg20
I68
sg21
I0
sg22
I2
sg23
I2
sg24
I2
sbssg51
S'\xd0\xe9\x0bm$j\x15\x9b@\x93\xe5C\xa7\x97\xfd\xf4'
p1209
ssS'user_system_views_signups_tests_test_facebook_signup_view'
p1210
(dp1211
g42
(dp1212
g44
S'user_system_views_signups_tests_test_facebook_signup_view.html'
p1213
sg46
S'user_system/views/signups/tests/test_facebook_signup_view'
p1214
sg48
g13
(g14
g15
NtRp1215
(dp1216
g18
I1
sg19
I0
sg20
I60
sg21
I0
sg22
I0
sg23
I0
sg24
I0
sbssg51
S'\x93<\xc8]\x14\t\xa8/\xdd\xd1\xa4]\xfbp!\xbd'
p1217
ssS'user_system_models_users_tests_test_teacher_mapping_model'
p1218
(dp1219
g29
(dp1220
g331
S'user_system_models_users_tests_test_teacher_mapping_model.html'
p1221
sg333
S'user_system/models/users/tests/test_teacher_mapping_model'
p1222
sg335
g13
(g14
g15
NtRp1223
(dp1224
g18
I1
sg19
I0
sg20
I22
sg21
I0
sg22
I0
sg23
I0
sg24
I0
sbssg38
S"\xbb\xd7\xe2\xf2\x7f\x9b\xc5j\xd6'(\xda\xa5\x14\\\x12"
p1225
ssS'learn_views_daily_quests_daily_quest_view'
p1226
(dp1227
g55
(dp1228
g174
S'learn_views_daily_quests_daily_quest_view.html'
p1229
sg176
S'learn/views/daily_quests/daily_quest_view'
p1230
sg178
g13
(g14
g15
NtRp1231
(dp1232
g18
I1
sg19
I16
sg20
I61
sg21
I0
sg22
I0
sg23
I40
sg24
I16
sbssg64
S'\xceiA\x93\xcd>Y\x85L\x07Oz\x9aw\xae;'
p1233
ssS'teach_views_summaries_class_ranking_view'
p1234
(dp1235
g294
(dp1236
g185
S'teach_views_summaries_class_ranking_view.html'
p1237
sg187
S'teach/views/summaries/class_ranking_view'
p1238
sg189
g13
(g14
g15
NtRp1239
(dp1240
g18
I1
sg19
I26
sg20
I84
sg21
I0
sg22
I0
sg23
I61
sg24
I26
sbssg300
S'\xc1\x17}V\x95%y\xe0\xe2\xdc<\x85\x02\x96\xb9\x1a'
p1241
ssS'privilege_models_privileges_tests___init__'
p1242
(dp1243
g284
(dp1244
g93
S'privilege_models_privileges_tests___init__.html'
p1245
sg95
S'privilege/models/privileges/tests/__init__'
p1246
sg97
g13
(g14
g15
NtRp1247
(dp1248
g18
I1
sg19
I0
sg20
I0
sg21
I0
sg22
I0
sg23
I0
sg24
I0
sbssg290
S'\x19g\xdfM\x1a\x019\xaf\x1baIeR\xe5u\xa7'
p1249
ssS'teach_serializers_teacher_chapters___init__'
p1250
(dp1251
g55
(dp1252
g57
S'teach_serializers_teacher_chapters___init__.html'
p1253
sg59
S'teach/serializers/teacher_chapters/__init__'
p1254
sg61
g13
(g14
g15
NtRp1255
(dp1256
g18
I1
sg19
I0
sg20
I1
sg21
I0
sg22
I0
sg23
I0
sg24
I0
sbssg64
S'\xfe\x88\xda\x10\xec!\x99\xb7-\x8d\x90E\xe18K\xb1'
p1257
ssS'api_logging_admin'
p1258
(dp1259
g545
(dp1260
g174
S'api_logging_admin.html'
p1261
sg176
S'api_logging/admin'
p1262
sg178
g13
(g14
g15
NtRp1263
(dp1264
g18
I1
sg19
I0
sg20
I10
sg21
I0
sg22
I0
sg23
I0
sg24
I0
sbssg551
S'T\x93\x03\xbcO>\xd1\xd6\xf4\xd3\x15r{\xad0B'
p1265
ssS'user_system_models_users_user_streak_history_model'
p1266
(dp1267
g294
(dp1268
g686
S'user_system_models_users_user_streak_history_model.html'
p1269
sg688
S'user_system/models/users/user_streak_history_model'
p1270
sg690
g13
(g14
g15
NtRp1271
(dp1272
g18
I1
sg19
I0
sg20
I28
sg21
I0
sg22
I0
sg23
I3
sg24
I0
sbssg300
S'\xe6\x1dQ\xc8OB\xcc\xac\x9f|\xcf\xce\xa6{\xb8\x13'
p1273
ssS'create_models_tags_tests_test_concept_model'
p1274
(dp1275
g383
(dp1276
g44
S'create_models_tags_tests_test_concept_model.html'
p1277
sg46
S'create/models/tags/tests/test_concept_model'
p1278
sg48
g13
(g14
g15
NtRp1279
(dp1280
g18
I1
sg19
I0
sg20
I12
sg21
I0
sg22
I0
sg23
I0
sg24
I0
sbssg389
S'@\x95\xd9\xf7\xa5\xc4\x0c\xb1\xad\xa4\xf5p\x95\x06!N'
p1281
ssS'privilege_models_privileges_privilege_model'
p1282
(dp1283
g284
(dp1284
g93
S'privilege_models_privileges_privilege_model.html'
p1285
sg95
S'privilege/models/privileges/privilege_model'
p1286
sg97
g13
(g14
g15
NtRp1287
(dp1288
g18
I1
sg19
I0
sg20
I29
sg21
I0
sg22
I0
sg23
I3
sg24
I0
sbssg290
S'\xf0 V@\xd29p\x1a\x12\x14.\x15\\m\xd4X'
p1289
ssS'create_models_questions_tests_test_question_choice_model'
p1290
(dp1291
g42
(dp1292
S'html_filename'
p1293
S'create_models_questions_tests_test_question_choice_model.html'
p1294
sS'name'
p1295
S'create/models/questions/tests/test_question_choice_model'
p1296
sS'nums'
p1297
g13
(g14
g15
NtRp1298
(dp1299
g18
I1
sg19
I0
sg20
I46
sg21
I0
sg22
I0
sg23
I0
sg24
I0
sbssg51
S'$\x08N\xfb\nW\n\xecG\x9a[\xb7\xe2\xc1\xbd\x06'
p1300
ssS'user_system_views_users_tests_test_get_user_by_id_view'
p1301
(dp1302
g42
(dp1303
g93
S'user_system_views_users_tests_test_get_user_by_id_view.html'
p1304
sg95
S'user_system/views/users/tests/test_get_user_by_id_view'
p1305
sg97
g13
(g14
g15
NtRp1306
(dp1307
g18
I1
sg19
I0
sg20
I27
sg21
I0
sg22
I0
sg23
I0
sg24
I0
sbssg51
S'\xd7\x7f\x0c\xb9\xda.\xf1\x82\xb4\xdf*z\x10(o)'
p1308
ssS'create_models___init__'
p1309
(dp1310
g42
(dp1311
g57
S'create_models___init__.html'
p1312
sg59
S'create/models/__init__'
p1313
sg61
g13
(g14
g15
NtRp1314
(dp1315
g18
I1
sg19
I0
sg20
I6
sg21
I0
sg22
I0
sg23
I0
sg24
I0
sbssg51
S'\x1a\xde\xff\xb8/\x08R\x8e\xff\x13\x8b\xeb`\xfd\x98\xf8'
p1316
ssS'create_serializers_tags_tag_history_serializer'
p1317
(dp1318
S'index'
p1319
(dp1320
g105
S'create_serializers_tags_tag_history_serializer.html'
p1321
sg107
S'create/serializers/tags/tag_history_serializer'
p1322
sg109
g13
(g14
g15
NtRp1323
(dp1324
g18
I1
sg19
I0
sg20
I14
sg21
I0
sg22
I0
sg23
I0
sg24
I0
sbssS'hash'
p1325
S'\xc1"\xf9l4\xe66\x8a\xd0)r!\x05Y+\xd2'
p1326
ssS'create_serializers_daily_quest_templates___init__'
p1327
(dp1328
g239
(dp1329
g241
S'create_serializers_daily_quest_templates___init__.html'
p1330
sg243
S'create/serializers/daily_quest_templates/__init__'
p1331
sg245
g13
(g14
g15
NtRp1332
(dp1333
g18
I1
sg19
I0
sg20
I1
sg21
I0
sg22
I0
sg23
I0
sg24
I0
sbssg248
S'\xa2\xd34\x1b\xe2+\x16\xa9un\x8f\xa5\xe6\xc4\\p'
p1334
ssS'user_system_views_roles_tests___init__'
p1335
(dp1336
g42
(dp1337
g431
S'user_system_views_roles_tests___init__.html'
p1338
sg433
S'user_system/views/roles/tests/__init__'
p1339
sg435
g13
(g14
g15
NtRp1340
(dp1341
g18
I1
sg19
I0
sg20
I0
sg21
I0
sg22
I0
sg23
I0
sg24
I0
sbssg51
S'\x19g\xdfM\x1a\x019\xaf\x1baIeR\xe5u\xa7'
p1342
ssS'api_logging_models_modal_logging___init__'
p1343
(dp1344
g294
(dp1345
g174
S'api_logging_models_modal_logging___init__.html'
p1346
sg176
S'api_logging/models/modal_logging/__init__'
p1347
sg178
g13
(g14
g15
NtRp1348
(dp1349
g18
I1
sg19
I0
sg20
I2
sg21
I0
sg22
I0
sg23
I0
sg24
I0
sbssg300
S"+\x16\xa4\xd1\xf5m\xa9\x9e*\xd0\xa23O'}-"
p1350
ssS'user_system_serializers___init__'
p1351
(dp1352
g42
(dp1353
g57
S'user_system_serializers___init__.html'
p1354
sg59
S'user_system/serializers/__init__'
p1355
sg61
g13
(g14
g15
NtRp1356
(dp1357
g18
I1
sg19
I0
sg20
I3
sg21
I0
sg22
I0
sg23
I0
sg24
I0
sbssg51
S'\x85\x12\xbd.\x85L4\xea\t4\x9c\xcf\xb5 \x81\xb4'
p1358
ssS'teach_models_daily_quest_templates_tests___init__'
p1359
(dp1360
g55
(dp1361
g57
S'teach_models_daily_quest_templates_tests___init__.html'
p1362
sg59
S'teach/models/daily_quest_templates/tests/__init__'
p1363
sg61
g13
(g14
g15
NtRp1364
(dp1365
g18
I1
sg19
I0
sg20
I0
sg21
I0
sg22
I0
sg23
I0
sg24
I0
sbssg64
S'\x19g\xdfM\x1a\x019\xaf\x1baIeR\xe5u\xa7'
p1366
ssS'user_system_serializers_schools_grade_serializer'
p1367
(dp1368
g116
(dp1369
g31
S'user_system_serializers_schools_grade_serializer.html'
p1370
sg33
S'user_system/serializers/schools/grade_serializer'
p1371
sg35
g13
(g14
g15
NtRp1372
(dp1373
g18
I1
sg19
I0
sg20
I9
sg21
I0
sg22
I0
sg23
I0
sg24
I0
sbssg122
S"()\x18t._h'\x1c\x9bV\x14KS\xf6,"
p1374
ssS'create_models_questions_tests___init__'
p1375
(dp1376
g42
(dp1377
g431
S'create_models_questions_tests___init__.html'
p1378
sg433
S'create/models/questions/tests/__init__'
p1379
sg435
g13
(g14
g15
NtRp1380
(dp1381
g18
I1
sg19
I0
sg20
I0
sg21
I0
sg22
I0
sg23
I0
sg24
I0
sbssg51
S'\x19g\xdfM\x1a\x019\xaf\x1baIeR\xe5u\xa7'
p1382
ssS'teach_views___init__'
p1383
(dp1384
g55
(dp1385
g174
S'teach_views___init__.html'
p1386
sg176
S'teach/views/__init__'
p1387
sg178
g13
(g14
g15
NtRp1388
(dp1389
g18
I1
sg19
I0
sg20
I3
sg21
I0
sg22
I0
sg23
I0
sg24
I0
sbssg64
S'\xddN\x8bL\xe7O\xba\x93\x86:\xc2\x15\x13gc6'
p1390
ssS'privilege_admin'
p1391
(dp1392
g284
(dp1393
g93
S'privilege_admin.html'
p1394
sg95
S'privilege/admin'
p1395
sg97
g13
(g14
g15
NtRp1396
(dp1397
g18
I1
sg19
I0
sg20
I4
sg21
I0
sg22
I0
sg23
I0
sg24
I0
sbssg290
S'\xa1\x9fb^\xc7l\x00\x1f\x0e\x9c\x06\x08\x99Kx\x94'
p1398
ssS'teach_models_teacher_tags_tests_test_teacher_tag_model'
p1399
(dp1400
g55
(dp1401
g57
S'teach_models_teacher_tags_tests_test_teacher_tag_model.html'
p1402
sg59
S'teach/models/teacher_tags/tests/test_teacher_tag_model'
p1403
sg61
g13
(g14
g15
NtRp1404
(dp1405
g18
I1
sg19
I0
sg20
I30
sg21
I0
sg22
I0
sg23
I0
sg24
I0
sbssg64
S'\xf3\x06\xd8\xd6\x93V\xab\xdc\x87\x05\xf6vJ\xa9`\xe6'
p1406
ssS'user_system_models_schools_academic_year_model'
p1407
(dp1408
g203
(dp1409
g331
S'user_system_models_schools_academic_year_model.html'
p1410
sg333
S'user_system/models/schools/academic_year_model'
p1411
sg335
g13
(g14
g15
NtRp1412
(dp1413
g18
I1
sg19
I0
sg20
I23
sg21
I0
sg22
I0
sg23
I0
sg24
I0
sbssg212
S'\xf1Zl\xd3\xdd4\xdcX&\xdf\xf0<.\x11FY'
p1414
ssS'learn_models___init__'
p1415
(dp1416
g55
(dp1417
g174
S'learn_models___init__.html'
p1418
sg176
S'learn/models/__init__'
p1419
sg178
g13
(g14
g15
NtRp1420
(dp1421
g18
I1
sg19
I0
sg20
I2
sg21
I0
sg22
I0
sg23
I0
sg24
I0
sbssg64
S'J\x07\xbfU\xe2\xd2\xed\xadY\xe2o$\x84\x86bd'
p1422
ssS'user_system_models_users_student_profile_model'
p1423
(dp1424
g229
(dp1425
g174
S'user_system_models_users_student_profile_model.html'
p1426
sg176
S'user_system/models/users/student_profile_model'
p1427
sg178
g13
(g14
g15
NtRp1428
(dp1429
g18
I1
sg19
I2
sg20
I41
sg21
I0
sg22
I0
sg23
I0
sg24
I0
sbssg235
S'q\x83gLh\x1e\xeb\xb5+w&@\xe2"=\xb8'
p1430
ssS'user_system_models_schools_organization_model'
p1431
(dp1432
g203
(dp1433
g174
S'user_system_models_schools_organization_model.html'
p1434
sg176
S'user_system/models/schools/organization_model'
p1435
sg178
g13
(g14
g15
NtRp1436
(dp1437
g18
I1
sg19
I0
sg20
I28
sg21
I0
sg22
I0
sg23
I1
sg24
I0
sbssg212
S'\x1b?-+\t\x91D=\x17\r\x10s=\xfd\xea\r'
p1438
ssS'create_views_books_tests_test_hide_book_view'
p1439
(dp1440
g920
(dp1441
g44
S'create_views_books_tests_test_hide_book_view.html'
p1442
sg46
S'create/views/books/tests/test_hide_book_view'
p1443
sg48
g13
(g14
g15
NtRp1444
(dp1445
g18
I1
sg19
I0
sg20
I25
sg21
I0
sg22
I0
sg23
I0
sg24
I0
sbssg926
S'\xe1\x17\x16\xca\x8a\xc5c\x1b\xce\xab\xb8\xf9G\x03\x9dQ'
p1446
ssS'teach_serializers_teacher_tags_teacher_tag_serializer'
p1447
(dp1448
g55
(dp1449
g31
S'teach_serializers_teacher_tags_teacher_tag_serializer.html'
p1450
sg33
S'teach/serializers/teacher_tags/teacher_tag_serializer'
p1451
sg35
g13
(g14
g15
NtRp1452
(dp1453
g18
I1
sg19
I2
sg20
I26
sg21
I0
sg22
I0
sg23
I9
sg24
I2
sbssg64
S'\x07C\xdf\xcd\x92\x1eS\x1a#\x8e\x9d\x88Dj\n\x12'
p1454
ssS'create_models_daily_quests_tests_test_daily_quest_model'
p1455
(dp1456
g739
(dp1457
g241
S'create_models_daily_quests_tests_test_daily_quest_model.html'
p1458
sg243
S'create/models/daily_quests/tests/test_daily_quest_model'
p1459
sg245
g13
(g14
g15
NtRp1460
(dp1461
g18
I1
sg19
I2
sg20
I51
sg21
I0
sg22
I0
sg23
I0
sg24
I0
sbssg748
S'\x16\x87\xb8\xd4K\xb4\x87\xf9\x84\xc4V\x94\x17\xf6\x1a\xf0'
p1462
ssS'create_admin'
p1463
(dp1464
g42
(dp1465
g57
S'create_admin.html'
p1466
sg59
S'create/admin'
p1467
sg61
g13
(g14
g15
NtRp1468
(dp1469
g18
I1
sg19
I0
sg20
I20
sg21
I0
sg22
I0
sg23
I0
sg24
I0
sbssg51
S'\x03\xe6\xc2\xd5\xa8\xb1\x92\xa5/8\x0fZCN\r\x08'
p1470
ssS'create_views_questions_tests_test_get_question_list_view'
p1471
(dp1472
g42
(dp1473
g93
S'create_views_questions_tests_test_get_question_list_view.html'
p1474
sg95
S'create/views/questions/tests/test_get_question_list_view'
p1475
sg97
g13
(g14
g15
NtRp1476
(dp1477
g18
I1
sg19
I0
sg20
I32
sg21
I0
sg22
I0
sg23
I0
sg24
I0
sbssg51
S'\xa2&\x88;1\\\xa2 \xb4&ejB\xd1%\x06'
p1478
ssS'user_system_views_logins___init__'
p1479
(dp1480
g42
(dp1481
g431
S'user_system_views_logins___init__.html'
p1482
sg433
S'user_system/views/logins/__init__'
p1483
sg435
g13
(g14
g15
NtRp1484
(dp1485
g18
I1
sg19
I0
sg20
I2
sg21
I0
sg22
I0
sg23
I0
sg24
I0
sbssg51
S'\xa0\xd3\xaas\xc2\xb93+ED.\xe5\xfe\xf2\xad\x87'
p1486
ssS'create_views_daily_quest_copies___init__'
p1487
(dp1488
g401
(dp1489
S'html_filename'
p1490
S'create_views_daily_quest_copies___init__.html'
p1491
sS'name'
p1492
S'create/views/daily_quest_copies/__init__'
p1493
sS'nums'
p1494
g13
(g14
g15
NtRp1495
(dp1496
g18
I1
sg19
I0
sg20
I1
sg21
I0
sg22
I0
sg23
I0
sg24
I0
sbssg410
S"'\xb6_z\x90s\x92\xdd\xc7\xb2\x87d\xba\xe24X"
p1497
ssS'create_views_quests_tests_test_hide_quest_view'
p1498
(dp1499
g6
(dp1500
g8
S'create_views_quests_tests_test_hide_quest_view.html'
p1501
sg10
S'create/views/quests/tests/test_hide_quest_view'
p1502
sg12
g13
(g14
g15
NtRp1503
(dp1504
g18
I1
sg19
I0
sg20
I26
sg21
I0
sg22
I0
sg23
I0
sg24
I0
sbssg25
S'G\xcb\xcf\xbb~*\xa2i\xd2\xff\x81\x81\xf0)G\xda'
p1505
ssS'create_views_books_tests_test_add_tag_to_subchapter_view'
p1506
(dp1507
S'index'
p1508
(dp1509
g44
S'create_views_books_tests_test_add_tag_to_subchapter_view.html'
p1510
sg46
S'create/views/books/tests/test_add_tag_to_subchapter_view'
p1511
sg48
g13
(g14
g15
NtRp1512
(dp1513
g18
I1
sg19
I0
sg20
I40
sg21
I0
sg22
I0
sg23
I0
sg24
I0
sbssS'hash'
p1514
S'\xb78\xf4p\xcd\xec\xca\xaa\x93\xb9\xda\xa8Yo37'
p1515
ssS'api_logging_models_modal_logging_modal_user_history_model'
p1516
(dp1517
g294
(dp1518
g174
S'api_logging_models_modal_logging_modal_user_history_model.html'
p1519
sg176
S'api_logging/models/modal_logging/modal_user_history_model'
p1520
sg178
g13
(g14
g15
NtRp1521
(dp1522
g18
I1
sg19
I0
sg20
I15
sg21
I0
sg22
I0
sg23
I3
sg24
I0
sbssg300
S'\xabX\xd42<$9z\xc1]\xc12\xe9\xd8\xbf\xd2'
p1523
ssS'create_views_daily_quests_daily_quest_view'
p1524
(dp1525
g239
(dp1526
g241
S'create_views_daily_quests_daily_quest_view.html'
p1527
sg243
S'create/views/daily_quests/daily_quest_view'
p1528
sg245
g13
(g14
g15
NtRp1529
(dp1530
g18
I1
sg19
I8
sg20
I34
sg21
I0
sg22
I0
sg23
I17
sg24
I8
sbssg248
S'\x9b\xbe99\x1cP\x1d\xd8iT&I;\xb4\xbbf'
p1531
ssS'user_system_managers_user_manager'
p1532
(dp1533
g294
(dp1534
g174
S'user_system_managers_user_manager.html'
p1535
sg176
S'user_system/managers/user_manager'
p1536
sg178
g13
(g14
g15
NtRp1537
(dp1538
g18
I1
sg19
I18
sg20
I46
sg21
I0
sg22
I0
sg23
I37
sg24
I18
sbssg300
S'\xac\xa0\xe1\xde\xdcl\x13`\xfe\xfc\xff\xb5\x18=(\xf4'
p1539
ssS'create_models_quests_tests___init__'
p1540
(dp1541
g103
(dp1542
g601
S'create_models_quests_tests___init__.html'
p1543
sg603
S'create/models/quests/tests/__init__'
p1544
sg605
g13
(g14
g15
NtRp1545
(dp1546
g18
I1
sg19
I0
sg20
I1
sg21
I0
sg22
I0
sg23
I0
sg24
I0
sbssg112
S'\xbc\xd6\xeb\xb3\xba\xcaz\xf7{\xd4B\xb5}l\xdf\x96'
p1547
ssS'create_views_questions___init__'
p1548
(dp1549
g42
(dp1550
g573
S'create_views_questions___init__.html'
p1551
sg575
S'create/views/questions/__init__'
p1552
sg577
g13
(g14
g15
NtRp1553
(dp1554
g18
I1
sg19
I0
sg20
I3
sg21
I0
sg22
I0
sg23
I0
sg24
I0
sbssg51
S'h\x154\xc5\xe58\xa8\xc8\xa9\xa6\xbea?\xcf?i'
p1555
ssS'user_system_views_users_create_teacher_view'
p1556
(dp1557
g294
(dp1558
g174
S'user_system_views_users_create_teacher_view.html'
p1559
sg176
S'user_system/views/users/create_teacher_view'
p1560
sg178
g13
(g14
g15
NtRp1561
(dp1562
g18
I1
sg19
I2
sg20
I34
sg21
I0
sg22
I0
sg23
I21
sg24
I2
sbssg300
S'=\xee\xed^jo\xc1\xebz\xedP\xf9\x91n\xec\x8d'
p1563
ssS'user_system_models_apps_tests___init__'
p1564
(dp1565
g42
(dp1566
g431
S'user_system_models_apps_tests___init__.html'
p1567
sg433
S'user_system/models/apps/tests/__init__'
p1568
sg435
g13
(g14
g15
NtRp1569
(dp1570
g18
I1
sg19
I0
sg20
I0
sg21
I0
sg22
I0
sg23
I0
sg24
I0
sbssg51
S'\x19g\xdfM\x1a\x019\xaf\x1baIeR\xe5u\xa7'
p1571
ssS'privilege_serializers_privileges_user_privilege_serializer'
p1572
(dp1573
g284
(dp1574
g93
S'privilege_serializers_privileges_user_privilege_serializer.html'
p1575
sg95
S'privilege/serializers/privileges/user_privilege_serializer'
p1576
sg97
g13
(g14
g15
NtRp1577
(dp1578
g18
I1
sg19
I0
sg20
I9
sg21
I0
sg22
I0
sg23
I0
sg24
I0
sbssg290
S'#\xe5\xcc\x9as5y,\xa1HiQ\xa2c\xdb2'
p1579
ssS'teach_views_summaries_daily_quest_daily_summary_view'
p1580
(dp1581
g294
(dp1582
g174
S'teach_views_summaries_daily_quest_daily_summary_view.html'
p1583
sg176
S'teach/views/summaries/daily_quest_daily_summary_view'
p1584
sg178
g13
(g14
g15
NtRp1585
(dp1586
g18
I1
sg19
I12
sg20
I61
sg21
I0
sg22
I0
sg23
I39
sg24
I12
sbssg300
S'\x06\\F.\x8c\xd3M\x8e\xc5\xc9\xd5<\x13V\xd6C'
p1587
ssS'create_views_summary___init__'
p1588
(dp1589
S'index'
p1590
(dp1591
g1076
S'create_views_summary___init__.html'
p1592
sg1078
S'create/views/summary/__init__'
p1593
sg1080
g13
(g14
g15
NtRp1594
(dp1595
g18
I1
sg19
I0
sg20
I1
sg21
I0
sg22
I0
sg23
I0
sg24
I0
sbssS'hash'
p1596
S'#\xb7\xbd\xa1M\xe4\xa0\x05\xf5x\x057hU[\xca'
p1597
ssS'create_models_daily_quest_templates___init__'
p1598
(dp1599
g239
(dp1600
g241
S'create_models_daily_quest_templates___init__.html'
p1601
sg243
S'create/models/daily_quest_templates/__init__'
p1602
sg245
g13
(g14
g15
NtRp1603
(dp1604
g18
I1
sg19
I0
sg20
I1
sg21
I0
sg22
I0
sg23
I0
sg24
I0
sbssg248
S'\x12\x89x\xb9F\xfb=b\x04\xddy\xb4\xccZb\xb8'
p1605
ssS'create_views_tags_tests_test_get_tag_by_id_view'
p1606
(dp1607
g675
(dp1608
g93
S'create_views_tags_tests_test_get_tag_by_id_view.html'
p1609
sg95
S'create/views/tags/tests/test_get_tag_by_id_view'
p1610
sg97
g13
(g14
g15
NtRp1611
(dp1612
g18
I1
sg19
I0
sg20
I20
sg21
I0
sg22
I0
sg23
I0
sg24
I0
sbssg681
S'T\xd5\xd7\xd9\xb8\x12\x81xj\xca\x90\xa41\xcf\x02]'
p1613
ssS'api_logging_models_user_activities___init__'
p1614
(dp1615
g294
(dp1616
g174
S'api_logging_models_user_activities___init__.html'
p1617
sg176
S'api_logging/models/user_activities/__init__'
p1618
sg178
g13
(g14
g15
NtRp1619
(dp1620
g18
I1
sg19
I0
sg20
I1
sg21
I0
sg22
I0
sg23
I0
sg24
I0
sbssg300
S'\xd9\xe2\xb9\xa8[\x85h\x8ep\xd5\x12TW1\x9d\x1b'
p1621
ssS'user_system_models_users_tests_test_user_profile_model'
p1622
(dp1623
g42
(dp1624
g93
S'user_system_models_users_tests_test_user_profile_model.html'
p1625
sg95
S'user_system/models/users/tests/test_user_profile_model'
p1626
sg97
g13
(g14
g15
NtRp1627
(dp1628
g18
I1
sg19
I0
sg20
I133
sg21
I0
sg22
I0
sg23
I0
sg24
I0
sbssg51
S'\xc1e\xe4\x0f%\xba\xad\x9b\x1ch\xca\x93\xf7$\xf9\xdb'
p1629
ssS'user_system_views_roles_tests_test_user_role_view'
p1630
(dp1631
g42
(dp1632
g44
S'user_system_views_roles_tests_test_user_role_view.html'
p1633
sg46
S'user_system/views/roles/tests/test_user_role_view'
p1634
sg48
g13
(g14
g15
NtRp1635
(dp1636
g18
I1
sg19
I0
sg20
I41
sg21
I0
sg22
I0
sg23
I0
sg24
I0
sbssg51
S'\xaf \x02-\xd3\xa9\xee\x1e7\x87\xa8[\xd9\xd8V\xd8'
p1637
ssS'user_system_views_apps_tests_test_get_apps_list_view'
p1638
(dp1639
g42
(dp1640
g44
S'user_system_views_apps_tests_test_get_apps_list_view.html'
p1641
sg46
S'user_system/views/apps/tests/test_get_apps_list_view'
p1642
sg48
g13
(g14
g15
NtRp1643
(dp1644
g18
I1
sg19
I0
sg20
I18
sg21
I0
sg22
I0
sg23
I0
sg24
I0
sbssg51
S'\x87\xab;"\x01p\xf9\xe5\xa6\xb1\xaej\x8egl\x99'
p1645
ssS'api_logging_models_user_activities_user_activity_model'
p1646
(dp1647
g294
(dp1648
g174
S'api_logging_models_user_activities_user_activity_model.html'
p1649
sg176
S'api_logging/models/user_activities/user_activity_model'
p1650
sg178
g13
(g14
g15
NtRp1651
(dp1652
g18
I1
sg19
I0
sg20
I11
sg21
I0
sg22
I0
sg23
I0
sg24
I0
sbssg300
S'f\xe2(\xd3\xddS\xfd\x1e\xf0d\xb2,\xb2\x8f\x8c\x18'
p1653
ssS'create_models_questions_question_type_model'
p1654
(dp1655
g42
(dp1656
g44
S'create_models_questions_question_type_model.html'
p1657
sg46
S'create/models/questions/question_type_model'
p1658
sg48
g13
(g14
g15
NtRp1659
(dp1660
g18
I1
sg19
I0
sg20
I19
sg21
I0
sg22
I0
sg23
I0
sg24
I0
sbssg51
S'\xb9\xe7I\x93\x8b\xa8\xa8H\x80\x02_\xf9\x87\xa2\xe7\xa5'
p1661
ssS'create_serializers_questions_question_type_serializer'
p1662
(dp1663
g42
(dp1664
g431
S'create_serializers_questions_question_type_serializer.html'
p1665
sg433
S'create/serializers/questions/question_type_serializer'
p1666
sg435
g13
(g14
g15
NtRp1667
(dp1668
g18
I1
sg19
I0
sg20
I6
sg21
I0
sg22
I0
sg23
I0
sg24
I0
sbssg51
S'!\x8a\x91KA:\x92\x13/\xdd\xd9\xc2?\x8b\xe1\xc6'
p1669
ssS'create_models_books_tests_test_book_model'
p1670
(dp1671
g349
(dp1672
S'html_filename'
p1673
S'create_models_books_tests_test_book_model.html'
p1674
sS'name'
p1675
S'create/models/books/tests/test_book_model'
p1676
sS'nums'
p1677
g13
(g14
g15
NtRp1678
(dp1679
g18
I1
sg19
I6
sg20
I44
sg21
I0
sg22
I0
sg23
I0
sg24
I0
sbssg355
S'\xff\x88\xcd\xb0\x80\xb2\x9d\xf7\xf9G\xb1.\xaf\xdd\x07\xd7'
p1680
ssS'create_serializers_daily_quests___init__'
p1681
(dp1682
g739
(dp1683
g241
S'create_serializers_daily_quests___init__.html'
p1684
sg243
S'create/serializers/daily_quests/__init__'
p1685
sg245
g13
(g14
g15
NtRp1686
(dp1687
g18
I1
sg19
I0
sg20
I1
sg21
I0
sg22
I0
sg23
I0
sg24
I0
sbssg748
S'N\xb8\x18\x1c\x0c\xc7\xca\x91\xa0|\xe1\x02L\xeeC\xbe'
p1688
ssS'create_models_questions_question_choice_model'
p1689
(dp1690
g42
(dp1691
g1293
S'create_models_questions_question_choice_model.html'
p1692
sg1295
S'create/models/questions/question_choice_model'
p1693
sg1297
g13
(g14
g15
NtRp1694
(dp1695
g18
I1
sg19
I0
sg20
I42
sg21
I0
sg22
I0
sg23
I0
sg24
I0
sbssg51
S'\xd7\xd8\x1f\xbf<\xee\xdd?}\xfe>\x82\\\x97\x15)'
p1696
ssS'flipped_helpers_tests___init__'
p1697
(dp1698
g42
(dp1699
g431
S'flipped_helpers_tests___init__.html'
p1700
sg433
S'flipped/helpers/tests/__init__'
p1701
sg435
g13
(g14
g15
NtRp1702
(dp1703
g18
I1
sg19
I0
sg20
I0
sg21
I0
sg22
I0
sg23
I0
sg24
I0
sbssg51
S'\x19g\xdfM\x1a\x019\xaf\x1baIeR\xe5u\xa7'
p1704
ssS'create_models_tags_tests_test_tag_model'
p1705
(dp1706
g383
(dp1707
S'html_filename'
p1708
S'create_models_tags_tests_test_tag_model.html'
p1709
sS'name'
p1710
S'create/models/tags/tests/test_tag_model'
p1711
sS'nums'
p1712
g13
(g14
g15
NtRp1713
(dp1714
g18
I1
sg19
I6
sg20
I52
sg21
I0
sg22
I0
sg23
I0
sg24
I0
sbssg389
S'1\x992\xc0\xbb\xb6d *5\xfa\xd2\xdc1\xb2\x92'
p1715
ssS'create_views_tags_tests_test_remove_prerequisite_view'
p1716
(dp1717
g304
(dp1718
g44
S'create_views_tags_tests_test_remove_prerequisite_view.html'
p1719
sg46
S'create/views/tags/tests/test_remove_prerequisite_view'
p1720
sg48
g13
(g14
g15
NtRp1721
(dp1722
g18
I1
sg19
I0
sg20
I31
sg21
I0
sg22
I0
sg23
I0
sg24
I0
sbssg310
S'\x8e\x8c~\xff\x85\x94\x8c~T\x7f\x80\x82W\x96\x19\x9c'
p1723
ssS'learn_models_points_tests_test_point_type_model'
p1724
(dp1725
g294
(dp1726
g174
S'learn_models_points_tests_test_point_type_model.html'
p1727
sg176
S'learn/models/points/tests/test_point_type_model'
p1728
sg178
g13
(g14
g15
NtRp1729
(dp1730
g18
I1
sg19
I0
sg20
I18
sg21
I0
sg22
I0
sg23
I0
sg24
I0
sbssg300
S'\x98Y\xdes\x81 \xdfe\xb63\xbc\xa1\xd6`$>'
p1731
ssS'teach_serializers_teacher_chapters_teacher_chapter_serializer'
p1732
(dp1733
g55
(dp1734
g57
S'teach_serializers_teacher_chapters_teacher_chapter_serializer.html'
p1735
sg59
S'teach/serializers/teacher_chapters/teacher_chapter_serializer'
p1736
sg61
g13
(g14
g15
NtRp1737
(dp1738
g18
I1
sg19
I0
sg20
I12
sg21
I0
sg22
I0
sg23
I0
sg24
I0
sbssg64
S'\xac\x9b\xf1Q\x91\xf4J\x03y\xc4\xa7\x9c\x996\x13a'
p1739
ssS'user_system_serializers_app_serializer'
p1740
(dp1741
g42
(dp1742
g431
S'user_system_serializers_app_serializer.html'
p1743
sg433
S'user_system/serializers/app_serializer'
p1744
sg435
g13
(g14
g15
NtRp1745
(dp1746
g18
I1
sg19
I0
sg20
I7
sg21
I0
sg22
I0
sg23
I0
sg24
I0
sbssg51
S'\xc1\x87\xd6\x1b\xbe\x8f\xfb\xdd\x1a\xa9\x92A\xe2\xc3\xe2\xf1'
p1747
ssS'user_system_models_apps_tests_test_app_model'
p1748
(dp1749
g42
(dp1750
g44
S'user_system_models_apps_tests_test_app_model.html'
p1751
sg46
S'user_system/models/apps/tests/test_app_model'
p1752
sg48
g13
(g14
g15
NtRp1753
(dp1754
g18
I1
sg19
I0
sg20
I18
sg21
I0
sg22
I0
sg23
I0
sg24
I0
sbssg51
S'\xfb\xfc\xe0#\xe2\n\x8e\x9e\x94\xa8\x83\xc5\xb1U\xa3a'
p1755
ssS'create_models_books_book_history_model'
p1756
(dp1757
g349
(dp1758
g93
S'create_models_books_book_history_model.html'
p1759
sg95
S'create/models/books/book_history_model'
p1760
sg97
g13
(g14
g15
NtRp1761
(dp1762
g18
I1
sg19
I4
sg20
I43
sg21
I0
sg22
I1
sg23
I0
sg24
I1
sbssg355
S'\xd71\x9e\xd0\x9bqR\xb9(!\x9f2\x10O|\xeb'
p1763
ssS'teach_models_teacher_chapters_tests___init__'
p1764
(dp1765
g55
(dp1766
g57
S'teach_models_teacher_chapters_tests___init__.html'
p1767
sg59
S'teach/models/teacher_chapters/tests/__init__'
p1768
sg61
g13
(g14
g15
NtRp1769
(dp1770
g18
I1
sg19
I0
sg20
I0
sg21
I0
sg22
I0
sg23
I0
sg24
I0
sbssg64
S'\x19g\xdfM\x1a\x019\xaf\x1baIeR\xe5u\xa7'
p1771
ssS'create_views_quests_tests_test_remove_tag_view'
p1772
(dp1773
g6
(dp1774
g8
S'create_views_quests_tests_test_remove_tag_view.html'
p1775
sg10
S'create/views/quests/tests/test_remove_tag_view'
p1776
sg12
g13
(g14
g15
NtRp1777
(dp1778
g18
I1
sg19
I0
sg20
I0
sg21
I0
sg22
I0
sg23
I0
sg24
I0
sbssg25
S'\x19g\xdfM\x1a\x019\xaf\x1baIeR\xe5u\xa7'
p1779
ssS'create_models_books_book_model'
p1780
(dp1781
g349
(dp1782
S'html_filename'
p1783
S'create_models_books_book_model.html'
p1784
sS'name'
p1785
S'create/models/books/book_model'
p1786
sS'nums'
p1787
g13
(g14
g15
NtRp1788
(dp1789
g18
I1
sg19
I4
sg20
I37
sg21
I0
sg22
I0
sg23
I0
sg24
I0
sbssg355
S'Z\x88%\xfa\x8c7\x1e\xf9\x06qW\x80O\xe1\x85.'
p1790
ssS'create_views_books_tests_test_remove_chapter_view'
p1791
(dp1792
g126
(dp1793
g44
S'create_views_books_tests_test_remove_chapter_view.html'
p1794
sg46
S'create/views/books/tests/test_remove_chapter_view'
p1795
sg48
g13
(g14
g15
NtRp1796
(dp1797
g18
I1
sg19
I0
sg20
I39
sg21
I0
sg22
I0
sg23
I0
sg24
I0
sbssg132
S'lJ\xdc\xbe\xe2>\x9d\xde\xb5+ia5;\x042'
p1798
ssS'create_models_question_datasets___init__'
p1799
(dp1800
g144
(dp1801
g146
S'create_models_question_datasets___init__.html'
p1802
sg148
S'create/models/question_datasets/__init__'
p1803
sg150
g13
(g14
g15
NtRp1804
(dp1805
g18
I1
sg19
I0
sg20
I1
sg21
I0
sg22
I0
sg23
I0
sg24
I0
sbssg153
S'\xeb\xb7>&t\x02-\xeaaJ,\x8a\xae\xc3\x1a]'
p1806
ssS'privilege_views___init__'
p1807
(dp1808
g284
(dp1809
g93
S'privilege_views___init__.html'
p1810
sg95
S'privilege/views/__init__'
p1811
sg97
g13
(g14
g15
NtRp1812
(dp1813
g18
I1
sg19
I0
sg20
I0
sg21
I0
sg22
I0
sg23
I0
sg24
I0
sbssg290
S'\x19g\xdfM\x1a\x019\xaf\x1baIeR\xe5u\xa7'
p1814
ssS'user_system_views_users_tests___init__'
p1815
(dp1816
g42
(dp1817
g431
S'user_system_views_users_tests___init__.html'
p1818
sg433
S'user_system/views/users/tests/__init__'
p1819
sg435
g13
(g14
g15
NtRp1820
(dp1821
g18
I1
sg19
I0
sg20
I0
sg21
I0
sg22
I0
sg23
I0
sg24
I0
sbssg51
S'\x19g\xdfM\x1a\x019\xaf\x1baIeR\xe5u\xa7'
p1822
ssS'create_models_tags_tests_test_skill_model'
p1823
(dp1824
g383
(dp1825
g44
S'create_models_tags_tests_test_skill_model.html'
p1826
sg46
S'create/models/tags/tests/test_skill_model'
p1827
sg48
g13
(g14
g15
NtRp1828
(dp1829
g18
I1
sg19
I0
sg20
I12
sg21
I0
sg22
I0
sg23
I0
sg24
I0
sbssg389
S'\x08\x9e\x87e#\x02\x06O\x02l!\x0e\xe8\xeb\xc0.'
p1830
ssS'create_views_tags_tests___init__'
p1831
(dp1832
g675
(dp1833
g1001
S'create_views_tags_tests___init__.html'
p1834
sg1003
S'create/views/tags/tests/__init__'
p1835
sg1005
g13
(g14
g15
NtRp1836
(dp1837
g18
I1
sg19
I0
sg20
I0
sg21
I0
sg22
I0
sg23
I0
sg24
I0
sbssg681
S'\x19g\xdfM\x1a\x019\xaf\x1baIeR\xe5u\xa7'
p1838
ssS'user_system_views_signups_hardcoded___init__'
p1839
(dp1840
g42
(dp1841
g431
S'user_system_views_signups_hardcoded___init__.html'
p1842
sg433
S'user_system/views/signups/hardcoded/__init__'
p1843
sg435
g13
(g14
g15
NtRp1844
(dp1845
g18
I1
sg19
I0
sg20
I1
sg21
I0
sg22
I0
sg23
I0
sg24
I0
sbssg51
S'?\xfac\x0c\x91\xa4\xd6\xd4\x1d\xe4\x99\xc2[\x83\xfc\xdf'
p1846
ssS'create_models_daily_quest_templates_daily_quest_template_model'
p1847
(dp1848
g239
(dp1849
g241
S'create_models_daily_quest_templates_daily_quest_template_model.html'
p1850
sg243
S'create/models/daily_quest_templates/daily_quest_template_model'
p1851
sg245
g13
(g14
g15
NtRp1852
(dp1853
g18
I1
sg19
I0
sg20
I29
sg21
I0
sg22
I0
sg23
I0
sg24
I0
sbssg248
S'm:\xfa\nsk\x85\xa8p\x96\xc3\xca\xa1c\xb0+'
p1854
ssS'create_models_books_tests_test_book_chapter_model'
p1855
(dp1856
g349
(dp1857
g1673
S'create_models_books_tests_test_book_chapter_model.html'
p1858
sg1675
S'create/models/books/tests/test_book_chapter_model'
p1859
sg1677
g13
(g14
g15
NtRp1860
(dp1861
g18
I1
sg19
I8
sg20
I55
sg21
I0
sg22
I0
sg23
I0
sg24
I0
sbssg355
S'\xc4\x1a\xd7\x12s\xd3V\xef\xac\xa7%\x0c\xdc\x17\x05c'
p1862
ssS'user_system_views_signups_tests_test_verify_email_view'
p1863
(dp1864
g42
(dp1865
g44
S'user_system_views_signups_tests_test_verify_email_view.html'
p1866
sg46
S'user_system/views/signups/tests/test_verify_email_view'
p1867
sg48
g13
(g14
g15
NtRp1868
(dp1869
g18
I1
sg19
I0
sg20
I51
sg21
I0
sg22
I0
sg23
I0
sg24
I0
sbssg51
S'\x81\xacj\x9d\x1f\xa9o\xcc\x1e\xa3\xe59^YT\x9e'
p1870
ssS'teach_models_daily_quest_templates___init__'
p1871
(dp1872
g55
(dp1873
g57
S'teach_models_daily_quest_templates___init__.html'
p1874
sg59
S'teach/models/daily_quest_templates/__init__'
p1875
sg61
g13
(g14
g15
NtRp1876
(dp1877
g18
I1
sg19
I0
sg20
I1
sg21
I0
sg22
I0
sg23
I0
sg24
I0
sbssg64
S'\x12\x89x\xb9F\xfb=b\x04\xddy\xb4\xccZb\xb8'
p1878
ssS'teach_serializers_daily_quest_templates_daily_quest_template_serializer'
p1879
(dp1880
g55
(dp1881
g174
S'teach_serializers_daily_quest_templates_daily_quest_template_serializer.html'
p1882
sg176
S'teach/serializers/daily_quest_templates/daily_quest_template_serializer'
p1883
sg178
g13
(g14
g15
NtRp1884
(dp1885
g18
I1
sg19
I0
sg20
I12
sg21
I0
sg22
I0
sg23
I0
sg24
I0
sbssg64
S"\xd9\x0bcm\x95?'mB\xf9\xdd\xa1\xfc>:="
p1886
ssS'create_views_questions_tests_test_add_tag_view'
p1887
(dp1888
g216
(dp1889
g218
S'create_views_questions_tests_test_add_tag_view.html'
p1890
sg220
S'create/views/questions/tests/test_add_tag_view'
p1891
sg222
g13
(g14
g15
NtRp1892
(dp1893
g18
I1
sg19
I0
sg20
I35
sg21
I0
sg22
I0
sg23
I0
sg24
I0
sbssg225
S'\x8e\x13\xdd\xbd\xba\r&,-|&W-a`\x7f'
p1894
ssS'create_views_quests_quest_view'
p1895
(dp1896
g103
(dp1897
g974
S'create_views_quests_quest_view.html'
p1898
sg976
S'create/views/quests/quest_view'
p1899
sg978
g13
(g14
g15
NtRp1900
(dp1901
g18
I1
sg19
I84
sg20
I249
sg21
I0
sg22
I0
sg23
I178
sg24
I78
sbssg112
S'(\xa2UK\xe2}\xa8\xe0\xc9 3#\xec\x01\xfd\x16'
p1902
ssS'privilege_models_privileges_tests_test_privilege_model'
p1903
(dp1904
g284
(dp1905
g93
S'privilege_models_privileges_tests_test_privilege_model.html'
p1906
sg95
S'privilege/models/privileges/tests/test_privilege_model'
p1907
sg97
g13
(g14
g15
NtRp1908
(dp1909
g18
I1
sg19
I0
sg20
I22
sg21
I0
sg22
I0
sg23
I0
sg24
I0
sbssg290
S'\xf5\xd2]\xa4\x17\xf5-l\xba\xfe\xd5N\xa8-k\x80'
p1910
ssS'api_logging_models'
p1911
(dp1912
g545
(dp1913
g713
S'api_logging_models.html'
p1914
sg715
S'api_logging/models'
p1915
sg717
g13
(g14
g15
NtRp1916
(dp1917
g18
I1
sg19
I0
sg20
I21
sg21
I0
sg22
I0
sg23
I0
sg24
I0
sbssg551
S'\x0c\x96WFX%\xe9\xcf+\xcf\xc2s\xa7a1\xbd'
p1918
ssS'user_system_models_schools_tests_test_grade_model'
p1919
(dp1920
g229
(dp1921
g31
S'user_system_models_schools_tests_test_grade_model.html'
p1922
sg33
S'user_system/models/schools/tests/test_grade_model'
p1923
sg35
g13
(g14
g15
NtRp1924
(dp1925
g18
I1
sg19
I0
sg20
I24
sg21
I0
sg22
I0
sg23
I0
sg24
I0
sbssg235
S'\x1e|\xb0\x10\x05\x9c\xb5\xe9\xbc\xff\x8a\xaan\xdf\xd4\xb2'
p1926
ssS'user_system_views_logins_tests_test_facebook_login_view'
p1927
(dp1928
g42
(dp1929
g44
S'user_system_views_logins_tests_test_facebook_login_view.html'
p1930
sg46
S'user_system/views/logins/tests/test_facebook_login_view'
p1931
sg48
g13
(g14
g15
NtRp1932
(dp1933
g18
I1
sg19
I0
sg20
I51
sg21
I0
sg22
I0
sg23
I0
sg24
I0
sbssg51
S'\x8eg\xfbA\xbdf+\x81\xe9\x8a\x16\x82\xe9\xe3\xc0\xf4'
p1934
ssS'create_models_daily_quests_daily_quest_model'
p1935
(dp1936
g739
(dp1937
g1490
S'create_models_daily_quests_daily_quest_model.html'
p1938
sg1492
S'create/models/daily_quests/daily_quest_model'
p1939
sg1494
g13
(g14
g15
NtRp1940
(dp1941
g18
I1
sg19
I2
sg20
I48
sg21
I0
sg22
I0
sg23
I6
sg24
I2
sbssg748
S'\xae\'/"f\x1014\xdd\x0e\x85\xf4\x91\x02\\`'
p1942
ssS'user_system_views_signups_tests_test_email_signup_view'
p1943
(dp1944
g42
(dp1945
g44
S'user_system_views_signups_tests_test_email_signup_view.html'
p1946
sg46
S'user_system/views/signups/tests/test_email_signup_view'
p1947
sg48
g13
(g14
g15
NtRp1948
(dp1949
g18
I1
sg19
I0
sg20
I51
sg21
I0
sg22
I0
sg23
I0
sg24
I0
sbssg51
S'\xa3\xb2\xaf-\x99\xe3]\xcc\xe6\x8b\xeb\xf63=I\xb4'
p1950
ssS'user_system_models_schools_tests_test_organization_model'
p1951
(dp1952
g203
(dp1953
g44
S'user_system_models_schools_tests_test_organization_model.html'
p1954
sg46
S'user_system/models/schools/tests/test_organization_model'
p1955
sg48
g13
(g14
g15
NtRp1956
(dp1957
g18
I1
sg19
I0
sg20
I24
sg21
I0
sg22
I0
sg23
I0
sg24
I0
sbssg212
S'\xeb?\x1b\x02\xc8gO\x05\xad\x0f\xa1K\xb3\xd7\xb7t'
p1958
ssS'create_serializers_books_book_subchapter_serializer'
p1959
(dp1960
g349
(dp1961
g1151
S'create_serializers_books_book_subchapter_serializer.html'
p1962
sg1153
S'create/serializers/books/book_subchapter_serializer'
p1963
sg1155
g13
(g14
g15
NtRp1964
(dp1965
g18
I1
sg19
I0
sg20
I18
sg21
I0
sg22
I0
sg23
I3
sg24
I0
sbssg355
S'89\x89\x89\xd8\x94\xd2l\x98G]\xad\xe1\xf7\x93\xfc'
p1966
ssS'create_views_books_book_subchapter_view'
p1967
(dp1968
g1508
(dp1969
g44
S'create_views_books_book_subchapter_view.html'
p1970
sg46
S'create/views/books/book_subchapter_view'
p1971
sg48
g13
(g14
g15
NtRp1972
(dp1973
g18
I1
sg19
I8
sg20
I46
sg21
I0
sg22
I0
sg23
I0
sg24
I0
sbssg1514
S'\x0e\xa6\x19V\xf0\xf3;\xa2\x8d \xd8i\xb7*D\x87'
p1974
ssS'user_system_models_roles_tests_test_role_model'
p1975
(dp1976
g42
(dp1977
g44
S'user_system_models_roles_tests_test_role_model.html'
p1978
sg46
S'user_system/models/roles/tests/test_role_model'
p1979
sg48
g13
(g14
g15
NtRp1980
(dp1981
g18
I1
sg19
I0
sg20
I20
sg21
I0
sg22
I0
sg23
I0
sg24
I0
sbssg51
S'\xef\xba\x956\x96\xbc:\xa0\x0f\x00\x84\x80\x0elh\xed'
p1982
ssS'user_system_views_signups_verify_email_view'
p1983
(dp1984
g42
(dp1985
g44
S'user_system_views_signups_verify_email_view.html'
p1986
sg46
S'user_system/views/signups/verify_email_view'
p1987
sg48
g13
(g14
g15
NtRp1988
(dp1989
g18
I1
sg19
I6
sg20
I26
sg21
I0
sg22
I0
sg23
I0
sg24
I0
sbssg51
S"B+;\xbf\xb1A\x1f\n\x94\x0e\xeb\xd0\xf1Y'l"
p1990
ssS'user_system_views_logins_email_login_view'
p1991
(dp1992
g42
(dp1993
g174
S'user_system_views_logins_email_login_view.html'
p1994
sg176
S'user_system/views/logins/email_login_view'
p1995
sg178
g13
(g14
g15
NtRp1996
(dp1997
g18
I1
sg19
I8
sg20
I35
sg21
I0
sg22
I0
sg23
I0
sg24
I0
sbssg51
S'\x9e\xe3\x8e\xf9o\x8aYC\xa2\xcb\xe7\xbd\x94\xe1O\x1a'
p1998
ssS'user_system_serializers_users_list_user_serializer'
p1999
(dp2000
g42
(dp2001
g44
S'user_system_serializers_users_list_user_serializer.html'
p2002
sg46
S'user_system/serializers/users/list_user_serializer'
p2003
sg48
g13
(g14
g15
NtRp2004
(dp2005
g18
I1
sg19
I0
sg20
I18
sg21
I0
sg22
I0
sg23
I0
sg24
I0
sbssg51
S'\xdfK>6\xe0\x8d\xcd\xd4/O\xef\xaa\xd0\x9efX'
p2006
ssS'create_views_question_datasets_question_dataset_view'
p2007
(dp2008
g144
(dp2009
g146
S'create_views_question_datasets_question_dataset_view.html'
p2010
sg148
S'create/views/question_datasets/question_dataset_view'
p2011
sg150
g13
(g14
g15
NtRp2012
(dp2013
g18
I1
sg19
I4
sg20
I20
sg21
I0
sg22
I0
sg23
I5
sg24
I4
sbssg153
S'\x01\xfb\xf2\x86m\xd4\xf9\xc3\xe6\xb6\x11\x96u;\x1ez'
p2014
ssS'create_views_quests_tests_test_remove_question_template_view'
p2015
(dp2016
g6
(dp2017
g8
S'create_views_quests_tests_test_remove_question_template_view.html'
p2018
sg10
S'create/views/quests/tests/test_remove_question_template_view'
p2019
sg12
g13
(g14
g15
NtRp2020
(dp2021
g18
I1
sg19
I0
sg20
I0
sg21
I0
sg22
I0
sg23
I0
sg24
I0
sbssg25
S'\x19g\xdfM\x1a\x019\xaf\x1baIeR\xe5u\xa7'
p2022
ssS'user_system_serializers_users_user_profile_update_request_serializer'
p2023
(dp2024
g116
(dp2025
S'html_filename'
p2026
S'user_system_serializers_users_user_profile_update_request_serializer.html'
p2027
sS'name'
p2028
S'user_system/serializers/users/user_profile_update_request_serializer'
p2029
sS'nums'
p2030
g13
(g14
g15
NtRp2031
(dp2032
g18
I1
sg19
I0
sg20
I20
sg21
I0
sg22
I0
sg23
I2
sg24
I0
sbssg122
S'\x19EO\xe6\xb5\xdbWY\xb8\xd9\x1cP&\xe3\xc4\xca'
p2033
ssS'create_views_books_tests_test_get_books_list_view'
p2034
(dp2035
g920
(dp2036
g93
S'create_views_books_tests_test_get_books_list_view.html'
p2037
sg95
S'create/views/books/tests/test_get_books_list_view'
p2038
sg97
g13
(g14
g15
NtRp2039
(dp2040
g18
I1
sg19
I0
sg20
I21
sg21
I0
sg22
I0
sg23
I0
sg24
I0
sbssg926
S'\x16\x8f\xf1\x81>\x0f\xb4S\x19\xff\xcd\xc1Y\xe9;\x98'
p2041
ssS'user_system_serializers_schools_classroom_serializer'
p2042
(dp2043
g116
(dp2044
g31
S'user_system_serializers_schools_classroom_serializer.html'
p2045
sg33
S'user_system/serializers/schools/classroom_serializer'
p2046
sg35
g13
(g14
g15
NtRp2047
(dp2048
g18
I1
sg19
I0
sg20
I13
sg21
I0
sg22
I0
sg23
I2
sg24
I0
sbssg122
S'\\\x02 #\xfc|[\xb1g\x7f\x83+\xb6\xaa\x13\x01'
p2049
ssS'create_models_daily_quest_copies_tests___init__'
p2050
(dp2051
g401
(dp2052
g1490
S'create_models_daily_quest_copies_tests___init__.html'
p2053
sg1492
S'create/models/daily_quest_copies/tests/__init__'
p2054
sg1494
g13
(g14
g15
NtRp2055
(dp2056
g18
I1
sg19
I0
sg20
I0
sg21
I0
sg22
I0
sg23
I0
sg24
I0
sbssg410
S'\x19g\xdfM\x1a\x019\xaf\x1baIeR\xe5u\xa7'
p2057
ssS'api_logging_views_summary_user_activity_summary_view'
p2058
(dp2059
g294
(dp2060
g174
S'api_logging_views_summary_user_activity_summary_view.html'
p2061
sg176
S'api_logging/views/summary/user_activity_summary_view'
p2062
sg178
g13
(g14
g15
NtRp2063
(dp2064
g18
I1
sg19
I8
sg20
I27
sg21
I0
sg22
I0
sg23
I13
sg24
I8
sbssg300
S'\x99\xfc\\\x0e\x10\x840(\x94\xd3(k\x9f\xb4\xd9M'
p2065
ssS'create_urls'
p2066
(dp2067
g42
(dp2068
g57
S'create_urls.html'
p2069
sg59
S'create/urls'
p2070
sg61
g13
(g14
g15
NtRp2071
(dp2072
g18
I1
sg19
I0
sg20
I22
sg21
I0
sg22
I0
sg23
I0
sg24
I0
sbssg51
S"k/4\x8e_h\xf3)p'\x8e\x80v\x1e\xbdg"
p2073
ssS'create_views_tags_tests_test_get_tags_list_view'
p2074
(dp2075
g675
(dp2076
g93
S'create_views_tags_tests_test_get_tags_list_view.html'
p2077
sg95
S'create/views/tags/tests/test_get_tags_list_view'
p2078
sg97
g13
(g14
g15
NtRp2079
(dp2080
g18
I1
sg19
I0
sg20
I21
sg21
I0
sg22
I0
sg23
I0
sg24
I0
sbssg681
S'F\xf6yk?\xb2\xc12\x93\x8b\xe6Bx\xa09\x89'
p2081
ssS'create_serializers_tags_tag_serializer'
p2082
(dp2083
g349
(dp2084
g93
S'create_serializers_tags_tag_serializer.html'
p2085
sg95
S'create/serializers/tags/tag_serializer'
p2086
sg97
g13
(g14
g15
NtRp2087
(dp2088
g18
I1
sg19
I0
sg20
I38
sg21
I0
sg22
I0
sg23
I0
sg24
I0
sbssg355
S'\xf7\xa8n\xd6\xf1\xe1\xf8\xaedX\x8e\xfe\ry\xd4\xc3'
p2089
ssS'user_system_models_users_teacher_mapping_model'
p2090
(dp2091
g29
(dp2092
g174
S'user_system_models_users_teacher_mapping_model.html'
p2093
sg176
S'user_system/models/users/teacher_mapping_model'
p2094
sg178
g13
(g14
g15
NtRp2095
(dp2096
g18
I1
sg19
I4
sg20
I25
sg21
I0
sg22
I0
sg23
I6
sg24
I4
sbssg38
S'\xf1"\xa4\xe2\xde\xb3\x8bY\x01H\x9c\xb0\x92\x93\xbd\xec'
p2097
ssS'create_models_questions___init__'
p2098
(dp2099
g42
(dp2100
g573
S'create_models_questions___init__.html'
p2101
sg575
S'create/models/questions/__init__'
p2102
sg577
g13
(g14
g15
NtRp2103
(dp2104
g18
I1
sg19
I0
sg20
I6
sg21
I0
sg22
I0
sg23
I0
sg24
I0
sbssg51
S'\xd4\xfd\xae\xf0N\xdd-\x07$U\xac\xf1\xc2\x0f\xa5H'
p2105
ssS'create_models_tags_tag_type_model'
p2106
(dp2107
g383
(dp2108
g44
S'create_models_tags_tag_type_model.html'
p2109
sg46
S'create/models/tags/tag_type_model'
p2110
sg48
g13
(g14
g15
NtRp2111
(dp2112
g18
I1
sg19
I0
sg20
I15
sg21
I0
sg22
I0
sg23
I0
sg24
I0
sbssg389
S'\x89\x07\x8e\xc7^0\x96Do\xbf\xa5\xca5\xe4\x92\xeb'
p2113
ssS'create_serializers___init__'
p2114
(dp2115
g42
(dp2116
g57
S'create_serializers___init__.html'
p2117
sg59
S'create/serializers/__init__'
p2118
sg61
g13
(g14
g15
NtRp2119
(dp2120
g18
I1
sg19
I0
sg20
I6
sg21
I0
sg22
I0
sg23
I0
sg24
I0
sbssg51
S'\x97\xc3"\xfe\x83V\xc1w\xa6r\x02s qES'
p2121
ssS'create_serializers_books_book_history_serializer'
p2122
(dp2123
g920
(dp2124
g93
S'create_serializers_books_book_history_serializer.html'
p2125
sg95
S'create/serializers/books/book_history_serializer'
p2126
sg97
g13
(g14
g15
NtRp2127
(dp2128
g18
I1
sg19
I0
sg20
I14
sg21
I0
sg22
I0
sg23
I0
sg24
I0
sbssg926
S'|g\x1e1\xcdq*ob~B\xca\xd92\x8b\x01'
p2129
ssS'teach_views_daily_quest_templates___init__'
p2130
(dp2131
g55
(dp2132
g57
S'teach_views_daily_quest_templates___init__.html'
p2133
sg59
S'teach/views/daily_quest_templates/__init__'
p2134
sg61
g13
(g14
g15
NtRp2135
(dp2136
g18
I1
sg19
I0
sg20
I1
sg21
I0
sg22
I0
sg23
I0
sg24
I0
sbssg64
S'\xc1b\x1f\x95\xabR`C\xe80\xb9tNC\r3'
p2137
ssS'teach___init__'
p2138
(dp2139
g55
(dp2140
g57
S'teach___init__.html'
p2141
sg59
S'teach/__init__'
p2142
sg61
g13
(g14
g15
NtRp2143
(dp2144
g18
I1
sg19
I0
sg20
I0
sg21
I0
sg22
I0
sg23
I0
sg24
I0
sbssg64
S'\x19g\xdfM\x1a\x019\xaf\x1baIeR\xe5u\xa7'
p2145
ssS'user_system_views_users___init__'
p2146
(dp2147
g42
(dp2148
g174
S'user_system_views_users___init__.html'
p2149
sg176
S'user_system/views/users/__init__'
p2150
sg178
g13
(g14
g15
NtRp2151
(dp2152
g18
I1
sg19
I0
sg20
I6
sg21
I0
sg22
I0
sg23
I0
sg24
I0
sbssg51
S'YNj\xa9zR_\xf0?\x10V\x89y\x81\xbb\xeb'
p2153
ssS'flipped_helpers_tests_test_email_helper'
p2154
(dp2155
g42
(dp2156
g44
S'flipped_helpers_tests_test_email_helper.html'
p2157
sg46
S'flipped/helpers/tests/test_email_helper'
p2158
sg48
g13
(g14
g15
NtRp2159
(dp2160
g18
I1
sg19
I0
sg20
I13
sg21
I0
sg22
I0
sg23
I0
sg24
I0
sbssg51
S'\x13\xee\xcb^E:3A\xff)v\x7f\xd3\xa7\xa2\xaa'
p2161
ssS'user_system_serializers_users___init__'
p2162
(dp2163
g42
(dp2164
g174
S'user_system_serializers_users___init__.html'
p2165
sg176
S'user_system/serializers/users/__init__'
p2166
sg178
g13
(g14
g15
NtRp2167
(dp2168
g18
I1
sg19
I0
sg20
I7
sg21
I0
sg22
I0
sg23
I0
sg24
I0
sbssg51
S'8\xb4\xd8m\x9aA\xf2,\xb1\xe4\xb3\xe2#\xab\xd0#'
p2169
ssS'user_system_models_schools_tests_test_semester_model'
p2170
(dp2171
g203
(dp2172
g331
S'user_system_models_schools_tests_test_semester_model.html'
p2173
sg333
S'user_system/models/schools/tests/test_semester_model'
p2174
sg335
g13
(g14
g15
NtRp2175
(dp2176
g18
I1
sg19
I0
sg20
I29
sg21
I0
sg22
I0
sg23
I0
sg24
I0
sbssg212
S'\xe9\xd9\xdc\\\xb9\x93\xb1\x93Q\x02\xe9\xb7Y,\xa6w'
p2177
ssS'create_views_quests_tests___init__'
p2178
(dp2179
g6
(dp2180
g8
S'create_views_quests_tests___init__.html'
p2181
sg10
S'create/views/quests/tests/__init__'
p2182
sg12
g13
(g14
g15
NtRp2183
(dp2184
g18
I1
sg19
I0
sg20
I0
sg21
I0
sg22
I0
sg23
I0
sg24
I0
sbssg25
S'\x19g\xdfM\x1a\x019\xaf\x1baIeR\xe5u\xa7'
p2185
ssS'user_system_serializers_schools_course_serializer'
p2186
(dp2187
g116
(dp2188
g31
S'user_system_serializers_schools_course_serializer.html'
p2189
sg33
S'user_system/serializers/schools/course_serializer'
p2190
sg35
g13
(g14
g15
NtRp2191
(dp2192
g18
I1
sg19
I0
sg20
I16
sg21
I0
sg22
I0
sg23
I2
sg24
I0
sbssg122
S'\xb0\xa8O3\x01\xce\xfe3\x12\x94\xc0\xc4\xe0@\xafJ'
p2193
ssS'user_system_views_users_tests_test_delete_user_view'
p2194
(dp2195
g42
(dp2196
g44
S'user_system_views_users_tests_test_delete_user_view.html'
p2197
sg46
S'user_system/views/users/tests/test_delete_user_view'
p2198
sg48
g13
(g14
g15
NtRp2199
(dp2200
g18
I1
sg19
I0
sg20
I22
sg21
I0
sg22
I0
sg23
I0
sg24
I0
sbssg51
S'\xe4S$\xa1t\xc6\xbe\xc7\xb9^Y\x05{\x92KQ'
p2201
ssS'learn_models_daily_quests_daily_quest_question_history_model'
p2202
(dp2203
S'index'
p2204
(dp2205
g174
S'learn_models_daily_quests_daily_quest_question_history_model.html'
p2206
sg176
S'learn/models/daily_quests/daily_quest_question_history_model'
p2207
sg178
g13
(g14
g15
NtRp2208
(dp2209
g18
I1
sg19
I6
sg20
I65
sg21
I0
sg22
I0
sg23
I31
sg24
I6
sbssS'hash'
p2210
S'\x7f\x15\xd1PlNw\x07\xca4\x8e\x83\r\xa6\x12\x02'
p2211
ssS'user_system_models_users_user_profile_update_request_model'
p2212
(dp2213
g116
(dp2214
g2026
S'user_system_models_users_user_profile_update_request_model.html'
p2215
sg2028
S'user_system/models/users/user_profile_update_request_model'
p2216
sg2030
g13
(g14
g15
NtRp2217
(dp2218
g18
I1
sg19
I0
sg20
I58
sg21
I0
sg22
I0
sg23
I2
sg24
I0
sbssg122
S"\x1c\xaa'\xd2w+\xbb\x17#\xe75\x1e\x8d\xad\xa6\xa7"
p2219
ssS'create_models_tags_tag_history_model'
p2220
(dp2221
g545
(dp2222
g218
S'create_models_tags_tag_history_model.html'
p2223
sg220
S'create/models/tags/tag_history_model'
p2224
sg222
g13
(g14
g15
NtRp2225
(dp2226
g18
I1
sg19
I0
sg20
I37
sg21
I0
sg22
I0
sg23
I0
sg24
I0
sbssg551
S'\xae\xc8g\xc1\xf5l<\x1f\x9c\xaf\x17\xf98\r\xa1\xe2'
p2227
ssS'create_serializers_daily_quest_copies___init__'
p2228
(dp2229
g401
(dp2230
g1490
S'create_serializers_daily_quest_copies___init__.html'
p2231
sg1492
S'create/serializers/daily_quest_copies/__init__'
p2232
sg1494
g13
(g14
g15
NtRp2233
(dp2234
g18
I1
sg19
I0
sg20
I1
sg21
I0
sg22
I0
sg23
I0
sg24
I0
sbssg410
S'\nX]\x85Nc\xb8\xc0\xe1\xaf\xa0\xda_\x9e\xb9u'
p2235
ssS'user_system_models_schools_course_model'
p2236
(dp2237
g229
(dp2238
g31
S'user_system_models_schools_course_model.html'
p2239
sg33
S'user_system/models/schools/course_model'
p2240
sg35
g13
(g14
g15
NtRp2241
(dp2242
g18
I1
sg19
I6
sg20
I37
sg21
I0
sg22
I0
sg23
I13
sg24
I6
sbssg235
S'o\xf1\xa2\xb4\xf9\x80\x19bT\x08l\xe7\xd2\x83%2'
p2243
ssS'create_models_daily_quest_copies_tests_test_daily_quest_copy_model'
p2244
(dp2245
g401
(dp2246
g527
S'create_models_daily_quest_copies_tests_test_daily_quest_copy_model.html'
p2247
sg529
S'create/models/daily_quest_copies/tests/test_daily_quest_copy_model'
p2248
sg531
g13
(g14
g15
NtRp2249
(dp2250
g18
I1
sg19
I4
sg20
I45
sg21
I0
sg22
I0
sg23
I0
sg24
I0
sbssg410
S'\xcd\xeeU\x8a\xd7\x95\x9e5E\xd0\xaf\xd07\x80\x85\xe0'
p2251
ssS'privilege_views_privileges___init__'
p2252
(dp2253
g284
(dp2254
g93
S'privilege_views_privileges___init__.html'
p2255
sg95
S'privilege/views/privileges/__init__'
p2256
sg97
g13
(g14
g15
NtRp2257
(dp2258
g18
I1
sg19
I0
sg20
I1
sg21
I0
sg22
I0
sg23
I0
sg24
I0
sbssg290
S']\x14S\xdf\xb4:Tx\xb9\x98\x89\xe7\x01%DZ'
p2259
ssS'teach_models_teacher_chapters_teacher_chapter_model'
p2260
(dp2261
g55
(dp2262
S'html_filename'
p2263
S'teach_models_teacher_chapters_teacher_chapter_model.html'
p2264
sS'name'
p2265
S'teach/models/teacher_chapters/teacher_chapter_model'
p2266
sS'nums'
p2267
g13
(g14
g15
NtRp2268
(dp2269
g18
I1
sg19
I0
sg20
I23
sg21
I0
sg22
I0
sg23
I0
sg24
I0
sbssg64
S'\x97T&\xd0\x81q\xc2M\xc3\x03\x01U\xf5S!h'
p2270
ssS'create_models_questions_question_template_model'
p2271
(dp2272
g103
(dp2273
S'html_filename'
p2274
S'create_models_questions_question_template_model.html'
p2275
sS'name'
p2276
S'create/models/questions/question_template_model'
p2277
sS'nums'
p2278
g13
(g14
g15
NtRp2279
(dp2280
g18
I1
sg19
I0
sg20
I40
sg21
I0
sg22
I0
sg23
I0
sg24
I0
sbssg112
S'\x845gz\x1d\x17\x1dv\x81\n\x96G\x99pE\\'
p2281
ssS'create_views_questions_tests_test_get_question_by_id_view'
p2282
(dp2283
g42
(dp2284
g93
S'create_views_questions_tests_test_get_question_by_id_view.html'
p2285
sg95
S'create/views/questions/tests/test_get_question_by_id_view'
p2286
sg97
g13
(g14
g15
NtRp2287
(dp2288
g18
I1
sg19
I0
sg20
I24
sg21
I0
sg22
I0
sg23
I0
sg24
I0
sbssg51
S'\xa7[\x91\xa9\xa6\xb4\xbd&n$O^O\xec\xf2X'
p2289
ssS'teach_models_teacher_tags_tests___init__'
p2290
(dp2291
g55
(dp2292
g57
S'teach_models_teacher_tags_tests___init__.html'
p2293
sg59
S'teach/models/teacher_tags/tests/__init__'
p2294
sg61
g13
(g14
g15
NtRp2295
(dp2296
g18
I1
sg19
I0
sg20
I0
sg21
I0
sg22
I0
sg23
I0
sg24
I0
sbssg64
S'\x19g\xdfM\x1a\x019\xaf\x1baIeR\xe5u\xa7'
p2297
ssS'api_logging_urls'
p2298
(dp2299
g294
(dp2300
g174
S'api_logging_urls.html'
p2301
sg176
S'api_logging/urls'
p2302
sg178
g13
(g14
g15
NtRp2303
(dp2304
g18
I1
sg19
I0
sg20
I13
sg21
I0
sg22
I0
sg23
I0
sg24
I0
sbssg300
S'`K\xc5_\x82\xb4\x1c^\xd6\x98+\xe6\xf0/\x97\x06'
p2305
ssS'api_logging_serializers_LoggingSerializer'
p2306
(dp2307
g294
(dp2308
g174
S'api_logging_serializers_LoggingSerializer.html'
p2309
sg176
S'api_logging/serializers/LoggingSerializer'
p2310
sg178
g13
(g14
g15
NtRp2311
(dp2312
g18
I1
sg19
I0
sg20
I12
sg21
I0
sg22
I0
sg23
I0
sg24
I0
sbssg300
S'1\xdb}\x8eJ\x1a\xe6@D\xcc}\xf4\x11(\x11\xb0'
p2313
ssS'create_views_books_tests_test_remove_subchapter_view'
p2314
(dp2315
S'index'
p2316
(dp2317
g44
S'create_views_books_tests_test_remove_subchapter_view.html'
p2318
sg46
S'create/views/books/tests/test_remove_subchapter_view'
p2319
sg48
g13
(g14
g15
NtRp2320
(dp2321
g18
I1
sg19
I0
sg20
I44
sg21
I0
sg22
I0
sg23
I0
sg24
I0
sbssS'hash'
p2322
S'\x0b\xddi\xaa_d\x8c\xf3b\xa2\x12\xbc\xce\xa5\xbf\x8b'
p2323
ssS'create_models_quests_tests_test_quest_history_model'
p2324
(dp2325
g103
(dp2326
g1186
S'create_models_quests_tests_test_quest_history_model.html'
p2327
sg1188
S'create/models/quests/tests/test_quest_history_model'
p2328
sg1190
g13
(g14
g15
NtRp2329
(dp2330
g18
I1
sg19
I8
sg20
I79
sg21
I0
sg22
I0
sg23
I0
sg24
I0
sbssg112
S'##\xeax]g;Ka\xb3\xc0Py,oE'
p2331
ssS'learn_models_points_point_history_model'
p2332
(dp2333
g294
(dp2334
g174
S'learn_models_points_point_history_model.html'
p2335
sg176
S'learn/models/points/point_history_model'
p2336
sg178
g13
(g14
g15
NtRp2337
(dp2338
g18
I1
sg19
I0
sg20
I16
sg21
I0
sg22
I0
sg23
I0
sg24
I0
sbssg300
S'\xa8\xbaH\x19\x11\xbeT\xe2N=\xfe\xed\x9d\xd4\x83\x1e'
p2339
ssS'user_system___init__'
p2340
(dp2341
g42
(dp2342
g431
S'user_system___init__.html'
p2343
sg433
S'user_system/__init__'
p2344
sg435
g13
(g14
g15
NtRp2345
(dp2346
g18
I1
sg19
I0
sg20
I0
sg21
I0
sg22
I0
sg23
I0
sg24
I0
sbssg51
S'\x19g\xdfM\x1a\x019\xaf\x1baIeR\xe5u\xa7'
p2347
ssS'learn_views___init__'
p2348
(dp2349
g55
(dp2350
g174
S'learn_views___init__.html'
p2351
sg176
S'learn/views/__init__'
p2352
sg178
g13
(g14
g15
NtRp2353
(dp2354
g18
I1
sg19
I0
sg20
I2
sg21
I0
sg22
I0
sg23
I0
sg24
I0
sbssg64
S"?\xc0'\xcb\x1c\xf1\xaa\xf0\x9d\xc7\x0e\xf1\xda\x0eU\x17"
p2355
ssS'create_views_question_datasets___init__'
p2356
(dp2357
g144
(dp2358
g146
S'create_views_question_datasets___init__.html'
p2359
sg148
S'create/views/question_datasets/__init__'
p2360
sg150
g13
(g14
g15
NtRp2361
(dp2362
g18
I1
sg19
I0
sg20
I1
sg21
I0
sg22
I0
sg23
I0
sg24
I0
sbssg153
S'\x87x\xd1\xbe\x15\xd3\xbc\x99\x86\x08\xf8\x06S\xcf\x00\x87'
p2363
ssS'teach_serializers_daily_quest_templates___init__'
p2364
(dp2365
g55
(dp2366
g57
S'teach_serializers_daily_quest_templates___init__.html'
p2367
sg59
S'teach/serializers/daily_quest_templates/__init__'
p2368
sg61
g13
(g14
g15
NtRp2369
(dp2370
g18
I1
sg19
I0
sg20
I1
sg21
I0
sg22
I0
sg23
I0
sg24
I0
sbssg64
S'\xa2\xd34\x1b\xe2+\x16\xa9un\x8f\xa5\xe6\xc4\\p'
p2371
ssS'create_views_books_tests_test_remove_tag_from_subchapter_view'
p2372
(dp2373
g1508
(dp2374
g44
S'create_views_books_tests_test_remove_tag_from_subchapter_view.html'
p2375
sg46
S'create/views/books/tests/test_remove_tag_from_subchapter_view'
p2376
sg48
g13
(g14
g15
NtRp2377
(dp2378
g18
I1
sg19
I0
sg20
I40
sg21
I0
sg22
I0
sg23
I0
sg24
I0
sbssg1514
S"(Vo#\xdd\x9a\xbc\x11\xff\xd6'\xd7\xeb\xca\x1aM"
p2379
ssS'create_views_daily_quests___init__'
p2380
(dp2381
g239
(dp2382
g241
S'create_views_daily_quests___init__.html'
p2383
sg243
S'create/views/daily_quests/__init__'
p2384
sg245
g13
(g14
g15
NtRp2385
(dp2386
g18
I1
sg19
I0
sg20
I1
sg21
I0
sg22
I0
sg23
I0
sg24
I0
sbssg248
S'\xa3\x08\xf3\xbaF\xd5u\x88\x12\xa3V\x05K\xe5\xd0\xa9'
p2387
ssS'flipped_helpers_email_helper'
p2388
(dp2389
g42
(dp2390
g44
S'flipped_helpers_email_helper.html'
p2391
sg46
S'flipped/helpers/email_helper'
p2392
sg48
g13
(g14
g15
NtRp2393
(dp2394
g18
I1
sg19
I2
sg20
I9
sg21
I0
sg22
I0
sg23
I0
sg24
I0
sbssg51
S"\xeal\t\x03)\xcc\xc4\x0b\r\xe2&\x83a'I\xad"
p2395
ssS'flipped_urls'
p2396
(dp2397
g42
(dp2398
g93
S'flipped_urls.html'
p2399
sg95
S'flipped/urls'
p2400
sg97
g13
(g14
g15
NtRp2401
(dp2402
g18
I1
sg19
I0
sg20
I9
sg21
I0
sg22
I0
sg23
I0
sg24
I0
sbssg51
S'\xcbN{\xd0A\x0b\xa0\xc3\xd4\x8cr\xe3\x1e\x12\x1e\xb0'
p2403
ssS'teach_views_summaries_daily_quest_summary_view'
p2404
(dp2405
g294
(dp2406
g174
S'teach_views_summaries_daily_quest_summary_view.html'
p2407
sg176
S'teach/views/summaries/daily_quest_summary_view'
p2408
sg178
g13
(g14
g15
NtRp2409
(dp2410
g18
I1
sg19
I24
sg20
I72
sg21
I0
sg22
I0
sg23
I52
sg24
I24
sbssg300
S'\xdf\xb6.EW\xea\xa0\x93\x8c\xc2f\x1cAG8\xa4'
p2411
ssS'user_system_views_users_student_profile_request_view'
p2412
(dp2413
g116
(dp2414
g31
S'user_system_views_users_student_profile_request_view.html'
p2415
sg33
S'user_system/views/users/student_profile_request_view'
p2416
sg35
g13
(g14
g15
NtRp2417
(dp2418
g18
I1
sg19
I0
sg20
I14
sg21
I0
sg22
I0
sg23
I0
sg24
I0
sbssg122
S'\x87:\xd0\xef\x04\xf3-q\r\xe7\xec \xceS\xee<'
p2419
ssS'user_system_views_logins_tests___init__'
p2420
(dp2421
g42
(dp2422
g431
S'user_system_views_logins_tests___init__.html'
p2423
sg433
S'user_system/views/logins/tests/__init__'
p2424
sg435
g13
(g14
g15
NtRp2425
(dp2426
g18
I1
sg19
I0
sg20
I1
sg21
I0
sg22
I0
sg23
I0
sg24
I0
sbssg51
S'\xbc\xd6\xeb\xb3\xba\xcaz\xf7{\xd4B\xb5}l\xdf\x96'
p2427
ssS'api_logging_views_modal_loggings___init__'
p2428
(dp2429
g294
(dp2430
g174
S'api_logging_views_modal_loggings___init__.html'
p2431
sg176
S'api_logging/views/modal_loggings/__init__'
p2432
sg178
g13
(g14
g15
NtRp2433
(dp2434
g18
I1
sg19
I0
sg20
I1
sg21
I0
sg22
I0
sg23
I0
sg24
I0
sbssg300
S'\xf1\x0fWK\x0c\x9eD\xe8\x12\xaf\x93\xfa\xd7q\xa8\x91'
p2435
ssS'user_system_views_users_tests_test_get_users_by_signup_type_view'
p2436
(dp2437
g42
(dp2438
g93
S'user_system_views_users_tests_test_get_users_by_signup_type_view.html'
p2439
sg95
S'user_system/views/users/tests/test_get_users_by_signup_type_view'
p2440
sg97
g13
(g14
g15
NtRp2441
(dp2442
g18
I1
sg19
I0
sg20
I44
sg21
I0
sg22
I0
sg23
I0
sg24
I0
sbssg51
S'T/\xf9\xf8\x94\xd6Lm\x89o\xb6\x99/Z\xc1]'
p2443
ssS'user_system_serializers_users_user_serializer'
p2444
(dp2445
g42
(dp2446
g93
S'user_system_serializers_users_user_serializer.html'
p2447
sg95
S'user_system/serializers/users/user_serializer'
p2448
sg97
g13
(g14
g15
NtRp2449
(dp2450
g18
I1
sg19
I8
sg20
I46
sg21
I0
sg22
I2
sg23
I8
sg24
I6
sbssg51
S'\xb2\xee\xa4\xa6\x8b\xe1\xe1\xce\xaa\xe6\xdd\xbd\xb3\xf2\x81/'
p2451
ssS'create_serializers_daily_quest_copies_daily_quest_copy_serializer'
p2452
(dp2453
g401
(dp2454
g1490
S'create_serializers_daily_quest_copies_daily_quest_copy_serializer.html'
p2455
sg1492
S'create/serializers/daily_quest_copies/daily_quest_copy_serializer'
p2456
sg1494
g13
(g14
g15
NtRp2457
(dp2458
g18
I1
sg19
I0
sg20
I18
sg21
I0
sg22
I0
sg23
I3
sg24
I0
sbssg410
S'\xb6\xc6tAeANu\xae\n4T\xc1.\xe2\xfd'
p2459
ssS'create_models_books_tests_test_book_history_model'
p2460
(dp2461
g349
(dp2462
g2263
S'create_models_books_tests_test_book_history_model.html'
p2463
sg2265
S'create/models/books/tests/test_book_history_model'
p2464
sg2267
g13
(g14
g15
NtRp2465
(dp2466
g18
I1
sg19
I0
sg20
I65
sg21
I0
sg22
I0
sg23
I0
sg24
I0
sbssg355
S'\xf0\xc1p\xea=_t.\xc9\xf6\xbe\xe8~&\xe5\xa7'
p2467
ssS'create_views_quests_tests_test_remove_question_view'
p2468
(dp2469
g6
(dp2470
g8
S'create_views_quests_tests_test_remove_question_view.html'
p2471
sg10
S'create/views/quests/tests/test_remove_question_view'
p2472
sg12
g13
(g14
g15
NtRp2473
(dp2474
g18
I1
sg19
I0
sg20
I0
sg21
I0
sg22
I0
sg23
I0
sg24
I0
sbssg25
S'\x19g\xdfM\x1a\x019\xaf\x1baIeR\xe5u\xa7'
p2475
ssS'create_serializers_daily_quest_templates_daily_quest_template_serializer'
p2476
(dp2477
g239
(dp2478
g241
S'create_serializers_daily_quest_templates_daily_quest_template_serializer.html'
p2479
sg243
S'create/serializers/daily_quest_templates/daily_quest_template_serializer'
p2480
sg245
g13
(g14
g15
NtRp2481
(dp2482
g18
I1
sg19
I0
sg20
I8
sg21
I0
sg22
I0
sg23
I0
sg24
I0
sbssg248
S'-b,\x8cFu\xd2b\x8b\rw5\xa4\xf7\xc3\xf2'
p2483
ssS'user_system_managers___init__'
p2484
(dp2485
g294
(dp2486
g174
S'user_system_managers___init__.html'
p2487
sg176
S'user_system/managers/__init__'
p2488
sg178
g13
(g14
g15
NtRp2489
(dp2490
g18
I1
sg19
I0
sg20
I2
sg21
I0
sg22
I0
sg23
I0
sg24
I0
sbssg300
S'\xf1\xb0\xc3\xd3B\x8d\xdf\x12\x1bW\x06\xa4\xe7\x13A '
p2491
ssS'teach_models_campaigns_tests_test_campaign_model'
p2492
(dp2493
g116
(dp2494
g31
S'teach_models_campaigns_tests_test_campaign_model.html'
p2495
sg33
S'teach/models/campaigns/tests/test_campaign_model'
p2496
sg35
g13
(g14
g15
NtRp2497
(dp2498
g18
I1
sg19
I0
sg20
I43
sg21
I0
sg22
I0
sg23
I0
sg24
I0
sbssg122
S"\x1b\xbbi{\xe8\xa9o\xd3w\xfb'\x1e\xca\x1b\xd9\xc7"
p2499
ssS'api_logging_views_modal_loggings_modal_user_history_view'
p2500
(dp2501
g294
(dp2502
g174
S'api_logging_views_modal_loggings_modal_user_history_view.html'
p2503
sg176
S'api_logging/views/modal_loggings/modal_user_history_view'
p2504
sg178
g13
(g14
g15
NtRp2505
(dp2506
g18
I1
sg19
I0
sg20
I12
sg21
I0
sg22
I0
sg23
I0
sg24
I0
sbssg300
S'\xb4\xa3\xa1!\x95\x8a\x06\xf5\x19\x1c=\xe2B\xa3b\t'
p2507
ssS'user_system_views_logins_tests_test_email_login_view'
p2508
(dp2509
g42
(dp2510
g44
S'user_system_views_logins_tests_test_email_login_view.html'
p2511
sg46
S'user_system/views/logins/tests/test_email_login_view'
p2512
sg48
g13
(g14
g15
NtRp2513
(dp2514
g18
I1
sg19
I0
sg20
I61
sg21
I0
sg22
I0
sg23
I0
sg24
I0
sbssg51
S'\x926\xe8\xcdL\xf3U\xc1C\x1b\x0f\xaf\xf0c\x9b\xd0'
p2515
ssS'create_views_books_book_chapter_view'
p2516
(dp2517
g545
(dp2518
g174
S'create_views_books_book_chapter_view.html'
p2519
sg176
S'create/views/books/book_chapter_view'
p2520
sg178
g13
(g14
g15
NtRp2521
(dp2522
g18
I1
sg19
I12
sg20
I44
sg21
I0
sg22
I0
sg23
I22
sg24
I12
sbssg551
S'\x0b3\xd8 \xe1\x08#79\x0c\x7f\x1f6\xad0\xe9'
p2523
ssS'create_views___init__'
p2524
(dp2525
g42
(dp2526
g57
S'create_views___init__.html'
p2527
sg59
S'create/views/__init__'
p2528
sg61
g13
(g14
g15
NtRp2529
(dp2530
g18
I1
sg19
I0
sg20
I7
sg21
I0
sg22
I0
sg23
I0
sg24
I0
sbssg51
S'\x8f\x98\x9b$~\xde\xc2\xfc\x97/\x14^\xe8\xf8\x10M'
p2531
ssS'user_system_serializers_users_student_profile_serializer'
p2532
(dp2533
g116
(dp2534
g403
S'user_system_serializers_users_student_profile_serializer.html'
p2535
sg405
S'user_system/serializers/users/student_profile_serializer'
p2536
sg407
g13
(g14
g15
NtRp2537
(dp2538
g18
I1
sg19
I0
sg20
I10
sg21
I0
sg22
I0
sg23
I0
sg24
I0
sbssg122
S'\xb4\n*\x1b\x86\xd1\\\xa2k\xeb\xd8\xeaW\x0c\xd8x'
p2539
ssS'flipped_helpers_errors_helper'
p2540
(dp2541
g42
(dp2542
g44
S'flipped_helpers_errors_helper.html'
p2543
sg46
S'flipped/helpers/errors_helper'
p2544
sg48
g13
(g14
g15
NtRp2545
(dp2546
g18
I1
sg19
I0
sg20
I5
sg21
I0
sg22
I0
sg23
I0
sg24
I0
sbssg51
S'\x91\x04\x1c\xf86c\xad\xf7\xe3\xf13\xf5n8eP'
p2547
ssS'teach_views_teacher_tags_teacher_tag_view'
p2548
(dp2549
g55
(dp2550
g174
S'teach_views_teacher_tags_teacher_tag_view.html'
p2551
sg176
S'teach/views/teacher_tags/teacher_tag_view'
p2552
sg178
g13
(g14
g15
NtRp2553
(dp2554
g18
I1
sg19
I20
sg20
I55
sg21
I0
sg22
I2
sg23
I30
sg24
I18
sbssg64
S'\xec\x1aQ\x839\x80#\xe5\xca\x98\xf6\xec\x84\x17\xa3\xeb'
p2555
ssS'create_models_questions_tests_test_question_history_model'
p2556
(dp2557
g42
(dp2558
g974
S'create_models_questions_tests_test_question_history_model.html'
p2559
sg976
S'create/models/questions/tests/test_question_history_model'
p2560
sg978
g13
(g14
g15
NtRp2561
(dp2562
g18
I1
sg19
I2
sg20
I73
sg21
I0
sg22
I0
sg23
I0
sg24
I0
sbssg51
S'i\xd4 \xdcI\x9f\xbc\x0c|\x95\x15wW\xb4\xa9\x15'
p2563
ssS'create_views_tags_tests_test_create_tag_view'
p2564
(dp2565
g675
(dp2566
g44
S'create_views_tags_tests_test_create_tag_view.html'
p2567
sg46
S'create/views/tags/tests/test_create_tag_view'
p2568
sg48
g13
(g14
g15
NtRp2569
(dp2570
g18
I1
sg19
I0
sg20
I33
sg21
I0
sg22
I0
sg23
I0
sg24
I0
sbssg681
S'\\\x91{\x1a ;Qg\xbd\x81\xe2\xaf\xa41\xac\x1b'
p2571
ssS'create_views_questions_tests___init__'
p2572
(dp2573
g42
(dp2574
g431
S'create_views_questions_tests___init__.html'
p2575
sg433
S'create/views/questions/tests/__init__'
p2576
sg435
g13
(g14
g15
NtRp2577
(dp2578
g18
I1
sg19
I0
sg20
I0
sg21
I0
sg22
I0
sg23
I0
sg24
I0
sbssg51
S'\x19g\xdfM\x1a\x019\xaf\x1baIeR\xe5u\xa7'
p2579
ssS'flipped___init__'
p2580
(dp2581
g42
(dp2582
g431
S'flipped___init__.html'
p2583
sg433
S'flipped/__init__'
p2584
sg435
g13
(g14
g15
NtRp2585
(dp2586
g18
I1
sg19
I0
sg20
I0
sg21
I0
sg22
I0
sg23
I0
sg24
I0
sbssg51
S'\x19g\xdfM\x1a\x019\xaf\x1baIeR\xe5u\xa7'
p2587
ssS'user_system_views_roles___init__'
p2588
(dp2589
g42
(dp2590
g431
S'user_system_views_roles___init__.html'
p2591
sg433
S'user_system/views/roles/__init__'
p2592
sg435
g13
(g14
g15
NtRp2593
(dp2594
g18
I1
sg19
I0
sg20
I1
sg21
I0
sg22
I0
sg23
I0
sg24
I0
sbssg51
S'\xeb\x15\r\x85I\x9e<\xbc\x15\xd1P\xef\x16\x8c\xe0l'
p2595
ssS'create_models_daily_quest_templates_tests_test_daily_quest_template_model'
p2596
(dp2597
g239
(dp2598
g241
S'create_models_daily_quest_templates_tests_test_daily_quest_template_model.html'
p2599
sg243
S'create/models/daily_quest_templates/tests/test_daily_quest_template_model'
p2600
sg245
g13
(g14
g15
NtRp2601
(dp2602
g18
I1
sg19
I0
sg20
I37
sg21
I0
sg22
I0
sg23
I0
sg24
I0
sbssg248
S'\x01\x04)\xffw\x13\x9aqx\xb2\x9f\x02\xb0\x90\xf3\xa5'
p2603
ssS'teach_views_summaries___init__'
p2604
(dp2605
g294
(dp2606
g185
S'teach_views_summaries___init__.html'
p2607
sg187
S'teach/views/summaries/__init__'
p2608
sg189
g13
(g14
g15
NtRp2609
(dp2610
g18
I1
sg19
I0
sg20
I6
sg21
I0
sg22
I0
sg23
I0
sg24
I0
sbssg300
S'\xf1\xa7@\xae\xc1+T\x8d\tr\xacb\x91s,\xbf'
p2611
ssS'user_system_models_users_user_profile_history_model'
p2612
(dp2613
g116
(dp2614
g31
S'user_system_models_users_user_profile_history_model.html'
p2615
sg33
S'user_system/models/users/user_profile_history_model'
p2616
sg35
g13
(g14
g15
NtRp2617
(dp2618
g18
I1
sg19
I4
sg20
I72
sg21
I0
sg22
I2
sg23
I12
sg24
I2
sbssg122
S'\x9a\x0c\xe2p\x8b\xee\x01\x87\xfd\x81\xb4\x9bzp\x90\xb6'
p2619
ssS'teach_admin'
p2620
(dp2621
g55
(dp2622
g174
S'teach_admin.html'
p2623
sg176
S'teach/admin'
p2624
sg178
g13
(g14
g15
NtRp2625
(dp2626
g18
I1
sg19
I0
sg20
I6
sg21
I0
sg22
I0
sg23
I0
sg24
I0
sbssg64
S'\xa5$\xa3\xb8$\xe4Z\x9b\xcbO\x9f\xc1\x02b\x95N'
p2627
ssS'user_system_views_users_user_view'
p2628
(dp2629
g42
(dp2630
g174
S'user_system_views_users_user_view.html'
p2631
sg176
S'user_system/views/users/user_view'
p2632
sg178
g13
(g14
g15
NtRp2633
(dp2634
g18
I1
sg19
I66
sg20
I186
sg21
I0
sg22
I0
sg23
I108
sg24
I44
sbssg51
S'S`\xa9\xa5\xad\x9d\x84\x8fOl!#\x8a<\x9c\xed'
p2635
ssS'teach_models_daily_quest_templates_tests_test_daily_quest_template_model'
p2636
(dp2637
g55
(dp2638
g57
S'teach_models_daily_quest_templates_tests_test_daily_quest_template_model.html'
p2639
sg59
S'teach/models/daily_quest_templates/tests/test_daily_quest_template_model'
p2640
sg61
g13
(g14
g15
NtRp2641
(dp2642
g18
I1
sg19
I0
sg20
I37
sg21
I0
sg22
I0
sg23
I0
sg24
I0
sbssg64
S'\x01\x04)\xffw\x13\x9aqx\xb2\x9f\x02\xb0\x90\xf3\xa5'
p2643
ssS'user_system_views_apps___init__'
p2644
(dp2645
g42
(dp2646
g431
S'user_system_views_apps___init__.html'
p2647
sg433
S'user_system/views/apps/__init__'
p2648
sg435
g13
(g14
g15
NtRp2649
(dp2650
g18
I1
sg19
I0
sg20
I1
sg21
I0
sg22
I0
sg23
I0
sg24
I0
sbssg51
S'?:\xf2A\xfa^]\xc5NR\xc9\x13\xb0\xe4\xfa\x9e'
p2651
ssS'user_system_views_users_tests_test_get_users_list_view'
p2652
(dp2653
g42
(dp2654
g93
S'user_system_views_users_tests_test_get_users_list_view.html'
p2655
sg95
S'user_system/views/users/tests/test_get_users_list_view'
p2656
sg97
g13
(g14
g15
NtRp2657
(dp2658
g18
I1
sg19
I0
sg20
I34
sg21
I0
sg22
I0
sg23
I0
sg24
I0
sbssg51
S'\xf5\xe3\x1a\x14e\xf8\xc2\xf0\xa8^$\xf7\x9dv\xb8f'
p2659
ssS'create_views_books_tests_test_create_new_book'
p2660
(dp2661
S'index'
p2662
(dp2663
g44
S'create_views_books_tests_test_create_new_book.html'
p2664
sg46
S'create/views/books/tests/test_create_new_book'
p2665
sg48
g13
(g14
g15
NtRp2666
(dp2667
g18
I1
sg19
I0
sg20
I18
sg21
I0
sg22
I0
sg23
I0
sg24
I0
sbssS'hash'
p2668
S'\xe3\xaew\xf8\xd7\x8f\xc5 \x85\xc1\xb6I\x82X(-'
p2669
ssS'user_system_views_apps_app_view'
p2670
(dp2671
g42
(dp2672
S'html_filename'
p2673
S'user_system_views_apps_app_view.html'
p2674
sS'name'
p2675
S'user_system/views/apps/app_view'
p2676
sS'nums'
p2677
g13
(g14
g15
NtRp2678
(dp2679
g18
I1
sg19
I0
sg20
I13
sg21
I0
sg22
I0
sg23
I0
sg24
I0
sbssg51
S'\xf7n\xffX\xe7\xd2\xb6\xa5\xc5\xe5\x96\x13\xf4\x9c\xac\x1e'
p2680
ssS'teach_views_summaries_student_list_summary'
p2681
(dp2682
g294
(dp2683
g174
S'teach_views_summaries_student_list_summary.html'
p2684
sg176
S'teach/views/summaries/student_list_summary'
p2685
sg178
g13
(g14
g15
NtRp2686
(dp2687
g18
I1
sg19
I26
sg20
I81
sg21
I0
sg22
I0
sg23
I63
sg24
I26
sbssg300
S'i\x1e\xd7\x9f\xceE"\x92\xc3\xfd\xd9\xdd\xac%\xe7\x10'
p2688
ssS'user_system_models_schools_tests_test_classroom_model'
p2689
(dp2690
g229
(dp2691
g174
S'user_system_models_schools_tests_test_classroom_model.html'
p2692
sg176
S'user_system/models/schools/tests/test_classroom_model'
p2693
sg178
g13
(g14
g15
NtRp2694
(dp2695
g18
I1
sg19
I0
sg20
I31
sg21
I0
sg22
I0
sg23
I0
sg24
I0
sbssg235
S'\xfd\xfd\xa2\x92;\xc3\xaa\x06D\x93\xddbD\xda\xa2\x1e'
p2696
ssS'user_system_views_schools_school_view'
p2697
(dp2698
g116
(dp2699
g31
S'user_system_views_schools_school_view.html'
p2700
sg33
S'user_system/views/schools/school_view'
p2701
sg35
g13
(g14
g15
NtRp2702
(dp2703
g18
I1
sg19
I0
sg20
I16
sg21
I0
sg22
I0
sg23
I0
sg24
I0
sbssg122
S'\xc8\x0b\xef\x9e86\xe5\x19\xaa\x9e\x93+\x03\xfb\x98\x99'
p2704
ssS'learn_models_points_point_type_model'
p2705
(dp2706
g294
(dp2707
g174
S'learn_models_points_point_type_model.html'
p2708
sg176
S'learn/models/points/point_type_model'
p2709
sg178
g13
(g14
g15
NtRp2710
(dp2711
g18
I1
sg19
I0
sg20
I20
sg21
I0
sg22
I0
sg23
I1
sg24
I0
sbssg300
S'\xad\xfd\x0c\x14\x83w\xaf\xea\xd4a\x02\x0f\xd3s.\xea'
p2712
ssS'user_system_models_users_user_facebook_model'
p2713
(dp2714
g42
(dp2715
g44
S'user_system_models_users_user_facebook_model.html'
p2716
sg46
S'user_system/models/users/user_facebook_model'
p2717
sg48
g13
(g14
g15
NtRp2718
(dp2719
g18
I1
sg19
I0
sg20
I22
sg21
I0
sg22
I0
sg23
I0
sg24
I0
sbssg51
S'!d\xff\xbcl0O(`\x1b1\xf7\xb3*{X'
p2720
ssS'user_system_views_schools_grade_view'
p2721
(dp2722
g116
(dp2723
g31
S'user_system_views_schools_grade_view.html'
p2724
sg33
S'user_system/views/schools/grade_view'
p2725
sg35
g13
(g14
g15
NtRp2726
(dp2727
g18
I1
sg19
I0
sg20
I16
sg21
I0
sg22
I0
sg23
I0
sg24
I0
sbssg122
S'_i&b\x01\x08$\xe7\xbe\nW\x92\x80\x97\xf1Q'
p2728
ssS'create_serializers_question_datasets_question_dataset_serializer'
p2729
(dp2730
g144
(dp2731
g146
S'create_serializers_question_datasets_question_dataset_serializer.html'
p2732
sg148
S'create/serializers/question_datasets/question_dataset_serializer'
p2733
sg150
g13
(g14
g15
NtRp2734
(dp2735
g18
I1
sg19
I0
sg20
I6
sg21
I0
sg22
I0
sg23
I0
sg24
I0
sbssg153
S'\x1e}6\x82\x0c\x96\xdb\x00{jK\xdb\xc0\x8c\x97\xcd'
p2736
ssS'privilege_models_privileges_user_privilege_model'
p2737
(dp2738
g284
(dp2739
g93
S'privilege_models_privileges_user_privilege_model.html'
p2740
sg95
S'privilege/models/privileges/user_privilege_model'
p2741
sg97
g13
(g14
g15
NtRp2742
(dp2743
g18
I1
sg19
I0
sg20
I17
sg21
I0
sg22
I0
sg23
I1
sg24
I0
sbssg290
S'\xe4\xbfo\xb6Sy\xef\x85\xf2\xf3=\xf3\xc3\xc0\xc9\xc6'
p2744
ssS'create_views_questions_question_template_view'
p2745
(dp2746
g103
(dp2747
g105
S'create_views_questions_question_template_view.html'
p2748
sg107
S'create/views/questions/question_template_view'
p2749
sg109
g13
(g14
g15
NtRp2750
(dp2751
g18
I1
sg19
I40
sg20
I115
sg21
I0
sg22
I0
sg23
I86
sg24
I40
sbssg112
S'\x15\xd2EN\xe9c\xe5\x17\xc5Fh\x02\x1a\xd3\xc4*'
p2752
ssS'create_serializers_quests_quest_serializer'
p2753
(dp2754
g103
(dp2755
g31
S'create_serializers_quests_quest_serializer.html'
p2756
sg33
S'create/serializers/quests/quest_serializer'
p2757
sg35
g13
(g14
g15
NtRp2758
(dp2759
g18
I1
sg19
I0
sg20
I50
sg21
I0
sg22
I0
sg23
I15
sg24
I0
sbssg112
S'\x96:\xdf\x9a\x02\xee\xf5\x97F[z\x16p\x8f\x08\xb2'
p2760
ssS'create_views_summary_create_summary_view'
p2761
(dp2762
g1590
(dp2763
g1076
S'create_views_summary_create_summary_view.html'
p2764
sg1078
S'create/views/summary/create_summary_view'
p2765
sg1080
g13
(g14
g15
NtRp2766
(dp2767
g18
I1
sg19
I0
sg20
I59
sg21
I0
sg22
I0
sg23
I48
sg24
I0
sbssg1596
S"'\xfe\xf4\x8c\xed2\xc3\x18\xf6\x85\x1f\xb0\xf0G\xb7\x8f"
p2768
ssS'create_serializers_books_book_serializer'
p2769
(dp2770
g349
(dp2771
g93
S'create_serializers_books_book_serializer.html'
p2772
sg95
S'create/serializers/books/book_serializer'
p2773
sg97
g13
(g14
g15
NtRp2774
(dp2775
g18
I1
sg19
I0
sg20
I25
sg21
I0
sg22
I0
sg23
I0
sg24
I0
sbssg355
S"o\r\r\x1e8\xe6\xa9\xd1\x83X.\xcf1\x98\xa3'"
p2776
ssS'user_system_models_schools_tests___init__'
p2777
(dp2778
g203
(dp2779
S'html_filename'
p2780
S'user_system_models_schools_tests___init__.html'
p2781
sS'name'
p2782
S'user_system/models/schools/tests/__init__'
p2783
sS'nums'
p2784
g13
(g14
g15
NtRp2785
(dp2786
g18
I1
sg19
I0
sg20
I0
sg21
I0
sg22
I0
sg23
I0
sg24
I0
sbssg212
S'\x19g\xdfM\x1a\x019\xaf\x1baIeR\xe5u\xa7'
p2787
ssS'api_logging_mixins'
p2788
(dp2789
g675
(dp2790
g44
S'api_logging_mixins.html'
p2791
sg46
S'api_logging/mixins'
p2792
sg48
g13
(g14
g15
NtRp2793
(dp2794
g18
I1
sg19
I4
sg20
I26
sg21
I0
sg22
I2
sg23
I2
sg24
I2
sbssg681
S'w\xa7\xcf,\xf7\x87[\xb0\xc5\xb2\x1f\xa5+\x1dSF'
p2795
ssS'privilege_serializers_privileges___init__'
p2796
(dp2797
g284
(dp2798
g93
S'privilege_serializers_privileges___init__.html'
p2799
sg95
S'privilege/serializers/privileges/__init__'
p2800
sg97
g13
(g14
g15
NtRp2801
(dp2802
g18
I1
sg19
I0
sg20
I2
sg21
I0
sg22
I0
sg23
I0
sg24
I0
sbssg290
S'\x1f\xd4u<\xf4\x9bW\xb0\xa9\xd2\xc1\x06\x14`C\xc6'
p2803
ssS'create___init__'
p2804
(dp2805
g42
(dp2806
g431
S'create___init__.html'
p2807
sg433
S'create/__init__'
p2808
sg435
g13
(g14
g15
NtRp2809
(dp2810
g18
I1
sg19
I0
sg20
I0
sg21
I0
sg22
I0
sg23
I0
sg24
I0
sbssg51
S'\x19g\xdfM\x1a\x019\xaf\x1baIeR\xe5u\xa7'
p2811
ssS'user_system_serializers_schools_school_serializer'
p2812
(dp2813
g116
(dp2814
g31
S'user_system_serializers_schools_school_serializer.html'
p2815
sg33
S'user_system/serializers/schools/school_serializer'
p2816
sg35
g13
(g14
g15
NtRp2817
(dp2818
g18
I1
sg19
I0
sg20
I9
sg21
I0
sg22
I0
sg23
I0
sg24
I0
sbssg122
S'_\x0c\x17V\x00H\x8f\xc9x\xe5I\xcb\t\x08\xb9/'
p2819
ssS'user_system_models_users_tests_test_user_profile_update_request_model'
p2820
(dp2821
g116
(dp2822
g2026
S'user_system_models_users_tests_test_user_profile_update_request_model.html'
p2823
sg2028
S'user_system/models/users/tests/test_user_profile_update_request_model'
p2824
sg2030
g13
(g14
g15
NtRp2825
(dp2826
g18
I1
sg19
I0
sg20
I50
sg21
I0
sg22
I0
sg23
I0
sg24
I0
sbssg122
S'91\xd6p\x9f4\x8ebb\xe9\xbd1pu\x9b\x7f'
p2827
ssS'user_system_views_users_tests_test_add_role_view'
p2828
(dp2829
g42
(dp2830
g44
S'user_system_views_users_tests_test_add_role_view.html'
p2831
sg46
S'user_system/views/users/tests/test_add_role_view'
p2832
sg48
g13
(g14
g15
NtRp2833
(dp2834
g18
I1
sg19
I0
sg20
I36
sg21
I0
sg22
I0
sg23
I0
sg24
I0
sbssg51
S'\x0eh\xf7\xba\x08_N\xdeM\xdf\x03\xbd\x8c\x8a\x89\xd0'
p2835
ssS'learn_urls'
p2836
(dp2837
g55
(dp2838
g174
S'learn_urls.html'
p2839
sg176
S'learn/urls'
p2840
sg178
g13
(g14
g15
NtRp2841
(dp2842
g18
I1
sg19
I0
sg20
I8
sg21
I0
sg22
I0
sg23
I0
sg24
I0
sbssg64
S'\x1a\xcd\x95\xa0\xd8s\xf6\xb3\x9e\xd7H\xe5*M\xbdG'
p2843
ssS'api_logging___init__'
p2844
(dp2845
g545
(dp2846
g713
S'api_logging___init__.html'
p2847
sg715
S'api_logging/__init__'
p2848
sg717
g13
(g14
g15
NtRp2849
(dp2850
g18
I1
sg19
I0
sg20
I0
sg21
I0
sg22
I0
sg23
I0
sg24
I0
sbssg551
S'\x19g\xdfM\x1a\x019\xaf\x1baIeR\xe5u\xa7'
p2851
ssS'create_views_questions_question_view'
p2852
(dp2853
g42
(dp2854
g741
S'create_views_questions_question_view.html'
p2855
sg743
S'create/views/questions/question_view'
p2856
sg745
g13
(g14
g15
NtRp2857
(dp2858
g18
I1
sg19
I34
sg20
I112
sg21
I0
sg22
I1
sg23
I40
sg24
I21
sbssg51
S"_'M\x9d\x0e\r\xae\x93=\xce\xd2\x1b>\x8eV\xe4"
p2859
ssS'create_views_quests_tests_test_add_question_view'
p2860
(dp2861
g6
(dp2862
g8
S'create_views_quests_tests_test_add_question_view.html'
p2863
sg10
S'create/views/quests/tests/test_add_question_view'
p2864
sg12
g13
(g14
g15
NtRp2865
(dp2866
g18
I1
sg19
I0
sg20
I0
sg21
I0
sg22
I0
sg23
I0
sg24
I0
sbssg25
S'\x19g\xdfM\x1a\x019\xaf\x1baIeR\xe5u\xa7'
p2867
ssS'create_models_daily_quest_copies___init__'
p2868
(dp2869
g401
(dp2870
g1490
S'create_models_daily_quest_copies___init__.html'
p2871
sg1492
S'create/models/daily_quest_copies/__init__'
p2872
sg1494
g13
(g14
g15
NtRp2873
(dp2874
g18
I1
sg19
I0
sg20
I1
sg21
I0
sg22
I0
sg23
I0
sg24
I0
sbssg410
S'\xee\xef\xb8!Z;\x9e_\xb5g4\xe9\xac@l\xe6'
p2875
ssS'create_models_books_tests___init__'
p2876
(dp2877
g349
(dp2878
g761
S'create_models_books_tests___init__.html'
p2879
sg763
S'create/models/books/tests/__init__'
p2880
sg765
g13
(g14
g15
NtRp2881
(dp2882
g18
I1
sg19
I0
sg20
I0
sg21
I0
sg22
I0
sg23
I0
sg24
I0
sbssg355
S'\x19g\xdfM\x1a\x019\xaf\x1baIeR\xe5u\xa7'
p2883
ssS'privilege_models_privileges___init__'
p2884
(dp2885
g284
(dp2886
g93
S'privilege_models_privileges___init__.html'
p2887
sg95
S'privilege/models/privileges/__init__'
p2888
sg97
g13
(g14
g15
NtRp2889
(dp2890
g18
I1
sg19
I0
sg20
I2
sg21
I0
sg22
I0
sg23
I0
sg24
I0
sbssg290
S'\x14\x97Z\xa7<\xbd\xe6Z\xa0jIA\xc0I\xfd"'
p2891
ssS'user_system_managers_streak_manager'
p2892
(dp2893
g294
(dp2894
g185
S'user_system_managers_streak_manager.html'
p2895
sg187
S'user_system/managers/streak_manager'
p2896
sg189
g13
(g14
g15
NtRp2897
(dp2898
g18
I1
sg19
I26
sg20
I63
sg21
I0
sg22
I2
sg23
I45
sg24
I24
sbssg300
S')\xc1\x80"\xfe<\x83\xd0\xef\xad}\xa7J\xe6\x87K'
p2899
ssS'learn_views_student_news_feed_student_news_feed_view'
p2900
(dp2901
g294
(dp2902
g174
S'learn_views_student_news_feed_student_news_feed_view.html'
p2903
sg176
S'learn/views/student_news_feed/student_news_feed_view'
p2904
sg178
g13
(g14
g15
NtRp2905
(dp2906
g18
I1
sg19
I10
sg20
I38
sg21
I0
sg22
I0
sg23
I22
sg24
I10
sbssg300
S'\x92\x80%\x91\x88\x85wF\xb9\\0B\xe5\xb6\x820'
p2907
ssS'user_system_models_schools_tests_test_academic_year_model'
p2908
(dp2909
g203
(dp2910
g331
S'user_system_models_schools_tests_test_academic_year_model.html'
p2911
sg333
S'user_system/models/schools/tests/test_academic_year_model'
p2912
sg335
g13
(g14
g15
NtRp2913
(dp2914
g18
I1
sg19
I0
sg20
I28
sg21
I0
sg22
I0
sg23
I0
sg24
I0
sbssg212
S'{=\xee\xbc8\xbd\xa7\xdd\x0f!3\xf8\xf0os\xe2'
p2915
ssS'learn_serializers_daily_quests_daily_quest_question_history_serializer'
p2916
(dp2917
g294
(dp2918
g174
S'learn_serializers_daily_quests_daily_quest_question_history_serializer.html'
p2919
sg176
S'learn/serializers/daily_quests/daily_quest_question_history_serializer'
p2920
sg178
g13
(g14
g15
NtRp2921
(dp2922
g18
I1
sg19
I0
sg20
I8
sg21
I0
sg22
I0
sg23
I0
sg24
I0
sbssg300
S'q$\xc8~\x9a\xbb\x03\x1a\x12[aG\x9a\x87\xc6\x0c'
p2923
ssS'api_logging_serializers_modal_loggings___init__'
p2924
(dp2925
g294
(dp2926
g174
S'api_logging_serializers_modal_loggings___init__.html'
p2927
sg176
S'api_logging/serializers/modal_loggings/__init__'
p2928
sg178
g13
(g14
g15
NtRp2929
(dp2930
g18
I1
sg19
I0
sg20
I1
sg21
I0
sg22
I0
sg23
I0
sg24
I0
sbssg300
S'\xff)\x01pU0i\x848\xea\xfc\x08\x0b\x0bS\xa4'
p2931
ssS'user_system_models_schools_grade_model'
p2932
(dp2933
g229
(dp2934
g174
S'user_system_models_schools_grade_model.html'
p2935
sg176
S'user_system/models/schools/grade_model'
p2936
sg178
g13
(g14
g15
NtRp2937
(dp2938
g18
I1
sg19
I0
sg20
I29
sg21
I0
sg22
I0
sg23
I2
sg24
I0
sbssg235
S'\xfdv\xccR\xe0u\x91\x0f\x7f\x03\xcb\xc4y\xc19k'
p2939
ssS'user_system_serializers_schools___init__'
p2940
(dp2941
g55
(dp2942
g31
S'user_system_serializers_schools___init__.html'
p2943
sg33
S'user_system/serializers/schools/__init__'
p2944
sg35
g13
(g14
g15
NtRp2945
(dp2946
g18
I1
sg19
I0
sg20
I5
sg21
I0
sg22
I0
sg23
I0
sg24
I0
sbssg64
S'8yN\xa2\x98\xe3%\xd4\xe2\xfd\xf2@\xcc\xa7\x02\xdb'
p2947
ssS'create_serializers_questions_question_choice_serializer'
p2948
(dp2949
g42
(dp2950
g174
S'create_serializers_questions_question_choice_serializer.html'
p2951
sg176
S'create/serializers/questions/question_choice_serializer'
p2952
sg178
g13
(g14
g15
NtRp2953
(dp2954
g18
I1
sg19
I0
sg20
I10
sg21
I0
sg22
I0
sg23
I0
sg24
I0
sbssg51
S'\xe4\xc0O\xa2\x80M\x05Wf\xdeO=\xf7\xaaT\x95'
p2955
ssS'create_serializers_questions_question_template_serializer'
p2956
(dp2957
g103
(dp2958
g1151
S'create_serializers_questions_question_template_serializer.html'
p2959
sg1153
S'create/serializers/questions/question_template_serializer'
p2960
sg1155
g13
(g14
g15
NtRp2961
(dp2962
g18
I1
sg19
I0
sg20
I43
sg21
I0
sg22
I0
sg23
I9
sg24
I0
sbssg112
S'\x1a\x149\xdb\xb8\xc7\xfc\xb6\xbc\x8b\xfe\x8e~N\xb9J'
p2963
ssS'teach_views_summaries_top_answered_questions_summary_view'
p2964
(dp2965
g294
(dp2966
g185
S'teach_views_summaries_top_answered_questions_summary_view.html'
p2967
sg187
S'teach/views/summaries/top_answered_questions_summary_view'
p2968
sg189
g13
(g14
g15
NtRp2969
(dp2970
g18
I1
sg19
I34
sg20
I77
sg21
I0
sg22
I0
sg23
I54
sg24
I34
sbssg300
S'C\xff\\\x81\xb8&\xb6\x00?\xf9g\xbeJ9\xa5\xd4'
p2971
ssS'user_system_models_apps___init__'
p2972
(dp2973
g42
(dp2974
g431
S'user_system_models_apps___init__.html'
p2975
sg433
S'user_system/models/apps/__init__'
p2976
sg435
g13
(g14
g15
NtRp2977
(dp2978
g18
I1
sg19
I0
sg20
I1
sg21
I0
sg22
I0
sg23
I0
sg24
I0
sbssg51
S'\n\xe9\xce\x15)\x8d\xc6\xdd\xe0\x9b\x990[\xae\x8cl'
p2979
ssS'create_views_books_book_view'
p2980
(dp2981
g349
(dp2982
g8
S'create_views_books_book_view.html'
p2983
sg10
S'create/views/books/book_view'
p2984
sg12
g13
(g14
g15
NtRp2985
(dp2986
g18
I1
sg19
I34
sg20
I124
sg21
I0
sg22
I3
sg23
I8
sg24
I5
sbssg355
S'%\x96\xb2\x15\x98\xef\x0fL\xc0&\xf9\x18\x91-\xb28'
p2987
ssS'create_models_quests___init__'
p2988
(dp2989
g103
(dp2990
g601
S'create_models_quests___init__.html'
p2991
sg603
S'create/models/quests/__init__'
p2992
sg605
g13
(g14
g15
NtRp2993
(dp2994
g18
I1
sg19
I0
sg20
I2
sg21
I0
sg22
I0
sg23
I0
sg24
I0
sbssg112
S'\x1e\x87\x83\xe2\x04\x1d\xcd:`\x99V\x85#\xca\x12^'
p2995
ssS'privilege_serializers_privileges_privilege_serializer'
p2996
(dp2997
g284
(dp2998
g93
S'privilege_serializers_privileges_privilege_serializer.html'
p2999
sg95
S'privilege/serializers/privileges/privilege_serializer'
p3000
sg97
g13
(g14
g15
NtRp3001
(dp3002
g18
I1
sg19
I0
sg20
I7
sg21
I0
sg22
I0
sg23
I0
sg24
I0
sbssg290
S'?v\x87\xf3\x00\x8cw`\xd8\x0b\xeb\x98\x18\xbd\x1dR'
p3003
ssS'user_system_views_signups_hardcoded_tests_test_test_account_view'
p3004
(dp3005
g42
(dp3006
g44
S'user_system_views_signups_hardcoded_tests_test_test_account_view.html'
p3007
sg46
S'user_system/views/signups/hardcoded/tests/test_test_account_view'
p3008
sg48
g13
(g14
g15
NtRp3009
(dp3010
g18
I1
sg19
I0
sg20
I24
sg21
I0
sg22
I0
sg23
I0
sg24
I0
sbssg51
S'@\xc3::\xf8h\x1aT\x9f\x83\xee1\xb7\x9a\xe0\xf9'
p3011
ssS'create_models_tags_concept_model'
p3012
(dp3013
g383
(dp3014
g44
S'create_models_tags_concept_model.html'
p3015
sg46
S'create/models/tags/concept_model'
p3016
sg48
g13
(g14
g15
NtRp3017
(dp3018
g18
I1
sg19
I0
sg20
I10
sg21
I0
sg22
I0
sg23
I0
sg24
I0
sbssg389
S'@vb\xbd\xcay\xb1b\x9e\xaf\xc0v/\xd6\x13\xd3'
p3019
ssS'create_models_tags_tests___init__'
p3020
(dp3021
g383
(dp3022
S'html_filename'
p3023
S'create_models_tags_tests___init__.html'
p3024
sS'name'
p3025
S'create/models/tags/tests/__init__'
p3026
sS'nums'
p3027
g13
(g14
g15
NtRp3028
(dp3029
g18
I1
sg19
I0
sg20
I1
sg21
I0
sg22
I0
sg23
I0
sg24
I0
sbssg389
S'\xbc\xd6\xeb\xb3\xba\xcaz\xf7{\xd4B\xb5}l\xdf\x96'
p3030
ssS'learn_admin'
p3031
(dp3032
g55
(dp3033
g174
S'learn_admin.html'
p3034
sg176
S'learn/admin'
p3035
sg178
g13
(g14
g15
NtRp3036
(dp3037
g18
I1
sg19
I0
sg20
I6
sg21
I0
sg22
I0
sg23
I0
sg24
I0
sbssg64
S'\x01\xff=[_\x13,\xf8ES\x17G)\x1e\xfb\x10'
p3038
ssS'user_system_models_schools_classroom_model'
p3039
(dp3040
g229
(dp3041
g174
S'user_system_models_schools_classroom_model.html'
p3042
sg176
S'user_system/models/schools/classroom_model'
p3043
sg178
g13
(g14
g15
NtRp3044
(dp3045
g18
I1
sg19
I2
sg20
I24
sg21
I0
sg22
I0
sg23
I0
sg24
I0
sbssg235
S'\xb4}\xd2\xf3\xe4P\x96mC/hd\x0c\x17\x97m'
p3046
ssS'user_system_models_schools_semester_model'
p3047
(dp3048
g203
(dp3049
g331
S'user_system_models_schools_semester_model.html'
p3050
sg333
S'user_system/models/schools/semester_model'
p3051
sg335
g13
(g14
g15
NtRp3052
(dp3053
g18
I1
sg19
I0
sg20
I23
sg21
I0
sg22
I0
sg23
I0
sg24
I0
sbssg212
S'\x9f&7d<%\x13 \xcaht\xc4\xd4N\xee&'
p3054
ssS'create_views_daily_quest_copies_daily_quest_copy_view'
p3055
(dp3056
g401
(dp3057
g1490
S'create_views_daily_quest_copies_daily_quest_copy_view.html'
p3058
sg1492
S'create/views/daily_quest_copies/daily_quest_copy_view'
p3059
sg1494
g13
(g14
g15
NtRp3060
(dp3061
g18
I1
sg19
I0
sg20
I14
sg21
I0
sg22
I0
sg23
I0
sg24
I0
sbssg410
S'?\x95&\\\xae\xf0@\xfc\x96\xc15\xc9\x13\xf6_R'
p3062
ssS'flipped_helpers_parameters_helper'
p3063
(dp3064
g42
(dp3065
g31
S'flipped_helpers_parameters_helper.html'
p3066
sg33
S'flipped/helpers/parameters_helper'
p3067
sg35
g13
(g14
g15
NtRp3068
(dp3069
g18
I1
sg19
I14
sg20
I22
sg21
I0
sg22
I1
sg23
I4
sg24
I3
sbssg51
S'v\xe1\xf5\xb3r\x1f\xae\xee\x872U\xa1I\xf8\xef\x00'
p3070
ssS'user_system_models___init__'
p3071
(dp3072
g42
(dp3073
g2780
S'user_system_models___init__.html'
p3074
sg2782
S'user_system/models/__init__'
p3075
sg2784
g13
(g14
g15
NtRp3076
(dp3077
g18
I1
sg19
I0
sg20
I4
sg21
I0
sg22
I0
sg23
I0
sg24
I0
sbssg51
S"\xe9'\xed1xn\xd7\xe4\x91\x8ei\xc0\x0f\x1b\x9eY"
p3078
ssS'create_models_questions_tests_test_question_model'
p3079
(dp3080
g42
(dp3081
g1186
S'create_models_questions_tests_test_question_model.html'
p3082
sg1188
S'create/models/questions/tests/test_question_model'
p3083
sg1190
g13
(g14
g15
NtRp3084
(dp3085
g18
I1
sg19
I8
sg20
I58
sg21
I0
sg22
I0
sg23
I0
sg24
I0
sbssg51
S'l\x9e\xee!<,L\xbf\xa0\xe6\r\xd7W\xc9tu'
p3086
ssS'user_system_models_users_tests_test_user_profile_history_model'
p3087
(dp3088
g116
(dp3089
g31
S'user_system_models_users_tests_test_user_profile_history_model.html'
p3090
sg33
S'user_system/models/users/tests/test_user_profile_history_model'
p3091
sg35
g13
(g14
g15
NtRp3092
(dp3093
g18
I1
sg19
I0
sg20
I54
sg21
I0
sg22
I0
sg23
I0
sg24
I0
sbssg122
S'<IT\xa7\x05\xe0ML\xb0gu{\xd2>\xc8$'
p3094
ssS'create_models_question_datasets_question_dataset_model'
p3095
(dp3096
g144
(dp3097
g146
S'create_models_question_datasets_question_dataset_model.html'
p3098
sg148
S'create/models/question_datasets/question_dataset_model'
p3099
sg150
g13
(g14
g15
NtRp3100
(dp3101
g18
I1
sg19
I0
sg20
I25
sg21
I0
sg22
I0
sg23
I0
sg24
I0
sbssg153
S'\x9e\x8d\xc6\xe6\xe4\x9f#\xfdc\xc9q\r\x17Y\x8e\xb1'
p3102
ssS'create_serializers_questions___init__'
p3103
(dp3104
g42
(dp3105
g174
S'create_serializers_questions___init__.html'
p3106
sg176
S'create/serializers/questions/__init__'
p3107
sg178
g13
(g14
g15
NtRp3108
(dp3109
g18
I1
sg19
I0
sg20
I5
sg21
I0
sg22
I0
sg23
I0
sg24
I0
sbssg51
S'\xe6(4O\xf6\xd4\xe4\x154\xe9\xa1;\x0cD\x90\t'
p3110
ssS'user_system_views_signups_hardcoded_tests___init__'
p3111
(dp3112
g42
(dp3113
g431
S'user_system_views_signups_hardcoded_tests___init__.html'
p3114
sg433
S'user_system/views/signups/hardcoded/tests/__init__'
p3115
sg435
g13
(g14
g15
NtRp3116
(dp3117
g18
I1
sg19
I0
sg20
I0
sg21
I0
sg22
I0
sg23
I0
sg24
I0
sbssg51
S'\x19g\xdfM\x1a\x019\xaf\x1baIeR\xe5u\xa7'
p3118
ssS'create_serializers_questions_question_serializer'
p3119
(dp3120
g42
(dp3121
g93
S'create_serializers_questions_question_serializer.html'
p3122
sg95
S'create/serializers/questions/question_serializer'
p3123
sg97
g13
(g14
g15
NtRp3124
(dp3125
g18
I1
sg19
I0
sg20
I59
sg21
I0
sg22
I0
sg23
I11
sg24
I0
sbssg51
S'\xd6f\xc4\xe6\x97\xe4~\xa4n\xcc+|\xcc\xdayh'
p3126
ssS'user_system_views___init__'
p3127
(dp3128
g42
(dp3129
g31
S'user_system_views___init__.html'
p3130
sg33
S'user_system/views/__init__'
p3131
sg35
g13
(g14
g15
NtRp3132
(dp3133
g18
I1
sg19
I0
sg20
I5
sg21
I0
sg22
I0
sg23
I0
sg24
I0
sbssg51
S'&v35\x98Nv\xc2>un\xb1\x9a\x93\xd2\xea'
p3134
ssS'user_system_views_users_user_profile_update_request_view'
p3135
(dp3136
g116
(dp3137
g686
S'user_system_views_users_user_profile_update_request_view.html'
p3138
sg688
S'user_system/views/users/user_profile_update_request_view'
p3139
sg690
g13
(g14
g15
NtRp3140
(dp3141
g18
I1
sg19
I24
sg20
I70
sg21
I0
sg22
I0
sg23
I51
sg24
I24
sbssg122
S"\x04\xfd\x81?\x1e<^\xb0%\xad\xa6'\xcf\xa1\xc3)"
p3142
ssS'user_system_models_roles_role_model'
p3143
(dp3144
g42
(dp3145
g44
S'user_system_models_roles_role_model.html'
p3146
sg46
S'user_system/models/roles/role_model'
p3147
sg48
g13
(g14
g15
NtRp3148
(dp3149
g18
I1
sg19
I0
sg20
I16
sg21
I0
sg22
I0
sg23
I0
sg24
I0
sbssg51
S'\x180j\xc8\x05 \xa05\xa7\xffj\x1dJ\x8a6\xcb'
p3150
ssS'user_system_views_roles_user_role_view'
p3151
(dp3152
g42
(dp3153
g44
S'user_system_views_roles_user_role_view.html'
p3154
sg46
S'user_system/views/roles/user_role_view'
p3155
sg48
g13
(g14
g15
NtRp3156
(dp3157
g18
I1
sg19
I8
sg20
I31
sg21
I0
sg22
I0
sg23
I0
sg24
I0
sbssg51
S'S@\xea\xb7\xd6\xe1\x1b\x1dU\x18a\x9d\x80\xe3A\xb9'
p3158
ssS'create_models_questions_tests_test_question_history_remark_model'
p3159
(dp3160
g571
(dp3161
g573
S'create_models_questions_tests_test_question_history_remark_model.html'
p3162
sg575
S'create/models/questions/tests/test_question_history_remark_model'
p3163
sg577
g13
(g14
g15
NtRp3164
(dp3165
g18
I1
sg19
I0
sg20
I30
sg21
I0
sg22
I0
sg23
I0
sg24
I0
sbssg580
S'K>pG_\xbd\x15\x8b\xd8\x05\xd4\x15\xb3\x9b\xcaP'
p3166
ssS'api_logging_serializers___init__'
p3167
(dp3168
g294
(dp3169
g174
S'api_logging_serializers___init__.html'
p3170
sg176
S'api_logging/serializers/__init__'
p3171
sg178
g13
(g14
g15
NtRp3172
(dp3173
g18
I1
sg19
I0
sg20
I2
sg21
I0
sg22
I0
sg23
I0
sg24
I0
sbssg300
S'\x02\xac\xc4\x02\x172\x90\xf3=\xcb\x89>\x99\xbc\x19\xd9'
p3174
ssS'user_system_models_users_tests_test_user_facebook_model'
p3175
(dp3176
g42
(dp3177
g44
S'user_system_models_users_tests_test_user_facebook_model.html'
p3178
sg46
S'user_system/models/users/tests/test_user_facebook_model'
p3179
sg48
g13
(g14
g15
NtRp3180
(dp3181
g18
I1
sg19
I0
sg20
I29
sg21
I0
sg22
I0
sg23
I0
sg24
I0
sbssg51
S'B\xac\x06Z\x1f7\xba2\x81\xd7\xb4\x17\xaf\x84u+'
p3182
ssS'user_system_models_users_user_credentials_model'
p3183
(dp3184
S'index'
p3185
(dp3186
g2026
S'user_system_models_users_user_credentials_model.html'
p3187
sg2028
S'user_system/models/users/user_credentials_model'
p3188
sg2030
g13
(g14
g15
NtRp3189
(dp3190
g18
I1
sg19
I0
sg20
I7
sg21
I0
sg22
I0
sg23
I0
sg24
I0
sbssS'hash'
p3191
S'g\x10U/\x1f\x83\x0bO\x95o\x9c9\xefV\x81\x8e'
p3192
ssS'create_serializers_books___init__'
p3193
(dp3194
g349
(dp3195
g761
S'create_serializers_books___init__.html'
p3196
sg763
S'create/serializers/books/__init__'
p3197
sg765
g13
(g14
g15
NtRp3198
(dp3199
g18
I1
sg19
I0
sg20
I0
sg21
I0
sg22
I0
sg23
I0
sg24
I0
sbssg355
S'\x19g\xdfM\x1a\x019\xaf\x1baIeR\xe5u\xa7'
p3200
ssS'create_models_questions_tests_test_question_template_model'
p3201
(dp3202
g103
(dp3203
g974
S'create_models_questions_tests_test_question_template_model.html'
p3204
sg976
S'create/models/questions/tests/test_question_template_model'
p3205
sg978
g13
(g14
g15
NtRp3206
(dp3207
g18
I1
sg19
I8
sg20
I74
sg21
I0
sg22
I0
sg23
I0
sg24
I0
sbssg112
S"~\xca\x9c'\x89\x11\x82V\xb3v\x0c4]\x9c\xce4"
p3208
ssS'create_views_quests_tests_test_add_question_template_view'
p3209
(dp3210
g6
(dp3211
g8
S'create_views_quests_tests_test_add_question_template_view.html'
p3212
sg10
S'create/views/quests/tests/test_add_question_template_view'
p3213
sg12
g13
(g14
g15
NtRp3214
(dp3215
g18
I1
sg19
I0
sg20
I0
sg21
I0
sg22
I0
sg23
I0
sg24
I0
sbssg25
S'\x19g\xdfM\x1a\x019\xaf\x1baIeR\xe5u\xa7'
p3216
ssS'learn_models_points_tests___init__'
p3217
(dp3218
g294
(dp3219
g174
S'learn_models_points_tests___init__.html'
p3220
sg176
S'learn/models/points/tests/__init__'
p3221
sg178
g13
(g14
g15
NtRp3222
(dp3223
g18
I1
sg19
I0
sg20
I1
sg21
I0
sg22
I0
sg23
I0
sg24
I0
sbssg300
S'\xbc\xd6\xeb\xb3\xba\xcaz\xf7{\xd4B\xb5}l\xdf\x96'
p3224
ssS'create_views_tags_tests_test_hide_tag_view'
p3225
(dp3226
g675
(dp3227
g44
S'create_views_tags_tests_test_hide_tag_view.html'
p3228
sg46
S'create/views/tags/tests/test_hide_tag_view'
p3229
sg48
g13
(g14
g15
NtRp3230
(dp3231
g18
I1
sg19
I0
sg20
I25
sg21
I0
sg22
I0
sg23
I0
sg24
I0
sbssg681
S'\x8a\x07\xe0\xe1Q\x820\x05R\x14E\xd0\xdf\x8e\xc5\x8a'
p3232
ssS'learn_views_daily_quests___init__'
p3233
(dp3234
g55
(dp3235
g57
S'learn_views_daily_quests___init__.html'
p3236
sg59
S'learn/views/daily_quests/__init__'
p3237
sg61
g13
(g14
g15
NtRp3238
(dp3239
g18
I1
sg19
I0
sg20
I1
sg21
I0
sg22
I0
sg23
I0
sg24
I0
sbssg64
S'\xa3\x08\xf3\xbaF\xd5u\x88\x12\xa3V\x05K\xe5\xd0\xa9'
p3240
ssS'create_views_books_tests___init__'
p3241
(dp3242
g920
(dp3243
S'html_filename'
p3244
S'create_views_books_tests___init__.html'
p3245
sS'name'
p3246
S'create/views/books/tests/__init__'
p3247
sS'nums'
p3248
g13
(g14
g15
NtRp3249
(dp3250
g18
I1
sg19
I0
sg20
I0
sg21
I0
sg22
I0
sg23
I0
sg24
I0
sbssg926
S'\x19g\xdfM\x1a\x019\xaf\x1baIeR\xe5u\xa7'
p3251
sssS'version'
p3252
S'3.7.1'
p3253
sS'settings'
p3254
S'\x961E{\x0c29\xd1#\x83\xd3j9"\xd8\x10'
p3255
sS'format'
p3256
I1
s.