(dp1
S'files'
p2
(dp3
S'create_views_quests_tests_test_add_tag_view'
p4
(dp5
S'index'
p6
(dp7
S'html_filename'
p8
S'create_views_quests_tests_test_add_tag_view.html'
p9
sS'name'
p10
S'create/views/quests/tests/test_add_tag_view'
p11
sS'nums'
p12
ccopy_reg
_reconstructor
p13
(ccoverage.results
Numbers
p14
c__builtin__
object
p15
NtRp16
(dp17
S'n_files'
p18
I1
sS'n_branches'
p19
I0
sS'n_statements'
p20
I35
sS'n_excluded'
p21
I0
sS'n_partial_branches'
p22
I0
sS'n_missing'
p23
I0
sS'n_missing_branches'
p24
I0
sbssS'hash'
p25
S'o\xbe\xf1\xf9\x80\xe5|\xbab\xcc\xe2F=\x1e\xacp'
p26
ssS'user_system_models_users_teacher_profile_model'
p27
(dp28
S'index'
p29
(dp30
S'html_filename'
p31
S'user_system_models_users_teacher_profile_model.html'
p32
sS'name'
p33
S'user_system/models/users/teacher_profile_model'
p34
sS'nums'
p35
g13
(g14
g15
NtRp36
(dp37
g18
I1
sg19
I0
sg20
I27
sg21
I0
sg22
I0
sg23
I0
sg24
I0
sbssS'hash'
p38
S'x\x9e\x06\xe6\x8d\x87\xed\xaf\x91\x87\x16\xfc"\x96\xf2\xfc'
p39
ssS'user_system_views_signups_facebook_signup_view'
p40
(dp41
S'index'
p42
(dp43
S'html_filename'
p44
S'user_system_views_signups_facebook_signup_view.html'
p45
sS'name'
p46
S'user_system/views/signups/facebook_signup_view'
p47
sS'nums'
p48
g13
(g14
g15
NtRp49
(dp50
g18
I1
sg19
I8
sg20
I38
sg21
I0
sg22
I0
sg23
I0
sg24
I0
sbssS'hash'
p51
S'\x04E\'\x17r8\x14\xf6 \x98\xb5\xa0sx"@'
p52
ssS'teach_models_teacher_tags___init__'
p53
(dp54
S'index'
p55
(dp56
S'html_filename'
p57
S'teach_models_teacher_tags___init__.html'
p58
sS'name'
p59
S'teach/models/teacher_tags/__init__'
p60
sS'nums'
p61
g13
(g14
g15
NtRp62
(dp63
g18
I1
sg19
I0
sg20
I1
sg21
I0
sg22
I0
sg23
I0
sg24
I0
sbssS'hash'
p64
S"\x15#y\x16\x1a\x9d\xc6mE\xccg]\x07\xb9'\xe0"
p65
ssS'user_system_models_users_user_facebook_model'
p66
(dp67
g42
(dp68
g44
S'user_system_models_users_user_facebook_model.html'
p69
sg46
S'user_system/models/users/user_facebook_model'
p70
sg48
g13
(g14
g15
NtRp71
(dp72
g18
I1
sg19
I0
sg20
I22
sg21
I0
sg22
I0
sg23
I0
sg24
I0
sbssg51
S'!d\xff\xbcl0O(`\x1b1\xf7\xb3*{X'
p73
ssS'teach_models_teacher_chapters___init__'
p74
(dp75
g55
(dp76
g57
S'teach_models_teacher_chapters___init__.html'
p77
sg59
S'teach/models/teacher_chapters/__init__'
p78
sg61
g13
(g14
g15
NtRp79
(dp80
g18
I1
sg19
I0
sg20
I1
sg21
I0
sg22
I0
sg23
I0
sg24
I0
sbssg64
S'\xfa\xce(\x03\x8d\xd7\xc1h\xedT\xf9d\xae\x03w^'
p81
ssS'user_system_views_logins_facebook_login_view'
p82
(dp83
g42
(dp84
g44
S'user_system_views_logins_facebook_login_view.html'
p85
sg46
S'user_system/views/logins/facebook_login_view'
p86
sg48
g13
(g14
g15
NtRp87
(dp88
g18
I1
sg19
I4
sg20
I24
sg21
I0
sg22
I0
sg23
I0
sg24
I0
sbssg51
S',\xf8~\x8d\x9b\xfe\xa6wQ5\x92t\x15\xe5\x95\x8d'
p89
ssS'create_serializers_questions_question_history_serializer'
p90
(dp91
g42
(dp92
S'html_filename'
p93
S'create_serializers_questions_question_history_serializer.html'
p94
sS'name'
p95
S'create/serializers/questions/question_history_serializer'
p96
sS'nums'
p97
g13
(g14
g15
NtRp98
(dp99
g18
I1
sg19
I2
sg20
I30
sg21
I0
sg22
I1
sg23
I2
sg24
I1
sbssg51
S'C\x93,\xa4\xac3\xb6\xb8\xca\x076\xae\x14\x15\xc0J'
p100
ssS'create_serializers_quests_quest_history_serializer'
p101
(dp102
S'index'
p103
(dp104
S'html_filename'
p105
S'create_serializers_quests_quest_history_serializer.html'
p106
sS'name'
p107
S'create/serializers/quests/quest_history_serializer'
p108
sS'nums'
p109
g13
(g14
g15
NtRp110
(dp111
g18
I1
sg19
I0
sg20
I38
sg21
I0
sg22
I0
sg23
I15
sg24
I0
sbssS'hash'
p112
S'\x0c\x10\x81\x11\xc3\xff\x01\x8d<#\xe5~\x84\xec\x18\xfd'
p113
ssS'user_system_models_users_tests_test_student_profile_request_model'
p114
(dp115
S'index'
p116
(dp117
g31
S'user_system_models_users_tests_test_student_profile_request_model.html'
p118
sg33
S'user_system/models/users/tests/test_student_profile_request_model'
p119
sg35
g13
(g14
g15
NtRp120
(dp121
g18
I1
sg19
I0
sg20
I42
sg21
I0
sg22
I0
sg23
I0
sg24
I0
sbssS'hash'
p122
S'\x0c4FG\x9bD\x9e\xaa\xb9a\xd6\xee\xc6&0T'
p123
ssS'create_views_books_tests_test_add_chapter_view'
p124
(dp125
S'index'
p126
(dp127
g44
S'create_views_books_tests_test_add_chapter_view.html'
p128
sg46
S'create/views/books/tests/test_add_chapter_view'
p129
sg48
g13
(g14
g15
NtRp130
(dp131
g18
I1
sg19
I0
sg20
I69
sg21
I0
sg22
I0
sg23
I0
sg24
I0
sbssS'hash'
p132
S'\xea\xcd\x81\xff\xe6p74\xe3\xab\xc2R\x1aZ#Y'
p133
ssS'teach_models_teacher_chapters_tests_test_teacher_chapter_model'
p134
(dp135
g55
(dp136
g57
S'teach_models_teacher_chapters_tests_test_teacher_chapter_model.html'
p137
sg59
S'teach/models/teacher_chapters/tests/test_teacher_chapter_model'
p138
sg61
g13
(g14
g15
NtRp139
(dp140
g18
I1
sg19
I0
sg20
I28
sg21
I0
sg22
I0
sg23
I0
sg24
I0
sbssg64
S'm\xb2B\x1a\x04\xa5\x94N\xbe\xb6\xfa\xa9\x16J\x10\x92'
p141
ssS'create_serializers_question_datasets___init__'
p142
(dp143
S'index'
p144
(dp145
S'html_filename'
p146
S'create_serializers_question_datasets___init__.html'
p147
sS'name'
p148
S'create/serializers/question_datasets/__init__'
p149
sS'nums'
p150
g13
(g14
g15
NtRp151
(dp152
g18
I1
sg19
I0
sg20
I1
sg21
I0
sg22
I0
sg23
I0
sg24
I0
sbssS'hash'
p153
S'Z\xf8\x02Tc\xc1C;<_\x87\xc6\xc2H\xa6\xdc'
p154
ssS'user_system_models_users_user_profile_model'
p155
(dp156
g42
(dp157
S'html_filename'
p158
S'user_system_models_users_user_profile_model.html'
p159
sS'name'
p160
S'user_system/models/users/user_profile_model'
p161
sS'nums'
p162
g13
(g14
g15
NtRp163
(dp164
g18
I1
sg19
I48
sg20
I178
sg21
I0
sg22
I0
sg23
I24
sg24
I6
sbssg51
S'\xf2\xb8\xecp\xaf\xff\n\xe3b\x06\xe8\xc3p\xf9\xe4W'
p165
ssS'create_models_question_datasets_tests_test_question_dataset_model'
p166
(dp167
g144
(dp168
g146
S'create_models_question_datasets_tests_test_question_dataset_model.html'
p169
sg148
S'create/models/question_datasets/tests/test_question_dataset_model'
p170
sg150
g13
(g14
g15
NtRp171
(dp172
g18
I1
sg19
I2
sg20
I39
sg21
I0
sg22
I0
sg23
I0
sg24
I0
sbssg153
S'!\t\x88\xfc\x0f\xaa\x0c\x88\xe3\xf9\x04\xd1\\0w\xf1'
p173
ssS'user_system_models_users___init__'
p174
(dp175
g42
(dp176
S'html_filename'
p177
S'user_system_models_users___init__.html'
p178
sS'name'
p179
S'user_system/models/users/__init__'
p180
sS'nums'
p181
g13
(g14
g15
NtRp182
(dp183
g18
I1
sg19
I0
sg20
I11
sg21
I0
sg22
I0
sg23
I0
sg24
I0
sbssg51
S'\x81\xefKrW:\x98\xa0\xfbl\x17\xe1E\xb8..'
p184
ssS'teach_urls'
p185
(dp186
g55
(dp187
S'html_filename'
p188
S'teach_urls.html'
p189
sS'name'
p190
S'teach/urls'
p191
sS'nums'
p192
g13
(g14
g15
NtRp193
(dp194
g18
I1
sg19
I0
sg20
I13
sg21
I0
sg22
I0
sg23
I0
sg24
I0
sbssg64
S'1\xa6\x90\x84\xbf\x9b\x9at\x1f4\xf1\x1b\x92\x03\xff%'
p195
ssS'learn_serializers_daily_quests___init__'
p196
(dp197
g55
(dp198
g177
S'learn_serializers_daily_quests___init__.html'
p199
sg179
S'learn/serializers/daily_quests/__init__'
p200
sg181
g13
(g14
g15
NtRp201
(dp202
g18
I1
sg19
I0
sg20
I2
sg21
I0
sg22
I0
sg23
I0
sg24
I0
sbssg64
S'\x8e\x0b\xa4\xc1x\xdb]\xcc\xf6 \x7f\xbeO\x91\xca@'
p203
ssS'user_system_models_schools___init__'
p204
(dp205
S'index'
p206
(dp207
S'html_filename'
p208
S'user_system_models_schools___init__.html'
p209
sS'name'
p210
S'user_system/models/schools/__init__'
p211
sS'nums'
p212
g13
(g14
g15
NtRp213
(dp214
g18
I1
sg19
I0
sg20
I6
sg21
I0
sg22
I0
sg23
I0
sg24
I0
sbssS'hash'
p215
S'\xbe\xc9\xb2f\x05\x1f\xe6\xee\xef\x01#\xe8\x16\xc2\x83\xdb'
p216
ssS'create_views_questions_tests_test_remove_tag_view'
p217
(dp218
S'index'
p219
(dp220
S'html_filename'
p221
S'create_views_questions_tests_test_remove_tag_view.html'
p222
sS'name'
p223
S'create/views/questions/tests/test_remove_tag_view'
p224
sS'nums'
p225
g13
(g14
g15
NtRp226
(dp227
g18
I1
sg19
I0
sg20
I36
sg21
I0
sg22
I0
sg23
I0
sg24
I0
sbssS'hash'
p228
S'\xbdV1EN\xfe\x8e;\xe4\x92\x91r\xd6Q\x03\x80'
p229
ssS'user_system_models_users_tests_test_student_profile_model'
p230
(dp231
S'index'
p232
(dp233
g177
S'user_system_models_users_tests_test_student_profile_model.html'
p234
sg179
S'user_system/models/users/tests/test_student_profile_model'
p235
sg181
g13
(g14
g15
NtRp236
(dp237
g18
I1
sg19
I0
sg20
I48
sg21
I0
sg22
I0
sg23
I0
sg24
I0
sbssS'hash'
p238
S'\n_\xb5B0\x1dR\x0b\x16i\x1fy.Z\x14#'
p239
ssS'create_views_daily_quest_templates___init__'
p240
(dp241
S'index'
p242
(dp243
S'html_filename'
p244
S'create_views_daily_quest_templates___init__.html'
p245
sS'name'
p246
S'create/views/daily_quest_templates/__init__'
p247
sS'nums'
p248
g13
(g14
g15
NtRp249
(dp250
g18
I1
sg19
I0
sg20
I1
sg21
I0
sg22
I0
sg23
I0
sg24
I0
sbssS'hash'
p251
S'\xc1b\x1f\x95\xabR`C\xe80\xb9tNC\r3'
p252
ssS'learn___init__'
p253
(dp254
g55
(dp255
g57
S'learn___init__.html'
p256
sg59
S'learn/__init__'
p257
sg61
g13
(g14
g15
NtRp258
(dp259
g18
I1
sg19
I0
sg20
I0
sg21
I0
sg22
I0
sg23
I0
sg24
I0
sbssg64
S'\x19g\xdfM\x1a\x019\xaf\x1baIeR\xe5u\xa7'
p260
ssS'create_serializers_quests___init__'
p261
(dp262
g103
(dp263
g31
S'create_serializers_quests___init__.html'
p264
sg33
S'create/serializers/quests/__init__'
p265
sg35
g13
(g14
g15
NtRp266
(dp267
g18
I1
sg19
I0
sg20
I2
sg21
I0
sg22
I0
sg23
I0
sg24
I0
sbssg112
S'\xc0,Fh\xaf\xa0(\x8f\xde\x02{\x88!\x04\x7f\xb6'
p268
ssS'teach_views_teacher_chapters___init__'
p269
(dp270
g55
(dp271
g57
S'teach_views_teacher_chapters___init__.html'
p272
sg59
S'teach/views/teacher_chapters/__init__'
p273
sg61
g13
(g14
g15
NtRp274
(dp275
g18
I1
sg19
I0
sg20
I1
sg21
I0
sg22
I0
sg23
I0
sg24
I0
sbssg64
S'\x10AP\xc9\nC\xd2REz\xf6\xe5\xd2(\xee`'
p276
ssS'user_system_models_users_student_profile_request_model'
p277
(dp278
g116
(dp279
g31
S'user_system_models_users_student_profile_request_model.html'
p280
sg33
S'user_system/models/users/student_profile_request_model'
p281
sg35
g13
(g14
g15
NtRp282
(dp283
g18
I1
sg19
I0
sg20
I45
sg21
I0
sg22
I0
sg23
I0
sg24
I0
sbssg122
S'\xeeZA}\xa0\xf5\x88k0a2\x9fS\xf3}\x05'
p284
ssS'privilege_models___init__'
p285
(dp286
S'index'
p287
(dp288
g93
S'privilege_models___init__.html'
p289
sg95
S'privilege/models/__init__'
p290
sg97
g13
(g14
g15
NtRp291
(dp292
g18
I1
sg19
I0
sg20
I1
sg21
I0
sg22
I0
sg23
I0
sg24
I0
sbssS'hash'
p293
S'\x13V\xca}S\xd3\x98Rp?\xb0\xe1\x904>b'
p294
ssS'user_system_views_users_teacher_mapping_view'
p295
(dp296
S'index'
p297
(dp298
g177
S'user_system_views_users_teacher_mapping_view.html'
p299
sg179
S'user_system/views/users/teacher_mapping_view'
p300
sg181
g13
(g14
g15
NtRp301
(dp302
g18
I1
sg19
I0
sg20
I14
sg21
I0
sg22
I0
sg23
I0
sg24
I0
sbssS'hash'
p303
S'B\x04t\x93Z\x86Q.\x17\xf9\xa0*\xf6\x86\xcf\x10'
p304
ssS'create_views_tags_tests_test_search_tag_view'
p305
(dp306
S'index'
p307
(dp308
g93
S'create_views_tags_tests_test_search_tag_view.html'
p309
sg95
S'create/views/tags/tests/test_search_tag_view'
p310
sg97
g13
(g14
g15
NtRp311
(dp312
g18
I1
sg19
I0
sg20
I22
sg21
I0
sg22
I0
sg23
I0
sg24
I0
sbssS'hash'
p313
S'\rh\xcb\xb3g\x15\x9c\xe3hR\xc5r\xb9\x9c\xb2\x1f'
p314
ssS'create_views_questions_tests_test_hide_question_view'
p315
(dp316
g42
(dp317
g44
S'create_views_questions_tests_test_hide_question_view.html'
p318
sg46
S'create/views/questions/tests/test_hide_question_view'
p319
sg48
g13
(g14
g15
NtRp320
(dp321
g18
I1
sg19
I0
sg20
I30
sg21
I0
sg22
I0
sg23
I0
sg24
I0
sbssg51
S'\xb3\x10S\x8a\x9b\xecw\xaa\xd3\x81\x1b\xf2\xab\xb2QG'
p322
ssS'user_system_serializers_users_student_profile_request_serializer'
p323
(dp324
g116
(dp325
g31
S'user_system_serializers_users_student_profile_request_serializer.html'
p326
sg33
S'user_system/serializers/users/student_profile_request_serializer'
p327
sg35
g13
(g14
g15
NtRp328
(dp329
g18
I1
sg19
I0
sg20
I8
sg21
I0
sg22
I0
sg23
I0
sg24
I0
sbssg122
S'\xa9VJ\x07M\x02\xee$\t\xc8O\xc43$\x1a-'
p330
ssS'create_views_question_datasets_question_dataset_view'
p331
(dp332
g144
(dp333
g146
S'create_views_question_datasets_question_dataset_view.html'
p334
sg148
S'create/views/question_datasets/question_dataset_view'
p335
sg150
g13
(g14
g15
NtRp336
(dp337
g18
I1
sg19
I4
sg20
I20
sg21
I0
sg22
I0
sg23
I5
sg24
I4
sbssg153
S'\x01\xfb\xf2\x86m\xd4\xf9\xc3\xe6\xb6\x11\x96u;\x1ez'
p338
ssS'teach_models_campaigns___init__'
p339
(dp340
g116
(dp341
g31
S'teach_models_campaigns___init__.html'
p342
sg33
S'teach/models/campaigns/__init__'
p343
sg35
g13
(g14
g15
NtRp344
(dp345
g18
I1
sg19
I0
sg20
I1
sg21
I0
sg22
I0
sg23
I0
sg24
I0
sbssg122
S'\xba\x82\x818\x88\xe0\xf2#\xe9\x89\xffso\xdc\xe6\xd4'
p346
ssS'create_serializers_books_book_chapter_serializer'
p347
(dp348
S'index'
p349
(dp350
g57
S'create_serializers_books_book_chapter_serializer.html'
p351
sg59
S'create/serializers/books/book_chapter_serializer'
p352
sg61
g13
(g14
g15
NtRp353
(dp354
g18
I1
sg19
I0
sg20
I23
sg21
I0
sg22
I0
sg23
I3
sg24
I0
sbssS'hash'
p355
S'\xf1~, f\x89\xad\xc8p\xcc\xd4E_\x0b3\x06'
p356
ssS'api_logging_models_api_logging_api_logging_model'
p357
(dp358
g297
(dp359
g177
S'api_logging_models_api_logging_api_logging_model.html'
p360
sg179
S'api_logging/models/api_logging/api_logging_model'
p361
sg181
g13
(g14
g15
NtRp362
(dp363
g18
I1
sg19
I0
sg20
I21
sg21
I0
sg22
I0
sg23
I0
sg24
I0
sbssg303
S'\x0c\x96WFX%\xe9\xcf+\xcf\xc2s\xa7a1\xbd'
p364
ssS'create_models_question_datasets___init__'
p365
(dp366
g144
(dp367
g146
S'create_models_question_datasets___init__.html'
p368
sg148
S'create/models/question_datasets/__init__'
p369
sg150
g13
(g14
g15
NtRp370
(dp371
g18
I1
sg19
I0
sg20
I1
sg21
I0
sg22
I0
sg23
I0
sg24
I0
sbssg153
S'\xeb\xb7>&t\x02-\xeaaJ,\x8a\xae\xc3\x1a]'
p372
ssS'user_system_urls'
p373
(dp374
g42
(dp375
S'html_filename'
p376
S'user_system_urls.html'
p377
sS'name'
p378
S'user_system/urls'
p379
sS'nums'
p380
g13
(g14
g15
NtRp381
(dp382
g18
I1
sg19
I0
sg20
I18
sg21
I0
sg22
I0
sg23
I0
sg24
I0
sbssg51
S'\x00\x8ala|\xefj\x9c-\x8e\x9d\xca\xbe"W\x9f'
p383
ssS'create_models_tags_tests_test_tag_type_model'
p384
(dp385
S'index'
p386
(dp387
g44
S'create_models_tags_tests_test_tag_type_model.html'
p388
sg46
S'create/models/tags/tests/test_tag_type_model'
p389
sg48
g13
(g14
g15
NtRp390
(dp391
g18
I1
sg19
I0
sg20
I17
sg21
I0
sg22
I0
sg23
I0
sg24
I0
sbssS'hash'
p392
S'?6\xfcg\xce\x11\x1a7E\xaf\xb2\x02\t"\xddA'
p393
ssS'create_models_quests_quest_history_model'
p394
(dp395
g103
(dp396
g8
S'create_models_quests_quest_history_model.html'
p397
sg10
S'create/models/quests/quest_history_model'
p398
sg12
g13
(g14
g15
NtRp399
(dp400
g18
I1
sg19
I8
sg20
I75
sg21
I0
sg22
I3
sg23
I4
sg24
I3
sbssg112
S'@\xe7\xfa\x02?w\xe7\x93\xa3\x85\x0f\x0fz\xf0\xdbR'
p401
ssS'learn_models_daily_quests_tests_test_daily_quest_question_history_model'
p402
(dp403
S'index'
p404
(dp405
g376
S'learn_models_daily_quests_tests_test_daily_quest_question_history_model.html'
p406
sg378
S'learn/models/daily_quests/tests/test_daily_quest_question_history_model'
p407
sg380
g13
(g14
g15
NtRp408
(dp409
g18
I1
sg19
I0
sg20
I202
sg21
I0
sg22
I0
sg23
I0
sg24
I0
sbssS'hash'
p410
S"(\xfe\xfc\x9b\xd9\xaf\n\x08\x83_\xc9Ko'\xc4\xb9"
p411
ssS'create_models_daily_quest_copies_daily_quest_copy_model'
p412
(dp413
S'index'
p414
(dp415
S'html_filename'
p416
S'create_models_daily_quest_copies_daily_quest_copy_model.html'
p417
sS'name'
p418
S'create/models/daily_quest_copies/daily_quest_copy_model'
p419
sS'nums'
p420
g13
(g14
g15
NtRp421
(dp422
g18
I1
sg19
I6
sg20
I47
sg21
I0
sg22
I0
sg23
I14
sg24
I6
sbssS'hash'
p423
S'\x90\xa7\xba\xee\x88\xf84\xf7\xd1B\x9b9@\\\x80P'
p424
ssS'create_views_tags_tests___init__'
p425
(dp426
S'index'
p427
(dp428
S'html_filename'
p429
S'create_views_tags_tests___init__.html'
p430
sS'name'
p431
S'create/views/tags/tests/__init__'
p432
sS'nums'
p433
g13
(g14
g15
NtRp434
(dp435
g18
I1
sg19
I0
sg20
I0
sg21
I0
sg22
I0
sg23
I0
sg24
I0
sbssS'hash'
p436
S'\x19g\xdfM\x1a\x019\xaf\x1baIeR\xe5u\xa7'
p437
ssS'user_system_models_apps_app_model'
p438
(dp439
g42
(dp440
g44
S'user_system_models_apps_app_model.html'
p441
sg46
S'user_system/models/apps/app_model'
p442
sg48
g13
(g14
g15
NtRp443
(dp444
g18
I1
sg19
I0
sg20
I16
sg21
I0
sg22
I0
sg23
I0
sg24
I0
sbssg51
S',\x89\x9d;<\xa3\xdc\x92@\xa5\x9c\x7fcg\x05?'
p445
ssS'user_system_views_apps_tests___init__'
p446
(dp447
g42
(dp448
S'html_filename'
p449
S'user_system_views_apps_tests___init__.html'
p450
sS'name'
p451
S'user_system/views/apps/tests/__init__'
p452
sS'nums'
p453
g13
(g14
g15
NtRp454
(dp455
g18
I1
sg19
I0
sg20
I0
sg21
I0
sg22
I0
sg23
I0
sg24
I0
sbssg51
S'\x19g\xdfM\x1a\x019\xaf\x1baIeR\xe5u\xa7'
p456
ssS'privilege___init__'
p457
(dp458
g287
(dp459
g93
S'privilege___init__.html'
p460
sg95
S'privilege/__init__'
p461
sg97
g13
(g14
g15
NtRp462
(dp463
g18
I1
sg19
I0
sg20
I0
sg21
I0
sg22
I0
sg23
I0
sg24
I0
sbssg293
S'\x19g\xdfM\x1a\x019\xaf\x1baIeR\xe5u\xa7'
p464
ssS'create_views_books___init__'
p465
(dp466
g349
(dp467
S'html_filename'
p468
S'create_views_books___init__.html'
p469
sS'name'
p470
S'create/views/books/__init__'
p471
sS'nums'
p472
g13
(g14
g15
NtRp473
(dp474
g18
I1
sg19
I0
sg20
I3
sg21
I0
sg22
I0
sg23
I0
sg24
I0
sbssg355
S'\xce\x13\xc8S|wF\xe3\x148\xa0?ez,\xc4'
p475
ssS'create_models_books_book_chapter_model'
p476
(dp477
g349
(dp478
g31
S'create_models_books_book_chapter_model.html'
p479
sg33
S'create/models/books/book_chapter_model'
p480
sg35
g13
(g14
g15
NtRp481
(dp482
g18
I1
sg19
I8
sg20
I58
sg21
I0
sg22
I1
sg23
I3
sg24
I3
sbssg355
S'5h\xa3E\x99\xf4H\x97\xbf\x08?=+K\xe7\xad'
p483
ssS'user_system_admin'
p484
(dp485
g42
(dp486
g177
S'user_system_admin.html'
p487
sg179
S'user_system/admin'
p488
sg181
g13
(g14
g15
NtRp489
(dp490
g18
I1
sg19
I0
sg20
I25
sg21
I0
sg22
I0
sg23
I0
sg24
I0
sbssg51
S',\xc1@k;\x98\x80\xb5\xbc\xab\x11\xf3\xdc\x0b\xd1U'
p491
ssS'user_system_serializers_users_teacher_profile_serializer'
p492
(dp493
g116
(dp494
g31
S'user_system_serializers_users_teacher_profile_serializer.html'
p495
sg33
S'user_system/serializers/users/teacher_profile_serializer'
p496
sg35
g13
(g14
g15
NtRp497
(dp498
g18
I1
sg19
I4
sg20
I20
sg21
I0
sg22
I0
sg23
I9
sg24
I4
sbssg122
S'\xe2\xa5\xba\xd6e\xc2\x88\xab\xaes\x15\x08\xa9ta\xd6'
p499
ssS'user_system_models_users_tests___init__'
p500
(dp501
g42
(dp502
g449
S'user_system_models_users_tests___init__.html'
p503
sg451
S'user_system/models/users/tests/__init__'
p504
sg453
g13
(g14
g15
NtRp505
(dp506
g18
I1
sg19
I0
sg20
I0
sg21
I0
sg22
I0
sg23
I0
sg24
I0
sbssg51
S'\x19g\xdfM\x1a\x019\xaf\x1baIeR\xe5u\xa7'
p507
ssS'user_system_models_users_user_profile_picture_model'
p508
(dp509
g116
(dp510
g31
S'user_system_models_users_user_profile_picture_model.html'
p511
sg33
S'user_system/models/users/user_profile_picture_model'
p512
sg35
g13
(g14
g15
NtRp513
(dp514
g18
I1
sg19
I0
sg20
I18
sg21
I0
sg22
I0
sg23
I0
sg24
I0
sbssg122
S'$E\xff\xf5f,\xb2\xc7\xb4\x9b*\x0es|s\xcc'
p515
ssS'teach_models_teacher_tags_teacher_tag_model'
p516
(dp517
g55
(dp518
g57
S'teach_models_teacher_tags_teacher_tag_model.html'
p519
sg59
S'teach/models/teacher_tags/teacher_tag_model'
p520
sg61
g13
(g14
g15
NtRp521
(dp522
g18
I1
sg19
I0
sg20
I30
sg21
I0
sg22
I0
sg23
I0
sg24
I0
sbssg64
S'\\\xb6A\xa8\xa7\x93\x16K\xceQ>\xe8t\xdb<#'
p523
ssS'teach_models_daily_quest_templates_daily_quest_template_model'
p524
(dp525
g55
(dp526
S'html_filename'
p527
S'teach_models_daily_quest_templates_daily_quest_template_model.html'
p528
sS'name'
p529
S'teach/models/daily_quest_templates/daily_quest_template_model'
p530
sS'nums'
p531
g13
(g14
g15
NtRp532
(dp533
g18
I1
sg19
I0
sg20
I32
sg21
I0
sg22
I0
sg23
I0
sg24
I0
sbssg64
S'\xd8?/FZ\xe7\xb6\xa6E&6\x86\xa5\x93\x7f='
p534
ssS'create_views_books_tests_test_add_subchapter_view'
p535
(dp536
S'index'
p537
(dp538
g44
S'create_views_books_tests_test_add_subchapter_view.html'
p539
sg46
S'create/views/books/tests/test_add_subchapter_view'
p540
sg48
g13
(g14
g15
NtRp541
(dp542
g18
I1
sg19
I0
sg20
I60
sg21
I0
sg22
I0
sg23
I0
sg24
I0
sbssS'hash'
p543
S"\xcc^2\xc4\xf2\xb1\xdc\xe8\xf0t\xb6\xcc\x1f\xce\xf1'"
p544
ssS'create_models_quests_quest_model'
p545
(dp546
g103
(dp547
S'html_filename'
p548
S'create_models_quests_quest_model.html'
p549
sS'name'
p550
S'create/models/quests/quest_model'
p551
sS'nums'
p552
g13
(g14
g15
NtRp553
(dp554
g18
I1
sg19
I4
sg20
I59
sg21
I0
sg22
I0
sg23
I13
sg24
I4
sbssg112
S'^g\x1e\x82\xee1[\xc0\xbe\x04\xca\xb1`M\xe7\xe9'
p555
ssS'user_system_views_users_tests_test_remove_role_view'
p556
(dp557
g42
(dp558
g44
S'user_system_views_users_tests_test_remove_role_view.html'
p559
sg46
S'user_system/views/users/tests/test_remove_role_view'
p560
sg48
g13
(g14
g15
NtRp561
(dp562
g18
I1
sg19
I0
sg20
I42
sg21
I0
sg22
I0
sg23
I0
sg24
I0
sbssg51
S'\xfb\x9b\xa3\xe5\x90\xe7q99\x19\x10"<@L\x8c'
p563
ssS'create_models_tags_tests_test_tag_history_model'
p564
(dp565
S'index'
p566
(dp567
g57
S'create_models_tags_tests_test_tag_history_model.html'
p568
sg59
S'create/models/tags/tests/test_tag_history_model'
p569
sg61
g13
(g14
g15
NtRp570
(dp571
g18
I1
sg19
I0
sg20
I58
sg21
I0
sg22
I0
sg23
I0
sg24
I0
sbssS'hash'
p572
S"\x05Y\xa9\xba\xf0\xa8\xd2*7_\xcb]\xfb*#'"
p573
ssS'teach_views_teacher_news_feed___init__'
p574
(dp575
g297
(dp576
g177
S'teach_views_teacher_news_feed___init__.html'
p577
sg179
S'teach/views/teacher_news_feed/__init__'
p578
sg181
g13
(g14
g15
NtRp579
(dp580
g18
I1
sg19
I0
sg20
I1
sg21
I0
sg22
I0
sg23
I0
sg24
I0
sbssg303
S'\xe8\xcd\xf3\x9f\xa3=;`\xf0oZ\xcb!\x98\xac\x1c'
p581
ssS'create_views_daily_quest_templates_daily_quest_template_view'
p582
(dp583
g242
(dp584
g244
S'create_views_daily_quest_templates_daily_quest_template_view.html'
p585
sg246
S'create/views/daily_quest_templates/daily_quest_template_view'
p586
sg248
g13
(g14
g15
NtRp587
(dp588
g18
I1
sg19
I4
sg20
I20
sg21
I0
sg22
I0
sg23
I5
sg24
I4
sbssg251
S'*(w\xa3\x82\x06\xe8D\x8c\xaa+3\xbc\xe3\xa5\x1d'
p589
ssS'create_models_questions_question_history_remark_model'
p590
(dp591
S'index'
p592
(dp593
S'html_filename'
p594
S'create_models_questions_question_history_remark_model.html'
p595
sS'name'
p596
S'create/models/questions/question_history_remark_model'
p597
sS'nums'
p598
g13
(g14
g15
NtRp599
(dp600
g18
I1
sg19
I0
sg20
I27
sg21
I0
sg22
I0
sg23
I0
sg24
I0
sbssS'hash'
p601
S'\xac"G5\x1c\xf2\xef\xa9\x1dUd\xce4.\xac\xa4'
p602
ssS'learn_serializers___init__'
p603
(dp604
g55
(dp605
g57
S'learn_serializers___init__.html'
p606
sg59
S'learn/serializers/__init__'
p607
sg61
g13
(g14
g15
NtRp608
(dp609
g18
I1
sg19
I0
sg20
I1
sg21
I0
sg22
I0
sg23
I0
sg24
I0
sbssg64
S'cLP\xd9\xc0\x91mD\xa3\xd2\xbczr\xdak\xf4'
p610
ssS'user_system_views_schools___init__'
p611
(dp612
g116
(dp613
g31
S'user_system_views_schools___init__.html'
p614
sg33
S'user_system/views/schools/__init__'
p615
sg35
g13
(g14
g15
NtRp616
(dp617
g18
I1
sg19
I0
sg20
I2
sg21
I0
sg22
I0
sg23
I0
sg24
I0
sbssg122
S'\x85\xe2\x7f\xa7\xac\x16HY\x8b\x10\x9b\xc0r\x17|\x8c'
p618
ssS'create_views_quests___init__'
p619
(dp620
g103
(dp621
S'html_filename'
p622
S'create_views_quests___init__.html'
p623
sS'name'
p624
S'create/views/quests/__init__'
p625
sS'nums'
p626
g13
(g14
g15
NtRp627
(dp628
g18
I1
sg19
I0
sg20
I1
sg21
I0
sg22
I0
sg23
I0
sg24
I0
sbssg112
S'\x8d\x97\x8c^6\xf0o\xc3_\x8dRQ}\xd2]a'
p629
ssS'user_system_models_schools_tests_test_course_model'
p630
(dp631
g232
(dp632
S'html_filename'
p633
S'user_system_models_schools_tests_test_course_model.html'
p634
sS'name'
p635
S'user_system/models/schools/tests/test_course_model'
p636
sS'nums'
p637
g13
(g14
g15
NtRp638
(dp639
g18
I1
sg19
I8
sg20
I50
sg21
I0
sg22
I0
sg23
I0
sg24
I0
sbssg238
S'\xd7va\xe6uR6*v\xca\x885\xf3]$1'
p640
ssS'create_models_question_datasets_tests___init__'
p641
(dp642
g144
(dp643
g146
S'create_models_question_datasets_tests___init__.html'
p644
sg148
S'create/models/question_datasets/tests/__init__'
p645
sg150
g13
(g14
g15
NtRp646
(dp647
g18
I1
sg19
I0
sg20
I0
sg21
I0
sg22
I0
sg23
I0
sg24
I0
sbssg153
S'\x19g\xdfM\x1a\x019\xaf\x1baIeR\xe5u\xa7'
p648
ssS'api_logging_models_modal_logging_modal_model'
p649
(dp650
g297
(dp651
g177
S'api_logging_models_modal_logging_modal_model.html'
p652
sg179
S'api_logging/models/modal_logging/modal_model'
p653
sg181
g13
(g14
g15
NtRp654
(dp655
g18
I1
sg19
I0
sg20
I19
sg21
I0
sg22
I0
sg23
I5
sg24
I0
sbssg303
S'\x0f\x1e\xac\x00_hQ\xcb\xa2\xa8\xf4@\xb9\x97\x9c\x1e'
p656
ssS'user_system_views_signups_hardcoded_test_account_view'
p657
(dp658
g42
(dp659
g44
S'user_system_views_signups_hardcoded_test_account_view.html'
p660
sg46
S'user_system/views/signups/hardcoded/test_account_view'
p661
sg48
g13
(g14
g15
NtRp662
(dp663
g18
I1
sg19
I2
sg20
I18
sg21
I0
sg22
I0
sg23
I0
sg24
I0
sbssg51
S"\xb4\xf1\xfdH\x8f\xf1QX7'\\\xd3\xab.\xbc\x80"
p664
ssS'user_system_views_users_create_student_view'
p665
(dp666
g297
(dp667
g177
S'user_system_views_users_create_student_view.html'
p668
sg179
S'user_system/views/users/create_student_view'
p669
sg181
g13
(g14
g15
NtRp670
(dp671
g18
I1
sg19
I2
sg20
I37
sg21
I0
sg22
I0
sg23
I24
sg24
I2
sbssg303
S'\x8e\xce\xac\xe9\xe3J4\xbb\x88$\xefFS\x06Ow'
p672
ssS'teach_serializers_teacher_tags___init__'
p673
(dp674
g55
(dp675
g57
S'teach_serializers_teacher_tags___init__.html'
p676
sg59
S'teach/serializers/teacher_tags/__init__'
p677
sg61
g13
(g14
g15
NtRp678
(dp679
g18
I1
sg19
I0
sg20
I1
sg21
I0
sg22
I0
sg23
I0
sg24
I0
sbssg64
S'Q\xc1\xe2\xf5*\x8fJ\xddv\xe7\x91\xd1S\xf5\xa9\xa3'
p680
ssS'learn_models_daily_quests_tests___init__'
p681
(dp682
g55
(dp683
g57
S'learn_models_daily_quests_tests___init__.html'
p684
sg59
S'learn/models/daily_quests/tests/__init__'
p685
sg61
g13
(g14
g15
NtRp686
(dp687
g18
I1
sg19
I0
sg20
I1
sg21
I0
sg22
I0
sg23
I0
sg24
I0
sbssg64
S'\xbc\xd6\xeb\xb3\xba\xcaz\xf7{\xd4B\xb5}l\xdf\x96'
p688
ssS'user_system_views_signups___init__'
p689
(dp690
g42
(dp691
g449
S'user_system_views_signups___init__.html'
p692
sg451
S'user_system/views/signups/__init__'
p693
sg453
g13
(g14
g15
NtRp694
(dp695
g18
I1
sg19
I0
sg20
I4
sg21
I0
sg22
I0
sg23
I0
sg24
I0
sbssg51
S'\x02\x1d\x90mQ#+\xc5\x93\xdb\xa4Hs\xcf\xa8\x97'
p696
ssS'create_views_tags_tag_view'
p697
(dp698
g427
(dp699
g105
S'create_views_tags_tag_view.html'
p700
sg107
S'create/views/tags/tag_view'
p701
sg109
g13
(g14
g15
NtRp702
(dp703
g18
I1
sg19
I32
sg20
I92
sg21
I0
sg22
I8
sg23
I13
sg24
I16
sbssg436
S'\xd5\xd6\xf9\xa6U<\xf82\xe0xx\x06}\xa5\xeb\xe7'
p704
ssS'api_logging_managers'
p705
(dp706
g566
(dp707
g44
S'api_logging_managers.html'
p708
sg46
S'api_logging/managers'
p709
sg48
g13
(g14
g15
NtRp710
(dp711
g18
I1
sg19
I0
sg20
I4
sg21
I0
sg22
I0
sg23
I0
sg24
I0
sbssg572
S'\xef\xaf\x98\xcd63\x10\x1c\xc1\xfcP\x12\xc1\xe7\xa5\xc7'
p712
ssS'teach_models_campaigns_campaign_model'
p713
(dp714
g116
(dp715
g177
S'teach_models_campaigns_campaign_model.html'
p716
sg179
S'teach/models/campaigns/campaign_model'
p717
sg181
g13
(g14
g15
NtRp718
(dp719
g18
I1
sg19
I0
sg20
I40
sg21
I0
sg22
I0
sg23
I0
sg24
I0
sbssg122
S'>\xc8\xe2\xfb\xdd\xc1"@\xea/\xe1\xbb\xf1\xa4\x80\x0f'
p720
ssS'create_views_tags_tests_test_add_prerequisite_view'
p721
(dp722
g307
(dp723
g44
S'create_views_tags_tests_test_add_prerequisite_view.html'
p724
sg46
S'create/views/tags/tests/test_add_prerequisite_view'
p725
sg48
g13
(g14
g15
NtRp726
(dp727
g18
I1
sg19
I0
sg20
I26
sg21
I0
sg22
I0
sg23
I0
sg24
I0
sbssg313
S'\xd2\xef\x02\xe1{\xbc\x9b\xf3\x8b\xbd\xf0\xd2\xe7\xcc\xb5\xa4'
p728
ssS'create_models_tags___init__'
p729
(dp730
g386
(dp731
S'html_filename'
p732
S'create_models_tags___init__.html'
p733
sS'name'
p734
S'create/models/tags/__init__'
p735
sS'nums'
p736
g13
(g14
g15
NtRp737
(dp738
g18
I1
sg19
I0
sg20
I5
sg21
I0
sg22
I0
sg23
I0
sg24
I0
sbssg392
S'\xcck\xb0R5)\xa8c\xdb\xa6\xfb\xec\x18 \xde}'
p739
ssS'teach_models_campaigns_tests___init__'
p740
(dp741
g116
(dp742
g31
S'teach_models_campaigns_tests___init__.html'
p743
sg33
S'teach/models/campaigns/tests/__init__'
p744
sg35
g13
(g14
g15
NtRp745
(dp746
g18
I1
sg19
I0
sg20
I0
sg21
I0
sg22
I0
sg23
I0
sg24
I0
sbssg122
S'\x19g\xdfM\x1a\x019\xaf\x1baIeR\xe5u\xa7'
p747
ssS'learn_views_student_news_feed___init__'
p748
(dp749
g297
(dp750
g177
S'learn_views_student_news_feed___init__.html'
p751
sg179
S'learn/views/student_news_feed/__init__'
p752
sg181
g13
(g14
g15
NtRp753
(dp754
g18
I1
sg19
I0
sg20
I1
sg21
I0
sg22
I0
sg23
I0
sg24
I0
sbssg303
S'\xc5\x87\xccQ|\xa2\xee\x11p\x84\xfe\xed\xe3W\xfa\x07'
p755
ssS'create_models_daily_quests___init__'
p756
(dp757
S'index'
p758
(dp759
S'html_filename'
p760
S'create_models_daily_quests___init__.html'
p761
sS'name'
p762
S'create/models/daily_quests/__init__'
p763
sS'nums'
p764
g13
(g14
g15
NtRp765
(dp766
g18
I1
sg19
I0
sg20
I1
sg21
I0
sg22
I0
sg23
I0
sg24
I0
sbssS'hash'
p767
S'\x94\x0eB\xb3\x8e\xc6\x81\xc0\x16\x84P.\x11:\x8e\xc9'
p768
ssS'teach_views_teacher_chapters_teacher_chapter_view'
p769
(dp770
g55
(dp771
g31
S'teach_views_teacher_chapters_teacher_chapter_view.html'
p772
sg33
S'teach/views/teacher_chapters/teacher_chapter_view'
p773
sg35
g13
(g14
g15
NtRp774
(dp775
g18
I1
sg19
I12
sg20
I44
sg21
I0
sg22
I0
sg23
I25
sg24
I12
sbssg64
S'Z\xc5\n\xdb\xe5!2~7\xe3i\xa7j\xd4\x10\x8c'
p776
ssS'create_serializers_tags_concept_serializer'
p777
(dp778
g349
(dp779
S'html_filename'
p780
S'create_serializers_tags_concept_serializer.html'
p781
sS'name'
p782
S'create/serializers/tags/concept_serializer'
p783
sS'nums'
p784
g13
(g14
g15
NtRp785
(dp786
g18
I1
sg19
I0
sg20
I6
sg21
I0
sg22
I0
sg23
I0
sg24
I0
sbssg355
S'\xf1\xe0\xc7%%\xbd\xfc@\x12\x02\x96\xbb\x0c\xbf\x9fq'
p787
ssS'create_serializers_questions_question_history_remark_serializer'
p788
(dp789
g592
(dp790
g594
S'create_serializers_questions_question_history_remark_serializer.html'
p791
sg596
S'create/serializers/questions/question_history_remark_serializer'
p792
sg598
g13
(g14
g15
NtRp793
(dp794
g18
I1
sg19
I0
sg20
I6
sg21
I0
sg22
I0
sg23
I0
sg24
I0
sbssg601
S'\xb53\t\x11\xa6\x1b\xf7!D"\xc8\xa3\xcb41\x9d'
p795
ssS'user_system_models_roles_tests___init__'
p796
(dp797
g42
(dp798
g449
S'user_system_models_roles_tests___init__.html'
p799
sg451
S'user_system/models/roles/tests/__init__'
p800
sg453
g13
(g14
g15
NtRp801
(dp802
g18
I1
sg19
I0
sg20
I0
sg21
I0
sg22
I0
sg23
I0
sg24
I0
sbssg51
S'\x19g\xdfM\x1a\x019\xaf\x1baIeR\xe5u\xa7'
p803
ssS'create_serializers_tags___init__'
p804
(dp805
S'index'
p806
(dp807
S'html_filename'
p808
S'create_serializers_tags___init__.html'
p809
sS'name'
p810
S'create/serializers/tags/__init__'
p811
sS'nums'
p812
g13
(g14
g15
NtRp813
(dp814
g18
I1
sg19
I0
sg20
I0
sg21
I0
sg22
I0
sg23
I0
sg24
I0
sbssS'hash'
p815
S'\x19g\xdfM\x1a\x019\xaf\x1baIeR\xe5u\xa7'
p816
ssS'privilege_urls'
p817
(dp818
g287
(dp819
g93
S'privilege_urls.html'
p820
sg95
S'privilege/urls'
p821
sg97
g13
(g14
g15
NtRp822
(dp823
g18
I1
sg19
I0
sg20
I7
sg21
I0
sg22
I0
sg23
I0
sg24
I0
sbssg293
S'\x86\xbf\xcdE\x8fy\xc9\xd5\x13I\x11#-J.\xe8'
p824
ssS'flipped_helpers_time_helper'
p825
(dp826
g116
(dp827
g376
S'flipped_helpers_time_helper.html'
p828
sg378
S'flipped/helpers/time_helper'
p829
sg380
g13
(g14
g15
NtRp830
(dp831
g18
I1
sg19
I2
sg20
I31
sg21
I0
sg22
I0
sg23
I19
sg24
I2
sbssg122
S'\xca\x92a\xc5\xd9\xf1\xd2\xa6H\x16\xd9\xed\xcdv&\xdb'
p832
ssS'create_serializers_daily_quests___init__'
p833
(dp834
g758
(dp835
g244
S'create_serializers_daily_quests___init__.html'
p836
sg246
S'create/serializers/daily_quests/__init__'
p837
sg248
g13
(g14
g15
NtRp838
(dp839
g18
I1
sg19
I0
sg20
I1
sg21
I0
sg22
I0
sg23
I0
sg24
I0
sbssg767
S'N\xb8\x18\x1c\x0c\xc7\xca\x91\xa0|\xe1\x02L\xeeC\xbe'
p840
ssS'api_logging_views_LoggingView'
p841
(dp842
g297
(dp843
g177
S'api_logging_views_LoggingView.html'
p844
sg179
S'api_logging/views/LoggingView'
p845
sg181
g13
(g14
g15
NtRp846
(dp847
g18
I1
sg19
I8
sg20
I41
sg21
I0
sg22
I0
sg23
I27
sg24
I8
sbssg303
S'\xe3\xefQ\x1e\x9e\xec\xea\xa7\xc5\x05\xb9\x90\xf6\xf3\x88\x9b'
p848
ssS'create_models_questions_tests_test_question_type_model'
p849
(dp850
g42
(dp851
g44
S'create_models_questions_tests_test_question_type_model.html'
p852
sg46
S'create/models/questions/tests/test_question_type_model'
p853
sg48
g13
(g14
g15
NtRp854
(dp855
g18
I1
sg19
I0
sg20
I17
sg21
I0
sg22
I0
sg23
I0
sg24
I0
sbssg51
S'e\x1b\x19\xbb)\x89\xff\xfa\xe5\xca\xde\x08\x08CUL'
p856
ssS'teach_models___init__'
p857
(dp858
g55
(dp859
g31
S'teach_models___init__.html'
p860
sg33
S'teach/models/__init__'
p861
sg35
g13
(g14
g15
NtRp862
(dp863
g18
I1
sg19
I0
sg20
I4
sg21
I0
sg22
I0
sg23
I0
sg24
I0
sbssg64
S'\x18\xb4\x9a\xf6\x89\xe4oR\x81\xdbb\xf7E\xf9\x92\xb7'
p864
ssS'create_models_tags_skill_model'
p865
(dp866
g386
(dp867
g44
S'create_models_tags_skill_model.html'
p868
sg46
S'create/models/tags/skill_model'
p869
sg48
g13
(g14
g15
NtRp870
(dp871
g18
I1
sg19
I0
sg20
I10
sg21
I0
sg22
I0
sg23
I0
sg24
I0
sbssg392
S'B&\x06S\xb6\x85A\xdbx\xd4\xc7#]\x13\xe1\xca'
p872
ssS'learn_tests'
p873
(dp874
g55
(dp875
g57
S'learn_tests.html'
p876
sg59
S'learn/tests'
p877
sg61
g13
(g14
g15
NtRp878
(dp879
g18
I1
sg19
I0
sg20
I1
sg21
I0
sg22
I0
sg23
I0
sg24
I0
sbssg64
S'\xe3\x7f\x86\xaa\x99\xac\xc8\x80\xdblE4\x0f\xe7\x1d\xfc'
p880
ssS'learn_models_daily_quests_daily_quest_model'
p881
(dp882
g55
(dp883
S'html_filename'
p884
S'learn_models_daily_quests_daily_quest_model.html'
p885
sS'name'
p886
S'learn/models/daily_quests/daily_quest_model'
p887
sS'nums'
p888
g13
(g14
g15
NtRp889
(dp890
g18
I1
sg19
I22
sg20
I123
sg21
I0
sg22
I3
sg23
I9
sg24
I5
sbssg64
S'V\xc0\xd6\x96s\xd6\x88\x97%.\xd5\x9dSII\xdb'
p891
ssS'api_logging_views___init__'
p892
(dp893
g297
(dp894
g177
S'api_logging_views___init__.html'
p895
sg179
S'api_logging/views/__init__'
p896
sg181
g13
(g14
g15
NtRp897
(dp898
g18
I1
sg19
I0
sg20
I3
sg21
I0
sg22
I0
sg23
I0
sg24
I0
sbssg303
S'_Q\x0f\x0cLb\xd8Cm\xa7\x81g\xaa\x95\xbdd'
p899
ssS'create_models_books___init__'
p900
(dp901
g349
(dp902
g780
S'create_models_books___init__.html'
p903
sg782
S'create/models/books/__init__'
p904
sg784
g13
(g14
g15
NtRp905
(dp906
g18
I1
sg19
I0
sg20
I4
sg21
I0
sg22
I0
sg23
I0
sg24
I0
sbssg355
S'\xba\x14\x87u\xc0\x80\x96\x82s\x8d\x8bU)\x1c\xc3\x91'
p907
ssS'flipped_helpers___init__'
p908
(dp909
g42
(dp910
g376
S'flipped_helpers___init__.html'
p911
sg378
S'flipped/helpers/__init__'
p912
sg380
g13
(g14
g15
NtRp913
(dp914
g18
I1
sg19
I0
sg20
I5
sg21
I0
sg22
I0
sg23
I0
sg24
I0
sbssg51
S'\x8d&\xda\xf5\x1f\xe2\xe9/Cb\xfb\x88\x04UM6'
p915
ssS'create_models_quests_tests_test_quest_model'
p916
(dp917
g103
(dp918
g548
S'create_models_quests_tests_test_quest_model.html'
p919
sg550
S'create/models/quests/tests/test_quest_model'
p920
sg552
g13
(g14
g15
NtRp921
(dp922
g18
I1
sg19
I4
sg20
I48
sg21
I0
sg22
I0
sg23
I0
sg24
I0
sbssg112
S'\xcdF\x98\xd0k\x14\x9e\xe4\x90\x96\x03\xddNdiH'
p923
ssS'privilege_views_privileges_user_privilege_view'
p924
(dp925
g287
(dp926
g93
S'privilege_views_privileges_user_privilege_view.html'
p927
sg95
S'privilege/views/privileges/user_privilege_view'
p928
sg97
g13
(g14
g15
NtRp929
(dp930
g18
I1
sg19
I10
sg20
I38
sg21
I0
sg22
I0
sg23
I22
sg24
I10
sbssg293
S'\xf699\xa5A\xca\x9e\x91,l\xf8\x8dI[PR'
p931
ssS'learn_models_daily_quests_tests_test_daily_quest_model'
p932
(dp933
g55
(dp934
g376
S'learn_models_daily_quests_tests_test_daily_quest_model.html'
p935
sg378
S'learn/models/daily_quests/tests/test_daily_quest_model'
p936
sg380
g13
(g14
g15
NtRp937
(dp938
g18
I1
sg19
I12
sg20
I249
sg21
I0
sg22
I0
sg23
I0
sg24
I0
sbssg64
S'+\xfc\x0c\xee\x10\x00\x0f+\xad\x07l\xcf\x8b\xac\xefF'
p939
ssS'create_views_books_tests_test_get_book_by_id_view'
p940
(dp941
S'index'
p942
(dp943
g93
S'create_views_books_tests_test_get_book_by_id_view.html'
p944
sg95
S'create/views/books/tests/test_get_book_by_id_view'
p945
sg97
g13
(g14
g15
NtRp946
(dp947
g18
I1
sg19
I0
sg20
I20
sg21
I0
sg22
I0
sg23
I0
sg24
I0
sbssS'hash'
p948
S'\xc88x\xaf\x84e\xaa6\x17\xdf\x0e\x8c`\xcaAO'
p949
ssS'user_system_views_apps_tests_test_get_app_by_id_view'
p950
(dp951
g42
(dp952
g44
S'user_system_views_apps_tests_test_get_app_by_id_view.html'
p953
sg46
S'user_system/views/apps/tests/test_get_app_by_id_view'
p954
sg48
g13
(g14
g15
NtRp955
(dp956
g18
I1
sg19
I0
sg20
I17
sg21
I0
sg22
I0
sg23
I0
sg24
I0
sbssg51
S"\xa2\x1eG%r{-~\xc5=\x8aj\x99X!'"
p957
ssS'teach_views_daily_quest_templates_daily_quest_template_view'
p958
(dp959
g55
(dp960
S'html_filename'
p961
S'teach_views_daily_quest_templates_daily_quest_template_view.html'
p962
sS'name'
p963
S'teach/views/daily_quest_templates/daily_quest_template_view'
p964
sS'nums'
p965
g13
(g14
g15
NtRp966
(dp967
g18
I1
sg19
I18
sg20
I54
sg21
I0
sg22
I0
sg23
I33
sg24
I18
sbssg64
S'\x97J\xccM\x9b\xcd1\xaf\x95\xea\xd8\x8d\xdc(\x89['
p968
ssS'api_logging_views_summary___init__'
p969
(dp970
g297
(dp971
g177
S'api_logging_views_summary___init__.html'
p972
sg179
S'api_logging/views/summary/__init__'
p973
sg181
g13
(g14
g15
NtRp974
(dp975
g18
I1
sg19
I0
sg20
I1
sg21
I0
sg22
I0
sg23
I0
sg24
I0
sbssg303
S'\x04\x12bh\x96\xc5j\x88dm\x0e\xd7\xe1\x94Lq'
p976
ssS'privilege_serializers___init__'
p977
(dp978
g287
(dp979
g93
S'privilege_serializers___init__.html'
p980
sg95
S'privilege/serializers/__init__'
p981
sg97
g13
(g14
g15
NtRp982
(dp983
g18
I1
sg19
I0
sg20
I1
sg21
I0
sg22
I0
sg23
I0
sg24
I0
sbssg293
S'\x13V\xca}S\xd3\x98Rp?\xb0\xe1\x904>b'
p984
ssS'create_models_books_tests_test_book_subchapter_model'
p985
(dp986
g349
(dp987
S'html_filename'
p988
S'create_models_books_tests_test_book_subchapter_model.html'
p989
sS'name'
p990
S'create/models/books/tests/test_book_subchapter_model'
p991
sS'nums'
p992
g13
(g14
g15
NtRp993
(dp994
g18
I1
sg19
I0
sg20
I42
sg21
I0
sg22
I0
sg23
I0
sg24
I0
sbssg355
S'\xe3*\xba\x94d#\xcd\t\xc9\xb8\x05w\nz\xb8\xc0'
p995
ssS'learn_models_daily_quests___init__'
p996
(dp997
g55
(dp998
S'html_filename'
p999
S'learn_models_daily_quests___init__.html'
p1000
sS'name'
p1001
S'learn/models/daily_quests/__init__'
p1002
sS'nums'
p1003
g13
(g14
g15
NtRp1004
(dp1005
g18
I1
sg19
I0
sg20
I2
sg21
I0
sg22
I0
sg23
I0
sg24
I0
sbssg64
S's\x11\xbfV}\xab\xfcdH\xcf4Q\xc5\x86\xa3\xb4'
p1006
ssS'create_models_daily_quest_templates_tests___init__'
p1007
(dp1008
g242
(dp1009
g244
S'create_models_daily_quest_templates_tests___init__.html'
p1010
sg246
S'create/models/daily_quest_templates/tests/__init__'
p1011
sg248
g13
(g14
g15
NtRp1012
(dp1013
g18
I1
sg19
I0
sg20
I0
sg21
I0
sg22
I0
sg23
I0
sg24
I0
sbssg251
S'\x19g\xdfM\x1a\x019\xaf\x1baIeR\xe5u\xa7'
p1014
ssS'create_models_tags_tag_model'
p1015
(dp1016
g386
(dp1017
g93
S'create_models_tags_tag_model.html'
p1018
sg95
S'create/models/tags/tag_model'
p1019
sg97
g13
(g14
g15
NtRp1020
(dp1021
g18
I1
sg19
I0
sg20
I37
sg21
I0
sg22
I0
sg23
I0
sg24
I0
sbssg392
S'rJ0\x91]\xe5\xfc\xa8\x8c\x00}RI\x18\xf0\x07'
p1022
ssS'create_views_tags___init__'
p1023
(dp1024
g427
(dp1025
g429
S'create_views_tags___init__.html'
p1026
sg431
S'create/views/tags/__init__'
p1027
sg433
g13
(g14
g15
NtRp1028
(dp1029
g18
I1
sg19
I0
sg20
I1
sg21
I0
sg22
I0
sg23
I0
sg24
I0
sbssg436
S'|r<\xaap\x01\xb1\xbc"\xe5\xbb\xd8\x87\xa5\xd2H'
p1030
ssS'create_serializers_tags_skill_serializer'
p1031
(dp1032
g349
(dp1033
g780
S'create_serializers_tags_skill_serializer.html'
p1034
sg782
S'create/serializers/tags/skill_serializer'
p1035
sg784
g13
(g14
g15
NtRp1036
(dp1037
g18
I1
sg19
I0
sg20
I6
sg21
I0
sg22
I0
sg23
I0
sg24
I0
sbssg355
S'\x1b\x10O\xca\xd5i\\\x06C\x00q}\xf43\xcb\xa6'
p1038
ssS'create_views_questions_question_history_remark_view'
p1039
(dp1040
g592
(dp1041
g594
S'create_views_questions_question_history_remark_view.html'
p1042
sg596
S'create/views/questions/question_history_remark_view'
p1043
sg598
g13
(g14
g15
NtRp1044
(dp1045
g18
I1
sg19
I0
sg20
I14
sg21
I0
sg22
I0
sg23
I0
sg24
I0
sbssg601
S'{4O\x0e\xb3\xad\xc8\xb72\x8f\x1f\x11\xc0\x9e\xa0\xd6'
p1046
ssS'create_serializers_tags_tag_type_serializer'
p1047
(dp1048
g349
(dp1049
g780
S'create_serializers_tags_tag_type_serializer.html'
p1050
sg782
S'create/serializers/tags/tag_type_serializer'
p1051
sg784
g13
(g14
g15
NtRp1052
(dp1053
g18
I1
sg19
I0
sg20
I6
sg21
I0
sg22
I0
sg23
I0
sg24
I0
sbssg355
S'\xc3\xfd\x81\x18{\x97,\xb1\xb6\x9f\xee\xf2kZ\x1e\x02'
p1054
ssS'learn_models_points_tests_test_point_history_model'
p1055
(dp1056
g297
(dp1057
g177
S'learn_models_points_tests_test_point_history_model.html'
p1058
sg179
S'learn/models/points/tests/test_point_history_model'
p1059
sg181
g13
(g14
g15
NtRp1060
(dp1061
g18
I1
sg19
I0
sg20
I22
sg21
I0
sg22
I0
sg23
I0
sg24
I0
sbssg303
S"\x8d\xd7\x96\xe4\x1b\xf6\xc4\xed:B\x13\xa9MA'\x99"
p1062
ssS'learn_serializers_daily_quests_daily_quest_serializer'
p1063
(dp1064
g55
(dp1065
g177
S'learn_serializers_daily_quests_daily_quest_serializer.html'
p1066
sg179
S'learn/serializers/daily_quests/daily_quest_serializer'
p1067
sg181
g13
(g14
g15
NtRp1068
(dp1069
g18
I1
sg19
I2
sg20
I61
sg21
I0
sg22
I0
sg23
I27
sg24
I2
sbssg64
S'\x00\xdc)#U\xf8\x03\xc2\xa7T\x0b\xa9\x13\xa3ds'
p1070
ssS'user_system_models_users_tests_test_user_profile_picture_model'
p1071
(dp1072
g116
(dp1073
g31
S'user_system_models_users_tests_test_user_profile_picture_model.html'
p1074
sg33
S'user_system/models/users/tests/test_user_profile_picture_model'
p1075
sg35
g13
(g14
g15
NtRp1076
(dp1077
g18
I1
sg19
I0
sg20
I21
sg21
I0
sg22
I0
sg23
I0
sg24
I0
sbssg122
S'\xbc/\x93\xf6\x8a\x1eC\x99t\xd0\xdc\x96\xf8\x970\xc9'
p1078
ssS'teach_views_teacher_news_feed_teacher_news_feed_view'
p1079
(dp1080
g297
(dp1081
S'html_filename'
p1082
S'teach_views_teacher_news_feed_teacher_news_feed_view.html'
p1083
sS'name'
p1084
S'teach/views/teacher_news_feed/teacher_news_feed_view'
p1085
sS'nums'
p1086
g13
(g14
g15
NtRp1087
(dp1088
g18
I1
sg19
I2
sg20
I40
sg21
I0
sg22
I0
sg23
I20
sg24
I2
sbssg303
S'\x91\x13LD\x93S\xb7\xc7F\x89y\x9f\x0cO\xb9_'
p1089
ssS'user_system_serializers_schools_organization_serializer'
p1090
(dp1091
g55
(dp1092
g57
S'user_system_serializers_schools_organization_serializer.html'
p1093
sg59
S'user_system/serializers/schools/organization_serializer'
p1094
sg61
g13
(g14
g15
NtRp1095
(dp1096
g18
I1
sg19
I0
sg20
I7
sg21
I0
sg22
I0
sg23
I0
sg24
I0
sbssg64
S'90~\xe3\x8f\x8e\xd9m\xb4\nInn\x03(\xdb'
p1097
ssS'create_models_books_book_subchapter_model'
p1098
(dp1099
g349
(dp1100
S'html_filename'
p1101
S'create_models_books_book_subchapter_model.html'
p1102
sS'name'
p1103
S'create/models/books/book_subchapter_model'
p1104
sS'nums'
p1105
g13
(g14
g15
NtRp1106
(dp1107
g18
I1
sg19
I2
sg20
I45
sg21
I0
sg22
I0
sg23
I0
sg24
I0
sbssg355
S'\xbc\xee\x91\x7f;\xa9\x15\xeaau\xef\x82\x07"\x02\xd3'
p1108
ssS'teach_views_summaries_leaderboard_view'
p1109
(dp1110
g297
(dp1111
g376
S'teach_views_summaries_leaderboard_view.html'
p1112
sg378
S'teach/views/summaries/leaderboard_view'
p1113
sg380
g13
(g14
g15
NtRp1114
(dp1115
g18
I1
sg19
I62
sg20
I158
sg21
I0
sg22
I0
sg23
I128
sg24
I62
sbssg303
S'\t\xd7\x8c[[h\xd8\x8ah\xb1\x12\x1f{\xb3I '
p1116
ssS'api_logging_serializers_modal_loggings_modal_user_history_serializer'
p1117
(dp1118
g297
(dp1119
g177
S'api_logging_serializers_modal_loggings_modal_user_history_serializer.html'
p1120
sg179
S'api_logging/serializers/modal_loggings/modal_user_history_serializer'
p1121
sg181
g13
(g14
g15
NtRp1122
(dp1123
g18
I1
sg19
I0
sg20
I7
sg21
I0
sg22
I0
sg23
I0
sg24
I0
sbssg303
S'\xc2\x8f\x89\xe8$\x9c~\x81\xa9\xca\xf8h\x80\xb7hp'
p1124
ssS'learn_models_points___init__'
p1125
(dp1126
g297
(dp1127
g177
S'learn_models_points___init__.html'
p1128
sg179
S'learn/models/points/__init__'
p1129
sg181
g13
(g14
g15
NtRp1130
(dp1131
g18
I1
sg19
I0
sg20
I2
sg21
I0
sg22
I0
sg23
I0
sg24
I0
sbssg303
S'\x1d_\xe1\xcei\x14zD\xd7\x8e\xa1\xf55\x1f\xd1\xd5'
p1132
ssS'api_logging_models___init__'
p1133
(dp1134
g297
(dp1135
g177
S'api_logging_models___init__.html'
p1136
sg179
S'api_logging/models/__init__'
p1137
sg181
g13
(g14
g15
NtRp1138
(dp1139
g18
I1
sg19
I0
sg20
I3
sg21
I0
sg22
I0
sg23
I0
sg24
I0
sbssg303
S'\x9d\r\xed\xba\xe8h@\xa4\xfa(\xf2\xdf\xf5IZ\x9c'
p1140
ssS'teach_serializers___init__'
p1141
(dp1142
g55
(dp1143
g57
S'teach_serializers___init__.html'
p1144
sg59
S'teach/serializers/__init__'
p1145
sg61
g13
(g14
g15
NtRp1146
(dp1147
g18
I1
sg19
I0
sg20
I3
sg21
I0
sg22
I0
sg23
I0
sg24
I0
sbssg64
S'3\x13\x12&\xcb\xecC\xee\xa8lR\x1a\x1d\xb9M\xba'
p1148
ssS'user_system_views_signups_tests___init__'
p1149
(dp1150
g42
(dp1151
g449
S'user_system_views_signups_tests___init__.html'
p1152
sg451
S'user_system/views/signups/tests/__init__'
p1153
sg453
g13
(g14
g15
NtRp1154
(dp1155
g18
I1
sg19
I0
sg20
I1
sg21
I0
sg22
I0
sg23
I0
sg24
I0
sbssg51
S'\xbc\xd6\xeb\xb3\xba\xcaz\xf7{\xd4B\xb5}l\xdf\x96'
p1156
ssS'create_models_daily_quests_tests___init__'
p1157
(dp1158
g758
(dp1159
g760
S'create_models_daily_quests_tests___init__.html'
p1160
sg762
S'create/models/daily_quests/tests/__init__'
p1161
sg764
g13
(g14
g15
NtRp1162
(dp1163
g18
I1
sg19
I0
sg20
I1
sg21
I0
sg22
I0
sg23
I0
sg24
I0
sbssg767
S'\xbc\xd6\xeb\xb3\xba\xcaz\xf7{\xd4B\xb5}l\xdf\x96'
p1164
ssS'api_logging_models_api_logging___init__'
p1165
(dp1166
g297
(dp1167
g177
S'api_logging_models_api_logging___init__.html'
p1168
sg179
S'api_logging/models/api_logging/__init__'
p1169
sg181
g13
(g14
g15
NtRp1170
(dp1171
g18
I1
sg19
I0
sg20
I1
sg21
I0
sg22
I0
sg23
I0
sg24
I0
sbssg303
S'C\xe8\xcf\x97-\xc6\xd3j\xcb\x90*\xea\xd3w\x83\xe0'
p1172
ssS'create_serializers_daily_quests_daily_quest_serializer'
p1173
(dp1174
g242
(dp1175
S'html_filename'
p1176
S'create_serializers_daily_quests_daily_quest_serializer.html'
p1177
sS'name'
p1178
S'create/serializers/daily_quests/daily_quest_serializer'
p1179
sS'nums'
p1180
g13
(g14
g15
NtRp1181
(dp1182
g18
I1
sg19
I0
sg20
I12
sg21
I0
sg22
I0
sg23
I3
sg24
I0
sbssg251
S' $!\xf6\xe6\x92\x9f\x9f\xafy\xe9\x8b\x1c\xf4\xb6\x01'
p1183
ssS'user_system_views_signups_email_signup_view'
p1184
(dp1185
g42
(dp1186
g44
S'user_system_views_signups_email_signup_view.html'
p1187
sg46
S'user_system/views/signups/email_signup_view'
p1188
sg48
g13
(g14
g15
NtRp1189
(dp1190
g18
I1
sg19
I8
sg20
I44
sg21
I0
sg22
I0
sg23
I0
sg24
I0
sbssg51
S'&G\xd1\xc4{\x9b\xbf\x14\x92F\xbe\x13\xeer\x84\x1b'
p1191
ssS'teach_views_teacher_tags___init__'
p1192
(dp1193
g55
(dp1194
g57
S'teach_views_teacher_tags___init__.html'
p1195
sg59
S'teach/views/teacher_tags/__init__'
p1196
sg61
g13
(g14
g15
NtRp1197
(dp1198
g18
I1
sg19
I0
sg20
I1
sg21
I0
sg22
I0
sg23
I0
sg24
I0
sbssg64
S'cp\x00\xdc\x00\xe5M\x9f\x1f\xaa\xb2Y\xd9%\x1d"'
p1199
ssS'flipped_helpers_success_response_helper'
p1200
(dp1201
g42
(dp1202
g44
S'flipped_helpers_success_response_helper.html'
p1203
sg46
S'flipped/helpers/success_response_helper'
p1204
sg48
g13
(g14
g15
NtRp1205
(dp1206
g18
I1
sg19
I2
sg20
I4
sg21
I0
sg22
I0
sg23
I0
sg24
I0
sbssg51
S"'Bp\xbe\xd9\xfa\x92\xa4;\xb6\t\xa8\xfe<\x9d\xa5"
p1207
ssS'create_models_questions_question_model'
p1208
(dp1209
g42
(dp1210
S'html_filename'
p1211
S'create_models_questions_question_model.html'
p1212
sS'name'
p1213
S'create/models/questions/question_model'
p1214
sS'nums'
p1215
g13
(g14
g15
NtRp1216
(dp1217
g18
I1
sg19
I0
sg20
I48
sg21
I0
sg22
I0
sg23
I0
sg24
I0
sbssg51
S'\tGy\xb6\x10\x17dQ\xd7\xd8N>\xd5\x96R\x82'
p1218
ssS'user_system_models_roles___init__'
p1219
(dp1220
g42
(dp1221
g449
S'user_system_models_roles___init__.html'
p1222
sg451
S'user_system/models/roles/__init__'
p1223
sg453
g13
(g14
g15
NtRp1224
(dp1225
g18
I1
sg19
I0
sg20
I2
sg21
I0
sg22
I0
sg23
I0
sg24
I0
sbssg51
S'\xa3\xc2\r\x1b\x1bC\x85\xa5\xads\x7fl\xab`*1'
p1226
ssS'create_models_questions_question_history_model'
p1227
(dp1228
g42
(dp1229
g93
S'create_models_questions_question_history_model.html'
p1230
sg95
S'create/models/questions/question_history_model'
p1231
sg97
g13
(g14
g15
NtRp1232
(dp1233
g18
I1
sg19
I8
sg20
I68
sg21
I0
sg22
I2
sg23
I2
sg24
I2
sbssg51
S'\xd0\xe9\x0bm$j\x15\x9b@\x93\xe5C\xa7\x97\xfd\xf4'
p1234
ssS'user_system_views_signups_tests_test_facebook_signup_view'
p1235
(dp1236
g42
(dp1237
g44
S'user_system_views_signups_tests_test_facebook_signup_view.html'
p1238
sg46
S'user_system/views/signups/tests/test_facebook_signup_view'
p1239
sg48
g13
(g14
g15
NtRp1240
(dp1241
g18
I1
sg19
I0
sg20
I60
sg21
I0
sg22
I0
sg23
I0
sg24
I0
sbssg51
S'\x93<\xc8]\x14\t\xa8/\xdd\xd1\xa4]\xfbp!\xbd'
p1242
ssS'user_system_models_users_tests_test_teacher_mapping_model'
p1243
(dp1244
g29
(dp1245
S'html_filename'
p1246
S'user_system_models_users_tests_test_teacher_mapping_model.html'
p1247
sS'name'
p1248
S'user_system/models/users/tests/test_teacher_mapping_model'
p1249
sS'nums'
p1250
g13
(g14
g15
NtRp1251
(dp1252
g18
I1
sg19
I4
sg20
I35
sg21
I0
sg22
I0
sg23
I0
sg24
I0
sbssg38
S'\x96\x93\xca\x00>\xf7\xc8\xe6:\xb8\x7f\xf5q:\xb6\xaa'
p1253
ssS'learn_views_daily_quests_daily_quest_view'
p1254
(dp1255
g55
(dp1256
g177
S'learn_views_daily_quests_daily_quest_view.html'
p1257
sg179
S'learn/views/daily_quests/daily_quest_view'
p1258
sg181
g13
(g14
g15
NtRp1259
(dp1260
g18
I1
sg19
I16
sg20
I61
sg21
I0
sg22
I0
sg23
I40
sg24
I16
sbssg64
S'\xceiA\x93\xcd>Y\x85L\x07Oz\x9aw\xae;'
p1261
ssS'teach_views_summaries_class_ranking_view'
p1262
(dp1263
g297
(dp1264
g376
S'teach_views_summaries_class_ranking_view.html'
p1265
sg378
S'teach/views/summaries/class_ranking_view'
p1266
sg380
g13
(g14
g15
NtRp1267
(dp1268
g18
I1
sg19
I18
sg20
I78
sg21
I0
sg22
I0
sg23
I55
sg24
I18
sbssg303
S'#S^\x94\xa2\x0fGa\xfb\xde^\x052,#E'
p1269
ssS'privilege_models_privileges_tests___init__'
p1270
(dp1271
g287
(dp1272
g93
S'privilege_models_privileges_tests___init__.html'
p1273
sg95
S'privilege/models/privileges/tests/__init__'
p1274
sg97
g13
(g14
g15
NtRp1275
(dp1276
g18
I1
sg19
I0
sg20
I0
sg21
I0
sg22
I0
sg23
I0
sg24
I0
sbssg293
S'\x19g\xdfM\x1a\x019\xaf\x1baIeR\xe5u\xa7'
p1277
ssS'teach_serializers_teacher_chapters___init__'
p1278
(dp1279
g55
(dp1280
g57
S'teach_serializers_teacher_chapters___init__.html'
p1281
sg59
S'teach/serializers/teacher_chapters/__init__'
p1282
sg61
g13
(g14
g15
NtRp1283
(dp1284
g18
I1
sg19
I0
sg20
I1
sg21
I0
sg22
I0
sg23
I0
sg24
I0
sbssg64
S'\xfe\x88\xda\x10\xec!\x99\xb7-\x8d\x90E\xe18K\xb1'
p1285
ssS'api_logging_admin'
p1286
(dp1287
g566
(dp1288
g177
S'api_logging_admin.html'
p1289
sg179
S'api_logging/admin'
p1290
sg181
g13
(g14
g15
NtRp1291
(dp1292
g18
I1
sg19
I0
sg20
I10
sg21
I0
sg22
I0
sg23
I0
sg24
I0
sbssg572
S'T\x93\x03\xbcO>\xd1\xd6\xf4\xd3\x15r{\xad0B'
p1293
ssS'user_system_models_users_user_streak_history_model'
p1294
(dp1295
g297
(dp1296
g1246
S'user_system_models_users_user_streak_history_model.html'
p1297
sg1248
S'user_system/models/users/user_streak_history_model'
p1298
sg1250
g13
(g14
g15
NtRp1299
(dp1300
g18
I1
sg19
I0
sg20
I28
sg21
I0
sg22
I0
sg23
I0
sg24
I0
sbssg303
S'w\x85uw\r5\x1a\xa5\xea>\xdaqki`p'
p1301
ssS'create_models_tags_tests_test_concept_model'
p1302
(dp1303
g386
(dp1304
g44
S'create_models_tags_tests_test_concept_model.html'
p1305
sg46
S'create/models/tags/tests/test_concept_model'
p1306
sg48
g13
(g14
g15
NtRp1307
(dp1308
g18
I1
sg19
I0
sg20
I12
sg21
I0
sg22
I0
sg23
I0
sg24
I0
sbssg392
S'@\x95\xd9\xf7\xa5\xc4\x0c\xb1\xad\xa4\xf5p\x95\x06!N'
p1309
ssS'privilege_models_privileges_privilege_model'
p1310
(dp1311
g287
(dp1312
g1246
S'privilege_models_privileges_privilege_model.html'
p1313
sg1248
S'privilege/models/privileges/privilege_model'
p1314
sg1250
g13
(g14
g15
NtRp1315
(dp1316
g18
I1
sg19
I0
sg20
I29
sg21
I0
sg22
I0
sg23
I0
sg24
I0
sbssg293
S'\xa3\xbf\x7fn\x8c\xe8#\xf8\xa9\x95#\xc7\xdb\xf0Y\xe6'
p1317
ssS'create_models_questions_tests_test_question_choice_model'
p1318
(dp1319
g42
(dp1320
S'html_filename'
p1321
S'create_models_questions_tests_test_question_choice_model.html'
p1322
sS'name'
p1323
S'create/models/questions/tests/test_question_choice_model'
p1324
sS'nums'
p1325
g13
(g14
g15
NtRp1326
(dp1327
g18
I1
sg19
I0
sg20
I46
sg21
I0
sg22
I0
sg23
I0
sg24
I0
sbssg51
S'$\x08N\xfb\nW\n\xecG\x9a[\xb7\xe2\xc1\xbd\x06'
p1328
ssS'user_system_views_users_tests_test_get_user_by_id_view'
p1329
(dp1330
g42
(dp1331
g93
S'user_system_views_users_tests_test_get_user_by_id_view.html'
p1332
sg95
S'user_system/views/users/tests/test_get_user_by_id_view'
p1333
sg97
g13
(g14
g15
NtRp1334
(dp1335
g18
I1
sg19
I0
sg20
I27
sg21
I0
sg22
I0
sg23
I0
sg24
I0
sbssg51
S'\xd7\x7f\x0c\xb9\xda.\xf1\x82\xb4\xdf*z\x10(o)'
p1336
ssS'create_models___init__'
p1337
(dp1338
g42
(dp1339
g57
S'create_models___init__.html'
p1340
sg59
S'create/models/__init__'
p1341
sg61
g13
(g14
g15
NtRp1342
(dp1343
g18
I1
sg19
I0
sg20
I6
sg21
I0
sg22
I0
sg23
I0
sg24
I0
sbssg51
S'\x1a\xde\xff\xb8/\x08R\x8e\xff\x13\x8b\xeb`\xfd\x98\xf8'
p1344
ssS'create_serializers_tags_tag_history_serializer'
p1345
(dp1346
S'index'
p1347
(dp1348
g105
S'create_serializers_tags_tag_history_serializer.html'
p1349
sg107
S'create/serializers/tags/tag_history_serializer'
p1350
sg109
g13
(g14
g15
NtRp1351
(dp1352
g18
I1
sg19
I0
sg20
I14
sg21
I0
sg22
I0
sg23
I0
sg24
I0
sbssS'hash'
p1353
S'\xc1"\xf9l4\xe66\x8a\xd0)r!\x05Y+\xd2'
p1354
ssS'create_serializers_daily_quest_templates___init__'
p1355
(dp1356
g242
(dp1357
g244
S'create_serializers_daily_quest_templates___init__.html'
p1358
sg246
S'create/serializers/daily_quest_templates/__init__'
p1359
sg248
g13
(g14
g15
NtRp1360
(dp1361
g18
I1
sg19
I0
sg20
I1
sg21
I0
sg22
I0
sg23
I0
sg24
I0
sbssg251
S'\xa2\xd34\x1b\xe2+\x16\xa9un\x8f\xa5\xe6\xc4\\p'
p1362
ssS'user_system_views_roles_tests___init__'
p1363
(dp1364
g42
(dp1365
g449
S'user_system_views_roles_tests___init__.html'
p1366
sg451
S'user_system/views/roles/tests/__init__'
p1367
sg453
g13
(g14
g15
NtRp1368
(dp1369
g18
I1
sg19
I0
sg20
I0
sg21
I0
sg22
I0
sg23
I0
sg24
I0
sbssg51
S'\x19g\xdfM\x1a\x019\xaf\x1baIeR\xe5u\xa7'
p1370
ssS'api_logging_models_modal_logging___init__'
p1371
(dp1372
g297
(dp1373
g177
S'api_logging_models_modal_logging___init__.html'
p1374
sg179
S'api_logging/models/modal_logging/__init__'
p1375
sg181
g13
(g14
g15
NtRp1376
(dp1377
g18
I1
sg19
I0
sg20
I2
sg21
I0
sg22
I0
sg23
I0
sg24
I0
sbssg303
S"+\x16\xa4\xd1\xf5m\xa9\x9e*\xd0\xa23O'}-"
p1378
ssS'user_system_serializers___init__'
p1379
(dp1380
g42
(dp1381
g57
S'user_system_serializers___init__.html'
p1382
sg59
S'user_system/serializers/__init__'
p1383
sg61
g13
(g14
g15
NtRp1384
(dp1385
g18
I1
sg19
I0
sg20
I3
sg21
I0
sg22
I0
sg23
I0
sg24
I0
sbssg51
S'\x85\x12\xbd.\x85L4\xea\t4\x9c\xcf\xb5 \x81\xb4'
p1386
ssS'teach_models_daily_quest_templates_tests___init__'
p1387
(dp1388
g55
(dp1389
g57
S'teach_models_daily_quest_templates_tests___init__.html'
p1390
sg59
S'teach/models/daily_quest_templates/tests/__init__'
p1391
sg61
g13
(g14
g15
NtRp1392
(dp1393
g18
I1
sg19
I0
sg20
I0
sg21
I0
sg22
I0
sg23
I0
sg24
I0
sbssg64
S'\x19g\xdfM\x1a\x019\xaf\x1baIeR\xe5u\xa7'
p1394
ssS'user_system_serializers_schools_grade_serializer'
p1395
(dp1396
g116
(dp1397
g31
S'user_system_serializers_schools_grade_serializer.html'
p1398
sg33
S'user_system/serializers/schools/grade_serializer'
p1399
sg35
g13
(g14
g15
NtRp1400
(dp1401
g18
I1
sg19
I0
sg20
I9
sg21
I0
sg22
I0
sg23
I0
sg24
I0
sbssg122
S"()\x18t._h'\x1c\x9bV\x14KS\xf6,"
p1402
ssS'create_models_questions_tests___init__'
p1403
(dp1404
g42
(dp1405
g449
S'create_models_questions_tests___init__.html'
p1406
sg451
S'create/models/questions/tests/__init__'
p1407
sg453
g13
(g14
g15
NtRp1408
(dp1409
g18
I1
sg19
I0
sg20
I0
sg21
I0
sg22
I0
sg23
I0
sg24
I0
sbssg51
S'\x19g\xdfM\x1a\x019\xaf\x1baIeR\xe5u\xa7'
p1410
ssS'teach_views___init__'
p1411
(dp1412
g55
(dp1413
g177
S'teach_views___init__.html'
p1414
sg179
S'teach/views/__init__'
p1415
sg181
g13
(g14
g15
NtRp1416
(dp1417
g18
I1
sg19
I0
sg20
I3
sg21
I0
sg22
I0
sg23
I0
sg24
I0
sbssg64
S'\xddN\x8bL\xe7O\xba\x93\x86:\xc2\x15\x13gc6'
p1418
ssS'privilege_admin'
p1419
(dp1420
g287
(dp1421
g93
S'privilege_admin.html'
p1422
sg95
S'privilege/admin'
p1423
sg97
g13
(g14
g15
NtRp1424
(dp1425
g18
I1
sg19
I0
sg20
I4
sg21
I0
sg22
I0
sg23
I0
sg24
I0
sbssg293
S'\xa1\x9fb^\xc7l\x00\x1f\x0e\x9c\x06\x08\x99Kx\x94'
p1426
ssS'teach_models_teacher_tags_tests_test_teacher_tag_model'
p1427
(dp1428
g55
(dp1429
g57
S'teach_models_teacher_tags_tests_test_teacher_tag_model.html'
p1430
sg59
S'teach/models/teacher_tags/tests/test_teacher_tag_model'
p1431
sg61
g13
(g14
g15
NtRp1432
(dp1433
g18
I1
sg19
I0
sg20
I30
sg21
I0
sg22
I0
sg23
I0
sg24
I0
sbssg64
S'\xf3\x06\xd8\xd6\x93V\xab\xdc\x87\x05\xf6vJ\xa9`\xe6'
p1434
ssS'user_system_models_schools_academic_year_model'
p1435
(dp1436
g206
(dp1437
S'html_filename'
p1438
S'user_system_models_schools_academic_year_model.html'
p1439
sS'name'
p1440
S'user_system/models/schools/academic_year_model'
p1441
sS'nums'
p1442
g13
(g14
g15
NtRp1443
(dp1444
g18
I1
sg19
I0
sg20
I23
sg21
I0
sg22
I0
sg23
I0
sg24
I0
sbssg215
S'\xf1Zl\xd3\xdd4\xdcX&\xdf\xf0<.\x11FY'
p1445
ssS'learn_models___init__'
p1446
(dp1447
g55
(dp1448
g177
S'learn_models___init__.html'
p1449
sg179
S'learn/models/__init__'
p1450
sg181
g13
(g14
g15
NtRp1451
(dp1452
g18
I1
sg19
I0
sg20
I2
sg21
I0
sg22
I0
sg23
I0
sg24
I0
sbssg64
S'J\x07\xbfU\xe2\xd2\xed\xadY\xe2o$\x84\x86bd'
p1453
ssS'user_system_models_users_student_profile_model'
p1454
(dp1455
g232
(dp1456
g177
S'user_system_models_users_student_profile_model.html'
p1457
sg179
S'user_system/models/users/student_profile_model'
p1458
sg181
g13
(g14
g15
NtRp1459
(dp1460
g18
I1
sg19
I2
sg20
I41
sg21
I0
sg22
I0
sg23
I0
sg24
I0
sbssg238
S'q\x83gLh\x1e\xeb\xb5+w&@\xe2"=\xb8'
p1461
ssS'user_system_models_schools_organization_model'
p1462
(dp1463
g206
(dp1464
g633
S'user_system_models_schools_organization_model.html'
p1465
sg635
S'user_system/models/schools/organization_model'
p1466
sg637
g13
(g14
g15
NtRp1467
(dp1468
g18
I1
sg19
I0
sg20
I28
sg21
I0
sg22
I0
sg23
I0
sg24
I0
sbssg215
S']\xd3\xfd\x922s\xeb0\xfd\x8a\x88\xfe"\xbd<h'
p1469
ssS'create_views_books_tests_test_hide_book_view'
p1470
(dp1471
g942
(dp1472
g44
S'create_views_books_tests_test_hide_book_view.html'
p1473
sg46
S'create/views/books/tests/test_hide_book_view'
p1474
sg48
g13
(g14
g15
NtRp1475
(dp1476
g18
I1
sg19
I0
sg20
I25
sg21
I0
sg22
I0
sg23
I0
sg24
I0
sbssg948
S'\xe1\x17\x16\xca\x8a\xc5c\x1b\xce\xab\xb8\xf9G\x03\x9dQ'
p1477
ssS'teach_serializers_teacher_tags_teacher_tag_serializer'
p1478
(dp1479
g55
(dp1480
g31
S'teach_serializers_teacher_tags_teacher_tag_serializer.html'
p1481
sg33
S'teach/serializers/teacher_tags/teacher_tag_serializer'
p1482
sg35
g13
(g14
g15
NtRp1483
(dp1484
g18
I1
sg19
I2
sg20
I26
sg21
I0
sg22
I0
sg23
I9
sg24
I2
sbssg64
S'\x07C\xdf\xcd\x92\x1eS\x1a#\x8e\x9d\x88Dj\n\x12'
p1485
ssS'create_models_daily_quests_tests_test_daily_quest_model'
p1486
(dp1487
g758
(dp1488
g244
S'create_models_daily_quests_tests_test_daily_quest_model.html'
p1489
sg246
S'create/models/daily_quests/tests/test_daily_quest_model'
p1490
sg248
g13
(g14
g15
NtRp1491
(dp1492
g18
I1
sg19
I2
sg20
I51
sg21
I0
sg22
I0
sg23
I0
sg24
I0
sbssg767
S'\x16\x87\xb8\xd4K\xb4\x87\xf9\x84\xc4V\x94\x17\xf6\x1a\xf0'
p1493
ssS'create_admin'
p1494
(dp1495
g42
(dp1496
g57
S'create_admin.html'
p1497
sg59
S'create/admin'
p1498
sg61
g13
(g14
g15
NtRp1499
(dp1500
g18
I1
sg19
I0
sg20
I20
sg21
I0
sg22
I0
sg23
I0
sg24
I0
sbssg51
S'\x03\xe6\xc2\xd5\xa8\xb1\x92\xa5/8\x0fZCN\r\x08'
p1501
ssS'create_views_questions_tests_test_get_question_list_view'
p1502
(dp1503
g42
(dp1504
g93
S'create_views_questions_tests_test_get_question_list_view.html'
p1505
sg95
S'create/views/questions/tests/test_get_question_list_view'
p1506
sg97
g13
(g14
g15
NtRp1507
(dp1508
g18
I1
sg19
I0
sg20
I32
sg21
I0
sg22
I0
sg23
I0
sg24
I0
sbssg51
S'\xa2&\x88;1\\\xa2 \xb4&ejB\xd1%\x06'
p1509
ssS'user_system_views_logins___init__'
p1510
(dp1511
g42
(dp1512
g449
S'user_system_views_logins___init__.html'
p1513
sg451
S'user_system/views/logins/__init__'
p1514
sg453
g13
(g14
g15
NtRp1515
(dp1516
g18
I1
sg19
I0
sg20
I2
sg21
I0
sg22
I0
sg23
I0
sg24
I0
sbssg51
S'\xa0\xd3\xaas\xc2\xb93+ED.\xe5\xfe\xf2\xad\x87'
p1517
ssS'create_views_daily_quest_copies___init__'
p1518
(dp1519
g414
(dp1520
S'html_filename'
p1521
S'create_views_daily_quest_copies___init__.html'
p1522
sS'name'
p1523
S'create/views/daily_quest_copies/__init__'
p1524
sS'nums'
p1525
g13
(g14
g15
NtRp1526
(dp1527
g18
I1
sg19
I0
sg20
I1
sg21
I0
sg22
I0
sg23
I0
sg24
I0
sbssg423
S"'\xb6_z\x90s\x92\xdd\xc7\xb2\x87d\xba\xe24X"
p1528
ssS'create_views_quests_tests_test_hide_quest_view'
p1529
(dp1530
g6
(dp1531
g8
S'create_views_quests_tests_test_hide_quest_view.html'
p1532
sg10
S'create/views/quests/tests/test_hide_quest_view'
p1533
sg12
g13
(g14
g15
NtRp1534
(dp1535
g18
I1
sg19
I0
sg20
I26
sg21
I0
sg22
I0
sg23
I0
sg24
I0
sbssg25
S'G\xcb\xcf\xbb~*\xa2i\xd2\xff\x81\x81\xf0)G\xda'
p1536
ssS'create_views_books_tests_test_add_tag_to_subchapter_view'
p1537
(dp1538
S'index'
p1539
(dp1540
g44
S'create_views_books_tests_test_add_tag_to_subchapter_view.html'
p1541
sg46
S'create/views/books/tests/test_add_tag_to_subchapter_view'
p1542
sg48
g13
(g14
g15
NtRp1543
(dp1544
g18
I1
sg19
I0
sg20
I40
sg21
I0
sg22
I0
sg23
I0
sg24
I0
sbssS'hash'
p1545
S'\xb78\xf4p\xcd\xec\xca\xaa\x93\xb9\xda\xa8Yo37'
p1546
ssS'api_logging_models_modal_logging_modal_user_history_model'
p1547
(dp1548
g297
(dp1549
g177
S'api_logging_models_modal_logging_modal_user_history_model.html'
p1550
sg179
S'api_logging/models/modal_logging/modal_user_history_model'
p1551
sg181
g13
(g14
g15
NtRp1552
(dp1553
g18
I1
sg19
I0
sg20
I15
sg21
I0
sg22
I0
sg23
I3
sg24
I0
sbssg303
S'\xabX\xd42<$9z\xc1]\xc12\xe9\xd8\xbf\xd2'
p1554
ssS'create_views_daily_quests_daily_quest_view'
p1555
(dp1556
g242
(dp1557
g244
S'create_views_daily_quests_daily_quest_view.html'
p1558
sg246
S'create/views/daily_quests/daily_quest_view'
p1559
sg248
g13
(g14
g15
NtRp1560
(dp1561
g18
I1
sg19
I8
sg20
I34
sg21
I0
sg22
I0
sg23
I17
sg24
I8
sbssg251
S'\x9b\xbe99\x1cP\x1d\xd8iT&I;\xb4\xbbf'
p1562
ssS'user_system_managers_user_manager'
p1563
(dp1564
g297
(dp1565
g376
S'user_system_managers_user_manager.html'
p1566
sg378
S'user_system/managers/user_manager'
p1567
sg380
g13
(g14
g15
NtRp1568
(dp1569
g18
I1
sg19
I22
sg20
I54
sg21
I0
sg22
I0
sg23
I44
sg24
I22
sbssg303
S',#\x9c\x9f\xec\xe9\x86\x8b \xc3\x115\xce\x078\xe6'
p1570
ssS'create_models_quests_tests___init__'
p1571
(dp1572
g103
(dp1573
g622
S'create_models_quests_tests___init__.html'
p1574
sg624
S'create/models/quests/tests/__init__'
p1575
sg626
g13
(g14
g15
NtRp1576
(dp1577
g18
I1
sg19
I0
sg20
I1
sg21
I0
sg22
I0
sg23
I0
sg24
I0
sbssg112
S'\xbc\xd6\xeb\xb3\xba\xcaz\xf7{\xd4B\xb5}l\xdf\x96'
p1578
ssS'create_views_questions___init__'
p1579
(dp1580
g42
(dp1581
g594
S'create_views_questions___init__.html'
p1582
sg596
S'create/views/questions/__init__'
p1583
sg598
g13
(g14
g15
NtRp1584
(dp1585
g18
I1
sg19
I0
sg20
I3
sg21
I0
sg22
I0
sg23
I0
sg24
I0
sbssg51
S'h\x154\xc5\xe58\xa8\xc8\xa9\xa6\xbea?\xcf?i'
p1586
ssS'user_system_views_users_create_teacher_view'
p1587
(dp1588
g297
(dp1589
g177
S'user_system_views_users_create_teacher_view.html'
p1590
sg179
S'user_system/views/users/create_teacher_view'
p1591
sg181
g13
(g14
g15
NtRp1592
(dp1593
g18
I1
sg19
I2
sg20
I34
sg21
I0
sg22
I0
sg23
I21
sg24
I2
sbssg303
S'=\xee\xed^jo\xc1\xebz\xedP\xf9\x91n\xec\x8d'
p1594
ssS'user_system_models_apps_tests___init__'
p1595
(dp1596
g42
(dp1597
g449
S'user_system_models_apps_tests___init__.html'
p1598
sg451
S'user_system/models/apps/tests/__init__'
p1599
sg453
g13
(g14
g15
NtRp1600
(dp1601
g18
I1
sg19
I0
sg20
I0
sg21
I0
sg22
I0
sg23
I0
sg24
I0
sbssg51
S'\x19g\xdfM\x1a\x019\xaf\x1baIeR\xe5u\xa7'
p1602
ssS'privilege_serializers_privileges_user_privilege_serializer'
p1603
(dp1604
g287
(dp1605
g93
S'privilege_serializers_privileges_user_privilege_serializer.html'
p1606
sg95
S'privilege/serializers/privileges/user_privilege_serializer'
p1607
sg97
g13
(g14
g15
NtRp1608
(dp1609
g18
I1
sg19
I0
sg20
I9
sg21
I0
sg22
I0
sg23
I0
sg24
I0
sbssg293
S'#\xe5\xcc\x9as5y,\xa1HiQ\xa2c\xdb2'
p1610
ssS'create_models_quests_tests_test_quest_history_model'
p1611
(dp1612
g103
(dp1613
g1211
S'create_models_quests_tests_test_quest_history_model.html'
p1614
sg1213
S'create/models/quests/tests/test_quest_history_model'
p1615
sg1215
g13
(g14
g15
NtRp1616
(dp1617
g18
I1
sg19
I8
sg20
I79
sg21
I0
sg22
I0
sg23
I0
sg24
I0
sbssg112
S'##\xeax]g;Ka\xb3\xc0Py,oE'
p1618
ssS'create_views_summary___init__'
p1619
(dp1620
S'index'
p1621
(dp1622
g1101
S'create_views_summary___init__.html'
p1623
sg1103
S'create/views/summary/__init__'
p1624
sg1105
g13
(g14
g15
NtRp1625
(dp1626
g18
I1
sg19
I0
sg20
I1
sg21
I0
sg22
I0
sg23
I0
sg24
I0
sbssS'hash'
p1627
S'#\xb7\xbd\xa1M\xe4\xa0\x05\xf5x\x057hU[\xca'
p1628
ssS'create_models_daily_quest_templates___init__'
p1629
(dp1630
g242
(dp1631
g244
S'create_models_daily_quest_templates___init__.html'
p1632
sg246
S'create/models/daily_quest_templates/__init__'
p1633
sg248
g13
(g14
g15
NtRp1634
(dp1635
g18
I1
sg19
I0
sg20
I1
sg21
I0
sg22
I0
sg23
I0
sg24
I0
sbssg251
S'\x12\x89x\xb9F\xfb=b\x04\xddy\xb4\xccZb\xb8'
p1636
ssS'create_views_tags_tests_test_get_tag_by_id_view'
p1637
(dp1638
g427
(dp1639
g93
S'create_views_tags_tests_test_get_tag_by_id_view.html'
p1640
sg95
S'create/views/tags/tests/test_get_tag_by_id_view'
p1641
sg97
g13
(g14
g15
NtRp1642
(dp1643
g18
I1
sg19
I0
sg20
I20
sg21
I0
sg22
I0
sg23
I0
sg24
I0
sbssg436
S'T\xd5\xd7\xd9\xb8\x12\x81xj\xca\x90\xa41\xcf\x02]'
p1644
ssS'api_logging_models_user_activities___init__'
p1645
(dp1646
g297
(dp1647
g177
S'api_logging_models_user_activities___init__.html'
p1648
sg179
S'api_logging/models/user_activities/__init__'
p1649
sg181
g13
(g14
g15
NtRp1650
(dp1651
g18
I1
sg19
I0
sg20
I1
sg21
I0
sg22
I0
sg23
I0
sg24
I0
sbssg303
S'\xd9\xe2\xb9\xa8[\x85h\x8ep\xd5\x12TW1\x9d\x1b'
p1652
ssS'user_system_models_users_tests_test_user_profile_model'
p1653
(dp1654
g42
(dp1655
g158
S'user_system_models_users_tests_test_user_profile_model.html'
p1656
sg160
S'user_system/models/users/tests/test_user_profile_model'
p1657
sg162
g13
(g14
g15
NtRp1658
(dp1659
g18
I1
sg19
I0
sg20
I142
sg21
I0
sg22
I0
sg23
I0
sg24
I0
sbssg51
S'\x00\xb8\xc5\xc0\xcb\xb1\xcaP@!\x086\x84\x1d\xd5\xed'
p1660
ssS'user_system_views_users_user_streak_history_view'
p1661
(dp1662
S'index'
p1663
(dp1664
g376
S'user_system_views_users_user_streak_history_view.html'
p1665
sg378
S'user_system/views/users/user_streak_history_view'
p1666
sg380
g13
(g14
g15
NtRp1667
(dp1668
g18
I1
sg19
I0
sg20
I15
sg21
I0
sg22
I0
sg23
I0
sg24
I0
sbssS'hash'
p1669
S'\x82\xa4:\x84\x8dJE7\xc0"\xbb\xceU\xa9\xd6\x07'
p1670
ssS'user_system_views_roles_tests_test_user_role_view'
p1671
(dp1672
g42
(dp1673
g44
S'user_system_views_roles_tests_test_user_role_view.html'
p1674
sg46
S'user_system/views/roles/tests/test_user_role_view'
p1675
sg48
g13
(g14
g15
NtRp1676
(dp1677
g18
I1
sg19
I0
sg20
I41
sg21
I0
sg22
I0
sg23
I0
sg24
I0
sbssg51
S'\xaf \x02-\xd3\xa9\xee\x1e7\x87\xa8[\xd9\xd8V\xd8'
p1678
ssS'user_system_views_apps_tests_test_get_apps_list_view'
p1679
(dp1680
g42
(dp1681
g44
S'user_system_views_apps_tests_test_get_apps_list_view.html'
p1682
sg46
S'user_system/views/apps/tests/test_get_apps_list_view'
p1683
sg48
g13
(g14
g15
NtRp1684
(dp1685
g18
I1
sg19
I0
sg20
I18
sg21
I0
sg22
I0
sg23
I0
sg24
I0
sbssg51
S'\x87\xab;"\x01p\xf9\xe5\xa6\xb1\xaej\x8egl\x99'
p1686
ssS'api_logging_models_user_activities_user_activity_model'
p1687
(dp1688
g297
(dp1689
g177
S'api_logging_models_user_activities_user_activity_model.html'
p1690
sg179
S'api_logging/models/user_activities/user_activity_model'
p1691
sg181
g13
(g14
g15
NtRp1692
(dp1693
g18
I1
sg19
I0
sg20
I11
sg21
I0
sg22
I0
sg23
I0
sg24
I0
sbssg303
S'f\xe2(\xd3\xddS\xfd\x1e\xf0d\xb2,\xb2\x8f\x8c\x18'
p1694
ssS'create_views_books_tests_test_create_new_book'
p1695
(dp1696
S'index'
p1697
(dp1698
g44
S'create_views_books_tests_test_create_new_book.html'
p1699
sg46
S'create/views/books/tests/test_create_new_book'
p1700
sg48
g13
(g14
g15
NtRp1701
(dp1702
g18
I1
sg19
I0
sg20
I18
sg21
I0
sg22
I0
sg23
I0
sg24
I0
sbssS'hash'
p1703
S'\xe3\xaew\xf8\xd7\x8f\xc5 \x85\xc1\xb6I\x82X(-'
p1704
ssS'create_serializers_questions_question_type_serializer'
p1705
(dp1706
g42
(dp1707
g449
S'create_serializers_questions_question_type_serializer.html'
p1708
sg451
S'create/serializers/questions/question_type_serializer'
p1709
sg453
g13
(g14
g15
NtRp1710
(dp1711
g18
I1
sg19
I0
sg20
I6
sg21
I0
sg22
I0
sg23
I0
sg24
I0
sbssg51
S'!\x8a\x91KA:\x92\x13/\xdd\xd9\xc2?\x8b\xe1\xc6'
p1712
ssS'create_models_books_tests_test_book_model'
p1713
(dp1714
g349
(dp1715
S'html_filename'
p1716
S'create_models_books_tests_test_book_model.html'
p1717
sS'name'
p1718
S'create/models/books/tests/test_book_model'
p1719
sS'nums'
p1720
g13
(g14
g15
NtRp1721
(dp1722
g18
I1
sg19
I6
sg20
I44
sg21
I0
sg22
I0
sg23
I0
sg24
I0
sbssg355
S'\xff\x88\xcd\xb0\x80\xb2\x9d\xf7\xf9G\xb1.\xaf\xdd\x07\xd7'
p1723
ssS'user_system_serializers_users_teacher_mapping_serializer'
p1724
(dp1725
g297
(dp1726
g177
S'user_system_serializers_users_teacher_mapping_serializer.html'
p1727
sg179
S'user_system/serializers/users/teacher_mapping_serializer'
p1728
sg181
g13
(g14
g15
NtRp1729
(dp1730
g18
I1
sg19
I0
sg20
I7
sg21
I0
sg22
I0
sg23
I0
sg24
I0
sbssg303
S'\x13\xf7\x06\xcfN\x17?&3\xc5\xf6]6uj\xc1'
p1731
ssS'create_models_questions_question_choice_model'
p1732
(dp1733
g42
(dp1734
g1321
S'create_models_questions_question_choice_model.html'
p1735
sg1323
S'create/models/questions/question_choice_model'
p1736
sg1325
g13
(g14
g15
NtRp1737
(dp1738
g18
I1
sg19
I0
sg20
I42
sg21
I0
sg22
I0
sg23
I0
sg24
I0
sbssg51
S'\xd7\xd8\x1f\xbf<\xee\xdd?}\xfe>\x82\\\x97\x15)'
p1739
ssS'flipped_helpers_tests___init__'
p1740
(dp1741
g42
(dp1742
g449
S'flipped_helpers_tests___init__.html'
p1743
sg451
S'flipped/helpers/tests/__init__'
p1744
sg453
g13
(g14
g15
NtRp1745
(dp1746
g18
I1
sg19
I0
sg20
I0
sg21
I0
sg22
I0
sg23
I0
sg24
I0
sbssg51
S'\x19g\xdfM\x1a\x019\xaf\x1baIeR\xe5u\xa7'
p1747
ssS'user_system_models_roles_role_app_model'
p1748
(dp1749
g42
(dp1750
g44
S'user_system_models_roles_role_app_model.html'
p1751
sg46
S'user_system/models/roles/role_app_model'
p1752
sg48
g13
(g14
g15
NtRp1753
(dp1754
g18
I1
sg19
I0
sg20
I18
sg21
I0
sg22
I0
sg23
I0
sg24
I0
sbssg51
S'\x8d\xa3&\x03\x9d\x1cO|\xces.\x11/\x8f`\xcc'
p1755
ssS'create_models_tags_tests_test_tag_model'
p1756
(dp1757
g386
(dp1758
S'html_filename'
p1759
S'create_models_tags_tests_test_tag_model.html'
p1760
sS'name'
p1761
S'create/models/tags/tests/test_tag_model'
p1762
sS'nums'
p1763
g13
(g14
g15
NtRp1764
(dp1765
g18
I1
sg19
I6
sg20
I52
sg21
I0
sg22
I0
sg23
I0
sg24
I0
sbssg392
S'1\x992\xc0\xbb\xb6d *5\xfa\xd2\xdc1\xb2\x92'
p1766
ssS'create_views_tags_tests_test_remove_prerequisite_view'
p1767
(dp1768
g307
(dp1769
g44
S'create_views_tags_tests_test_remove_prerequisite_view.html'
p1770
sg46
S'create/views/tags/tests/test_remove_prerequisite_view'
p1771
sg48
g13
(g14
g15
NtRp1772
(dp1773
g18
I1
sg19
I0
sg20
I31
sg21
I0
sg22
I0
sg23
I0
sg24
I0
sbssg313
S'\x8e\x8c~\xff\x85\x94\x8c~T\x7f\x80\x82W\x96\x19\x9c'
p1774
ssS'learn_models_points_tests_test_point_type_model'
p1775
(dp1776
g297
(dp1777
g633
S'learn_models_points_tests_test_point_type_model.html'
p1778
sg635
S'learn/models/points/tests/test_point_type_model'
p1779
sg637
g13
(g14
g15
NtRp1780
(dp1781
g18
I1
sg19
I0
sg20
I20
sg21
I0
sg22
I0
sg23
I0
sg24
I0
sbssg303
S'\x8a\x938\x82k\xa7\x10\xf1\x95\x07\xc4\xb2\x9d\n\xc6\x1f'
p1782
ssS'teach_serializers_teacher_chapters_teacher_chapter_serializer'
p1783
(dp1784
g55
(dp1785
g57
S'teach_serializers_teacher_chapters_teacher_chapter_serializer.html'
p1786
sg59
S'teach/serializers/teacher_chapters/teacher_chapter_serializer'
p1787
sg61
g13
(g14
g15
NtRp1788
(dp1789
g18
I1
sg19
I0
sg20
I12
sg21
I0
sg22
I0
sg23
I0
sg24
I0
sbssg64
S'\xac\x9b\xf1Q\x91\xf4J\x03y\xc4\xa7\x9c\x996\x13a'
p1790
ssS'user_system_serializers_app_serializer'
p1791
(dp1792
g42
(dp1793
g449
S'user_system_serializers_app_serializer.html'
p1794
sg451
S'user_system/serializers/app_serializer'
p1795
sg453
g13
(g14
g15
NtRp1796
(dp1797
g18
I1
sg19
I0
sg20
I7
sg21
I0
sg22
I0
sg23
I0
sg24
I0
sbssg51
S'\xc1\x87\xd6\x1b\xbe\x8f\xfb\xdd\x1a\xa9\x92A\xe2\xc3\xe2\xf1'
p1798
ssS'user_system_views_logins_tests_test_facebook_login_view'
p1799
(dp1800
g42
(dp1801
g44
S'user_system_views_logins_tests_test_facebook_login_view.html'
p1802
sg46
S'user_system/views/logins/tests/test_facebook_login_view'
p1803
sg48
g13
(g14
g15
NtRp1804
(dp1805
g18
I1
sg19
I0
sg20
I51
sg21
I0
sg22
I0
sg23
I0
sg24
I0
sbssg51
S'\x8eg\xfbA\xbdf+\x81\xe9\x8a\x16\x82\xe9\xe3\xc0\xf4'
p1806
ssS'create_models_books_book_history_model'
p1807
(dp1808
g349
(dp1809
g93
S'create_models_books_book_history_model.html'
p1810
sg95
S'create/models/books/book_history_model'
p1811
sg97
g13
(g14
g15
NtRp1812
(dp1813
g18
I1
sg19
I4
sg20
I43
sg21
I0
sg22
I1
sg23
I0
sg24
I1
sbssg355
S'\xd71\x9e\xd0\x9bqR\xb9(!\x9f2\x10O|\xeb'
p1814
ssS'teach_models_teacher_chapters_tests___init__'
p1815
(dp1816
g55
(dp1817
g57
S'teach_models_teacher_chapters_tests___init__.html'
p1818
sg59
S'teach/models/teacher_chapters/tests/__init__'
p1819
sg61
g13
(g14
g15
NtRp1820
(dp1821
g18
I1
sg19
I0
sg20
I0
sg21
I0
sg22
I0
sg23
I0
sg24
I0
sbssg64
S'\x19g\xdfM\x1a\x019\xaf\x1baIeR\xe5u\xa7'
p1822
ssS'create_views_quests_tests_test_remove_tag_view'
p1823
(dp1824
g6
(dp1825
g8
S'create_views_quests_tests_test_remove_tag_view.html'
p1826
sg10
S'create/views/quests/tests/test_remove_tag_view'
p1827
sg12
g13
(g14
g15
NtRp1828
(dp1829
g18
I1
sg19
I0
sg20
I0
sg21
I0
sg22
I0
sg23
I0
sg24
I0
sbssg25
S'\x19g\xdfM\x1a\x019\xaf\x1baIeR\xe5u\xa7'
p1830
ssS'create_models_books_book_model'
p1831
(dp1832
g349
(dp1833
S'html_filename'
p1834
S'create_models_books_book_model.html'
p1835
sS'name'
p1836
S'create/models/books/book_model'
p1837
sS'nums'
p1838
g13
(g14
g15
NtRp1839
(dp1840
g18
I1
sg19
I4
sg20
I37
sg21
I0
sg22
I0
sg23
I0
sg24
I0
sbssg355
S'Z\x88%\xfa\x8c7\x1e\xf9\x06qW\x80O\xe1\x85.'
p1841
ssS'create_views_books_tests_test_remove_chapter_view'
p1842
(dp1843
g126
(dp1844
g44
S'create_views_books_tests_test_remove_chapter_view.html'
p1845
sg46
S'create/views/books/tests/test_remove_chapter_view'
p1846
sg48
g13
(g14
g15
NtRp1847
(dp1848
g18
I1
sg19
I0
sg20
I39
sg21
I0
sg22
I0
sg23
I0
sg24
I0
sbssg132
S'lJ\xdc\xbe\xe2>\x9d\xde\xb5+ia5;\x042'
p1849
ssS'privilege_models_privileges_tests_test_user_privilege_model'
p1850
(dp1851
g287
(dp1852
g93
S'privilege_models_privileges_tests_test_user_privilege_model.html'
p1853
sg95
S'privilege/models/privileges/tests/test_user_privilege_model'
p1854
sg97
g13
(g14
g15
NtRp1855
(dp1856
g18
I1
sg19
I0
sg20
I19
sg21
I0
sg22
I0
sg23
I0
sg24
I0
sbssg293
S'\xcd\xf2\x96G\xfe\xbc/\xb5\x15\xceNf\x0f\x0b5\xd4'
p1857
ssS'privilege_views___init__'
p1858
(dp1859
g287
(dp1860
g93
S'privilege_views___init__.html'
p1861
sg95
S'privilege/views/__init__'
p1862
sg97
g13
(g14
g15
NtRp1863
(dp1864
g18
I1
sg19
I0
sg20
I0
sg21
I0
sg22
I0
sg23
I0
sg24
I0
sbssg293
S'\x19g\xdfM\x1a\x019\xaf\x1baIeR\xe5u\xa7'
p1865
ssS'user_system_views_users_tests___init__'
p1866
(dp1867
g42
(dp1868
g449
S'user_system_views_users_tests___init__.html'
p1869
sg451
S'user_system/views/users/tests/__init__'
p1870
sg453
g13
(g14
g15
NtRp1871
(dp1872
g18
I1
sg19
I0
sg20
I0
sg21
I0
sg22
I0
sg23
I0
sg24
I0
sbssg51
S'\x19g\xdfM\x1a\x019\xaf\x1baIeR\xe5u\xa7'
p1873
ssS'create_models_tags_tests_test_skill_model'
p1874
(dp1875
g386
(dp1876
g44
S'create_models_tags_tests_test_skill_model.html'
p1877
sg46
S'create/models/tags/tests/test_skill_model'
p1878
sg48
g13
(g14
g15
NtRp1879
(dp1880
g18
I1
sg19
I0
sg20
I12
sg21
I0
sg22
I0
sg23
I0
sg24
I0
sbssg392
S'\x08\x9e\x87e#\x02\x06O\x02l!\x0e\xe8\xeb\xc0.'
p1881
ssS'user_system_views_signups_hardcoded___init__'
p1882
(dp1883
g42
(dp1884
g449
S'user_system_views_signups_hardcoded___init__.html'
p1885
sg451
S'user_system/views/signups/hardcoded/__init__'
p1886
sg453
g13
(g14
g15
NtRp1887
(dp1888
g18
I1
sg19
I0
sg20
I1
sg21
I0
sg22
I0
sg23
I0
sg24
I0
sbssg51
S'?\xfac\x0c\x91\xa4\xd6\xd4\x1d\xe4\x99\xc2[\x83\xfc\xdf'
p1889
ssS'create_models_daily_quest_templates_daily_quest_template_model'
p1890
(dp1891
g242
(dp1892
g244
S'create_models_daily_quest_templates_daily_quest_template_model.html'
p1893
sg246
S'create/models/daily_quest_templates/daily_quest_template_model'
p1894
sg248
g13
(g14
g15
NtRp1895
(dp1896
g18
I1
sg19
I0
sg20
I29
sg21
I0
sg22
I0
sg23
I0
sg24
I0
sbssg251
S'm:\xfa\nsk\x85\xa8p\x96\xc3\xca\xa1c\xb0+'
p1897
ssS'create_models_books_tests_test_book_chapter_model'
p1898
(dp1899
g349
(dp1900
g1716
S'create_models_books_tests_test_book_chapter_model.html'
p1901
sg1718
S'create/models/books/tests/test_book_chapter_model'
p1902
sg1720
g13
(g14
g15
NtRp1903
(dp1904
g18
I1
sg19
I8
sg20
I55
sg21
I0
sg22
I0
sg23
I0
sg24
I0
sbssg355
S'\xc4\x1a\xd7\x12s\xd3V\xef\xac\xa7%\x0c\xdc\x17\x05c'
p1905
ssS'user_system_views_signups_tests_test_verify_email_view'
p1906
(dp1907
g42
(dp1908
g44
S'user_system_views_signups_tests_test_verify_email_view.html'
p1909
sg46
S'user_system/views/signups/tests/test_verify_email_view'
p1910
sg48
g13
(g14
g15
NtRp1911
(dp1912
g18
I1
sg19
I0
sg20
I51
sg21
I0
sg22
I0
sg23
I0
sg24
I0
sbssg51
S'\x81\xacj\x9d\x1f\xa9o\xcc\x1e\xa3\xe59^YT\x9e'
p1913
ssS'teach_models_daily_quest_templates___init__'
p1914
(dp1915
g55
(dp1916
g57
S'teach_models_daily_quest_templates___init__.html'
p1917
sg59
S'teach/models/daily_quest_templates/__init__'
p1918
sg61
g13
(g14
g15
NtRp1919
(dp1920
g18
I1
sg19
I0
sg20
I1
sg21
I0
sg22
I0
sg23
I0
sg24
I0
sbssg64
S'\x12\x89x\xb9F\xfb=b\x04\xddy\xb4\xccZb\xb8'
p1921
ssS'teach_serializers_daily_quest_templates_daily_quest_template_serializer'
p1922
(dp1923
g55
(dp1924
g177
S'teach_serializers_daily_quest_templates_daily_quest_template_serializer.html'
p1925
sg179
S'teach/serializers/daily_quest_templates/daily_quest_template_serializer'
p1926
sg181
g13
(g14
g15
NtRp1927
(dp1928
g18
I1
sg19
I0
sg20
I12
sg21
I0
sg22
I0
sg23
I0
sg24
I0
sbssg64
S"\xd9\x0bcm\x95?'mB\xf9\xdd\xa1\xfc>:="
p1929
ssS'create_views_questions_tests_test_add_tag_view'
p1930
(dp1931
g219
(dp1932
g221
S'create_views_questions_tests_test_add_tag_view.html'
p1933
sg223
S'create/views/questions/tests/test_add_tag_view'
p1934
sg225
g13
(g14
g15
NtRp1935
(dp1936
g18
I1
sg19
I0
sg20
I35
sg21
I0
sg22
I0
sg23
I0
sg24
I0
sbssg228
S'\x8e\x13\xdd\xbd\xba\r&,-|&W-a`\x7f'
p1937
ssS'create_views_quests_quest_view'
p1938
(dp1939
g103
(dp1940
g999
S'create_views_quests_quest_view.html'
p1941
sg1001
S'create/views/quests/quest_view'
p1942
sg1003
g13
(g14
g15
NtRp1943
(dp1944
g18
I1
sg19
I84
sg20
I249
sg21
I0
sg22
I0
sg23
I178
sg24
I78
sbssg112
S'(\xa2UK\xe2}\xa8\xe0\xc9 3#\xec\x01\xfd\x16'
p1945
ssS'privilege_models_privileges_tests_test_privilege_model'
p1946
(dp1947
g287
(dp1948
g1246
S'privilege_models_privileges_tests_test_privilege_model.html'
p1949
sg1248
S'privilege/models/privileges/tests/test_privilege_model'
p1950
sg1250
g13
(g14
g15
NtRp1951
(dp1952
g18
I1
sg19
I0
sg20
I30
sg21
I0
sg22
I0
sg23
I0
sg24
I0
sbssg293
S'\xe0^\x80\xd5+a\xd9\xc4\xeabB\xc5\x142;\xc9'
p1953
ssS'api_logging_models'
p1954
(dp1955
g566
(dp1956
g732
S'api_logging_models.html'
p1957
sg734
S'api_logging/models'
p1958
sg736
g13
(g14
g15
NtRp1959
(dp1960
g18
I1
sg19
I0
sg20
I21
sg21
I0
sg22
I0
sg23
I0
sg24
I0
sbssg572
S'\x0c\x96WFX%\xe9\xcf+\xcf\xc2s\xa7a1\xbd'
p1961
ssS'user_system_models_schools_tests_test_grade_model'
p1962
(dp1963
g232
(dp1964
g31
S'user_system_models_schools_tests_test_grade_model.html'
p1965
sg33
S'user_system/models/schools/tests/test_grade_model'
p1966
sg35
g13
(g14
g15
NtRp1967
(dp1968
g18
I1
sg19
I0
sg20
I24
sg21
I0
sg22
I0
sg23
I0
sg24
I0
sbssg238
S'\x1e|\xb0\x10\x05\x9c\xb5\xe9\xbc\xff\x8a\xaan\xdf\xd4\xb2'
p1969
ssS'user_system_models_apps_tests_test_app_model'
p1970
(dp1971
g42
(dp1972
g44
S'user_system_models_apps_tests_test_app_model.html'
p1973
sg46
S'user_system/models/apps/tests/test_app_model'
p1974
sg48
g13
(g14
g15
NtRp1975
(dp1976
g18
I1
sg19
I0
sg20
I18
sg21
I0
sg22
I0
sg23
I0
sg24
I0
sbssg51
S'\xfb\xfc\xe0#\xe2\n\x8e\x9e\x94\xa8\x83\xc5\xb1U\xa3a'
p1977
ssS'create_models_daily_quests_daily_quest_model'
p1978
(dp1979
g758
(dp1980
g1521
S'create_models_daily_quests_daily_quest_model.html'
p1981
sg1523
S'create/models/daily_quests/daily_quest_model'
p1982
sg1525
g13
(g14
g15
NtRp1983
(dp1984
g18
I1
sg19
I2
sg20
I48
sg21
I0
sg22
I0
sg23
I6
sg24
I2
sbssg767
S'\xae\'/"f\x1014\xdd\x0e\x85\xf4\x91\x02\\`'
p1985
ssS'user_system_views_signups_tests_test_email_signup_view'
p1986
(dp1987
g42
(dp1988
g44
S'user_system_views_signups_tests_test_email_signup_view.html'
p1989
sg46
S'user_system/views/signups/tests/test_email_signup_view'
p1990
sg48
g13
(g14
g15
NtRp1991
(dp1992
g18
I1
sg19
I0
sg20
I51
sg21
I0
sg22
I0
sg23
I0
sg24
I0
sbssg51
S'\xa3\xb2\xaf-\x99\xe3]\xcc\xe6\x8b\xeb\xf63=I\xb4'
p1993
ssS'user_system_models_schools_tests_test_organization_model'
p1994
(dp1995
g206
(dp1996
g633
S'user_system_models_schools_tests_test_organization_model.html'
p1997
sg635
S'user_system/models/schools/tests/test_organization_model'
p1998
sg637
g13
(g14
g15
NtRp1999
(dp2000
g18
I1
sg19
I0
sg20
I27
sg21
I0
sg22
I0
sg23
I0
sg24
I0
sbssg215
S"\xa3'h\xadZ,\x82G\xbc\x08wON /j"
p2001
ssS'learn_admin'
p2002
(dp2003
g55
(dp2004
g177
S'learn_admin.html'
p2005
sg179
S'learn/admin'
p2006
sg181
g13
(g14
g15
NtRp2007
(dp2008
g18
I1
sg19
I0
sg20
I6
sg21
I0
sg22
I0
sg23
I0
sg24
I0
sbssg64
S'\x01\xff=[_\x13,\xf8ES\x17G)\x1e\xfb\x10'
p2009
ssS'create_views_books_book_subchapter_view'
p2010
(dp2011
g1539
(dp2012
g44
S'create_views_books_book_subchapter_view.html'
p2013
sg46
S'create/views/books/book_subchapter_view'
p2014
sg48
g13
(g14
g15
NtRp2015
(dp2016
g18
I1
sg19
I8
sg20
I46
sg21
I0
sg22
I0
sg23
I0
sg24
I0
sbssg1545
S'\x0e\xa6\x19V\xf0\xf3;\xa2\x8d \xd8i\xb7*D\x87'
p2017
ssS'user_system_models_roles_tests_test_role_model'
p2018
(dp2019
g42
(dp2020
g44
S'user_system_models_roles_tests_test_role_model.html'
p2021
sg46
S'user_system/models/roles/tests/test_role_model'
p2022
sg48
g13
(g14
g15
NtRp2023
(dp2024
g18
I1
sg19
I0
sg20
I20
sg21
I0
sg22
I0
sg23
I0
sg24
I0
sbssg51
S'\xef\xba\x956\x96\xbc:\xa0\x0f\x00\x84\x80\x0elh\xed'
p2025
ssS'user_system_models_schools_classroom_model'
p2026
(dp2027
g232
(dp2028
g177
S'user_system_models_schools_classroom_model.html'
p2029
sg179
S'user_system/models/schools/classroom_model'
p2030
sg181
g13
(g14
g15
NtRp2031
(dp2032
g18
I1
sg19
I2
sg20
I24
sg21
I0
sg22
I0
sg23
I0
sg24
I0
sbssg238
S'\xb4}\xd2\xf3\xe4P\x96mC/hd\x0c\x17\x97m'
p2033
ssS'user_system_views_logins_email_login_view'
p2034
(dp2035
g42
(dp2036
g177
S'user_system_views_logins_email_login_view.html'
p2037
sg179
S'user_system/views/logins/email_login_view'
p2038
sg181
g13
(g14
g15
NtRp2039
(dp2040
g18
I1
sg19
I8
sg20
I35
sg21
I0
sg22
I0
sg23
I0
sg24
I0
sbssg51
S'\x9e\xe3\x8e\xf9o\x8aYC\xa2\xcb\xe7\xbd\x94\xe1O\x1a'
p2041
ssS'user_system_serializers_users_list_user_serializer'
p2042
(dp2043
g42
(dp2044
g44
S'user_system_serializers_users_list_user_serializer.html'
p2045
sg46
S'user_system/serializers/users/list_user_serializer'
p2046
sg48
g13
(g14
g15
NtRp2047
(dp2048
g18
I1
sg19
I0
sg20
I18
sg21
I0
sg22
I0
sg23
I0
sg24
I0
sbssg51
S'\xdfK>6\xe0\x8d\xcd\xd4/O\xef\xaa\xd0\x9efX'
p2049
ssS'user_system_models_users_tests_test_teacher_profile_model'
p2050
(dp2051
g29
(dp2052
g1438
S'user_system_models_users_tests_test_teacher_profile_model.html'
p2053
sg1440
S'user_system/models/users/tests/test_teacher_profile_model'
p2054
sg1442
g13
(g14
g15
NtRp2055
(dp2056
g18
I1
sg19
I0
sg20
I32
sg21
I0
sg22
I0
sg23
I0
sg24
I0
sbssg38
S'\xe7n\x9a\x17\x9d0\x01\xa6\x0f\x18\x10l\x8ckmy'
p2057
ssS'create_views_quests_tests_test_remove_question_template_view'
p2058
(dp2059
g6
(dp2060
g8
S'create_views_quests_tests_test_remove_question_template_view.html'
p2061
sg10
S'create/views/quests/tests/test_remove_question_template_view'
p2062
sg12
g13
(g14
g15
NtRp2063
(dp2064
g18
I1
sg19
I0
sg20
I0
sg21
I0
sg22
I0
sg23
I0
sg24
I0
sbssg25
S'\x19g\xdfM\x1a\x019\xaf\x1baIeR\xe5u\xa7'
p2065
ssS'user_system_serializers_users_user_profile_update_request_serializer'
p2066
(dp2067
g116
(dp2068
S'html_filename'
p2069
S'user_system_serializers_users_user_profile_update_request_serializer.html'
p2070
sS'name'
p2071
S'user_system/serializers/users/user_profile_update_request_serializer'
p2072
sS'nums'
p2073
g13
(g14
g15
NtRp2074
(dp2075
g18
I1
sg19
I0
sg20
I20
sg21
I0
sg22
I0
sg23
I2
sg24
I0
sbssg122
S'\x19EO\xe6\xb5\xdbWY\xb8\xd9\x1cP&\xe3\xc4\xca'
p2076
ssS'create_views_books_tests_test_get_books_list_view'
p2077
(dp2078
g942
(dp2079
g93
S'create_views_books_tests_test_get_books_list_view.html'
p2080
sg95
S'create/views/books/tests/test_get_books_list_view'
p2081
sg97
g13
(g14
g15
NtRp2082
(dp2083
g18
I1
sg19
I0
sg20
I21
sg21
I0
sg22
I0
sg23
I0
sg24
I0
sbssg948
S'\x16\x8f\xf1\x81>\x0f\xb4S\x19\xff\xcd\xc1Y\xe9;\x98'
p2084
ssS'user_system_serializers_schools_classroom_serializer'
p2085
(dp2086
g116
(dp2087
g31
S'user_system_serializers_schools_classroom_serializer.html'
p2088
sg33
S'user_system/serializers/schools/classroom_serializer'
p2089
sg35
g13
(g14
g15
NtRp2090
(dp2091
g18
I1
sg19
I0
sg20
I13
sg21
I0
sg22
I0
sg23
I2
sg24
I0
sbssg122
S'\\\x02 #\xfc|[\xb1g\x7f\x83+\xb6\xaa\x13\x01'
p2092
ssS'create_models_daily_quest_copies_tests___init__'
p2093
(dp2094
g414
(dp2095
g1521
S'create_models_daily_quest_copies_tests___init__.html'
p2096
sg1523
S'create/models/daily_quest_copies/tests/__init__'
p2097
sg1525
g13
(g14
g15
NtRp2098
(dp2099
g18
I1
sg19
I0
sg20
I0
sg21
I0
sg22
I0
sg23
I0
sg24
I0
sbssg423
S'\x19g\xdfM\x1a\x019\xaf\x1baIeR\xe5u\xa7'
p2100
ssS'api_logging_views_summary_user_activity_summary_view'
p2101
(dp2102
g297
(dp2103
g177
S'api_logging_views_summary_user_activity_summary_view.html'
p2104
sg179
S'api_logging/views/summary/user_activity_summary_view'
p2105
sg181
g13
(g14
g15
NtRp2106
(dp2107
g18
I1
sg19
I8
sg20
I27
sg21
I0
sg22
I0
sg23
I13
sg24
I8
sbssg303
S'\x99\xfc\\\x0e\x10\x840(\x94\xd3(k\x9f\xb4\xd9M'
p2108
ssS'create_urls'
p2109
(dp2110
g42
(dp2111
g57
S'create_urls.html'
p2112
sg59
S'create/urls'
p2113
sg61
g13
(g14
g15
NtRp2114
(dp2115
g18
I1
sg19
I0
sg20
I22
sg21
I0
sg22
I0
sg23
I0
sg24
I0
sbssg51
S"k/4\x8e_h\xf3)p'\x8e\x80v\x1e\xbdg"
p2116
ssS'create_views_tags_tests_test_get_tags_list_view'
p2117
(dp2118
g427
(dp2119
g93
S'create_views_tags_tests_test_get_tags_list_view.html'
p2120
sg95
S'create/views/tags/tests/test_get_tags_list_view'
p2121
sg97
g13
(g14
g15
NtRp2122
(dp2123
g18
I1
sg19
I0
sg20
I21
sg21
I0
sg22
I0
sg23
I0
sg24
I0
sbssg436
S'F\xf6yk?\xb2\xc12\x93\x8b\xe6Bx\xa09\x89'
p2124
ssS'create_serializers_tags_tag_serializer'
p2125
(dp2126
g349
(dp2127
g93
S'create_serializers_tags_tag_serializer.html'
p2128
sg95
S'create/serializers/tags/tag_serializer'
p2129
sg97
g13
(g14
g15
NtRp2130
(dp2131
g18
I1
sg19
I0
sg20
I38
sg21
I0
sg22
I0
sg23
I0
sg24
I0
sbssg355
S'\xf7\xa8n\xd6\xf1\xe1\xf8\xaedX\x8e\xfe\ry\xd4\xc3'
p2132
ssS'user_system_models_users_teacher_mapping_model'
p2133
(dp2134
g29
(dp2135
g1246
S'user_system_models_users_teacher_mapping_model.html'
p2136
sg1248
S'user_system/models/users/teacher_mapping_model'
p2137
sg1250
g13
(g14
g15
NtRp2138
(dp2139
g18
I1
sg19
I4
sg20
I25
sg21
I0
sg22
I0
sg23
I0
sg24
I0
sbssg38
S'\xf8\xaf0\xe2\xc1q\x88\xa4\\\xde\x81@\xa4\xe3\xef\x12'
p2140
ssS'create_models_questions___init__'
p2141
(dp2142
g42
(dp2143
g594
S'create_models_questions___init__.html'
p2144
sg596
S'create/models/questions/__init__'
p2145
sg598
g13
(g14
g15
NtRp2146
(dp2147
g18
I1
sg19
I0
sg20
I6
sg21
I0
sg22
I0
sg23
I0
sg24
I0
sbssg51
S'\xd4\xfd\xae\xf0N\xdd-\x07$U\xac\xf1\xc2\x0f\xa5H'
p2148
ssS'create_models_tags_tag_type_model'
p2149
(dp2150
g386
(dp2151
g44
S'create_models_tags_tag_type_model.html'
p2152
sg46
S'create/models/tags/tag_type_model'
p2153
sg48
g13
(g14
g15
NtRp2154
(dp2155
g18
I1
sg19
I0
sg20
I15
sg21
I0
sg22
I0
sg23
I0
sg24
I0
sbssg392
S'\x89\x07\x8e\xc7^0\x96Do\xbf\xa5\xca5\xe4\x92\xeb'
p2156
ssS'create_serializers___init__'
p2157
(dp2158
g42
(dp2159
g57
S'create_serializers___init__.html'
p2160
sg59
S'create/serializers/__init__'
p2161
sg61
g13
(g14
g15
NtRp2162
(dp2163
g18
I1
sg19
I0
sg20
I6
sg21
I0
sg22
I0
sg23
I0
sg24
I0
sbssg51
S'\x97\xc3"\xfe\x83V\xc1w\xa6r\x02s qES'
p2164
ssS'create_serializers_books_book_history_serializer'
p2165
(dp2166
g942
(dp2167
g93
S'create_serializers_books_book_history_serializer.html'
p2168
sg95
S'create/serializers/books/book_history_serializer'
p2169
sg97
g13
(g14
g15
NtRp2170
(dp2171
g18
I1
sg19
I0
sg20
I14
sg21
I0
sg22
I0
sg23
I0
sg24
I0
sbssg948
S'|g\x1e1\xcdq*ob~B\xca\xd92\x8b\x01'
p2172
ssS'teach_views_daily_quest_templates___init__'
p2173
(dp2174
g55
(dp2175
g57
S'teach_views_daily_quest_templates___init__.html'
p2176
sg59
S'teach/views/daily_quest_templates/__init__'
p2177
sg61
g13
(g14
g15
NtRp2178
(dp2179
g18
I1
sg19
I0
sg20
I1
sg21
I0
sg22
I0
sg23
I0
sg24
I0
sbssg64
S'\xc1b\x1f\x95\xabR`C\xe80\xb9tNC\r3'
p2180
ssS'teach___init__'
p2181
(dp2182
g55
(dp2183
g57
S'teach___init__.html'
p2184
sg59
S'teach/__init__'
p2185
sg61
g13
(g14
g15
NtRp2186
(dp2187
g18
I1
sg19
I0
sg20
I0
sg21
I0
sg22
I0
sg23
I0
sg24
I0
sbssg64
S'\x19g\xdfM\x1a\x019\xaf\x1baIeR\xe5u\xa7'
p2188
ssS'user_system_views_users___init__'
p2189
(dp2190
g42
(dp2191
g376
S'user_system_views_users___init__.html'
p2192
sg378
S'user_system/views/users/__init__'
p2193
sg380
g13
(g14
g15
NtRp2194
(dp2195
g18
I1
sg19
I0
sg20
I7
sg21
I0
sg22
I0
sg23
I0
sg24
I0
sbssg51
S']\x15\xfe\xc7\xefw\x97\xcc\x87v\xa2Z\x9b\xb1\x91\xaf'
p2196
ssS'user_system_serializers_users_user_streak_history_serializer'
p2197
(dp2198
g1663
(dp2199
g376
S'user_system_serializers_users_user_streak_history_serializer.html'
p2200
sg378
S'user_system/serializers/users/user_streak_history_serializer'
p2201
sg380
g13
(g14
g15
NtRp2202
(dp2203
g18
I1
sg19
I0
sg20
I7
sg21
I0
sg22
I0
sg23
I0
sg24
I0
sbssg1669
S'\xc8\x05\x87\xf4N\xc27/(.\xaf\xf4NliE'
p2204
ssS'flipped_helpers_tests_test_email_helper'
p2205
(dp2206
g42
(dp2207
g44
S'flipped_helpers_tests_test_email_helper.html'
p2208
sg46
S'flipped/helpers/tests/test_email_helper'
p2209
sg48
g13
(g14
g15
NtRp2210
(dp2211
g18
I1
sg19
I0
sg20
I13
sg21
I0
sg22
I0
sg23
I0
sg24
I0
sbssg51
S'\x13\xee\xcb^E:3A\xff)v\x7f\xd3\xa7\xa2\xaa'
p2212
ssS'user_system_serializers_users___init__'
p2213
(dp2214
g42
(dp2215
g376
S'user_system_serializers_users___init__.html'
p2216
sg378
S'user_system/serializers/users/__init__'
p2217
sg380
g13
(g14
g15
NtRp2218
(dp2219
g18
I1
sg19
I0
sg20
I8
sg21
I0
sg22
I0
sg23
I0
sg24
I0
sbssg51
S'\xb6(Qu\xed\x1eu\xb3\x15,\xae\x0c\xe6>\xe2\x80'
p2220
ssS'user_system_models_schools_tests_test_semester_model'
p2221
(dp2222
g206
(dp2223
g1438
S'user_system_models_schools_tests_test_semester_model.html'
p2224
sg1440
S'user_system/models/schools/tests/test_semester_model'
p2225
sg1442
g13
(g14
g15
NtRp2226
(dp2227
g18
I1
sg19
I0
sg20
I29
sg21
I0
sg22
I0
sg23
I0
sg24
I0
sbssg215
S'\xe9\xd9\xdc\\\xb9\x93\xb1\x93Q\x02\xe9\xb7Y,\xa6w'
p2228
ssS'create_views_quests_tests___init__'
p2229
(dp2230
g6
(dp2231
g8
S'create_views_quests_tests___init__.html'
p2232
sg10
S'create/views/quests/tests/__init__'
p2233
sg12
g13
(g14
g15
NtRp2234
(dp2235
g18
I1
sg19
I0
sg20
I0
sg21
I0
sg22
I0
sg23
I0
sg24
I0
sbssg25
S'\x19g\xdfM\x1a\x019\xaf\x1baIeR\xe5u\xa7'
p2236
ssS'user_system_serializers_schools_course_serializer'
p2237
(dp2238
g116
(dp2239
g31
S'user_system_serializers_schools_course_serializer.html'
p2240
sg33
S'user_system/serializers/schools/course_serializer'
p2241
sg35
g13
(g14
g15
NtRp2242
(dp2243
g18
I1
sg19
I0
sg20
I16
sg21
I0
sg22
I0
sg23
I2
sg24
I0
sbssg122
S'\xb0\xa8O3\x01\xce\xfe3\x12\x94\xc0\xc4\xe0@\xafJ'
p2244
ssS'user_system_views_users_tests_test_delete_user_view'
p2245
(dp2246
g42
(dp2247
g44
S'user_system_views_users_tests_test_delete_user_view.html'
p2248
sg46
S'user_system/views/users/tests/test_delete_user_view'
p2249
sg48
g13
(g14
g15
NtRp2250
(dp2251
g18
I1
sg19
I0
sg20
I22
sg21
I0
sg22
I0
sg23
I0
sg24
I0
sbssg51
S'\xe4S$\xa1t\xc6\xbe\xc7\xb9^Y\x05{\x92KQ'
p2252
ssS'learn_models_daily_quests_daily_quest_question_history_model'
p2253
(dp2254
S'index'
p2255
(dp2256
S'html_filename'
p2257
S'learn_models_daily_quests_daily_quest_question_history_model.html'
p2258
sS'name'
p2259
S'learn/models/daily_quests/daily_quest_question_history_model'
p2260
sS'nums'
p2261
g13
(g14
g15
NtRp2262
(dp2263
g18
I1
sg19
I6
sg20
I65
sg21
I0
sg22
I0
sg23
I4
sg24
I2
sbssS'hash'
p2264
S')\x12x?=\x06;DF\xf0#m\x85F\xbd*'
p2265
ssS'user_system_models_users_user_profile_update_request_model'
p2266
(dp2267
g116
(dp2268
g633
S'user_system_models_users_user_profile_update_request_model.html'
p2269
sg635
S'user_system/models/users/user_profile_update_request_model'
p2270
sg637
g13
(g14
g15
NtRp2271
(dp2272
g18
I1
sg19
I0
sg20
I58
sg21
I0
sg22
I0
sg23
I0
sg24
I0
sbssg122
S'\xc8t\x16>\xb9"\xff\x93\xe3\x00\xa5z0[\xacM'
p2273
ssS'create_models_tags_tag_history_model'
p2274
(dp2275
g566
(dp2276
g221
S'create_models_tags_tag_history_model.html'
p2277
sg223
S'create/models/tags/tag_history_model'
p2278
sg225
g13
(g14
g15
NtRp2279
(dp2280
g18
I1
sg19
I0
sg20
I37
sg21
I0
sg22
I0
sg23
I0
sg24
I0
sbssg572
S'\xae\xc8g\xc1\xf5l<\x1f\x9c\xaf\x17\xf98\r\xa1\xe2'
p2281
ssS'create_serializers_daily_quest_copies___init__'
p2282
(dp2283
g414
(dp2284
g1521
S'create_serializers_daily_quest_copies___init__.html'
p2285
sg1523
S'create/serializers/daily_quest_copies/__init__'
p2286
sg1525
g13
(g14
g15
NtRp2287
(dp2288
g18
I1
sg19
I0
sg20
I1
sg21
I0
sg22
I0
sg23
I0
sg24
I0
sbssg423
S'\nX]\x85Nc\xb8\xc0\xe1\xaf\xa0\xda_\x9e\xb9u'
p2289
ssS'user_system_models_schools_course_model'
p2290
(dp2291
g232
(dp2292
g633
S'user_system_models_schools_course_model.html'
p2293
sg635
S'user_system/models/schools/course_model'
p2294
sg637
g13
(g14
g15
NtRp2295
(dp2296
g18
I1
sg19
I6
sg20
I37
sg21
I0
sg22
I0
sg23
I0
sg24
I0
sbssg238
S']\xfb\xca\\\xbf\x86n\xc3fj\xc2\x1ej\\q\x14'
p2297
ssS'create_models_daily_quest_copies_tests_test_daily_quest_copy_model'
p2298
(dp2299
g414
(dp2300
g548
S'create_models_daily_quest_copies_tests_test_daily_quest_copy_model.html'
p2301
sg550
S'create/models/daily_quest_copies/tests/test_daily_quest_copy_model'
p2302
sg552
g13
(g14
g15
NtRp2303
(dp2304
g18
I1
sg19
I4
sg20
I45
sg21
I0
sg22
I0
sg23
I0
sg24
I0
sbssg423
S'\xcd\xeeU\x8a\xd7\x95\x9e5E\xd0\xaf\xd07\x80\x85\xe0'
p2305
ssS'privilege_views_privileges___init__'
p2306
(dp2307
g287
(dp2308
g93
S'privilege_views_privileges___init__.html'
p2309
sg95
S'privilege/views/privileges/__init__'
p2310
sg97
g13
(g14
g15
NtRp2311
(dp2312
g18
I1
sg19
I0
sg20
I1
sg21
I0
sg22
I0
sg23
I0
sg24
I0
sbssg293
S']\x14S\xdf\xb4:Tx\xb9\x98\x89\xe7\x01%DZ'
p2313
ssS'teach_models_teacher_chapters_teacher_chapter_model'
p2314
(dp2315
g55
(dp2316
S'html_filename'
p2317
S'teach_models_teacher_chapters_teacher_chapter_model.html'
p2318
sS'name'
p2319
S'teach/models/teacher_chapters/teacher_chapter_model'
p2320
sS'nums'
p2321
g13
(g14
g15
NtRp2322
(dp2323
g18
I1
sg19
I0
sg20
I23
sg21
I0
sg22
I0
sg23
I0
sg24
I0
sbssg64
S'\x97T&\xd0\x81q\xc2M\xc3\x03\x01U\xf5S!h'
p2324
ssS'create_models_questions_question_template_model'
p2325
(dp2326
g103
(dp2327
S'html_filename'
p2328
S'create_models_questions_question_template_model.html'
p2329
sS'name'
p2330
S'create/models/questions/question_template_model'
p2331
sS'nums'
p2332
g13
(g14
g15
NtRp2333
(dp2334
g18
I1
sg19
I0
sg20
I40
sg21
I0
sg22
I0
sg23
I0
sg24
I0
sbssg112
S'\x845gz\x1d\x17\x1dv\x81\n\x96G\x99pE\\'
p2335
ssS'create_views_questions_tests_test_get_question_by_id_view'
p2336
(dp2337
g42
(dp2338
g93
S'create_views_questions_tests_test_get_question_by_id_view.html'
p2339
sg95
S'create/views/questions/tests/test_get_question_by_id_view'
p2340
sg97
g13
(g14
g15
NtRp2341
(dp2342
g18
I1
sg19
I0
sg20
I24
sg21
I0
sg22
I0
sg23
I0
sg24
I0
sbssg51
S'\xa7[\x91\xa9\xa6\xb4\xbd&n$O^O\xec\xf2X'
p2343
ssS'teach_models_teacher_tags_tests___init__'
p2344
(dp2345
g55
(dp2346
g57
S'teach_models_teacher_tags_tests___init__.html'
p2347
sg59
S'teach/models/teacher_tags/tests/__init__'
p2348
sg61
g13
(g14
g15
NtRp2349
(dp2350
g18
I1
sg19
I0
sg20
I0
sg21
I0
sg22
I0
sg23
I0
sg24
I0
sbssg64
S'\x19g\xdfM\x1a\x019\xaf\x1baIeR\xe5u\xa7'
p2351
ssS'api_logging_urls'
p2352
(dp2353
g297
(dp2354
g177
S'api_logging_urls.html'
p2355
sg179
S'api_logging/urls'
p2356
sg181
g13
(g14
g15
NtRp2357
(dp2358
g18
I1
sg19
I0
sg20
I13
sg21
I0
sg22
I0
sg23
I0
sg24
I0
sbssg303
S'`K\xc5_\x82\xb4\x1c^\xd6\x98+\xe6\xf0/\x97\x06'
p2359
ssS'api_logging_serializers_LoggingSerializer'
p2360
(dp2361
g297
(dp2362
g177
S'api_logging_serializers_LoggingSerializer.html'
p2363
sg179
S'api_logging/serializers/LoggingSerializer'
p2364
sg181
g13
(g14
g15
NtRp2365
(dp2366
g18
I1
sg19
I0
sg20
I12
sg21
I0
sg22
I0
sg23
I0
sg24
I0
sbssg303
S'1\xdb}\x8eJ\x1a\xe6@D\xcc}\xf4\x11(\x11\xb0'
p2367
ssS'create_views_books_tests_test_remove_subchapter_view'
p2368
(dp2369
S'index'
p2370
(dp2371
g44
S'create_views_books_tests_test_remove_subchapter_view.html'
p2372
sg46
S'create/views/books/tests/test_remove_subchapter_view'
p2373
sg48
g13
(g14
g15
NtRp2374
(dp2375
g18
I1
sg19
I0
sg20
I44
sg21
I0
sg22
I0
sg23
I0
sg24
I0
sbssS'hash'
p2376
S'\x0b\xddi\xaa_d\x8c\xf3b\xa2\x12\xbc\xce\xa5\xbf\x8b'
p2377
ssS'teach_views_summaries_daily_quest_daily_summary_view'
p2378
(dp2379
g297
(dp2380
g376
S'teach_views_summaries_daily_quest_daily_summary_view.html'
p2381
sg378
S'teach/views/summaries/daily_quest_daily_summary_view'
p2382
sg380
g13
(g14
g15
NtRp2383
(dp2384
g18
I1
sg19
I12
sg20
I61
sg21
I0
sg22
I0
sg23
I39
sg24
I12
sbssg303
S'\x06\\F.\x8c\xd3M\x8e\xc5\xc9\xd5<\x13V\xd6C'
p2385
ssS'learn_models_points_point_history_model'
p2386
(dp2387
g297
(dp2388
g177
S'learn_models_points_point_history_model.html'
p2389
sg179
S'learn/models/points/point_history_model'
p2390
sg181
g13
(g14
g15
NtRp2391
(dp2392
g18
I1
sg19
I0
sg20
I16
sg21
I0
sg22
I0
sg23
I0
sg24
I0
sbssg303
S'\xa8\xbaH\x19\x11\xbeT\xe2N=\xfe\xed\x9d\xd4\x83\x1e'
p2393
ssS'user_system___init__'
p2394
(dp2395
g42
(dp2396
g449
S'user_system___init__.html'
p2397
sg451
S'user_system/__init__'
p2398
sg453
g13
(g14
g15
NtRp2399
(dp2400
g18
I1
sg19
I0
sg20
I0
sg21
I0
sg22
I0
sg23
I0
sg24
I0
sbssg51
S'\x19g\xdfM\x1a\x019\xaf\x1baIeR\xe5u\xa7'
p2401
ssS'create_models_question_datasets_question_dataset_model'
p2402
(dp2403
g144
(dp2404
g146
S'create_models_question_datasets_question_dataset_model.html'
p2405
sg148
S'create/models/question_datasets/question_dataset_model'
p2406
sg150
g13
(g14
g15
NtRp2407
(dp2408
g18
I1
sg19
I0
sg20
I25
sg21
I0
sg22
I0
sg23
I0
sg24
I0
sbssg153
S'\x9e\x8d\xc6\xe6\xe4\x9f#\xfdc\xc9q\r\x17Y\x8e\xb1'
p2409
ssS'create_views_question_datasets___init__'
p2410
(dp2411
g144
(dp2412
g146
S'create_views_question_datasets___init__.html'
p2413
sg148
S'create/views/question_datasets/__init__'
p2414
sg150
g13
(g14
g15
NtRp2415
(dp2416
g18
I1
sg19
I0
sg20
I1
sg21
I0
sg22
I0
sg23
I0
sg24
I0
sbssg153
S'\x87x\xd1\xbe\x15\xd3\xbc\x99\x86\x08\xf8\x06S\xcf\x00\x87'
p2417
ssS'teach_serializers_daily_quest_templates___init__'
p2418
(dp2419
g55
(dp2420
g57
S'teach_serializers_daily_quest_templates___init__.html'
p2421
sg59
S'teach/serializers/daily_quest_templates/__init__'
p2422
sg61
g13
(g14
g15
NtRp2423
(dp2424
g18
I1
sg19
I0
sg20
I1
sg21
I0
sg22
I0
sg23
I0
sg24
I0
sbssg64
S'\xa2\xd34\x1b\xe2+\x16\xa9un\x8f\xa5\xe6\xc4\\p'
p2425
ssS'create_views_books_tests_test_remove_tag_from_subchapter_view'
p2426
(dp2427
g1539
(dp2428
g44
S'create_views_books_tests_test_remove_tag_from_subchapter_view.html'
p2429
sg46
S'create/views/books/tests/test_remove_tag_from_subchapter_view'
p2430
sg48
g13
(g14
g15
NtRp2431
(dp2432
g18
I1
sg19
I0
sg20
I40
sg21
I0
sg22
I0
sg23
I0
sg24
I0
sbssg1545
S"(Vo#\xdd\x9a\xbc\x11\xff\xd6'\xd7\xeb\xca\x1aM"
p2433
ssS'create_views_daily_quests___init__'
p2434
(dp2435
g242
(dp2436
g244
S'create_views_daily_quests___init__.html'
p2437
sg246
S'create/views/daily_quests/__init__'
p2438
sg248
g13
(g14
g15
NtRp2439
(dp2440
g18
I1
sg19
I0
sg20
I1
sg21
I0
sg22
I0
sg23
I0
sg24
I0
sbssg251
S'\xa3\x08\xf3\xbaF\xd5u\x88\x12\xa3V\x05K\xe5\xd0\xa9'
p2441
ssS'flipped_helpers_email_helper'
p2442
(dp2443
g42
(dp2444
g44
S'flipped_helpers_email_helper.html'
p2445
sg46
S'flipped/helpers/email_helper'
p2446
sg48
g13
(g14
g15
NtRp2447
(dp2448
g18
I1
sg19
I2
sg20
I9
sg21
I0
sg22
I0
sg23
I0
sg24
I0
sbssg51
S"\xeal\t\x03)\xcc\xc4\x0b\r\xe2&\x83a'I\xad"
p2449
ssS'flipped_urls'
p2450
(dp2451
g42
(dp2452
g93
S'flipped_urls.html'
p2453
sg95
S'flipped/urls'
p2454
sg97
g13
(g14
g15
NtRp2455
(dp2456
g18
I1
sg19
I0
sg20
I9
sg21
I0
sg22
I0
sg23
I0
sg24
I0
sbssg51
S'\xcbN{\xd0A\x0b\xa0\xc3\xd4\x8cr\xe3\x1e\x12\x1e\xb0'
p2457
ssS'teach_views_summaries_daily_quest_summary_view'
p2458
(dp2459
g297
(dp2460
g376
S'teach_views_summaries_daily_quest_summary_view.html'
p2461
sg378
S'teach/views/summaries/daily_quest_summary_view'
p2462
sg380
g13
(g14
g15
NtRp2463
(dp2464
g18
I1
sg19
I28
sg20
I80
sg21
I0
sg22
I0
sg23
I59
sg24
I28
sbssg303
S'%?\x9f\xcd7t\xcay\xe4\xbb\xb8h\xb3\xd4\x11q'
p2465
ssS'user_system_views_users_student_profile_request_view'
p2466
(dp2467
g116
(dp2468
g31
S'user_system_views_users_student_profile_request_view.html'
p2469
sg33
S'user_system/views/users/student_profile_request_view'
p2470
sg35
g13
(g14
g15
NtRp2471
(dp2472
g18
I1
sg19
I0
sg20
I14
sg21
I0
sg22
I0
sg23
I0
sg24
I0
sbssg122
S'\x87:\xd0\xef\x04\xf3-q\r\xe7\xec \xceS\xee<'
p2473
ssS'user_system_views_logins_tests___init__'
p2474
(dp2475
g42
(dp2476
g449
S'user_system_views_logins_tests___init__.html'
p2477
sg451
S'user_system/views/logins/tests/__init__'
p2478
sg453
g13
(g14
g15
NtRp2479
(dp2480
g18
I1
sg19
I0
sg20
I1
sg21
I0
sg22
I0
sg23
I0
sg24
I0
sbssg51
S'\xbc\xd6\xeb\xb3\xba\xcaz\xf7{\xd4B\xb5}l\xdf\x96'
p2481
ssS'api_logging_views_modal_loggings___init__'
p2482
(dp2483
g297
(dp2484
g177
S'api_logging_views_modal_loggings___init__.html'
p2485
sg179
S'api_logging/views/modal_loggings/__init__'
p2486
sg181
g13
(g14
g15
NtRp2487
(dp2488
g18
I1
sg19
I0
sg20
I1
sg21
I0
sg22
I0
sg23
I0
sg24
I0
sbssg303
S'\xf1\x0fWK\x0c\x9eD\xe8\x12\xaf\x93\xfa\xd7q\xa8\x91'
p2489
ssS'user_system_views_users_tests_test_get_users_by_signup_type_view'
p2490
(dp2491
g42
(dp2492
g93
S'user_system_views_users_tests_test_get_users_by_signup_type_view.html'
p2493
sg95
S'user_system/views/users/tests/test_get_users_by_signup_type_view'
p2494
sg97
g13
(g14
g15
NtRp2495
(dp2496
g18
I1
sg19
I0
sg20
I44
sg21
I0
sg22
I0
sg23
I0
sg24
I0
sbssg51
S'T/\xf9\xf8\x94\xd6Lm\x89o\xb6\x99/Z\xc1]'
p2497
ssS'user_system_serializers_users_user_serializer'
p2498
(dp2499
g42
(dp2500
g93
S'user_system_serializers_users_user_serializer.html'
p2501
sg95
S'user_system/serializers/users/user_serializer'
p2502
sg97
g13
(g14
g15
NtRp2503
(dp2504
g18
I1
sg19
I8
sg20
I46
sg21
I0
sg22
I2
sg23
I8
sg24
I6
sbssg51
S'\xb2\xee\xa4\xa6\x8b\xe1\xe1\xce\xaa\xe6\xdd\xbd\xb3\xf2\x81/'
p2505
ssS'create_serializers_daily_quest_copies_daily_quest_copy_serializer'
p2506
(dp2507
g414
(dp2508
g1521
S'create_serializers_daily_quest_copies_daily_quest_copy_serializer.html'
p2509
sg1523
S'create/serializers/daily_quest_copies/daily_quest_copy_serializer'
p2510
sg1525
g13
(g14
g15
NtRp2511
(dp2512
g18
I1
sg19
I0
sg20
I18
sg21
I0
sg22
I0
sg23
I3
sg24
I0
sbssg423
S'\xb6\xc6tAeANu\xae\n4T\xc1.\xe2\xfd'
p2513
ssS'create_models_books_tests_test_book_history_model'
p2514
(dp2515
g349
(dp2516
g633
S'create_models_books_tests_test_book_history_model.html'
p2517
sg635
S'create/models/books/tests/test_book_history_model'
p2518
sg637
g13
(g14
g15
NtRp2519
(dp2520
g18
I1
sg19
I0
sg20
I65
sg21
I0
sg22
I0
sg23
I0
sg24
I0
sbssg355
S'\xedQI\xf5\x17. 8I\x938\xca4\x05=\xf3'
p2521
ssS'create_views_quests_tests_test_remove_question_view'
p2522
(dp2523
g6
(dp2524
g8
S'create_views_quests_tests_test_remove_question_view.html'
p2525
sg10
S'create/views/quests/tests/test_remove_question_view'
p2526
sg12
g13
(g14
g15
NtRp2527
(dp2528
g18
I1
sg19
I0
sg20
I0
sg21
I0
sg22
I0
sg23
I0
sg24
I0
sbssg25
S'\x19g\xdfM\x1a\x019\xaf\x1baIeR\xe5u\xa7'
p2529
ssS'create_serializers_daily_quest_templates_daily_quest_template_serializer'
p2530
(dp2531
g242
(dp2532
g244
S'create_serializers_daily_quest_templates_daily_quest_template_serializer.html'
p2533
sg246
S'create/serializers/daily_quest_templates/daily_quest_template_serializer'
p2534
sg248
g13
(g14
g15
NtRp2535
(dp2536
g18
I1
sg19
I0
sg20
I8
sg21
I0
sg22
I0
sg23
I0
sg24
I0
sbssg251
S'-b,\x8cFu\xd2b\x8b\rw5\xa4\xf7\xc3\xf2'
p2537
ssS'user_system_managers___init__'
p2538
(dp2539
g297
(dp2540
g376
S'user_system_managers___init__.html'
p2541
sg378
S'user_system/managers/__init__'
p2542
sg380
g13
(g14
g15
NtRp2543
(dp2544
g18
I1
sg19
I0
sg20
I2
sg21
I0
sg22
I0
sg23
I0
sg24
I0
sbssg303
S'\xe0\x06\xf0\x98|\x03B1Ci\x00\xbaO\xfdcf'
p2545
ssS'teach_models_campaigns_tests_test_campaign_model'
p2546
(dp2547
g116
(dp2548
g31
S'teach_models_campaigns_tests_test_campaign_model.html'
p2549
sg33
S'teach/models/campaigns/tests/test_campaign_model'
p2550
sg35
g13
(g14
g15
NtRp2551
(dp2552
g18
I1
sg19
I0
sg20
I43
sg21
I0
sg22
I0
sg23
I0
sg24
I0
sbssg122
S"\x1b\xbbi{\xe8\xa9o\xd3w\xfb'\x1e\xca\x1b\xd9\xc7"
p2553
ssS'api_logging_views_modal_loggings_modal_user_history_view'
p2554
(dp2555
g297
(dp2556
g177
S'api_logging_views_modal_loggings_modal_user_history_view.html'
p2557
sg179
S'api_logging/views/modal_loggings/modal_user_history_view'
p2558
sg181
g13
(g14
g15
NtRp2559
(dp2560
g18
I1
sg19
I0
sg20
I12
sg21
I0
sg22
I0
sg23
I0
sg24
I0
sbssg303
S'\xb4\xa3\xa1!\x95\x8a\x06\xf5\x19\x1c=\xe2B\xa3b\t'
p2561
ssS'user_system_views_logins_tests_test_email_login_view'
p2562
(dp2563
g42
(dp2564
g44
S'user_system_views_logins_tests_test_email_login_view.html'
p2565
sg46
S'user_system/views/logins/tests/test_email_login_view'
p2566
sg48
g13
(g14
g15
NtRp2567
(dp2568
g18
I1
sg19
I0
sg20
I61
sg21
I0
sg22
I0
sg23
I0
sg24
I0
sbssg51
S'\x926\xe8\xcdL\xf3U\xc1C\x1b\x0f\xaf\xf0c\x9b\xd0'
p2569
ssS'create_views_books_book_chapter_view'
p2570
(dp2571
g566
(dp2572
g177
S'create_views_books_book_chapter_view.html'
p2573
sg179
S'create/views/books/book_chapter_view'
p2574
sg181
g13
(g14
g15
NtRp2575
(dp2576
g18
I1
sg19
I12
sg20
I44
sg21
I0
sg22
I0
sg23
I22
sg24
I12
sbssg572
S'\x0b3\xd8 \xe1\x08#79\x0c\x7f\x1f6\xad0\xe9'
p2577
ssS'create_views___init__'
p2578
(dp2579
g42
(dp2580
g57
S'create_views___init__.html'
p2581
sg59
S'create/views/__init__'
p2582
sg61
g13
(g14
g15
NtRp2583
(dp2584
g18
I1
sg19
I0
sg20
I7
sg21
I0
sg22
I0
sg23
I0
sg24
I0
sbssg51
S'\x8f\x98\x9b$~\xde\xc2\xfc\x97/\x14^\xe8\xf8\x10M'
p2585
ssS'user_system_serializers_users_student_profile_serializer'
p2586
(dp2587
g116
(dp2588
g416
S'user_system_serializers_users_student_profile_serializer.html'
p2589
sg418
S'user_system/serializers/users/student_profile_serializer'
p2590
sg420
g13
(g14
g15
NtRp2591
(dp2592
g18
I1
sg19
I0
sg20
I10
sg21
I0
sg22
I0
sg23
I0
sg24
I0
sbssg122
S'\xb4\n*\x1b\x86\xd1\\\xa2k\xeb\xd8\xeaW\x0c\xd8x'
p2593
ssS'flipped_helpers_errors_helper'
p2594
(dp2595
g42
(dp2596
g44
S'flipped_helpers_errors_helper.html'
p2597
sg46
S'flipped/helpers/errors_helper'
p2598
sg48
g13
(g14
g15
NtRp2599
(dp2600
g18
I1
sg19
I0
sg20
I5
sg21
I0
sg22
I0
sg23
I0
sg24
I0
sbssg51
S'\x91\x04\x1c\xf86c\xad\xf7\xe3\xf13\xf5n8eP'
p2601
ssS'teach_views_teacher_tags_teacher_tag_view'
p2602
(dp2603
g55
(dp2604
g177
S'teach_views_teacher_tags_teacher_tag_view.html'
p2605
sg179
S'teach/views/teacher_tags/teacher_tag_view'
p2606
sg181
g13
(g14
g15
NtRp2607
(dp2608
g18
I1
sg19
I20
sg20
I55
sg21
I0
sg22
I2
sg23
I30
sg24
I18
sbssg64
S'\xec\x1aQ\x839\x80#\xe5\xca\x98\xf6\xec\x84\x17\xa3\xeb'
p2609
ssS'create_models_questions_tests_test_question_history_model'
p2610
(dp2611
g42
(dp2612
g999
S'create_models_questions_tests_test_question_history_model.html'
p2613
sg1001
S'create/models/questions/tests/test_question_history_model'
p2614
sg1003
g13
(g14
g15
NtRp2615
(dp2616
g18
I1
sg19
I2
sg20
I73
sg21
I0
sg22
I0
sg23
I0
sg24
I0
sbssg51
S'i\xd4 \xdcI\x9f\xbc\x0c|\x95\x15wW\xb4\xa9\x15'
p2617
ssS'create_views_tags_tests_test_create_tag_view'
p2618
(dp2619
g427
(dp2620
g44
S'create_views_tags_tests_test_create_tag_view.html'
p2621
sg46
S'create/views/tags/tests/test_create_tag_view'
p2622
sg48
g13
(g14
g15
NtRp2623
(dp2624
g18
I1
sg19
I0
sg20
I33
sg21
I0
sg22
I0
sg23
I0
sg24
I0
sbssg436
S'\\\x91{\x1a ;Qg\xbd\x81\xe2\xaf\xa41\xac\x1b'
p2625
ssS'create_views_questions_tests___init__'
p2626
(dp2627
g42
(dp2628
g449
S'create_views_questions_tests___init__.html'
p2629
sg451
S'create/views/questions/tests/__init__'
p2630
sg453
g13
(g14
g15
NtRp2631
(dp2632
g18
I1
sg19
I0
sg20
I0
sg21
I0
sg22
I0
sg23
I0
sg24
I0
sbssg51
S'\x19g\xdfM\x1a\x019\xaf\x1baIeR\xe5u\xa7'
p2633
ssS'flipped___init__'
p2634
(dp2635
g42
(dp2636
g449
S'flipped___init__.html'
p2637
sg451
S'flipped/__init__'
p2638
sg453
g13
(g14
g15
NtRp2639
(dp2640
g18
I1
sg19
I0
sg20
I0
sg21
I0
sg22
I0
sg23
I0
sg24
I0
sbssg51
S'\x19g\xdfM\x1a\x019\xaf\x1baIeR\xe5u\xa7'
p2641
ssS'user_system_views_roles___init__'
p2642
(dp2643
g42
(dp2644
g449
S'user_system_views_roles___init__.html'
p2645
sg451
S'user_system/views/roles/__init__'
p2646
sg453
g13
(g14
g15
NtRp2647
(dp2648
g18
I1
sg19
I0
sg20
I1
sg21
I0
sg22
I0
sg23
I0
sg24
I0
sbssg51
S'\xeb\x15\r\x85I\x9e<\xbc\x15\xd1P\xef\x16\x8c\xe0l'
p2649
ssS'create_models_daily_quest_templates_tests_test_daily_quest_template_model'
p2650
(dp2651
g242
(dp2652
g244
S'create_models_daily_quest_templates_tests_test_daily_quest_template_model.html'
p2653
sg246
S'create/models/daily_quest_templates/tests/test_daily_quest_template_model'
p2654
sg248
g13
(g14
g15
NtRp2655
(dp2656
g18
I1
sg19
I0
sg20
I37
sg21
I0
sg22
I0
sg23
I0
sg24
I0
sbssg251
S'\x01\x04)\xffw\x13\x9aqx\xb2\x9f\x02\xb0\x90\xf3\xa5'
p2657
ssS'teach_views_summaries___init__'
p2658
(dp2659
g297
(dp2660
g188
S'teach_views_summaries___init__.html'
p2661
sg190
S'teach/views/summaries/__init__'
p2662
sg192
g13
(g14
g15
NtRp2663
(dp2664
g18
I1
sg19
I0
sg20
I6
sg21
I0
sg22
I0
sg23
I0
sg24
I0
sbssg303
S'\xf1\xa7@\xae\xc1+T\x8d\tr\xacb\x91s,\xbf'
p2665
ssS'user_system_models_users_user_profile_history_model'
p2666
(dp2667
g116
(dp2668
g31
S'user_system_models_users_user_profile_history_model.html'
p2669
sg33
S'user_system/models/users/user_profile_history_model'
p2670
sg35
g13
(g14
g15
NtRp2671
(dp2672
g18
I1
sg19
I4
sg20
I72
sg21
I0
sg22
I2
sg23
I12
sg24
I2
sbssg122
S'\x9a\x0c\xe2p\x8b\xee\x01\x87\xfd\x81\xb4\x9bzp\x90\xb6'
p2673
ssS'user_system_models_roles_role_model'
p2674
(dp2675
g42
(dp2676
g44
S'user_system_models_roles_role_model.html'
p2677
sg46
S'user_system/models/roles/role_model'
p2678
sg48
g13
(g14
g15
NtRp2679
(dp2680
g18
I1
sg19
I0
sg20
I16
sg21
I0
sg22
I0
sg23
I0
sg24
I0
sbssg51
S'\x180j\xc8\x05 \xa05\xa7\xffj\x1dJ\x8a6\xcb'
p2681
ssS'user_system_views_users_user_view'
p2682
(dp2683
g42
(dp2684
g376
S'user_system_views_users_user_view.html'
p2685
sg378
S'user_system/views/users/user_view'
p2686
sg380
g13
(g14
g15
NtRp2687
(dp2688
g18
I1
sg19
I66
sg20
I191
sg21
I0
sg22
I0
sg23
I110
sg24
I44
sbssg51
S'\xc15\x8d)\x8f\xca@r\xd5%m#\x11{\x13\x9b'
p2689
ssS'teach_models_daily_quest_templates_tests_test_daily_quest_template_model'
p2690
(dp2691
g55
(dp2692
g57
S'teach_models_daily_quest_templates_tests_test_daily_quest_template_model.html'
p2693
sg59
S'teach/models/daily_quest_templates/tests/test_daily_quest_template_model'
p2694
sg61
g13
(g14
g15
NtRp2695
(dp2696
g18
I1
sg19
I0
sg20
I37
sg21
I0
sg22
I0
sg23
I0
sg24
I0
sbssg64
S'\x01\x04)\xffw\x13\x9aqx\xb2\x9f\x02\xb0\x90\xf3\xa5'
p2697
ssS'user_system_views_apps___init__'
p2698
(dp2699
g42
(dp2700
g449
S'user_system_views_apps___init__.html'
p2701
sg451
S'user_system/views/apps/__init__'
p2702
sg453
g13
(g14
g15
NtRp2703
(dp2704
g18
I1
sg19
I0
sg20
I1
sg21
I0
sg22
I0
sg23
I0
sg24
I0
sbssg51
S'?:\xf2A\xfa^]\xc5NR\xc9\x13\xb0\xe4\xfa\x9e'
p2705
ssS'user_system_views_users_tests_test_get_users_list_view'
p2706
(dp2707
g42
(dp2708
g93
S'user_system_views_users_tests_test_get_users_list_view.html'
p2709
sg95
S'user_system/views/users/tests/test_get_users_list_view'
p2710
sg97
g13
(g14
g15
NtRp2711
(dp2712
g18
I1
sg19
I0
sg20
I34
sg21
I0
sg22
I0
sg23
I0
sg24
I0
sbssg51
S'\xf5\xe3\x1a\x14e\xf8\xc2\xf0\xa8^$\xf7\x9dv\xb8f'
p2713
ssS'create_models_questions_question_type_model'
p2714
(dp2715
g42
(dp2716
g44
S'create_models_questions_question_type_model.html'
p2717
sg46
S'create/models/questions/question_type_model'
p2718
sg48
g13
(g14
g15
NtRp2719
(dp2720
g18
I1
sg19
I0
sg20
I19
sg21
I0
sg22
I0
sg23
I0
sg24
I0
sbssg51
S'\xb9\xe7I\x93\x8b\xa8\xa8H\x80\x02_\xf9\x87\xa2\xe7\xa5'
p2721
ssS'user_system_views_apps_app_view'
p2722
(dp2723
g42
(dp2724
S'html_filename'
p2725
S'user_system_views_apps_app_view.html'
p2726
sS'name'
p2727
S'user_system/views/apps/app_view'
p2728
sS'nums'
p2729
g13
(g14
g15
NtRp2730
(dp2731
g18
I1
sg19
I0
sg20
I13
sg21
I0
sg22
I0
sg23
I0
sg24
I0
sbssg51
S'\xf7n\xffX\xe7\xd2\xb6\xa5\xc5\xe5\x96\x13\xf4\x9c\xac\x1e'
p2732
ssS'teach_views_summaries_student_list_summary'
p2733
(dp2734
g297
(dp2735
g376
S'teach_views_summaries_student_list_summary.html'
p2736
sg378
S'teach/views/summaries/student_list_summary'
p2737
sg380
g13
(g14
g15
NtRp2738
(dp2739
g18
I1
sg19
I26
sg20
I81
sg21
I0
sg22
I0
sg23
I63
sg24
I26
sbssg303
S'i\x1e\xd7\x9f\xceE"\x92\xc3\xfd\xd9\xdd\xac%\xe7\x10'
p2740
ssS'user_system_models_schools_tests_test_classroom_model'
p2741
(dp2742
g232
(dp2743
g177
S'user_system_models_schools_tests_test_classroom_model.html'
p2744
sg179
S'user_system/models/schools/tests/test_classroom_model'
p2745
sg181
g13
(g14
g15
NtRp2746
(dp2747
g18
I1
sg19
I0
sg20
I31
sg21
I0
sg22
I0
sg23
I0
sg24
I0
sbssg238
S'\xfd\xfd\xa2\x92;\xc3\xaa\x06D\x93\xddbD\xda\xa2\x1e'
p2748
ssS'user_system_views_schools_school_view'
p2749
(dp2750
g116
(dp2751
g31
S'user_system_views_schools_school_view.html'
p2752
sg33
S'user_system/views/schools/school_view'
p2753
sg35
g13
(g14
g15
NtRp2754
(dp2755
g18
I1
sg19
I0
sg20
I16
sg21
I0
sg22
I0
sg23
I0
sg24
I0
sbssg122
S'\xc8\x0b\xef\x9e86\xe5\x19\xaa\x9e\x93+\x03\xfb\x98\x99'
p2756
ssS'learn_models_points_point_type_model'
p2757
(dp2758
g297
(dp2759
g633
S'learn_models_points_point_type_model.html'
p2760
sg635
S'learn/models/points/point_type_model'
p2761
sg637
g13
(g14
g15
NtRp2762
(dp2763
g18
I1
sg19
I0
sg20
I20
sg21
I0
sg22
I0
sg23
I0
sg24
I0
sbssg303
S'\x84\x1b\x18\n\xa9\xae\xe5\xd57\xa7}h\xdaD\x19+'
p2764
ssS'user_system_models_roles_tests_test_role_app_model'
p2765
(dp2766
g42
(dp2767
g44
S'user_system_models_roles_tests_test_role_app_model.html'
p2768
sg46
S'user_system/models/roles/tests/test_role_app_model'
p2769
sg48
g13
(g14
g15
NtRp2770
(dp2771
g18
I1
sg19
I0
sg20
I21
sg21
I0
sg22
I0
sg23
I0
sg24
I0
sbssg51
S"\x80\xd7v\xbb\xe5d.\xeb\xfd\xc4\x04\xb2\x04'\xc6V"
p2772
ssS'user_system_views_schools_grade_view'
p2773
(dp2774
g116
(dp2775
g31
S'user_system_views_schools_grade_view.html'
p2776
sg33
S'user_system/views/schools/grade_view'
p2777
sg35
g13
(g14
g15
NtRp2778
(dp2779
g18
I1
sg19
I0
sg20
I16
sg21
I0
sg22
I0
sg23
I0
sg24
I0
sbssg122
S'_i&b\x01\x08$\xe7\xbe\nW\x92\x80\x97\xf1Q'
p2780
ssS'create_serializers_question_datasets_question_dataset_serializer'
p2781
(dp2782
g144
(dp2783
g146
S'create_serializers_question_datasets_question_dataset_serializer.html'
p2784
sg148
S'create/serializers/question_datasets/question_dataset_serializer'
p2785
sg150
g13
(g14
g15
NtRp2786
(dp2787
g18
I1
sg19
I0
sg20
I6
sg21
I0
sg22
I0
sg23
I0
sg24
I0
sbssg153
S'\x1e}6\x82\x0c\x96\xdb\x00{jK\xdb\xc0\x8c\x97\xcd'
p2788
ssS'privilege_models_privileges_user_privilege_model'
p2789
(dp2790
g287
(dp2791
g93
S'privilege_models_privileges_user_privilege_model.html'
p2792
sg95
S'privilege/models/privileges/user_privilege_model'
p2793
sg97
g13
(g14
g15
NtRp2794
(dp2795
g18
I1
sg19
I0
sg20
I17
sg21
I0
sg22
I0
sg23
I1
sg24
I0
sbssg293
S'\xe4\xbfo\xb6Sy\xef\x85\xf2\xf3=\xf3\xc3\xc0\xc9\xc6'
p2796
ssS'create_views_questions_question_template_view'
p2797
(dp2798
g103
(dp2799
g105
S'create_views_questions_question_template_view.html'
p2800
sg107
S'create/views/questions/question_template_view'
p2801
sg109
g13
(g14
g15
NtRp2802
(dp2803
g18
I1
sg19
I40
sg20
I115
sg21
I0
sg22
I0
sg23
I86
sg24
I40
sbssg112
S'\x15\xd2EN\xe9c\xe5\x17\xc5Fh\x02\x1a\xd3\xc4*'
p2804
ssS'create_serializers_quests_quest_serializer'
p2805
(dp2806
g103
(dp2807
g31
S'create_serializers_quests_quest_serializer.html'
p2808
sg33
S'create/serializers/quests/quest_serializer'
p2809
sg35
g13
(g14
g15
NtRp2810
(dp2811
g18
I1
sg19
I0
sg20
I50
sg21
I0
sg22
I0
sg23
I15
sg24
I0
sbssg112
S'\x96:\xdf\x9a\x02\xee\xf5\x97F[z\x16p\x8f\x08\xb2'
p2812
ssS'create_views_summary_create_summary_view'
p2813
(dp2814
g1621
(dp2815
g1101
S'create_views_summary_create_summary_view.html'
p2816
sg1103
S'create/views/summary/create_summary_view'
p2817
sg1105
g13
(g14
g15
NtRp2818
(dp2819
g18
I1
sg19
I0
sg20
I59
sg21
I0
sg22
I0
sg23
I48
sg24
I0
sbssg1627
S"'\xfe\xf4\x8c\xed2\xc3\x18\xf6\x85\x1f\xb0\xf0G\xb7\x8f"
p2820
ssS'create_serializers_books_book_serializer'
p2821
(dp2822
g349
(dp2823
g93
S'create_serializers_books_book_serializer.html'
p2824
sg95
S'create/serializers/books/book_serializer'
p2825
sg97
g13
(g14
g15
NtRp2826
(dp2827
g18
I1
sg19
I0
sg20
I25
sg21
I0
sg22
I0
sg23
I0
sg24
I0
sbssg355
S"o\r\r\x1e8\xe6\xa9\xd1\x83X.\xcf1\x98\xa3'"
p2828
ssS'user_system_models_schools_tests___init__'
p2829
(dp2830
g206
(dp2831
S'html_filename'
p2832
S'user_system_models_schools_tests___init__.html'
p2833
sS'name'
p2834
S'user_system/models/schools/tests/__init__'
p2835
sS'nums'
p2836
g13
(g14
g15
NtRp2837
(dp2838
g18
I1
sg19
I0
sg20
I0
sg21
I0
sg22
I0
sg23
I0
sg24
I0
sbssg215
S'\x19g\xdfM\x1a\x019\xaf\x1baIeR\xe5u\xa7'
p2839
ssS'api_logging_mixins'
p2840
(dp2841
g427
(dp2842
g44
S'api_logging_mixins.html'
p2843
sg46
S'api_logging/mixins'
p2844
sg48
g13
(g14
g15
NtRp2845
(dp2846
g18
I1
sg19
I4
sg20
I26
sg21
I0
sg22
I2
sg23
I2
sg24
I2
sbssg436
S'w\xa7\xcf,\xf7\x87[\xb0\xc5\xb2\x1f\xa5+\x1dSF'
p2847
ssS'privilege_serializers_privileges___init__'
p2848
(dp2849
g287
(dp2850
g93
S'privilege_serializers_privileges___init__.html'
p2851
sg95
S'privilege/serializers/privileges/__init__'
p2852
sg97
g13
(g14
g15
NtRp2853
(dp2854
g18
I1
sg19
I0
sg20
I2
sg21
I0
sg22
I0
sg23
I0
sg24
I0
sbssg293
S'\x1f\xd4u<\xf4\x9bW\xb0\xa9\xd2\xc1\x06\x14`C\xc6'
p2855
ssS'create___init__'
p2856
(dp2857
g42
(dp2858
g449
S'create___init__.html'
p2859
sg451
S'create/__init__'
p2860
sg453
g13
(g14
g15
NtRp2861
(dp2862
g18
I1
sg19
I0
sg20
I0
sg21
I0
sg22
I0
sg23
I0
sg24
I0
sbssg51
S'\x19g\xdfM\x1a\x019\xaf\x1baIeR\xe5u\xa7'
p2863
ssS'user_system_serializers_schools_school_serializer'
p2864
(dp2865
g116
(dp2866
g31
S'user_system_serializers_schools_school_serializer.html'
p2867
sg33
S'user_system/serializers/schools/school_serializer'
p2868
sg35
g13
(g14
g15
NtRp2869
(dp2870
g18
I1
sg19
I0
sg20
I9
sg21
I0
sg22
I0
sg23
I0
sg24
I0
sbssg122
S'_\x0c\x17V\x00H\x8f\xc9x\xe5I\xcb\t\x08\xb9/'
p2871
ssS'user_system_models_users_tests_test_user_profile_update_request_model'
p2872
(dp2873
g116
(dp2874
g633
S'user_system_models_users_tests_test_user_profile_update_request_model.html'
p2875
sg635
S'user_system/models/users/tests/test_user_profile_update_request_model'
p2876
sg637
g13
(g14
g15
NtRp2877
(dp2878
g18
I1
sg19
I0
sg20
I56
sg21
I0
sg22
I0
sg23
I0
sg24
I0
sbssg122
S'U\ng\x0eY\xe2\xc0a\x07f\xb4\x9bFP\x14\x86'
p2879
ssS'user_system_views_users_tests_test_add_role_view'
p2880
(dp2881
g42
(dp2882
g44
S'user_system_views_users_tests_test_add_role_view.html'
p2883
sg46
S'user_system/views/users/tests/test_add_role_view'
p2884
sg48
g13
(g14
g15
NtRp2885
(dp2886
g18
I1
sg19
I0
sg20
I36
sg21
I0
sg22
I0
sg23
I0
sg24
I0
sbssg51
S'\x0eh\xf7\xba\x08_N\xdeM\xdf\x03\xbd\x8c\x8a\x89\xd0'
p2887
ssS'learn_urls'
p2888
(dp2889
g55
(dp2890
g177
S'learn_urls.html'
p2891
sg179
S'learn/urls'
p2892
sg181
g13
(g14
g15
NtRp2893
(dp2894
g18
I1
sg19
I0
sg20
I8
sg21
I0
sg22
I0
sg23
I0
sg24
I0
sbssg64
S'\x1a\xcd\x95\xa0\xd8s\xf6\xb3\x9e\xd7H\xe5*M\xbdG'
p2895
ssS'api_logging___init__'
p2896
(dp2897
g566
(dp2898
g732
S'api_logging___init__.html'
p2899
sg734
S'api_logging/__init__'
p2900
sg736
g13
(g14
g15
NtRp2901
(dp2902
g18
I1
sg19
I0
sg20
I0
sg21
I0
sg22
I0
sg23
I0
sg24
I0
sbssg572
S'\x19g\xdfM\x1a\x019\xaf\x1baIeR\xe5u\xa7'
p2903
ssS'create_views_questions_question_view'
p2904
(dp2905
g42
(dp2906
g760
S'create_views_questions_question_view.html'
p2907
sg762
S'create/views/questions/question_view'
p2908
sg764
g13
(g14
g15
NtRp2909
(dp2910
g18
I1
sg19
I34
sg20
I112
sg21
I0
sg22
I1
sg23
I40
sg24
I21
sbssg51
S"_'M\x9d\x0e\r\xae\x93=\xce\xd2\x1b>\x8eV\xe4"
p2911
ssS'create_views_quests_tests_test_add_question_view'
p2912
(dp2913
g6
(dp2914
g8
S'create_views_quests_tests_test_add_question_view.html'
p2915
sg10
S'create/views/quests/tests/test_add_question_view'
p2916
sg12
g13
(g14
g15
NtRp2917
(dp2918
g18
I1
sg19
I0
sg20
I0
sg21
I0
sg22
I0
sg23
I0
sg24
I0
sbssg25
S'\x19g\xdfM\x1a\x019\xaf\x1baIeR\xe5u\xa7'
p2919
ssS'create_models_daily_quest_copies___init__'
p2920
(dp2921
g414
(dp2922
g1521
S'create_models_daily_quest_copies___init__.html'
p2923
sg1523
S'create/models/daily_quest_copies/__init__'
p2924
sg1525
g13
(g14
g15
NtRp2925
(dp2926
g18
I1
sg19
I0
sg20
I1
sg21
I0
sg22
I0
sg23
I0
sg24
I0
sbssg423
S'\xee\xef\xb8!Z;\x9e_\xb5g4\xe9\xac@l\xe6'
p2927
ssS'create_models_books_tests___init__'
p2928
(dp2929
g349
(dp2930
g780
S'create_models_books_tests___init__.html'
p2931
sg782
S'create/models/books/tests/__init__'
p2932
sg784
g13
(g14
g15
NtRp2933
(dp2934
g18
I1
sg19
I0
sg20
I0
sg21
I0
sg22
I0
sg23
I0
sg24
I0
sbssg355
S'\x19g\xdfM\x1a\x019\xaf\x1baIeR\xe5u\xa7'
p2935
ssS'privilege_models_privileges___init__'
p2936
(dp2937
g287
(dp2938
g93
S'privilege_models_privileges___init__.html'
p2939
sg95
S'privilege/models/privileges/__init__'
p2940
sg97
g13
(g14
g15
NtRp2941
(dp2942
g18
I1
sg19
I0
sg20
I2
sg21
I0
sg22
I0
sg23
I0
sg24
I0
sbssg293
S'\x14\x97Z\xa7<\xbd\xe6Z\xa0jIA\xc0I\xfd"'
p2943
ssS'user_system_managers_streak_manager'
p2944
(dp2945
g297
(dp2946
g376
S'user_system_managers_streak_manager.html'
p2947
sg378
S'user_system/managers/streak_manager'
p2948
sg380
g13
(g14
g15
NtRp2949
(dp2950
g18
I1
sg19
I30
sg20
I66
sg21
I0
sg22
I2
sg23
I48
sg24
I28
sbssg303
S'9\x9e\xa2\xbd\x80\x8b\xa4\xb3N>\xb8ZsW\xe8\xd0'
p2951
ssS'learn_views_student_news_feed_student_news_feed_view'
p2952
(dp2953
g297
(dp2954
g1082
S'learn_views_student_news_feed_student_news_feed_view.html'
p2955
sg1084
S'learn/views/student_news_feed/student_news_feed_view'
p2956
sg1086
g13
(g14
g15
NtRp2957
(dp2958
g18
I1
sg19
I10
sg20
I38
sg21
I0
sg22
I0
sg23
I22
sg24
I10
sbssg303
S'\xd4\xf5w\x10\xf0\xf4l\x18\x16\xdf\xaf\xd1\x9eM\x0e\xb5'
p2959
ssS'user_system_models_schools_tests_test_academic_year_model'
p2960
(dp2961
g206
(dp2962
g1438
S'user_system_models_schools_tests_test_academic_year_model.html'
p2963
sg1440
S'user_system/models/schools/tests/test_academic_year_model'
p2964
sg1442
g13
(g14
g15
NtRp2965
(dp2966
g18
I1
sg19
I0
sg20
I28
sg21
I0
sg22
I0
sg23
I0
sg24
I0
sbssg215
S'{=\xee\xbc8\xbd\xa7\xdd\x0f!3\xf8\xf0os\xe2'
p2967
ssS'learn_serializers_daily_quests_daily_quest_question_history_serializer'
p2968
(dp2969
g297
(dp2970
g177
S'learn_serializers_daily_quests_daily_quest_question_history_serializer.html'
p2971
sg179
S'learn/serializers/daily_quests/daily_quest_question_history_serializer'
p2972
sg181
g13
(g14
g15
NtRp2973
(dp2974
g18
I1
sg19
I0
sg20
I8
sg21
I0
sg22
I0
sg23
I0
sg24
I0
sbssg303
S'q$\xc8~\x9a\xbb\x03\x1a\x12[aG\x9a\x87\xc6\x0c'
p2975
ssS'api_logging_serializers_modal_loggings___init__'
p2976
(dp2977
g297
(dp2978
g177
S'api_logging_serializers_modal_loggings___init__.html'
p2979
sg179
S'api_logging/serializers/modal_loggings/__init__'
p2980
sg181
g13
(g14
g15
NtRp2981
(dp2982
g18
I1
sg19
I0
sg20
I1
sg21
I0
sg22
I0
sg23
I0
sg24
I0
sbssg303
S'\xff)\x01pU0i\x848\xea\xfc\x08\x0b\x0bS\xa4'
p2983
ssS'user_system_models_schools_grade_model'
p2984
(dp2985
g232
(dp2986
g177
S'user_system_models_schools_grade_model.html'
p2987
sg179
S'user_system/models/schools/grade_model'
p2988
sg181
g13
(g14
g15
NtRp2989
(dp2990
g18
I1
sg19
I0
sg20
I29
sg21
I0
sg22
I0
sg23
I2
sg24
I0
sbssg238
S'\xfdv\xccR\xe0u\x91\x0f\x7f\x03\xcb\xc4y\xc19k'
p2991
ssS'user_system_serializers_schools___init__'
p2992
(dp2993
g55
(dp2994
g31
S'user_system_serializers_schools___init__.html'
p2995
sg33
S'user_system/serializers/schools/__init__'
p2996
sg35
g13
(g14
g15
NtRp2997
(dp2998
g18
I1
sg19
I0
sg20
I5
sg21
I0
sg22
I0
sg23
I0
sg24
I0
sbssg64
S'8yN\xa2\x98\xe3%\xd4\xe2\xfd\xf2@\xcc\xa7\x02\xdb'
p2999
ssS'create_serializers_questions_question_choice_serializer'
p3000
(dp3001
g42
(dp3002
g177
S'create_serializers_questions_question_choice_serializer.html'
p3003
sg179
S'create/serializers/questions/question_choice_serializer'
p3004
sg181
g13
(g14
g15
NtRp3005
(dp3006
g18
I1
sg19
I0
sg20
I10
sg21
I0
sg22
I0
sg23
I0
sg24
I0
sbssg51
S'\xe4\xc0O\xa2\x80M\x05Wf\xdeO=\xf7\xaaT\x95'
p3007
ssS'create_serializers_questions_question_template_serializer'
p3008
(dp3009
g103
(dp3010
g1176
S'create_serializers_questions_question_template_serializer.html'
p3011
sg1178
S'create/serializers/questions/question_template_serializer'
p3012
sg1180
g13
(g14
g15
NtRp3013
(dp3014
g18
I1
sg19
I0
sg20
I43
sg21
I0
sg22
I0
sg23
I9
sg24
I0
sbssg112
S'\x1a\x149\xdb\xb8\xc7\xfc\xb6\xbc\x8b\xfe\x8e~N\xb9J'
p3015
ssS'teach_views_summaries_top_answered_questions_summary_view'
p3016
(dp3017
g297
(dp3018
g376
S'teach_views_summaries_top_answered_questions_summary_view.html'
p3019
sg378
S'teach/views/summaries/top_answered_questions_summary_view'
p3020
sg380
g13
(g14
g15
NtRp3021
(dp3022
g18
I1
sg19
I34
sg20
I77
sg21
I0
sg22
I0
sg23
I54
sg24
I34
sbssg303
S'>\x87\t^\xa4\x99f`\xcc^\xb6\xcb\x8e\xec\nc'
p3023
ssS'user_system_models_apps___init__'
p3024
(dp3025
g42
(dp3026
g449
S'user_system_models_apps___init__.html'
p3027
sg451
S'user_system/models/apps/__init__'
p3028
sg453
g13
(g14
g15
NtRp3029
(dp3030
g18
I1
sg19
I0
sg20
I1
sg21
I0
sg22
I0
sg23
I0
sg24
I0
sbssg51
S'\n\xe9\xce\x15)\x8d\xc6\xdd\xe0\x9b\x990[\xae\x8cl'
p3031
ssS'create_views_books_book_view'
p3032
(dp3033
g349
(dp3034
g8
S'create_views_books_book_view.html'
p3035
sg10
S'create/views/books/book_view'
p3036
sg12
g13
(g14
g15
NtRp3037
(dp3038
g18
I1
sg19
I34
sg20
I124
sg21
I0
sg22
I3
sg23
I8
sg24
I5
sbssg355
S'%\x96\xb2\x15\x98\xef\x0fL\xc0&\xf9\x18\x91-\xb28'
p3039
ssS'create_models_quests___init__'
p3040
(dp3041
g103
(dp3042
g622
S'create_models_quests___init__.html'
p3043
sg624
S'create/models/quests/__init__'
p3044
sg626
g13
(g14
g15
NtRp3045
(dp3046
g18
I1
sg19
I0
sg20
I2
sg21
I0
sg22
I0
sg23
I0
sg24
I0
sbssg112
S'\x1e\x87\x83\xe2\x04\x1d\xcd:`\x99V\x85#\xca\x12^'
p3047
ssS'privilege_serializers_privileges_privilege_serializer'
p3048
(dp3049
g287
(dp3050
g93
S'privilege_serializers_privileges_privilege_serializer.html'
p3051
sg95
S'privilege/serializers/privileges/privilege_serializer'
p3052
sg97
g13
(g14
g15
NtRp3053
(dp3054
g18
I1
sg19
I0
sg20
I7
sg21
I0
sg22
I0
sg23
I0
sg24
I0
sbssg293
S'?v\x87\xf3\x00\x8cw`\xd8\x0b\xeb\x98\x18\xbd\x1dR'
p3055
ssS'user_system_views_signups_hardcoded_tests_test_test_account_view'
p3056
(dp3057
g42
(dp3058
g44
S'user_system_views_signups_hardcoded_tests_test_test_account_view.html'
p3059
sg46
S'user_system/views/signups/hardcoded/tests/test_test_account_view'
p3060
sg48
g13
(g14
g15
NtRp3061
(dp3062
g18
I1
sg19
I0
sg20
I24
sg21
I0
sg22
I0
sg23
I0
sg24
I0
sbssg51
S'@\xc3::\xf8h\x1aT\x9f\x83\xee1\xb7\x9a\xe0\xf9'
p3063
ssS'create_models_tags_concept_model'
p3064
(dp3065
g386
(dp3066
g44
S'create_models_tags_concept_model.html'
p3067
sg46
S'create/models/tags/concept_model'
p3068
sg48
g13
(g14
g15
NtRp3069
(dp3070
g18
I1
sg19
I0
sg20
I10
sg21
I0
sg22
I0
sg23
I0
sg24
I0
sbssg392
S'@vb\xbd\xcay\xb1b\x9e\xaf\xc0v/\xd6\x13\xd3'
p3071
ssS'create_models_tags_tests___init__'
p3072
(dp3073
g386
(dp3074
S'html_filename'
p3075
S'create_models_tags_tests___init__.html'
p3076
sS'name'
p3077
S'create/models/tags/tests/__init__'
p3078
sS'nums'
p3079
g13
(g14
g15
NtRp3080
(dp3081
g18
I1
sg19
I0
sg20
I1
sg21
I0
sg22
I0
sg23
I0
sg24
I0
sbssg392
S'\xbc\xd6\xeb\xb3\xba\xcaz\xf7{\xd4B\xb5}l\xdf\x96'
p3082
ssS'create_serializers_books_book_subchapter_serializer'
p3083
(dp3084
g349
(dp3085
g1176
S'create_serializers_books_book_subchapter_serializer.html'
p3086
sg1178
S'create/serializers/books/book_subchapter_serializer'
p3087
sg1180
g13
(g14
g15
NtRp3088
(dp3089
g18
I1
sg19
I0
sg20
I18
sg21
I0
sg22
I0
sg23
I3
sg24
I0
sbssg355
S'89\x89\x89\xd8\x94\xd2l\x98G]\xad\xe1\xf7\x93\xfc'
p3090
ssS'user_system_views_signups_verify_email_view'
p3091
(dp3092
g42
(dp3093
g44
S'user_system_views_signups_verify_email_view.html'
p3094
sg46
S'user_system/views/signups/verify_email_view'
p3095
sg48
g13
(g14
g15
NtRp3096
(dp3097
g18
I1
sg19
I6
sg20
I26
sg21
I0
sg22
I0
sg23
I0
sg24
I0
sbssg51
S"B+;\xbf\xb1A\x1f\n\x94\x0e\xeb\xd0\xf1Y'l"
p3098
ssS'user_system_models_schools_semester_model'
p3099
(dp3100
g206
(dp3101
g1438
S'user_system_models_schools_semester_model.html'
p3102
sg1440
S'user_system/models/schools/semester_model'
p3103
sg1442
g13
(g14
g15
NtRp3104
(dp3105
g18
I1
sg19
I0
sg20
I23
sg21
I0
sg22
I0
sg23
I0
sg24
I0
sbssg215
S'\x9f&7d<%\x13 \xcaht\xc4\xd4N\xee&'
p3106
ssS'create_views_daily_quest_copies_daily_quest_copy_view'
p3107
(dp3108
g414
(dp3109
g1521
S'create_views_daily_quest_copies_daily_quest_copy_view.html'
p3110
sg1523
S'create/views/daily_quest_copies/daily_quest_copy_view'
p3111
sg1525
g13
(g14
g15
NtRp3112
(dp3113
g18
I1
sg19
I0
sg20
I14
sg21
I0
sg22
I0
sg23
I0
sg24
I0
sbssg423
S'?\x95&\\\xae\xf0@\xfc\x96\xc15\xc9\x13\xf6_R'
p3114
ssS'flipped_helpers_parameters_helper'
p3115
(dp3116
g42
(dp3117
g31
S'flipped_helpers_parameters_helper.html'
p3118
sg33
S'flipped/helpers/parameters_helper'
p3119
sg35
g13
(g14
g15
NtRp3120
(dp3121
g18
I1
sg19
I14
sg20
I22
sg21
I0
sg22
I1
sg23
I4
sg24
I3
sbssg51
S'v\xe1\xf5\xb3r\x1f\xae\xee\x872U\xa1I\xf8\xef\x00'
p3122
ssS'user_system_models___init__'
p3123
(dp3124
g42
(dp3125
g2832
S'user_system_models___init__.html'
p3126
sg2834
S'user_system/models/__init__'
p3127
sg2836
g13
(g14
g15
NtRp3128
(dp3129
g18
I1
sg19
I0
sg20
I4
sg21
I0
sg22
I0
sg23
I0
sg24
I0
sbssg51
S"\xe9'\xed1xn\xd7\xe4\x91\x8ei\xc0\x0f\x1b\x9eY"
p3130
ssS'create_models_questions_tests_test_question_model'
p3131
(dp3132
g42
(dp3133
g1211
S'create_models_questions_tests_test_question_model.html'
p3134
sg1213
S'create/models/questions/tests/test_question_model'
p3135
sg1215
g13
(g14
g15
NtRp3136
(dp3137
g18
I1
sg19
I8
sg20
I58
sg21
I0
sg22
I0
sg23
I0
sg24
I0
sbssg51
S'l\x9e\xee!<,L\xbf\xa0\xe6\r\xd7W\xc9tu'
p3138
ssS'user_system_models_users_tests_test_user_profile_history_model'
p3139
(dp3140
g116
(dp3141
g31
S'user_system_models_users_tests_test_user_profile_history_model.html'
p3142
sg33
S'user_system/models/users/tests/test_user_profile_history_model'
p3143
sg35
g13
(g14
g15
NtRp3144
(dp3145
g18
I1
sg19
I0
sg20
I54
sg21
I0
sg22
I0
sg23
I0
sg24
I0
sbssg122
S'<IT\xa7\x05\xe0ML\xb0gu{\xd2>\xc8$'
p3146
ssS'learn_views___init__'
p3147
(dp3148
g55
(dp3149
g177
S'learn_views___init__.html'
p3150
sg179
S'learn/views/__init__'
p3151
sg181
g13
(g14
g15
NtRp3152
(dp3153
g18
I1
sg19
I0
sg20
I2
sg21
I0
sg22
I0
sg23
I0
sg24
I0
sbssg64
S"?\xc0'\xcb\x1c\xf1\xaa\xf0\x9d\xc7\x0e\xf1\xda\x0eU\x17"
p3154
ssS'create_serializers_questions___init__'
p3155
(dp3156
g42
(dp3157
g177
S'create_serializers_questions___init__.html'
p3158
sg179
S'create/serializers/questions/__init__'
p3159
sg181
g13
(g14
g15
NtRp3160
(dp3161
g18
I1
sg19
I0
sg20
I5
sg21
I0
sg22
I0
sg23
I0
sg24
I0
sbssg51
S'\xe6(4O\xf6\xd4\xe4\x154\xe9\xa1;\x0cD\x90\t'
p3162
ssS'user_system_views_signups_hardcoded_tests___init__'
p3163
(dp3164
g42
(dp3165
g449
S'user_system_views_signups_hardcoded_tests___init__.html'
p3166
sg451
S'user_system/views/signups/hardcoded/tests/__init__'
p3167
sg453
g13
(g14
g15
NtRp3168
(dp3169
g18
I1
sg19
I0
sg20
I0
sg21
I0
sg22
I0
sg23
I0
sg24
I0
sbssg51
S'\x19g\xdfM\x1a\x019\xaf\x1baIeR\xe5u\xa7'
p3170
ssS'create_serializers_questions_question_serializer'
p3171
(dp3172
g42
(dp3173
g93
S'create_serializers_questions_question_serializer.html'
p3174
sg95
S'create/serializers/questions/question_serializer'
p3175
sg97
g13
(g14
g15
NtRp3176
(dp3177
g18
I1
sg19
I0
sg20
I59
sg21
I0
sg22
I0
sg23
I11
sg24
I0
sbssg51
S'\xd6f\xc4\xe6\x97\xe4~\xa4n\xcc+|\xcc\xdayh'
p3178
ssS'user_system_views___init__'
p3179
(dp3180
g42
(dp3181
g31
S'user_system_views___init__.html'
p3182
sg33
S'user_system/views/__init__'
p3183
sg35
g13
(g14
g15
NtRp3184
(dp3185
g18
I1
sg19
I0
sg20
I5
sg21
I0
sg22
I0
sg23
I0
sg24
I0
sbssg51
S'&v35\x98Nv\xc2>un\xb1\x9a\x93\xd2\xea'
p3186
ssS'user_system_views_users_user_profile_update_request_view'
p3187
(dp3188
g116
(dp3189
S'html_filename'
p3190
S'user_system_views_users_user_profile_update_request_view.html'
p3191
sS'name'
p3192
S'user_system/views/users/user_profile_update_request_view'
p3193
sS'nums'
p3194
g13
(g14
g15
NtRp3195
(dp3196
g18
I1
sg19
I24
sg20
I70
sg21
I0
sg22
I0
sg23
I51
sg24
I24
sbssg122
S"\x04\xfd\x81?\x1e<^\xb0%\xad\xa6'\xcf\xa1\xc3)"
p3197
ssS'teach_admin'
p3198
(dp3199
g55
(dp3200
g177
S'teach_admin.html'
p3201
sg179
S'teach/admin'
p3202
sg181
g13
(g14
g15
NtRp3203
(dp3204
g18
I1
sg19
I0
sg20
I6
sg21
I0
sg22
I0
sg23
I0
sg24
I0
sbssg64
S'\xa5$\xa3\xb8$\xe4Z\x9b\xcbO\x9f\xc1\x02b\x95N'
p3205
ssS'user_system_views_roles_user_role_view'
p3206
(dp3207
g42
(dp3208
g44
S'user_system_views_roles_user_role_view.html'
p3209
sg46
S'user_system/views/roles/user_role_view'
p3210
sg48
g13
(g14
g15
NtRp3211
(dp3212
g18
I1
sg19
I8
sg20
I31
sg21
I0
sg22
I0
sg23
I0
sg24
I0
sbssg51
S'S@\xea\xb7\xd6\xe1\x1b\x1dU\x18a\x9d\x80\xe3A\xb9'
p3213
ssS'create_models_questions_tests_test_question_history_remark_model'
p3214
(dp3215
g592
(dp3216
g594
S'create_models_questions_tests_test_question_history_remark_model.html'
p3217
sg596
S'create/models/questions/tests/test_question_history_remark_model'
p3218
sg598
g13
(g14
g15
NtRp3219
(dp3220
g18
I1
sg19
I0
sg20
I30
sg21
I0
sg22
I0
sg23
I0
sg24
I0
sbssg601
S'K>pG_\xbd\x15\x8b\xd8\x05\xd4\x15\xb3\x9b\xcaP'
p3221
ssS'api_logging_serializers___init__'
p3222
(dp3223
g297
(dp3224
g177
S'api_logging_serializers___init__.html'
p3225
sg179
S'api_logging/serializers/__init__'
p3226
sg181
g13
(g14
g15
NtRp3227
(dp3228
g18
I1
sg19
I0
sg20
I2
sg21
I0
sg22
I0
sg23
I0
sg24
I0
sbssg303
S'\x02\xac\xc4\x02\x172\x90\xf3=\xcb\x89>\x99\xbc\x19\xd9'
p3229
ssS'user_system_models_users_tests_test_user_facebook_model'
p3230
(dp3231
g42
(dp3232
g44
S'user_system_models_users_tests_test_user_facebook_model.html'
p3233
sg46
S'user_system/models/users/tests/test_user_facebook_model'
p3234
sg48
g13
(g14
g15
NtRp3235
(dp3236
g18
I1
sg19
I0
sg20
I29
sg21
I0
sg22
I0
sg23
I0
sg24
I0
sbssg51
S'B\xac\x06Z\x1f7\xba2\x81\xd7\xb4\x17\xaf\x84u+'
p3237
ssS'user_system_models_users_user_credentials_model'
p3238
(dp3239
S'index'
p3240
(dp3241
g2069
S'user_system_models_users_user_credentials_model.html'
p3242
sg2071
S'user_system/models/users/user_credentials_model'
p3243
sg2073
g13
(g14
g15
NtRp3244
(dp3245
g18
I1
sg19
I0
sg20
I7
sg21
I0
sg22
I0
sg23
I0
sg24
I0
sbssS'hash'
p3246
S'g\x10U/\x1f\x83\x0bO\x95o\x9c9\xefV\x81\x8e'
p3247
ssS'create_serializers_books___init__'
p3248
(dp3249
g349
(dp3250
g780
S'create_serializers_books___init__.html'
p3251
sg782
S'create/serializers/books/__init__'
p3252
sg784
g13
(g14
g15
NtRp3253
(dp3254
g18
I1
sg19
I0
sg20
I0
sg21
I0
sg22
I0
sg23
I0
sg24
I0
sbssg355
S'\x19g\xdfM\x1a\x019\xaf\x1baIeR\xe5u\xa7'
p3255
ssS'create_models_questions_tests_test_question_template_model'
p3256
(dp3257
g103
(dp3258
g999
S'create_models_questions_tests_test_question_template_model.html'
p3259
sg1001
S'create/models/questions/tests/test_question_template_model'
p3260
sg1003
g13
(g14
g15
NtRp3261
(dp3262
g18
I1
sg19
I8
sg20
I74
sg21
I0
sg22
I0
sg23
I0
sg24
I0
sbssg112
S"~\xca\x9c'\x89\x11\x82V\xb3v\x0c4]\x9c\xce4"
p3263
ssS'create_views_quests_tests_test_add_question_template_view'
p3264
(dp3265
g6
(dp3266
g8
S'create_views_quests_tests_test_add_question_template_view.html'
p3267
sg10
S'create/views/quests/tests/test_add_question_template_view'
p3268
sg12
g13
(g14
g15
NtRp3269
(dp3270
g18
I1
sg19
I0
sg20
I0
sg21
I0
sg22
I0
sg23
I0
sg24
I0
sbssg25
S'\x19g\xdfM\x1a\x019\xaf\x1baIeR\xe5u\xa7'
p3271
ssS'learn_models_points_tests___init__'
p3272
(dp3273
g297
(dp3274
g177
S'learn_models_points_tests___init__.html'
p3275
sg179
S'learn/models/points/tests/__init__'
p3276
sg181
g13
(g14
g15
NtRp3277
(dp3278
g18
I1
sg19
I0
sg20
I1
sg21
I0
sg22
I0
sg23
I0
sg24
I0
sbssg303
S'\xbc\xd6\xeb\xb3\xba\xcaz\xf7{\xd4B\xb5}l\xdf\x96'
p3279
ssS'create_views_tags_tests_test_hide_tag_view'
p3280
(dp3281
g427
(dp3282
g44
S'create_views_tags_tests_test_hide_tag_view.html'
p3283
sg46
S'create/views/tags/tests/test_hide_tag_view'
p3284
sg48
g13
(g14
g15
NtRp3285
(dp3286
g18
I1
sg19
I0
sg20
I25
sg21
I0
sg22
I0
sg23
I0
sg24
I0
sbssg436
S'\x8a\x07\xe0\xe1Q\x820\x05R\x14E\xd0\xdf\x8e\xc5\x8a'
p3287
ssS'learn_views_daily_quests___init__'
p3288
(dp3289
g55
(dp3290
g57
S'learn_views_daily_quests___init__.html'
p3291
sg59
S'learn/views/daily_quests/__init__'
p3292
sg61
g13
(g14
g15
NtRp3293
(dp3294
g18
I1
sg19
I0
sg20
I1
sg21
I0
sg22
I0
sg23
I0
sg24
I0
sbssg64
S'\xa3\x08\xf3\xbaF\xd5u\x88\x12\xa3V\x05K\xe5\xd0\xa9'
p3295
ssS'create_views_books_tests___init__'
p3296
(dp3297
g942
(dp3298
S'html_filename'
p3299
S'create_views_books_tests___init__.html'
p3300
sS'name'
p3301
S'create/views/books/tests/__init__'
p3302
sS'nums'
p3303
g13
(g14
g15
NtRp3304
(dp3305
g18
I1
sg19
I0
sg20
I0
sg21
I0
sg22
I0
sg23
I0
sg24
I0
sbssg948
S'\x19g\xdfM\x1a\x019\xaf\x1baIeR\xe5u\xa7'
p3306
ssS'user_system_models_users_tests_test_user_streak_history_model'
p3307
(dp3308
S'index'
p3309
(dp3310
g1246
S'user_system_models_users_tests_test_user_streak_history_model.html'
p3311
sg1248
S'user_system/models/users/tests/test_user_streak_history_model'
p3312
sg1250
g13
(g14
g15
NtRp3313
(dp3314
g18
I1
sg19
I0
sg20
I19
sg21
I0
sg22
I0
sg23
I0
sg24
I0
sbssS'hash'
p3315
S'\xc7I1\x11\xc9\xbf7\xee\x1c\x16@\x10JP\xaf\xfc'
p3316
sssS'version'
p3317
S'3.7.1'
p3318
sS'settings'
p3319
S'\x961E{\x0c29\xd1#\x83\xd3j9"\xd8\x10'
p3320
sS'format'
p3321
I1
s.