(dp1
S'files'
p2
(dp3
S'create_views_quests_tests_test_add_tag_view'
p4
(dp5
S'index'
p6
(dp7
S'html_filename'
p8
S'create_views_quests_tests_test_add_tag_view.html'
p9
sS'name'
p10
S'create/views/quests/tests/test_add_tag_view'
p11
sS'nums'
p12
ccopy_reg
_reconstructor
p13
(ccoverage.results
Numbers
p14
c__builtin__
object
p15
NtRp16
(dp17
S'n_files'
p18
I1
sS'n_branches'
p19
I0
sS'n_statements'
p20
I35
sS'n_excluded'
p21
I0
sS'n_partial_branches'
p22
I0
sS'n_missing'
p23
I0
sS'n_missing_branches'
p24
I0
sbssS'hash'
p25
S'o\xbe\xf1\xf9\x80\xe5|\xbab\xcc\xe2F=\x1e\xacp'
p26
ssS'user_system_models_users_teacher_profile_model'
p27
(dp28
S'index'
p29
(dp30
S'html_filename'
p31
S'user_system_models_users_teacher_profile_model.html'
p32
sS'name'
p33
S'user_system/models/users/teacher_profile_model'
p34
sS'nums'
p35
g13
(g14
g15
NtRp36
(dp37
g18
I1
sg19
I0
sg20
I27
sg21
I0
sg22
I0
sg23
I0
sg24
I0
sbssS'hash'
p38
S'x\x9e\x06\xe6\x8d\x87\xed\xaf\x91\x87\x16\xfc"\x96\xf2\xfc'
p39
ssS'user_system_views_signups_facebook_signup_view'
p40
(dp41
S'index'
p42
(dp43
S'html_filename'
p44
S'user_system_views_signups_facebook_signup_view.html'
p45
sS'name'
p46
S'user_system/views/signups/facebook_signup_view'
p47
sS'nums'
p48
g13
(g14
g15
NtRp49
(dp50
g18
I1
sg19
I8
sg20
I38
sg21
I0
sg22
I0
sg23
I0
sg24
I0
sbssS'hash'
p51
S'\x04E\'\x17r8\x14\xf6 \x98\xb5\xa0sx"@'
p52
ssS'teach_models_teacher_tags___init__'
p53
(dp54
S'index'
p55
(dp56
S'html_filename'
p57
S'teach_models_teacher_tags___init__.html'
p58
sS'name'
p59
S'teach/models/teacher_tags/__init__'
p60
sS'nums'
p61
g13
(g14
g15
NtRp62
(dp63
g18
I1
sg19
I0
sg20
I1
sg21
I0
sg22
I0
sg23
I0
sg24
I0
sbssS'hash'
p64
S"\x15#y\x16\x1a\x9d\xc6mE\xccg]\x07\xb9'\xe0"
p65
ssS'user_system_models_users_user_facebook_model'
p66
(dp67
g42
(dp68
g44
S'user_system_models_users_user_facebook_model.html'
p69
sg46
S'user_system/models/users/user_facebook_model'
p70
sg48
g13
(g14
g15
NtRp71
(dp72
g18
I1
sg19
I0
sg20
I22
sg21
I0
sg22
I0
sg23
I0
sg24
I0
sbssg51
S'!d\xff\xbcl0O(`\x1b1\xf7\xb3*{X'
p73
ssS'teach_models_teacher_chapters___init__'
p74
(dp75
g55
(dp76
g57
S'teach_models_teacher_chapters___init__.html'
p77
sg59
S'teach/models/teacher_chapters/__init__'
p78
sg61
g13
(g14
g15
NtRp79
(dp80
g18
I1
sg19
I0
sg20
I1
sg21
I0
sg22
I0
sg23
I0
sg24
I0
sbssg64
S'\xfa\xce(\x03\x8d\xd7\xc1h\xedT\xf9d\xae\x03w^'
p81
ssS'user_system_views_logins_facebook_login_view'
p82
(dp83
g42
(dp84
g44
S'user_system_views_logins_facebook_login_view.html'
p85
sg46
S'user_system/views/logins/facebook_login_view'
p86
sg48
g13
(g14
g15
NtRp87
(dp88
g18
I1
sg19
I4
sg20
I24
sg21
I0
sg22
I0
sg23
I0
sg24
I0
sbssg51
S',\xf8~\x8d\x9b\xfe\xa6wQ5\x92t\x15\xe5\x95\x8d'
p89
ssS'create_serializers_questions_question_history_serializer'
p90
(dp91
g42
(dp92
S'html_filename'
p93
S'create_serializers_questions_question_history_serializer.html'
p94
sS'name'
p95
S'create/serializers/questions/question_history_serializer'
p96
sS'nums'
p97
g13
(g14
g15
NtRp98
(dp99
g18
I1
sg19
I2
sg20
I30
sg21
I0
sg22
I1
sg23
I2
sg24
I1
sbssg51
S'C\x93,\xa4\xac3\xb6\xb8\xca\x076\xae\x14\x15\xc0J'
p100
ssS'create_serializers_quests_quest_history_serializer'
p101
(dp102
S'index'
p103
(dp104
S'html_filename'
p105
S'create_serializers_quests_quest_history_serializer.html'
p106
sS'name'
p107
S'create/serializers/quests/quest_history_serializer'
p108
sS'nums'
p109
g13
(g14
g15
NtRp110
(dp111
g18
I1
sg19
I0
sg20
I38
sg21
I0
sg22
I0
sg23
I15
sg24
I0
sbssS'hash'
p112
S'\x0c\x10\x81\x11\xc3\xff\x01\x8d<#\xe5~\x84\xec\x18\xfd'
p113
ssS'user_system_models_users_tests_test_student_profile_request_model'
p114
(dp115
S'index'
p116
(dp117
g31
S'user_system_models_users_tests_test_student_profile_request_model.html'
p118
sg33
S'user_system/models/users/tests/test_student_profile_request_model'
p119
sg35
g13
(g14
g15
NtRp120
(dp121
g18
I1
sg19
I0
sg20
I42
sg21
I0
sg22
I0
sg23
I0
sg24
I0
sbssS'hash'
p122
S'\x0c4FG\x9bD\x9e\xaa\xb9a\xd6\xee\xc6&0T'
p123
ssS'create_views_books_tests_test_add_chapter_view'
p124
(dp125
S'index'
p126
(dp127
g44
S'create_views_books_tests_test_add_chapter_view.html'
p128
sg46
S'create/views/books/tests/test_add_chapter_view'
p129
sg48
g13
(g14
g15
NtRp130
(dp131
g18
I1
sg19
I0
sg20
I69
sg21
I0
sg22
I0
sg23
I0
sg24
I0
sbssS'hash'
p132
S'\xea\xcd\x81\xff\xe6p74\xe3\xab\xc2R\x1aZ#Y'
p133
ssS'teach_models_teacher_chapters_tests_test_teacher_chapter_model'
p134
(dp135
g55
(dp136
g57
S'teach_models_teacher_chapters_tests_test_teacher_chapter_model.html'
p137
sg59
S'teach/models/teacher_chapters/tests/test_teacher_chapter_model'
p138
sg61
g13
(g14
g15
NtRp139
(dp140
g18
I1
sg19
I0
sg20
I28
sg21
I0
sg22
I0
sg23
I0
sg24
I0
sbssg64
S'm\xb2B\x1a\x04\xa5\x94N\xbe\xb6\xfa\xa9\x16J\x10\x92'
p141
ssS'create_serializers_question_datasets___init__'
p142
(dp143
S'index'
p144
(dp145
S'html_filename'
p146
S'create_serializers_question_datasets___init__.html'
p147
sS'name'
p148
S'create/serializers/question_datasets/__init__'
p149
sS'nums'
p150
g13
(g14
g15
NtRp151
(dp152
g18
I1
sg19
I0
sg20
I1
sg21
I0
sg22
I0
sg23
I0
sg24
I0
sbssS'hash'
p153
S'Z\xf8\x02Tc\xc1C;<_\x87\xc6\xc2H\xa6\xdc'
p154
ssS'user_system_models_users_user_profile_model'
p155
(dp156
g42
(dp157
S'html_filename'
p158
S'user_system_models_users_user_profile_model.html'
p159
sS'name'
p160
S'user_system/models/users/user_profile_model'
p161
sS'nums'
p162
g13
(g14
g15
NtRp163
(dp164
g18
I1
sg19
I48
sg20
I178
sg21
I0
sg22
I0
sg23
I24
sg24
I6
sbssg51
S'\xf2\xb8\xecp\xaf\xff\n\xe3b\x06\xe8\xc3p\xf9\xe4W'
p165
ssS'create_models_question_datasets_tests_test_question_dataset_model'
p166
(dp167
g144
(dp168
g146
S'create_models_question_datasets_tests_test_question_dataset_model.html'
p169
sg148
S'create/models/question_datasets/tests/test_question_dataset_model'
p170
sg150
g13
(g14
g15
NtRp171
(dp172
g18
I1
sg19
I2
sg20
I39
sg21
I0
sg22
I0
sg23
I0
sg24
I0
sbssg153
S'!\t\x88\xfc\x0f\xaa\x0c\x88\xe3\xf9\x04\xd1\\0w\xf1'
p173
ssS'user_system_models_users___init__'
p174
(dp175
g42
(dp176
S'html_filename'
p177
S'user_system_models_users___init__.html'
p178
sS'name'
p179
S'user_system/models/users/__init__'
p180
sS'nums'
p181
g13
(g14
g15
NtRp182
(dp183
g18
I1
sg19
I0
sg20
I11
sg21
I0
sg22
I0
sg23
I0
sg24
I0
sbssg51
S'\x81\xefKrW:\x98\xa0\xfbl\x17\xe1E\xb8..'
p184
ssS'teach_urls'
p185
(dp186
g55
(dp187
S'html_filename'
p188
S'teach_urls.html'
p189
sS'name'
p190
S'teach/urls'
p191
sS'nums'
p192
g13
(g14
g15
NtRp193
(dp194
g18
I1
sg19
I0
sg20
I13
sg21
I0
sg22
I0
sg23
I0
sg24
I0
sbssg64
S'1\xa6\x90\x84\xbf\x9b\x9at\x1f4\xf1\x1b\x92\x03\xff%'
p195
ssS'learn_serializers_daily_quests___init__'
p196
(dp197
g55
(dp198
g177
S'learn_serializers_daily_quests___init__.html'
p199
sg179
S'learn/serializers/daily_quests/__init__'
p200
sg181
g13
(g14
g15
NtRp201
(dp202
g18
I1
sg19
I0
sg20
I2
sg21
I0
sg22
I0
sg23
I0
sg24
I0
sbssg64
S'\x8e\x0b\xa4\xc1x\xdb]\xcc\xf6 \x7f\xbeO\x91\xca@'
p203
ssS'user_system_models_schools___init__'
p204
(dp205
S'index'
p206
(dp207
S'html_filename'
p208
S'user_system_models_schools___init__.html'
p209
sS'name'
p210
S'user_system/models/schools/__init__'
p211
sS'nums'
p212
g13
(g14
g15
NtRp213
(dp214
g18
I1
sg19
I0
sg20
I6
sg21
I0
sg22
I0
sg23
I0
sg24
I0
sbssS'hash'
p215
S'\xbe\xc9\xb2f\x05\x1f\xe6\xee\xef\x01#\xe8\x16\xc2\x83\xdb'
p216
ssS'create_views_questions_tests_test_remove_tag_view'
p217
(dp218
S'index'
p219
(dp220
S'html_filename'
p221
S'create_views_questions_tests_test_remove_tag_view.html'
p222
sS'name'
p223
S'create/views/questions/tests/test_remove_tag_view'
p224
sS'nums'
p225
g13
(g14
g15
NtRp226
(dp227
g18
I1
sg19
I0
sg20
I36
sg21
I0
sg22
I0
sg23
I0
sg24
I0
sbssS'hash'
p228
S'\xbdV1EN\xfe\x8e;\xe4\x92\x91r\xd6Q\x03\x80'
p229
ssS'user_system_models_users_tests_test_student_profile_model'
p230
(dp231
S'index'
p232
(dp233
g177
S'user_system_models_users_tests_test_student_profile_model.html'
p234
sg179
S'user_system/models/users/tests/test_student_profile_model'
p235
sg181
g13
(g14
g15
NtRp236
(dp237
g18
I1
sg19
I0
sg20
I48
sg21
I0
sg22
I0
sg23
I0
sg24
I0
sbssS'hash'
p238
S'\n_\xb5B0\x1dR\x0b\x16i\x1fy.Z\x14#'
p239
ssS'create_views_daily_quest_templates___init__'
p240
(dp241
S'index'
p242
(dp243
S'html_filename'
p244
S'create_views_daily_quest_templates___init__.html'
p245
sS'name'
p246
S'create/views/daily_quest_templates/__init__'
p247
sS'nums'
p248
g13
(g14
g15
NtRp249
(dp250
g18
I1
sg19
I0
sg20
I1
sg21
I0
sg22
I0
sg23
I0
sg24
I0
sbssS'hash'
p251
S'\xc1b\x1f\x95\xabR`C\xe80\xb9tNC\r3'
p252
ssS'learn___init__'
p253
(dp254
g55
(dp255
g57
S'learn___init__.html'
p256
sg59
S'learn/__init__'
p257
sg61
g13
(g14
g15
NtRp258
(dp259
g18
I1
sg19
I0
sg20
I0
sg21
I0
sg22
I0
sg23
I0
sg24
I0
sbssg64
S'\x19g\xdfM\x1a\x019\xaf\x1baIeR\xe5u\xa7'
p260
ssS'create_serializers_quests___init__'
p261
(dp262
g103
(dp263
g31
S'create_serializers_quests___init__.html'
p264
sg33
S'create/serializers/quests/__init__'
p265
sg35
g13
(g14
g15
NtRp266
(dp267
g18
I1
sg19
I0
sg20
I2
sg21
I0
sg22
I0
sg23
I0
sg24
I0
sbssg112
S'\xc0,Fh\xaf\xa0(\x8f\xde\x02{\x88!\x04\x7f\xb6'
p268
ssS'teach_views_teacher_chapters___init__'
p269
(dp270
g55
(dp271
g57
S'teach_views_teacher_chapters___init__.html'
p272
sg59
S'teach/views/teacher_chapters/__init__'
p273
sg61
g13
(g14
g15
NtRp274
(dp275
g18
I1
sg19
I0
sg20
I1
sg21
I0
sg22
I0
sg23
I0
sg24
I0
sbssg64
S'\x10AP\xc9\nC\xd2REz\xf6\xe5\xd2(\xee`'
p276
ssS'user_system_models_users_student_profile_request_model'
p277
(dp278
g116
(dp279
g31
S'user_system_models_users_student_profile_request_model.html'
p280
sg33
S'user_system/models/users/student_profile_request_model'
p281
sg35
g13
(g14
g15
NtRp282
(dp283
g18
I1
sg19
I0
sg20
I45
sg21
I0
sg22
I0
sg23
I0
sg24
I0
sbssg122
S'\xeeZA}\xa0\xf5\x88k0a2\x9fS\xf3}\x05'
p284
ssS'privilege_models___init__'
p285
(dp286
S'index'
p287
(dp288
g93
S'privilege_models___init__.html'
p289
sg95
S'privilege/models/__init__'
p290
sg97
g13
(g14
g15
NtRp291
(dp292
g18
I1
sg19
I0
sg20
I1
sg21
I0
sg22
I0
sg23
I0
sg24
I0
sbssS'hash'
p293
S'\x13V\xca}S\xd3\x98Rp?\xb0\xe1\x904>b'
p294
ssS'user_system_views_users_teacher_mapping_view'
p295
(dp296
S'index'
p297
(dp298
g177
S'user_system_views_users_teacher_mapping_view.html'
p299
sg179
S'user_system/views/users/teacher_mapping_view'
p300
sg181
g13
(g14
g15
NtRp301
(dp302
g18
I1
sg19
I0
sg20
I14
sg21
I0
sg22
I0
sg23
I0
sg24
I0
sbssS'hash'
p303
S'B\x04t\x93Z\x86Q.\x17\xf9\xa0*\xf6\x86\xcf\x10'
p304
ssS'create_views_tags_tests_test_search_tag_view'
p305
(dp306
S'index'
p307
(dp308
g93
S'create_views_tags_tests_test_search_tag_view.html'
p309
sg95
S'create/views/tags/tests/test_search_tag_view'
p310
sg97
g13
(g14
g15
NtRp311
(dp312
g18
I1
sg19
I0
sg20
I22
sg21
I0
sg22
I0
sg23
I0
sg24
I0
sbssS'hash'
p313
S'\rh\xcb\xb3g\x15\x9c\xe3hR\xc5r\xb9\x9c\xb2\x1f'
p314
ssS'create_views_questions_tests_test_hide_question_view'
p315
(dp316
g42
(dp317
g44
S'create_views_questions_tests_test_hide_question_view.html'
p318
sg46
S'create/views/questions/tests/test_hide_question_view'
p319
sg48
g13
(g14
g15
NtRp320
(dp321
g18
I1
sg19
I0
sg20
I30
sg21
I0
sg22
I0
sg23
I0
sg24
I0
sbssg51
S'\xb3\x10S\x8a\x9b\xecw\xaa\xd3\x81\x1b\xf2\xab\xb2QG'
p322
ssS'user_system_serializers_users_student_profile_request_serializer'
p323
(dp324
g116
(dp325
g31
S'user_system_serializers_users_student_profile_request_serializer.html'
p326
sg33
S'user_system/serializers/users/student_profile_request_serializer'
p327
sg35
g13
(g14
g15
NtRp328
(dp329
g18
I1
sg19
I0
sg20
I8
sg21
I0
sg22
I0
sg23
I0
sg24
I0
sbssg122
S'\xa9VJ\x07M\x02\xee$\t\xc8O\xc43$\x1a-'
p330
ssS'create_views_question_datasets_question_dataset_view'
p331
(dp332
g144
(dp333
g146
S'create_views_question_datasets_question_dataset_view.html'
p334
sg148
S'create/views/question_datasets/question_dataset_view'
p335
sg150
g13
(g14
g15
NtRp336
(dp337
g18
I1
sg19
I4
sg20
I20
sg21
I0
sg22
I0
sg23
I5
sg24
I4
sbssg153
S'\x01\xfb\xf2\x86m\xd4\xf9\xc3\xe6\xb6\x11\x96u;\x1ez'
p338
ssS'teach_models_campaigns___init__'
p339
(dp340
g116
(dp341
g31
S'teach_models_campaigns___init__.html'
p342
sg33
S'teach/models/campaigns/__init__'
p343
sg35
g13
(g14
g15
NtRp344
(dp345
g18
I1
sg19
I0
sg20
I1
sg21
I0
sg22
I0
sg23
I0
sg24
I0
sbssg122
S'\xba\x82\x818\x88\xe0\xf2#\xe9\x89\xffso\xdc\xe6\xd4'
p346
ssS'create_serializers_books_book_chapter_serializer'
p347
(dp348
S'index'
p349
(dp350
g57
S'create_serializers_books_book_chapter_serializer.html'
p351
sg59
S'create/serializers/books/book_chapter_serializer'
p352
sg61
g13
(g14
g15
NtRp353
(dp354
g18
I1
sg19
I0
sg20
I23
sg21
I0
sg22
I0
sg23
I3
sg24
I0
sbssS'hash'
p355
S'\xf1~, f\x89\xad\xc8p\xcc\xd4E_\x0b3\x06'
p356
ssS'api_logging_models_api_logging_api_logging_model'
p357
(dp358
g297
(dp359
g177
S'api_logging_models_api_logging_api_logging_model.html'
p360
sg179
S'api_logging/models/api_logging/api_logging_model'
p361
sg181
g13
(g14
g15
NtRp362
(dp363
g18
I1
sg19
I0
sg20
I21
sg21
I0
sg22
I0
sg23
I0
sg24
I0
sbssg303
S'\x0c\x96WFX%\xe9\xcf+\xcf\xc2s\xa7a1\xbd'
p364
ssS'create_models_question_datasets___init__'
p365
(dp366
g144
(dp367
g146
S'create_models_question_datasets___init__.html'
p368
sg148
S'create/models/question_datasets/__init__'
p369
sg150
g13
(g14
g15
NtRp370
(dp371
g18
I1
sg19
I0
sg20
I1
sg21
I0
sg22
I0
sg23
I0
sg24
I0
sbssg153
S'\xeb\xb7>&t\x02-\xeaaJ,\x8a\xae\xc3\x1a]'
p372
ssS'user_system_urls'
p373
(dp374
g42
(dp375
g177
S'user_system_urls.html'
p376
sg179
S'user_system/urls'
p377
sg181
g13
(g14
g15
NtRp378
(dp379
g18
I1
sg19
I0
sg20
I17
sg21
I0
sg22
I0
sg23
I0
sg24
I0
sbssg51
S'SKXe\xb2\x8f\xd8\xdc\xf3\x99\xa6\x9e.\x82\x96\xe9'
p380
ssS'create_models_tags_tests_test_tag_type_model'
p381
(dp382
S'index'
p383
(dp384
g44
S'create_models_tags_tests_test_tag_type_model.html'
p385
sg46
S'create/models/tags/tests/test_tag_type_model'
p386
sg48
g13
(g14
g15
NtRp387
(dp388
g18
I1
sg19
I0
sg20
I17
sg21
I0
sg22
I0
sg23
I0
sg24
I0
sbssS'hash'
p389
S'?6\xfcg\xce\x11\x1a7E\xaf\xb2\x02\t"\xddA'
p390
ssS'create_models_quests_quest_history_model'
p391
(dp392
g103
(dp393
g8
S'create_models_quests_quest_history_model.html'
p394
sg10
S'create/models/quests/quest_history_model'
p395
sg12
g13
(g14
g15
NtRp396
(dp397
g18
I1
sg19
I8
sg20
I75
sg21
I0
sg22
I3
sg23
I4
sg24
I3
sbssg112
S'@\xe7\xfa\x02?w\xe7\x93\xa3\x85\x0f\x0fz\xf0\xdbR'
p398
ssS'learn_models_daily_quests_tests_test_daily_quest_question_history_model'
p399
(dp400
S'index'
p401
(dp402
S'html_filename'
p403
S'learn_models_daily_quests_tests_test_daily_quest_question_history_model.html'
p404
sS'name'
p405
S'learn/models/daily_quests/tests/test_daily_quest_question_history_model'
p406
sS'nums'
p407
g13
(g14
g15
NtRp408
(dp409
g18
I1
sg19
I0
sg20
I201
sg21
I0
sg22
I0
sg23
I0
sg24
I0
sbssS'hash'
p410
S';]\xf7heZ\xaaV{hq\xa7\xcdg5]'
p411
ssS'create_models_daily_quest_copies_daily_quest_copy_model'
p412
(dp413
S'index'
p414
(dp415
S'html_filename'
p416
S'create_models_daily_quest_copies_daily_quest_copy_model.html'
p417
sS'name'
p418
S'create/models/daily_quest_copies/daily_quest_copy_model'
p419
sS'nums'
p420
g13
(g14
g15
NtRp421
(dp422
g18
I1
sg19
I6
sg20
I47
sg21
I0
sg22
I0
sg23
I14
sg24
I6
sbssS'hash'
p423
S'\x90\xa7\xba\xee\x88\xf84\xf7\xd1B\x9b9@\\\x80P'
p424
ssS'create_views_tags_tests___init__'
p425
(dp426
S'index'
p427
(dp428
S'html_filename'
p429
S'create_views_tags_tests___init__.html'
p430
sS'name'
p431
S'create/views/tags/tests/__init__'
p432
sS'nums'
p433
g13
(g14
g15
NtRp434
(dp435
g18
I1
sg19
I0
sg20
I0
sg21
I0
sg22
I0
sg23
I0
sg24
I0
sbssS'hash'
p436
S'\x19g\xdfM\x1a\x019\xaf\x1baIeR\xe5u\xa7'
p437
ssS'user_system_models_apps_app_model'
p438
(dp439
g42
(dp440
g44
S'user_system_models_apps_app_model.html'
p441
sg46
S'user_system/models/apps/app_model'
p442
sg48
g13
(g14
g15
NtRp443
(dp444
g18
I1
sg19
I0
sg20
I16
sg21
I0
sg22
I0
sg23
I0
sg24
I0
sbssg51
S',\x89\x9d;<\xa3\xdc\x92@\xa5\x9c\x7fcg\x05?'
p445
ssS'user_system_views_apps_tests___init__'
p446
(dp447
g42
(dp448
S'html_filename'
p449
S'user_system_views_apps_tests___init__.html'
p450
sS'name'
p451
S'user_system/views/apps/tests/__init__'
p452
sS'nums'
p453
g13
(g14
g15
NtRp454
(dp455
g18
I1
sg19
I0
sg20
I0
sg21
I0
sg22
I0
sg23
I0
sg24
I0
sbssg51
S'\x19g\xdfM\x1a\x019\xaf\x1baIeR\xe5u\xa7'
p456
ssS'privilege___init__'
p457
(dp458
g287
(dp459
g93
S'privilege___init__.html'
p460
sg95
S'privilege/__init__'
p461
sg97
g13
(g14
g15
NtRp462
(dp463
g18
I1
sg19
I0
sg20
I0
sg21
I0
sg22
I0
sg23
I0
sg24
I0
sbssg293
S'\x19g\xdfM\x1a\x019\xaf\x1baIeR\xe5u\xa7'
p464
ssS'create_views_books___init__'
p465
(dp466
g349
(dp467
S'html_filename'
p468
S'create_views_books___init__.html'
p469
sS'name'
p470
S'create/views/books/__init__'
p471
sS'nums'
p472
g13
(g14
g15
NtRp473
(dp474
g18
I1
sg19
I0
sg20
I3
sg21
I0
sg22
I0
sg23
I0
sg24
I0
sbssg355
S'\xce\x13\xc8S|wF\xe3\x148\xa0?ez,\xc4'
p475
ssS'create_models_books_book_chapter_model'
p476
(dp477
g349
(dp478
g31
S'create_models_books_book_chapter_model.html'
p479
sg33
S'create/models/books/book_chapter_model'
p480
sg35
g13
(g14
g15
NtRp481
(dp482
g18
I1
sg19
I8
sg20
I58
sg21
I0
sg22
I1
sg23
I3
sg24
I3
sbssg355
S'5h\xa3E\x99\xf4H\x97\xbf\x08?=+K\xe7\xad'
p483
ssS'user_system_admin'
p484
(dp485
g42
(dp486
g177
S'user_system_admin.html'
p487
sg179
S'user_system/admin'
p488
sg181
g13
(g14
g15
NtRp489
(dp490
g18
I1
sg19
I0
sg20
I25
sg21
I0
sg22
I0
sg23
I0
sg24
I0
sbssg51
S',\xc1@k;\x98\x80\xb5\xbc\xab\x11\xf3\xdc\x0b\xd1U'
p491
ssS'user_system_serializers_users_teacher_profile_serializer'
p492
(dp493
g116
(dp494
g31
S'user_system_serializers_users_teacher_profile_serializer.html'
p495
sg33
S'user_system/serializers/users/teacher_profile_serializer'
p496
sg35
g13
(g14
g15
NtRp497
(dp498
g18
I1
sg19
I4
sg20
I20
sg21
I0
sg22
I0
sg23
I9
sg24
I4
sbssg122
S'\xe2\xa5\xba\xd6e\xc2\x88\xab\xaes\x15\x08\xa9ta\xd6'
p499
ssS'user_system_models_users_tests___init__'
p500
(dp501
g42
(dp502
g449
S'user_system_models_users_tests___init__.html'
p503
sg451
S'user_system/models/users/tests/__init__'
p504
sg453
g13
(g14
g15
NtRp505
(dp506
g18
I1
sg19
I0
sg20
I0
sg21
I0
sg22
I0
sg23
I0
sg24
I0
sbssg51
S'\x19g\xdfM\x1a\x019\xaf\x1baIeR\xe5u\xa7'
p507
ssS'user_system_models_users_user_profile_picture_model'
p508
(dp509
g116
(dp510
g31
S'user_system_models_users_user_profile_picture_model.html'
p511
sg33
S'user_system/models/users/user_profile_picture_model'
p512
sg35
g13
(g14
g15
NtRp513
(dp514
g18
I1
sg19
I0
sg20
I18
sg21
I0
sg22
I0
sg23
I0
sg24
I0
sbssg122
S'$E\xff\xf5f,\xb2\xc7\xb4\x9b*\x0es|s\xcc'
p515
ssS'teach_models_teacher_tags_teacher_tag_model'
p516
(dp517
g55
(dp518
g57
S'teach_models_teacher_tags_teacher_tag_model.html'
p519
sg59
S'teach/models/teacher_tags/teacher_tag_model'
p520
sg61
g13
(g14
g15
NtRp521
(dp522
g18
I1
sg19
I0
sg20
I30
sg21
I0
sg22
I0
sg23
I0
sg24
I0
sbssg64
S'\\\xb6A\xa8\xa7\x93\x16K\xceQ>\xe8t\xdb<#'
p523
ssS'teach_models_daily_quest_templates_daily_quest_template_model'
p524
(dp525
g55
(dp526
S'html_filename'
p527
S'teach_models_daily_quest_templates_daily_quest_template_model.html'
p528
sS'name'
p529
S'teach/models/daily_quest_templates/daily_quest_template_model'
p530
sS'nums'
p531
g13
(g14
g15
NtRp532
(dp533
g18
I1
sg19
I0
sg20
I32
sg21
I0
sg22
I0
sg23
I0
sg24
I0
sbssg64
S'\xd8?/FZ\xe7\xb6\xa6E&6\x86\xa5\x93\x7f='
p534
ssS'create_views_books_tests_test_add_subchapter_view'
p535
(dp536
S'index'
p537
(dp538
g44
S'create_views_books_tests_test_add_subchapter_view.html'
p539
sg46
S'create/views/books/tests/test_add_subchapter_view'
p540
sg48
g13
(g14
g15
NtRp541
(dp542
g18
I1
sg19
I0
sg20
I60
sg21
I0
sg22
I0
sg23
I0
sg24
I0
sbssS'hash'
p543
S"\xcc^2\xc4\xf2\xb1\xdc\xe8\xf0t\xb6\xcc\x1f\xce\xf1'"
p544
ssS'create_models_quests_quest_model'
p545
(dp546
g103
(dp547
S'html_filename'
p548
S'create_models_quests_quest_model.html'
p549
sS'name'
p550
S'create/models/quests/quest_model'
p551
sS'nums'
p552
g13
(g14
g15
NtRp553
(dp554
g18
I1
sg19
I4
sg20
I59
sg21
I0
sg22
I0
sg23
I13
sg24
I4
sbssg112
S'^g\x1e\x82\xee1[\xc0\xbe\x04\xca\xb1`M\xe7\xe9'
p555
ssS'user_system_views_users_tests_test_remove_role_view'
p556
(dp557
g42
(dp558
g44
S'user_system_views_users_tests_test_remove_role_view.html'
p559
sg46
S'user_system/views/users/tests/test_remove_role_view'
p560
sg48
g13
(g14
g15
NtRp561
(dp562
g18
I1
sg19
I0
sg20
I42
sg21
I0
sg22
I0
sg23
I0
sg24
I0
sbssg51
S'\xfb\x9b\xa3\xe5\x90\xe7q99\x19\x10"<@L\x8c'
p563
ssS'create_models_tags_tests_test_tag_history_model'
p564
(dp565
S'index'
p566
(dp567
g57
S'create_models_tags_tests_test_tag_history_model.html'
p568
sg59
S'create/models/tags/tests/test_tag_history_model'
p569
sg61
g13
(g14
g15
NtRp570
(dp571
g18
I1
sg19
I0
sg20
I58
sg21
I0
sg22
I0
sg23
I0
sg24
I0
sbssS'hash'
p572
S"\x05Y\xa9\xba\xf0\xa8\xd2*7_\xcb]\xfb*#'"
p573
ssS'teach_views_teacher_news_feed___init__'
p574
(dp575
g297
(dp576
g177
S'teach_views_teacher_news_feed___init__.html'
p577
sg179
S'teach/views/teacher_news_feed/__init__'
p578
sg181
g13
(g14
g15
NtRp579
(dp580
g18
I1
sg19
I0
sg20
I1
sg21
I0
sg22
I0
sg23
I0
sg24
I0
sbssg303
S'\xe8\xcd\xf3\x9f\xa3=;`\xf0oZ\xcb!\x98\xac\x1c'
p581
ssS'create_views_daily_quest_templates_daily_quest_template_view'
p582
(dp583
g242
(dp584
g244
S'create_views_daily_quest_templates_daily_quest_template_view.html'
p585
sg246
S'create/views/daily_quest_templates/daily_quest_template_view'
p586
sg248
g13
(g14
g15
NtRp587
(dp588
g18
I1
sg19
I4
sg20
I20
sg21
I0
sg22
I0
sg23
I5
sg24
I4
sbssg251
S'*(w\xa3\x82\x06\xe8D\x8c\xaa+3\xbc\xe3\xa5\x1d'
p589
ssS'create_models_questions_question_history_remark_model'
p590
(dp591
S'index'
p592
(dp593
S'html_filename'
p594
S'create_models_questions_question_history_remark_model.html'
p595
sS'name'
p596
S'create/models/questions/question_history_remark_model'
p597
sS'nums'
p598
g13
(g14
g15
NtRp599
(dp600
g18
I1
sg19
I0
sg20
I27
sg21
I0
sg22
I0
sg23
I0
sg24
I0
sbssS'hash'
p601
S'\xac"G5\x1c\xf2\xef\xa9\x1dUd\xce4.\xac\xa4'
p602
ssS'learn_serializers___init__'
p603
(dp604
g55
(dp605
g57
S'learn_serializers___init__.html'
p606
sg59
S'learn/serializers/__init__'
p607
sg61
g13
(g14
g15
NtRp608
(dp609
g18
I1
sg19
I0
sg20
I1
sg21
I0
sg22
I0
sg23
I0
sg24
I0
sbssg64
S'cLP\xd9\xc0\x91mD\xa3\xd2\xbczr\xdak\xf4'
p610
ssS'user_system_views_schools___init__'
p611
(dp612
g116
(dp613
g31
S'user_system_views_schools___init__.html'
p614
sg33
S'user_system/views/schools/__init__'
p615
sg35
g13
(g14
g15
NtRp616
(dp617
g18
I1
sg19
I0
sg20
I2
sg21
I0
sg22
I0
sg23
I0
sg24
I0
sbssg122
S'\x85\xe2\x7f\xa7\xac\x16HY\x8b\x10\x9b\xc0r\x17|\x8c'
p618
ssS'create_views_quests___init__'
p619
(dp620
g103
(dp621
S'html_filename'
p622
S'create_views_quests___init__.html'
p623
sS'name'
p624
S'create/views/quests/__init__'
p625
sS'nums'
p626
g13
(g14
g15
NtRp627
(dp628
g18
I1
sg19
I0
sg20
I1
sg21
I0
sg22
I0
sg23
I0
sg24
I0
sbssg112
S'\x8d\x97\x8c^6\xf0o\xc3_\x8dRQ}\xd2]a'
p629
ssS'user_system_models_schools_tests_test_course_model'
p630
(dp631
g232
(dp632
S'html_filename'
p633
S'user_system_models_schools_tests_test_course_model.html'
p634
sS'name'
p635
S'user_system/models/schools/tests/test_course_model'
p636
sS'nums'
p637
g13
(g14
g15
NtRp638
(dp639
g18
I1
sg19
I8
sg20
I50
sg21
I0
sg22
I0
sg23
I0
sg24
I0
sbssg238
S'\xd7va\xe6uR6*v\xca\x885\xf3]$1'
p640
ssS'create_models_question_datasets_tests___init__'
p641
(dp642
g144
(dp643
g146
S'create_models_question_datasets_tests___init__.html'
p644
sg148
S'create/models/question_datasets/tests/__init__'
p645
sg150
g13
(g14
g15
NtRp646
(dp647
g18
I1
sg19
I0
sg20
I0
sg21
I0
sg22
I0
sg23
I0
sg24
I0
sbssg153
S'\x19g\xdfM\x1a\x019\xaf\x1baIeR\xe5u\xa7'
p648
ssS'api_logging_models_modal_logging_modal_model'
p649
(dp650
g297
(dp651
g177
S'api_logging_models_modal_logging_modal_model.html'
p652
sg179
S'api_logging/models/modal_logging/modal_model'
p653
sg181
g13
(g14
g15
NtRp654
(dp655
g18
I1
sg19
I0
sg20
I19
sg21
I0
sg22
I0
sg23
I5
sg24
I0
sbssg303
S'\x0f\x1e\xac\x00_hQ\xcb\xa2\xa8\xf4@\xb9\x97\x9c\x1e'
p656
ssS'user_system_views_signups_hardcoded_test_account_view'
p657
(dp658
g42
(dp659
g44
S'user_system_views_signups_hardcoded_test_account_view.html'
p660
sg46
S'user_system/views/signups/hardcoded/test_account_view'
p661
sg48
g13
(g14
g15
NtRp662
(dp663
g18
I1
sg19
I2
sg20
I18
sg21
I0
sg22
I0
sg23
I0
sg24
I0
sbssg51
S"\xb4\xf1\xfdH\x8f\xf1QX7'\\\xd3\xab.\xbc\x80"
p664
ssS'user_system_views_users_create_student_view'
p665
(dp666
g297
(dp667
g177
S'user_system_views_users_create_student_view.html'
p668
sg179
S'user_system/views/users/create_student_view'
p669
sg181
g13
(g14
g15
NtRp670
(dp671
g18
I1
sg19
I2
sg20
I37
sg21
I0
sg22
I0
sg23
I24
sg24
I2
sbssg303
S'\x8e\xce\xac\xe9\xe3J4\xbb\x88$\xefFS\x06Ow'
p672
ssS'teach_serializers_teacher_tags___init__'
p673
(dp674
g55
(dp675
g57
S'teach_serializers_teacher_tags___init__.html'
p676
sg59
S'teach/serializers/teacher_tags/__init__'
p677
sg61
g13
(g14
g15
NtRp678
(dp679
g18
I1
sg19
I0
sg20
I1
sg21
I0
sg22
I0
sg23
I0
sg24
I0
sbssg64
S'Q\xc1\xe2\xf5*\x8fJ\xddv\xe7\x91\xd1S\xf5\xa9\xa3'
p680
ssS'learn_models_daily_quests_tests___init__'
p681
(dp682
g55
(dp683
g57
S'learn_models_daily_quests_tests___init__.html'
p684
sg59
S'learn/models/daily_quests/tests/__init__'
p685
sg61
g13
(g14
g15
NtRp686
(dp687
g18
I1
sg19
I0
sg20
I1
sg21
I0
sg22
I0
sg23
I0
sg24
I0
sbssg64
S'\xbc\xd6\xeb\xb3\xba\xcaz\xf7{\xd4B\xb5}l\xdf\x96'
p688
ssS'user_system_views_signups___init__'
p689
(dp690
g42
(dp691
g449
S'user_system_views_signups___init__.html'
p692
sg451
S'user_system/views/signups/__init__'
p693
sg453
g13
(g14
g15
NtRp694
(dp695
g18
I1
sg19
I0
sg20
I4
sg21
I0
sg22
I0
sg23
I0
sg24
I0
sbssg51
S'\x02\x1d\x90mQ#+\xc5\x93\xdb\xa4Hs\xcf\xa8\x97'
p696
ssS'create_views_tags_tag_view'
p697
(dp698
g427
(dp699
g105
S'create_views_tags_tag_view.html'
p700
sg107
S'create/views/tags/tag_view'
p701
sg109
g13
(g14
g15
NtRp702
(dp703
g18
I1
sg19
I32
sg20
I92
sg21
I0
sg22
I8
sg23
I13
sg24
I16
sbssg436
S'\xd5\xd6\xf9\xa6U<\xf82\xe0xx\x06}\xa5\xeb\xe7'
p704
ssS'api_logging_managers'
p705
(dp706
g566
(dp707
g44
S'api_logging_managers.html'
p708
sg46
S'api_logging/managers'
p709
sg48
g13
(g14
g15
NtRp710
(dp711
g18
I1
sg19
I0
sg20
I4
sg21
I0
sg22
I0
sg23
I0
sg24
I0
sbssg572
S'\xef\xaf\x98\xcd63\x10\x1c\xc1\xfcP\x12\xc1\xe7\xa5\xc7'
p712
ssS'teach_models_campaigns_campaign_model'
p713
(dp714
g116
(dp715
g177
S'teach_models_campaigns_campaign_model.html'
p716
sg179
S'teach/models/campaigns/campaign_model'
p717
sg181
g13
(g14
g15
NtRp718
(dp719
g18
I1
sg19
I0
sg20
I40
sg21
I0
sg22
I0
sg23
I0
sg24
I0
sbssg122
S'>\xc8\xe2\xfb\xdd\xc1"@\xea/\xe1\xbb\xf1\xa4\x80\x0f'
p720
ssS'create_views_tags_tests_test_add_prerequisite_view'
p721
(dp722
g307
(dp723
g44
S'create_views_tags_tests_test_add_prerequisite_view.html'
p724
sg46
S'create/views/tags/tests/test_add_prerequisite_view'
p725
sg48
g13
(g14
g15
NtRp726
(dp727
g18
I1
sg19
I0
sg20
I26
sg21
I0
sg22
I0
sg23
I0
sg24
I0
sbssg313
S'\xd2\xef\x02\xe1{\xbc\x9b\xf3\x8b\xbd\xf0\xd2\xe7\xcc\xb5\xa4'
p728
ssS'create_models_tags___init__'
p729
(dp730
g383
(dp731
S'html_filename'
p732
S'create_models_tags___init__.html'
p733
sS'name'
p734
S'create/models/tags/__init__'
p735
sS'nums'
p736
g13
(g14
g15
NtRp737
(dp738
g18
I1
sg19
I0
sg20
I5
sg21
I0
sg22
I0
sg23
I0
sg24
I0
sbssg389
S'\xcck\xb0R5)\xa8c\xdb\xa6\xfb\xec\x18 \xde}'
p739
ssS'teach_models_campaigns_tests___init__'
p740
(dp741
g116
(dp742
g31
S'teach_models_campaigns_tests___init__.html'
p743
sg33
S'teach/models/campaigns/tests/__init__'
p744
sg35
g13
(g14
g15
NtRp745
(dp746
g18
I1
sg19
I0
sg20
I0
sg21
I0
sg22
I0
sg23
I0
sg24
I0
sbssg122
S'\x19g\xdfM\x1a\x019\xaf\x1baIeR\xe5u\xa7'
p747
ssS'learn_views_student_news_feed___init__'
p748
(dp749
g297
(dp750
g177
S'learn_views_student_news_feed___init__.html'
p751
sg179
S'learn/views/student_news_feed/__init__'
p752
sg181
g13
(g14
g15
NtRp753
(dp754
g18
I1
sg19
I0
sg20
I1
sg21
I0
sg22
I0
sg23
I0
sg24
I0
sbssg303
S'\xc5\x87\xccQ|\xa2\xee\x11p\x84\xfe\xed\xe3W\xfa\x07'
p755
ssS'create_models_daily_quests___init__'
p756
(dp757
S'index'
p758
(dp759
S'html_filename'
p760
S'create_models_daily_quests___init__.html'
p761
sS'name'
p762
S'create/models/daily_quests/__init__'
p763
sS'nums'
p764
g13
(g14
g15
NtRp765
(dp766
g18
I1
sg19
I0
sg20
I1
sg21
I0
sg22
I0
sg23
I0
sg24
I0
sbssS'hash'
p767
S'\x94\x0eB\xb3\x8e\xc6\x81\xc0\x16\x84P.\x11:\x8e\xc9'
p768
ssS'teach_views_teacher_chapters_teacher_chapter_view'
p769
(dp770
g55
(dp771
g31
S'teach_views_teacher_chapters_teacher_chapter_view.html'
p772
sg33
S'teach/views/teacher_chapters/teacher_chapter_view'
p773
sg35
g13
(g14
g15
NtRp774
(dp775
g18
I1
sg19
I12
sg20
I44
sg21
I0
sg22
I0
sg23
I25
sg24
I12
sbssg64
S'Z\xc5\n\xdb\xe5!2~7\xe3i\xa7j\xd4\x10\x8c'
p776
ssS'create_serializers_tags_concept_serializer'
p777
(dp778
g349
(dp779
S'html_filename'
p780
S'create_serializers_tags_concept_serializer.html'
p781
sS'name'
p782
S'create/serializers/tags/concept_serializer'
p783
sS'nums'
p784
g13
(g14
g15
NtRp785
(dp786
g18
I1
sg19
I0
sg20
I6
sg21
I0
sg22
I0
sg23
I0
sg24
I0
sbssg355
S'\xf1\xe0\xc7%%\xbd\xfc@\x12\x02\x96\xbb\x0c\xbf\x9fq'
p787
ssS'create_serializers_questions_question_history_remark_serializer'
p788
(dp789
g592
(dp790
g594
S'create_serializers_questions_question_history_remark_serializer.html'
p791
sg596
S'create/serializers/questions/question_history_remark_serializer'
p792
sg598
g13
(g14
g15
NtRp793
(dp794
g18
I1
sg19
I0
sg20
I6
sg21
I0
sg22
I0
sg23
I0
sg24
I0
sbssg601
S'\xb53\t\x11\xa6\x1b\xf7!D"\xc8\xa3\xcb41\x9d'
p795
ssS'user_system_models_roles_tests___init__'
p796
(dp797
g42
(dp798
g449
S'user_system_models_roles_tests___init__.html'
p799
sg451
S'user_system/models/roles/tests/__init__'
p800
sg453
g13
(g14
g15
NtRp801
(dp802
g18
I1
sg19
I0
sg20
I0
sg21
I0
sg22
I0
sg23
I0
sg24
I0
sbssg51
S'\x19g\xdfM\x1a\x019\xaf\x1baIeR\xe5u\xa7'
p803
ssS'create_serializers_tags___init__'
p804
(dp805
S'index'
p806
(dp807
S'html_filename'
p808
S'create_serializers_tags___init__.html'
p809
sS'name'
p810
S'create/serializers/tags/__init__'
p811
sS'nums'
p812
g13
(g14
g15
NtRp813
(dp814
g18
I1
sg19
I0
sg20
I0
sg21
I0
sg22
I0
sg23
I0
sg24
I0
sbssS'hash'
p815
S'\x19g\xdfM\x1a\x019\xaf\x1baIeR\xe5u\xa7'
p816
ssS'privilege_urls'
p817
(dp818
g287
(dp819
g93
S'privilege_urls.html'
p820
sg95
S'privilege/urls'
p821
sg97
g13
(g14
g15
NtRp822
(dp823
g18
I1
sg19
I0
sg20
I7
sg21
I0
sg22
I0
sg23
I0
sg24
I0
sbssg293
S'\x86\xbf\xcdE\x8fy\xc9\xd5\x13I\x11#-J.\xe8'
p824
ssS'flipped_helpers_time_helper'
p825
(dp826
g116
(dp827
g177
S'flipped_helpers_time_helper.html'
p828
sg179
S'flipped/helpers/time_helper'
p829
sg181
g13
(g14
g15
NtRp830
(dp831
g18
I1
sg19
I2
sg20
I26
sg21
I0
sg22
I0
sg23
I17
sg24
I2
sbssg122
S'\xc4\x9dt\xafh9\xf1\xa5\xbe\xbd\xe6\xb9G\xd0\xcf\xad'
p832
ssS'create_serializers_daily_quests___init__'
p833
(dp834
g758
(dp835
g244
S'create_serializers_daily_quests___init__.html'
p836
sg246
S'create/serializers/daily_quests/__init__'
p837
sg248
g13
(g14
g15
NtRp838
(dp839
g18
I1
sg19
I0
sg20
I1
sg21
I0
sg22
I0
sg23
I0
sg24
I0
sbssg767
S'N\xb8\x18\x1c\x0c\xc7\xca\x91\xa0|\xe1\x02L\xeeC\xbe'
p840
ssS'api_logging_views_LoggingView'
p841
(dp842
g297
(dp843
g177
S'api_logging_views_LoggingView.html'
p844
sg179
S'api_logging/views/LoggingView'
p845
sg181
g13
(g14
g15
NtRp846
(dp847
g18
I1
sg19
I8
sg20
I41
sg21
I0
sg22
I0
sg23
I27
sg24
I8
sbssg303
S'\xe3\xefQ\x1e\x9e\xec\xea\xa7\xc5\x05\xb9\x90\xf6\xf3\x88\x9b'
p848
ssS'create_models_questions_tests_test_question_type_model'
p849
(dp850
g42
(dp851
g44
S'create_models_questions_tests_test_question_type_model.html'
p852
sg46
S'create/models/questions/tests/test_question_type_model'
p853
sg48
g13
(g14
g15
NtRp854
(dp855
g18
I1
sg19
I0
sg20
I17
sg21
I0
sg22
I0
sg23
I0
sg24
I0
sbssg51
S'e\x1b\x19\xbb)\x89\xff\xfa\xe5\xca\xde\x08\x08CUL'
p856
ssS'teach_models___init__'
p857
(dp858
g55
(dp859
g31
S'teach_models___init__.html'
p860
sg33
S'teach/models/__init__'
p861
sg35
g13
(g14
g15
NtRp862
(dp863
g18
I1
sg19
I0
sg20
I4
sg21
I0
sg22
I0
sg23
I0
sg24
I0
sbssg64
S'\x18\xb4\x9a\xf6\x89\xe4oR\x81\xdbb\xf7E\xf9\x92\xb7'
p864
ssS'create_models_tags_skill_model'
p865
(dp866
g383
(dp867
g44
S'create_models_tags_skill_model.html'
p868
sg46
S'create/models/tags/skill_model'
p869
sg48
g13
(g14
g15
NtRp870
(dp871
g18
I1
sg19
I0
sg20
I10
sg21
I0
sg22
I0
sg23
I0
sg24
I0
sbssg389
S'B&\x06S\xb6\x85A\xdbx\xd4\xc7#]\x13\xe1\xca'
p872
ssS'learn_tests'
p873
(dp874
g55
(dp875
g57
S'learn_tests.html'
p876
sg59
S'learn/tests'
p877
sg61
g13
(g14
g15
NtRp878
(dp879
g18
I1
sg19
I0
sg20
I1
sg21
I0
sg22
I0
sg23
I0
sg24
I0
sbssg64
S'\xe3\x7f\x86\xaa\x99\xac\xc8\x80\xdblE4\x0f\xe7\x1d\xfc'
p880
ssS'learn_models_daily_quests_daily_quest_model'
p881
(dp882
g55
(dp883
g403
S'learn_models_daily_quests_daily_quest_model.html'
p884
sg405
S'learn/models/daily_quests/daily_quest_model'
p885
sg407
g13
(g14
g15
NtRp886
(dp887
g18
I1
sg19
I22
sg20
I123
sg21
I0
sg22
I1
sg23
I29
sg24
I15
sbssg64
S'+\xe7\xa0;\xff\x9b\x90@V}\xc8\x16\xfc\x80m@'
p888
ssS'api_logging_views___init__'
p889
(dp890
g297
(dp891
g177
S'api_logging_views___init__.html'
p892
sg179
S'api_logging/views/__init__'
p893
sg181
g13
(g14
g15
NtRp894
(dp895
g18
I1
sg19
I0
sg20
I3
sg21
I0
sg22
I0
sg23
I0
sg24
I0
sbssg303
S'_Q\x0f\x0cLb\xd8Cm\xa7\x81g\xaa\x95\xbdd'
p896
ssS'create_models_books___init__'
p897
(dp898
g349
(dp899
g780
S'create_models_books___init__.html'
p900
sg782
S'create/models/books/__init__'
p901
sg784
g13
(g14
g15
NtRp902
(dp903
g18
I1
sg19
I0
sg20
I4
sg21
I0
sg22
I0
sg23
I0
sg24
I0
sbssg355
S'\xba\x14\x87u\xc0\x80\x96\x82s\x8d\x8bU)\x1c\xc3\x91'
p904
ssS'flipped_helpers___init__'
p905
(dp906
g42
(dp907
g177
S'flipped_helpers___init__.html'
p908
sg179
S'flipped/helpers/__init__'
p909
sg181
g13
(g14
g15
NtRp910
(dp911
g18
I1
sg19
I0
sg20
I5
sg21
I0
sg22
I0
sg23
I0
sg24
I0
sbssg51
S'\x95\xcd\x9a\xf9\xe3\xd8\xff\x94\x81\xae\x9c\x14\xc0P\x95~'
p912
ssS'create_models_quests_tests_test_quest_model'
p913
(dp914
g103
(dp915
g548
S'create_models_quests_tests_test_quest_model.html'
p916
sg550
S'create/models/quests/tests/test_quest_model'
p917
sg552
g13
(g14
g15
NtRp918
(dp919
g18
I1
sg19
I4
sg20
I48
sg21
I0
sg22
I0
sg23
I0
sg24
I0
sbssg112
S'\xcdF\x98\xd0k\x14\x9e\xe4\x90\x96\x03\xddNdiH'
p920
ssS'privilege_views_privileges_user_privilege_view'
p921
(dp922
g287
(dp923
g93
S'privilege_views_privileges_user_privilege_view.html'
p924
sg95
S'privilege/views/privileges/user_privilege_view'
p925
sg97
g13
(g14
g15
NtRp926
(dp927
g18
I1
sg19
I10
sg20
I38
sg21
I0
sg22
I0
sg23
I22
sg24
I10
sbssg293
S'\xf699\xa5A\xca\x9e\x91,l\xf8\x8dI[PR'
p928
ssS'learn_models_daily_quests_tests_test_daily_quest_model'
p929
(dp930
g55
(dp931
g403
S'learn_models_daily_quests_tests_test_daily_quest_model.html'
p932
sg405
S'learn/models/daily_quests/tests/test_daily_quest_model'
p933
sg407
g13
(g14
g15
NtRp934
(dp935
g18
I1
sg19
I2
sg20
I138
sg21
I0
sg22
I0
sg23
I1
sg24
I0
sbssg64
S'\xee\x19y\xa1\xbe\xc9\x14\xd2\xaa\xa3\xcd.\xa4ueo'
p936
ssS'create_views_books_tests_test_get_book_by_id_view'
p937
(dp938
S'index'
p939
(dp940
g93
S'create_views_books_tests_test_get_book_by_id_view.html'
p941
sg95
S'create/views/books/tests/test_get_book_by_id_view'
p942
sg97
g13
(g14
g15
NtRp943
(dp944
g18
I1
sg19
I0
sg20
I20
sg21
I0
sg22
I0
sg23
I0
sg24
I0
sbssS'hash'
p945
S'\xc88x\xaf\x84e\xaa6\x17\xdf\x0e\x8c`\xcaAO'
p946
ssS'user_system_views_apps_tests_test_get_app_by_id_view'
p947
(dp948
g42
(dp949
g44
S'user_system_views_apps_tests_test_get_app_by_id_view.html'
p950
sg46
S'user_system/views/apps/tests/test_get_app_by_id_view'
p951
sg48
g13
(g14
g15
NtRp952
(dp953
g18
I1
sg19
I0
sg20
I17
sg21
I0
sg22
I0
sg23
I0
sg24
I0
sbssg51
S"\xa2\x1eG%r{-~\xc5=\x8aj\x99X!'"
p954
ssS'teach_views_daily_quest_templates_daily_quest_template_view'
p955
(dp956
g55
(dp957
S'html_filename'
p958
S'teach_views_daily_quest_templates_daily_quest_template_view.html'
p959
sS'name'
p960
S'teach/views/daily_quest_templates/daily_quest_template_view'
p961
sS'nums'
p962
g13
(g14
g15
NtRp963
(dp964
g18
I1
sg19
I18
sg20
I54
sg21
I0
sg22
I0
sg23
I33
sg24
I18
sbssg64
S'\x97J\xccM\x9b\xcd1\xaf\x95\xea\xd8\x8d\xdc(\x89['
p965
ssS'api_logging_views_summary___init__'
p966
(dp967
g297
(dp968
g177
S'api_logging_views_summary___init__.html'
p969
sg179
S'api_logging/views/summary/__init__'
p970
sg181
g13
(g14
g15
NtRp971
(dp972
g18
I1
sg19
I0
sg20
I1
sg21
I0
sg22
I0
sg23
I0
sg24
I0
sbssg303
S'\x04\x12bh\x96\xc5j\x88dm\x0e\xd7\xe1\x94Lq'
p973
ssS'privilege_serializers___init__'
p974
(dp975
g287
(dp976
g93
S'privilege_serializers___init__.html'
p977
sg95
S'privilege/serializers/__init__'
p978
sg97
g13
(g14
g15
NtRp979
(dp980
g18
I1
sg19
I0
sg20
I1
sg21
I0
sg22
I0
sg23
I0
sg24
I0
sbssg293
S'\x13V\xca}S\xd3\x98Rp?\xb0\xe1\x904>b'
p981
ssS'create_models_books_tests_test_book_subchapter_model'
p982
(dp983
g349
(dp984
S'html_filename'
p985
S'create_models_books_tests_test_book_subchapter_model.html'
p986
sS'name'
p987
S'create/models/books/tests/test_book_subchapter_model'
p988
sS'nums'
p989
g13
(g14
g15
NtRp990
(dp991
g18
I1
sg19
I0
sg20
I42
sg21
I0
sg22
I0
sg23
I0
sg24
I0
sbssg355
S'\xe3*\xba\x94d#\xcd\t\xc9\xb8\x05w\nz\xb8\xc0'
p992
ssS'learn_models_daily_quests___init__'
p993
(dp994
g55
(dp995
S'html_filename'
p996
S'learn_models_daily_quests___init__.html'
p997
sS'name'
p998
S'learn/models/daily_quests/__init__'
p999
sS'nums'
p1000
g13
(g14
g15
NtRp1001
(dp1002
g18
I1
sg19
I0
sg20
I2
sg21
I0
sg22
I0
sg23
I0
sg24
I0
sbssg64
S's\x11\xbfV}\xab\xfcdH\xcf4Q\xc5\x86\xa3\xb4'
p1003
ssS'create_models_daily_quest_templates_tests___init__'
p1004
(dp1005
g242
(dp1006
g244
S'create_models_daily_quest_templates_tests___init__.html'
p1007
sg246
S'create/models/daily_quest_templates/tests/__init__'
p1008
sg248
g13
(g14
g15
NtRp1009
(dp1010
g18
I1
sg19
I0
sg20
I0
sg21
I0
sg22
I0
sg23
I0
sg24
I0
sbssg251
S'\x19g\xdfM\x1a\x019\xaf\x1baIeR\xe5u\xa7'
p1011
ssS'create_models_tags_tag_model'
p1012
(dp1013
g383
(dp1014
g93
S'create_models_tags_tag_model.html'
p1015
sg95
S'create/models/tags/tag_model'
p1016
sg97
g13
(g14
g15
NtRp1017
(dp1018
g18
I1
sg19
I0
sg20
I37
sg21
I0
sg22
I0
sg23
I0
sg24
I0
sbssg389
S'rJ0\x91]\xe5\xfc\xa8\x8c\x00}RI\x18\xf0\x07'
p1019
ssS'create_views_tags___init__'
p1020
(dp1021
g427
(dp1022
g429
S'create_views_tags___init__.html'
p1023
sg431
S'create/views/tags/__init__'
p1024
sg433
g13
(g14
g15
NtRp1025
(dp1026
g18
I1
sg19
I0
sg20
I1
sg21
I0
sg22
I0
sg23
I0
sg24
I0
sbssg436
S'|r<\xaap\x01\xb1\xbc"\xe5\xbb\xd8\x87\xa5\xd2H'
p1027
ssS'create_serializers_tags_skill_serializer'
p1028
(dp1029
g349
(dp1030
g780
S'create_serializers_tags_skill_serializer.html'
p1031
sg782
S'create/serializers/tags/skill_serializer'
p1032
sg784
g13
(g14
g15
NtRp1033
(dp1034
g18
I1
sg19
I0
sg20
I6
sg21
I0
sg22
I0
sg23
I0
sg24
I0
sbssg355
S'\x1b\x10O\xca\xd5i\\\x06C\x00q}\xf43\xcb\xa6'
p1035
ssS'create_views_questions_question_history_remark_view'
p1036
(dp1037
g592
(dp1038
g594
S'create_views_questions_question_history_remark_view.html'
p1039
sg596
S'create/views/questions/question_history_remark_view'
p1040
sg598
g13
(g14
g15
NtRp1041
(dp1042
g18
I1
sg19
I0
sg20
I14
sg21
I0
sg22
I0
sg23
I0
sg24
I0
sbssg601
S'{4O\x0e\xb3\xad\xc8\xb72\x8f\x1f\x11\xc0\x9e\xa0\xd6'
p1043
ssS'create_serializers_tags_tag_type_serializer'
p1044
(dp1045
g349
(dp1046
g780
S'create_serializers_tags_tag_type_serializer.html'
p1047
sg782
S'create/serializers/tags/tag_type_serializer'
p1048
sg784
g13
(g14
g15
NtRp1049
(dp1050
g18
I1
sg19
I0
sg20
I6
sg21
I0
sg22
I0
sg23
I0
sg24
I0
sbssg355
S'\xc3\xfd\x81\x18{\x97,\xb1\xb6\x9f\xee\xf2kZ\x1e\x02'
p1051
ssS'learn_models_points_tests_test_point_history_model'
p1052
(dp1053
g297
(dp1054
g177
S'learn_models_points_tests_test_point_history_model.html'
p1055
sg179
S'learn/models/points/tests/test_point_history_model'
p1056
sg181
g13
(g14
g15
NtRp1057
(dp1058
g18
I1
sg19
I0
sg20
I22
sg21
I0
sg22
I0
sg23
I0
sg24
I0
sbssg303
S"\x8d\xd7\x96\xe4\x1b\xf6\xc4\xed:B\x13\xa9MA'\x99"
p1059
ssS'learn_serializers_daily_quests_daily_quest_serializer'
p1060
(dp1061
g55
(dp1062
g177
S'learn_serializers_daily_quests_daily_quest_serializer.html'
p1063
sg179
S'learn/serializers/daily_quests/daily_quest_serializer'
p1064
sg181
g13
(g14
g15
NtRp1065
(dp1066
g18
I1
sg19
I2
sg20
I61
sg21
I0
sg22
I0
sg23
I27
sg24
I2
sbssg64
S'\x00\xdc)#U\xf8\x03\xc2\xa7T\x0b\xa9\x13\xa3ds'
p1067
ssS'user_system_models_users_tests_test_user_profile_picture_model'
p1068
(dp1069
g116
(dp1070
g31
S'user_system_models_users_tests_test_user_profile_picture_model.html'
p1071
sg33
S'user_system/models/users/tests/test_user_profile_picture_model'
p1072
sg35
g13
(g14
g15
NtRp1073
(dp1074
g18
I1
sg19
I0
sg20
I21
sg21
I0
sg22
I0
sg23
I0
sg24
I0
sbssg122
S'\xbc/\x93\xf6\x8a\x1eC\x99t\xd0\xdc\x96\xf8\x970\xc9'
p1075
ssS'teach_views_teacher_news_feed_teacher_news_feed_view'
p1076
(dp1077
g297
(dp1078
S'html_filename'
p1079
S'teach_views_teacher_news_feed_teacher_news_feed_view.html'
p1080
sS'name'
p1081
S'teach/views/teacher_news_feed/teacher_news_feed_view'
p1082
sS'nums'
p1083
g13
(g14
g15
NtRp1084
(dp1085
g18
I1
sg19
I2
sg20
I40
sg21
I0
sg22
I0
sg23
I20
sg24
I2
sbssg303
S'\x91\x13LD\x93S\xb7\xc7F\x89y\x9f\x0cO\xb9_'
p1086
ssS'user_system_serializers_schools_organization_serializer'
p1087
(dp1088
g55
(dp1089
g57
S'user_system_serializers_schools_organization_serializer.html'
p1090
sg59
S'user_system/serializers/schools/organization_serializer'
p1091
sg61
g13
(g14
g15
NtRp1092
(dp1093
g18
I1
sg19
I0
sg20
I7
sg21
I0
sg22
I0
sg23
I0
sg24
I0
sbssg64
S'90~\xe3\x8f\x8e\xd9m\xb4\nInn\x03(\xdb'
p1094
ssS'create_models_books_book_subchapter_model'
p1095
(dp1096
g349
(dp1097
S'html_filename'
p1098
S'create_models_books_book_subchapter_model.html'
p1099
sS'name'
p1100
S'create/models/books/book_subchapter_model'
p1101
sS'nums'
p1102
g13
(g14
g15
NtRp1103
(dp1104
g18
I1
sg19
I2
sg20
I45
sg21
I0
sg22
I0
sg23
I0
sg24
I0
sbssg355
S'\xbc\xee\x91\x7f;\xa9\x15\xeaau\xef\x82\x07"\x02\xd3'
p1105
ssS'teach_views_summaries_leaderboard_view'
p1106
(dp1107
g297
(dp1108
g1079
S'teach_views_summaries_leaderboard_view.html'
p1109
sg1081
S'teach/views/summaries/leaderboard_view'
p1110
sg1083
g13
(g14
g15
NtRp1111
(dp1112
g18
I1
sg19
I62
sg20
I155
sg21
I0
sg22
I0
sg23
I125
sg24
I62
sbssg303
S'\x82\xc6\xd6)\x18%mB\x8bR\xb5\x7f\xafO\xa1\x8c'
p1113
ssS'api_logging_serializers_modal_loggings_modal_user_history_serializer'
p1114
(dp1115
g297
(dp1116
g177
S'api_logging_serializers_modal_loggings_modal_user_history_serializer.html'
p1117
sg179
S'api_logging/serializers/modal_loggings/modal_user_history_serializer'
p1118
sg181
g13
(g14
g15
NtRp1119
(dp1120
g18
I1
sg19
I0
sg20
I7
sg21
I0
sg22
I0
sg23
I0
sg24
I0
sbssg303
S'\xc2\x8f\x89\xe8$\x9c~\x81\xa9\xca\xf8h\x80\xb7hp'
p1121
ssS'learn_models_points___init__'
p1122
(dp1123
g297
(dp1124
g177
S'learn_models_points___init__.html'
p1125
sg179
S'learn/models/points/__init__'
p1126
sg181
g13
(g14
g15
NtRp1127
(dp1128
g18
I1
sg19
I0
sg20
I2
sg21
I0
sg22
I0
sg23
I0
sg24
I0
sbssg303
S'\x1d_\xe1\xcei\x14zD\xd7\x8e\xa1\xf55\x1f\xd1\xd5'
p1129
ssS'api_logging_models___init__'
p1130
(dp1131
g297
(dp1132
g177
S'api_logging_models___init__.html'
p1133
sg179
S'api_logging/models/__init__'
p1134
sg181
g13
(g14
g15
NtRp1135
(dp1136
g18
I1
sg19
I0
sg20
I3
sg21
I0
sg22
I0
sg23
I0
sg24
I0
sbssg303
S'\x9d\r\xed\xba\xe8h@\xa4\xfa(\xf2\xdf\xf5IZ\x9c'
p1137
ssS'teach_serializers___init__'
p1138
(dp1139
g55
(dp1140
g57
S'teach_serializers___init__.html'
p1141
sg59
S'teach/serializers/__init__'
p1142
sg61
g13
(g14
g15
NtRp1143
(dp1144
g18
I1
sg19
I0
sg20
I3
sg21
I0
sg22
I0
sg23
I0
sg24
I0
sbssg64
S'3\x13\x12&\xcb\xecC\xee\xa8lR\x1a\x1d\xb9M\xba'
p1145
ssS'user_system_views_signups_tests___init__'
p1146
(dp1147
g42
(dp1148
g449
S'user_system_views_signups_tests___init__.html'
p1149
sg451
S'user_system/views/signups/tests/__init__'
p1150
sg453
g13
(g14
g15
NtRp1151
(dp1152
g18
I1
sg19
I0
sg20
I1
sg21
I0
sg22
I0
sg23
I0
sg24
I0
sbssg51
S'\xbc\xd6\xeb\xb3\xba\xcaz\xf7{\xd4B\xb5}l\xdf\x96'
p1153
ssS'create_models_daily_quests_tests___init__'
p1154
(dp1155
g758
(dp1156
g760
S'create_models_daily_quests_tests___init__.html'
p1157
sg762
S'create/models/daily_quests/tests/__init__'
p1158
sg764
g13
(g14
g15
NtRp1159
(dp1160
g18
I1
sg19
I0
sg20
I1
sg21
I0
sg22
I0
sg23
I0
sg24
I0
sbssg767
S'\xbc\xd6\xeb\xb3\xba\xcaz\xf7{\xd4B\xb5}l\xdf\x96'
p1161
ssS'api_logging_models_api_logging___init__'
p1162
(dp1163
g297
(dp1164
g177
S'api_logging_models_api_logging___init__.html'
p1165
sg179
S'api_logging/models/api_logging/__init__'
p1166
sg181
g13
(g14
g15
NtRp1167
(dp1168
g18
I1
sg19
I0
sg20
I1
sg21
I0
sg22
I0
sg23
I0
sg24
I0
sbssg303
S'C\xe8\xcf\x97-\xc6\xd3j\xcb\x90*\xea\xd3w\x83\xe0'
p1169
ssS'create_serializers_daily_quests_daily_quest_serializer'
p1170
(dp1171
g242
(dp1172
S'html_filename'
p1173
S'create_serializers_daily_quests_daily_quest_serializer.html'
p1174
sS'name'
p1175
S'create/serializers/daily_quests/daily_quest_serializer'
p1176
sS'nums'
p1177
g13
(g14
g15
NtRp1178
(dp1179
g18
I1
sg19
I0
sg20
I12
sg21
I0
sg22
I0
sg23
I3
sg24
I0
sbssg251
S' $!\xf6\xe6\x92\x9f\x9f\xafy\xe9\x8b\x1c\xf4\xb6\x01'
p1180
ssS'user_system_views_signups_email_signup_view'
p1181
(dp1182
g42
(dp1183
g44
S'user_system_views_signups_email_signup_view.html'
p1184
sg46
S'user_system/views/signups/email_signup_view'
p1185
sg48
g13
(g14
g15
NtRp1186
(dp1187
g18
I1
sg19
I8
sg20
I44
sg21
I0
sg22
I0
sg23
I0
sg24
I0
sbssg51
S'&G\xd1\xc4{\x9b\xbf\x14\x92F\xbe\x13\xeer\x84\x1b'
p1188
ssS'teach_views_teacher_tags___init__'
p1189
(dp1190
g55
(dp1191
g57
S'teach_views_teacher_tags___init__.html'
p1192
sg59
S'teach/views/teacher_tags/__init__'
p1193
sg61
g13
(g14
g15
NtRp1194
(dp1195
g18
I1
sg19
I0
sg20
I1
sg21
I0
sg22
I0
sg23
I0
sg24
I0
sbssg64
S'cp\x00\xdc\x00\xe5M\x9f\x1f\xaa\xb2Y\xd9%\x1d"'
p1196
ssS'flipped_helpers_success_response_helper'
p1197
(dp1198
g42
(dp1199
g44
S'flipped_helpers_success_response_helper.html'
p1200
sg46
S'flipped/helpers/success_response_helper'
p1201
sg48
g13
(g14
g15
NtRp1202
(dp1203
g18
I1
sg19
I2
sg20
I4
sg21
I0
sg22
I0
sg23
I0
sg24
I0
sbssg51
S"'Bp\xbe\xd9\xfa\x92\xa4;\xb6\t\xa8\xfe<\x9d\xa5"
p1204
ssS'create_models_questions_question_model'
p1205
(dp1206
g42
(dp1207
S'html_filename'
p1208
S'create_models_questions_question_model.html'
p1209
sS'name'
p1210
S'create/models/questions/question_model'
p1211
sS'nums'
p1212
g13
(g14
g15
NtRp1213
(dp1214
g18
I1
sg19
I0
sg20
I48
sg21
I0
sg22
I0
sg23
I0
sg24
I0
sbssg51
S'\tGy\xb6\x10\x17dQ\xd7\xd8N>\xd5\x96R\x82'
p1215
ssS'user_system_models_roles___init__'
p1216
(dp1217
g42
(dp1218
g449
S'user_system_models_roles___init__.html'
p1219
sg451
S'user_system/models/roles/__init__'
p1220
sg453
g13
(g14
g15
NtRp1221
(dp1222
g18
I1
sg19
I0
sg20
I2
sg21
I0
sg22
I0
sg23
I0
sg24
I0
sbssg51
S'\xa3\xc2\r\x1b\x1bC\x85\xa5\xads\x7fl\xab`*1'
p1223
ssS'create_models_questions_question_history_model'
p1224
(dp1225
g42
(dp1226
g93
S'create_models_questions_question_history_model.html'
p1227
sg95
S'create/models/questions/question_history_model'
p1228
sg97
g13
(g14
g15
NtRp1229
(dp1230
g18
I1
sg19
I8
sg20
I68
sg21
I0
sg22
I2
sg23
I2
sg24
I2
sbssg51
S'\xd0\xe9\x0bm$j\x15\x9b@\x93\xe5C\xa7\x97\xfd\xf4'
p1231
ssS'user_system_views_signups_tests_test_facebook_signup_view'
p1232
(dp1233
g42
(dp1234
g44
S'user_system_views_signups_tests_test_facebook_signup_view.html'
p1235
sg46
S'user_system/views/signups/tests/test_facebook_signup_view'
p1236
sg48
g13
(g14
g15
NtRp1237
(dp1238
g18
I1
sg19
I0
sg20
I60
sg21
I0
sg22
I0
sg23
I0
sg24
I0
sbssg51
S'\x93<\xc8]\x14\t\xa8/\xdd\xd1\xa4]\xfbp!\xbd'
p1239
ssS'user_system_models_users_tests_test_teacher_mapping_model'
p1240
(dp1241
g29
(dp1242
S'html_filename'
p1243
S'user_system_models_users_tests_test_teacher_mapping_model.html'
p1244
sS'name'
p1245
S'user_system/models/users/tests/test_teacher_mapping_model'
p1246
sS'nums'
p1247
g13
(g14
g15
NtRp1248
(dp1249
g18
I1
sg19
I4
sg20
I35
sg21
I0
sg22
I0
sg23
I0
sg24
I0
sbssg38
S'\x96\x93\xca\x00>\xf7\xc8\xe6:\xb8\x7f\xf5q:\xb6\xaa'
p1250
ssS'learn_views_daily_quests_daily_quest_view'
p1251
(dp1252
g55
(dp1253
g177
S'learn_views_daily_quests_daily_quest_view.html'
p1254
sg179
S'learn/views/daily_quests/daily_quest_view'
p1255
sg181
g13
(g14
g15
NtRp1256
(dp1257
g18
I1
sg19
I16
sg20
I61
sg21
I0
sg22
I0
sg23
I40
sg24
I16
sbssg64
S'\xceiA\x93\xcd>Y\x85L\x07Oz\x9aw\xae;'
p1258
ssS'teach_views_summaries_class_ranking_view'
p1259
(dp1260
g297
(dp1261
g958
S'teach_views_summaries_class_ranking_view.html'
p1262
sg960
S'teach/views/summaries/class_ranking_view'
p1263
sg962
g13
(g14
g15
NtRp1264
(dp1265
g18
I1
sg19
I26
sg20
I84
sg21
I0
sg22
I0
sg23
I61
sg24
I26
sbssg303
S'\xc1\xb3\x83\xe8\x85\xc5\xa4\x88\t\xd0(\xe7\xda\xea\x18\x82'
p1266
ssS'privilege_models_privileges_tests___init__'
p1267
(dp1268
g287
(dp1269
g93
S'privilege_models_privileges_tests___init__.html'
p1270
sg95
S'privilege/models/privileges/tests/__init__'
p1271
sg97
g13
(g14
g15
NtRp1272
(dp1273
g18
I1
sg19
I0
sg20
I0
sg21
I0
sg22
I0
sg23
I0
sg24
I0
sbssg293
S'\x19g\xdfM\x1a\x019\xaf\x1baIeR\xe5u\xa7'
p1274
ssS'teach_serializers_teacher_chapters___init__'
p1275
(dp1276
g55
(dp1277
g57
S'teach_serializers_teacher_chapters___init__.html'
p1278
sg59
S'teach/serializers/teacher_chapters/__init__'
p1279
sg61
g13
(g14
g15
NtRp1280
(dp1281
g18
I1
sg19
I0
sg20
I1
sg21
I0
sg22
I0
sg23
I0
sg24
I0
sbssg64
S'\xfe\x88\xda\x10\xec!\x99\xb7-\x8d\x90E\xe18K\xb1'
p1282
ssS'api_logging_admin'
p1283
(dp1284
g566
(dp1285
g177
S'api_logging_admin.html'
p1286
sg179
S'api_logging/admin'
p1287
sg181
g13
(g14
g15
NtRp1288
(dp1289
g18
I1
sg19
I0
sg20
I10
sg21
I0
sg22
I0
sg23
I0
sg24
I0
sbssg572
S'T\x93\x03\xbcO>\xd1\xd6\xf4\xd3\x15r{\xad0B'
p1290
ssS'user_system_models_users_user_streak_history_model'
p1291
(dp1292
g297
(dp1293
g1243
S'user_system_models_users_user_streak_history_model.html'
p1294
sg1245
S'user_system/models/users/user_streak_history_model'
p1295
sg1247
g13
(g14
g15
NtRp1296
(dp1297
g18
I1
sg19
I0
sg20
I28
sg21
I0
sg22
I0
sg23
I0
sg24
I0
sbssg303
S'w\x85uw\r5\x1a\xa5\xea>\xdaqki`p'
p1298
ssS'create_models_tags_tests_test_concept_model'
p1299
(dp1300
g383
(dp1301
g44
S'create_models_tags_tests_test_concept_model.html'
p1302
sg46
S'create/models/tags/tests/test_concept_model'
p1303
sg48
g13
(g14
g15
NtRp1304
(dp1305
g18
I1
sg19
I0
sg20
I12
sg21
I0
sg22
I0
sg23
I0
sg24
I0
sbssg389
S'@\x95\xd9\xf7\xa5\xc4\x0c\xb1\xad\xa4\xf5p\x95\x06!N'
p1306
ssS'privilege_models_privileges_privilege_model'
p1307
(dp1308
g287
(dp1309
g1243
S'privilege_models_privileges_privilege_model.html'
p1310
sg1245
S'privilege/models/privileges/privilege_model'
p1311
sg1247
g13
(g14
g15
NtRp1312
(dp1313
g18
I1
sg19
I0
sg20
I29
sg21
I0
sg22
I0
sg23
I0
sg24
I0
sbssg293
S'\xa3\xbf\x7fn\x8c\xe8#\xf8\xa9\x95#\xc7\xdb\xf0Y\xe6'
p1314
ssS'create_models_questions_tests_test_question_choice_model'
p1315
(dp1316
g42
(dp1317
S'html_filename'
p1318
S'create_models_questions_tests_test_question_choice_model.html'
p1319
sS'name'
p1320
S'create/models/questions/tests/test_question_choice_model'
p1321
sS'nums'
p1322
g13
(g14
g15
NtRp1323
(dp1324
g18
I1
sg19
I0
sg20
I46
sg21
I0
sg22
I0
sg23
I0
sg24
I0
sbssg51
S'$\x08N\xfb\nW\n\xecG\x9a[\xb7\xe2\xc1\xbd\x06'
p1325
ssS'user_system_views_users_tests_test_get_user_by_id_view'
p1326
(dp1327
g42
(dp1328
g93
S'user_system_views_users_tests_test_get_user_by_id_view.html'
p1329
sg95
S'user_system/views/users/tests/test_get_user_by_id_view'
p1330
sg97
g13
(g14
g15
NtRp1331
(dp1332
g18
I1
sg19
I0
sg20
I27
sg21
I0
sg22
I0
sg23
I0
sg24
I0
sbssg51
S'\xd7\x7f\x0c\xb9\xda.\xf1\x82\xb4\xdf*z\x10(o)'
p1333
ssS'create_models___init__'
p1334
(dp1335
g42
(dp1336
g57
S'create_models___init__.html'
p1337
sg59
S'create/models/__init__'
p1338
sg61
g13
(g14
g15
NtRp1339
(dp1340
g18
I1
sg19
I0
sg20
I6
sg21
I0
sg22
I0
sg23
I0
sg24
I0
sbssg51
S'\x1a\xde\xff\xb8/\x08R\x8e\xff\x13\x8b\xeb`\xfd\x98\xf8'
p1341
ssS'create_serializers_tags_tag_history_serializer'
p1342
(dp1343
S'index'
p1344
(dp1345
g105
S'create_serializers_tags_tag_history_serializer.html'
p1346
sg107
S'create/serializers/tags/tag_history_serializer'
p1347
sg109
g13
(g14
g15
NtRp1348
(dp1349
g18
I1
sg19
I0
sg20
I14
sg21
I0
sg22
I0
sg23
I0
sg24
I0
sbssS'hash'
p1350
S'\xc1"\xf9l4\xe66\x8a\xd0)r!\x05Y+\xd2'
p1351
ssS'create_serializers_daily_quest_templates___init__'
p1352
(dp1353
g242
(dp1354
g244
S'create_serializers_daily_quest_templates___init__.html'
p1355
sg246
S'create/serializers/daily_quest_templates/__init__'
p1356
sg248
g13
(g14
g15
NtRp1357
(dp1358
g18
I1
sg19
I0
sg20
I1
sg21
I0
sg22
I0
sg23
I0
sg24
I0
sbssg251
S'\xa2\xd34\x1b\xe2+\x16\xa9un\x8f\xa5\xe6\xc4\\p'
p1359
ssS'user_system_views_roles_tests___init__'
p1360
(dp1361
g42
(dp1362
g449
S'user_system_views_roles_tests___init__.html'
p1363
sg451
S'user_system/views/roles/tests/__init__'
p1364
sg453
g13
(g14
g15
NtRp1365
(dp1366
g18
I1
sg19
I0
sg20
I0
sg21
I0
sg22
I0
sg23
I0
sg24
I0
sbssg51
S'\x19g\xdfM\x1a\x019\xaf\x1baIeR\xe5u\xa7'
p1367
ssS'api_logging_models_modal_logging___init__'
p1368
(dp1369
g297
(dp1370
g177
S'api_logging_models_modal_logging___init__.html'
p1371
sg179
S'api_logging/models/modal_logging/__init__'
p1372
sg181
g13
(g14
g15
NtRp1373
(dp1374
g18
I1
sg19
I0
sg20
I2
sg21
I0
sg22
I0
sg23
I0
sg24
I0
sbssg303
S"+\x16\xa4\xd1\xf5m\xa9\x9e*\xd0\xa23O'}-"
p1375
ssS'user_system_serializers___init__'
p1376
(dp1377
g42
(dp1378
g57
S'user_system_serializers___init__.html'
p1379
sg59
S'user_system/serializers/__init__'
p1380
sg61
g13
(g14
g15
NtRp1381
(dp1382
g18
I1
sg19
I0
sg20
I3
sg21
I0
sg22
I0
sg23
I0
sg24
I0
sbssg51
S'\x85\x12\xbd.\x85L4\xea\t4\x9c\xcf\xb5 \x81\xb4'
p1383
ssS'teach_models_daily_quest_templates_tests___init__'
p1384
(dp1385
g55
(dp1386
g57
S'teach_models_daily_quest_templates_tests___init__.html'
p1387
sg59
S'teach/models/daily_quest_templates/tests/__init__'
p1388
sg61
g13
(g14
g15
NtRp1389
(dp1390
g18
I1
sg19
I0
sg20
I0
sg21
I0
sg22
I0
sg23
I0
sg24
I0
sbssg64
S'\x19g\xdfM\x1a\x019\xaf\x1baIeR\xe5u\xa7'
p1391
ssS'user_system_serializers_schools_grade_serializer'
p1392
(dp1393
g116
(dp1394
g31
S'user_system_serializers_schools_grade_serializer.html'
p1395
sg33
S'user_system/serializers/schools/grade_serializer'
p1396
sg35
g13
(g14
g15
NtRp1397
(dp1398
g18
I1
sg19
I0
sg20
I9
sg21
I0
sg22
I0
sg23
I0
sg24
I0
sbssg122
S"()\x18t._h'\x1c\x9bV\x14KS\xf6,"
p1399
ssS'create_models_questions_tests___init__'
p1400
(dp1401
g42
(dp1402
g449
S'create_models_questions_tests___init__.html'
p1403
sg451
S'create/models/questions/tests/__init__'
p1404
sg453
g13
(g14
g15
NtRp1405
(dp1406
g18
I1
sg19
I0
sg20
I0
sg21
I0
sg22
I0
sg23
I0
sg24
I0
sbssg51
S'\x19g\xdfM\x1a\x019\xaf\x1baIeR\xe5u\xa7'
p1407
ssS'teach_views___init__'
p1408
(dp1409
g55
(dp1410
g177
S'teach_views___init__.html'
p1411
sg179
S'teach/views/__init__'
p1412
sg181
g13
(g14
g15
NtRp1413
(dp1414
g18
I1
sg19
I0
sg20
I3
sg21
I0
sg22
I0
sg23
I0
sg24
I0
sbssg64
S'\xddN\x8bL\xe7O\xba\x93\x86:\xc2\x15\x13gc6'
p1415
ssS'privilege_admin'
p1416
(dp1417
g287
(dp1418
g93
S'privilege_admin.html'
p1419
sg95
S'privilege/admin'
p1420
sg97
g13
(g14
g15
NtRp1421
(dp1422
g18
I1
sg19
I0
sg20
I4
sg21
I0
sg22
I0
sg23
I0
sg24
I0
sbssg293
S'\xa1\x9fb^\xc7l\x00\x1f\x0e\x9c\x06\x08\x99Kx\x94'
p1423
ssS'teach_models_teacher_tags_tests_test_teacher_tag_model'
p1424
(dp1425
g55
(dp1426
g57
S'teach_models_teacher_tags_tests_test_teacher_tag_model.html'
p1427
sg59
S'teach/models/teacher_tags/tests/test_teacher_tag_model'
p1428
sg61
g13
(g14
g15
NtRp1429
(dp1430
g18
I1
sg19
I0
sg20
I30
sg21
I0
sg22
I0
sg23
I0
sg24
I0
sbssg64
S'\xf3\x06\xd8\xd6\x93V\xab\xdc\x87\x05\xf6vJ\xa9`\xe6'
p1431
ssS'user_system_models_schools_academic_year_model'
p1432
(dp1433
g206
(dp1434
S'html_filename'
p1435
S'user_system_models_schools_academic_year_model.html'
p1436
sS'name'
p1437
S'user_system/models/schools/academic_year_model'
p1438
sS'nums'
p1439
g13
(g14
g15
NtRp1440
(dp1441
g18
I1
sg19
I0
sg20
I23
sg21
I0
sg22
I0
sg23
I0
sg24
I0
sbssg215
S'\xf1Zl\xd3\xdd4\xdcX&\xdf\xf0<.\x11FY'
p1442
ssS'learn_models___init__'
p1443
(dp1444
g55
(dp1445
g177
S'learn_models___init__.html'
p1446
sg179
S'learn/models/__init__'
p1447
sg181
g13
(g14
g15
NtRp1448
(dp1449
g18
I1
sg19
I0
sg20
I2
sg21
I0
sg22
I0
sg23
I0
sg24
I0
sbssg64
S'J\x07\xbfU\xe2\xd2\xed\xadY\xe2o$\x84\x86bd'
p1450
ssS'user_system_models_users_student_profile_model'
p1451
(dp1452
g232
(dp1453
g177
S'user_system_models_users_student_profile_model.html'
p1454
sg179
S'user_system/models/users/student_profile_model'
p1455
sg181
g13
(g14
g15
NtRp1456
(dp1457
g18
I1
sg19
I2
sg20
I41
sg21
I0
sg22
I0
sg23
I0
sg24
I0
sbssg238
S'q\x83gLh\x1e\xeb\xb5+w&@\xe2"=\xb8'
p1458
ssS'user_system_models_schools_organization_model'
p1459
(dp1460
g206
(dp1461
g633
S'user_system_models_schools_organization_model.html'
p1462
sg635
S'user_system/models/schools/organization_model'
p1463
sg637
g13
(g14
g15
NtRp1464
(dp1465
g18
I1
sg19
I0
sg20
I28
sg21
I0
sg22
I0
sg23
I0
sg24
I0
sbssg215
S']\xd3\xfd\x922s\xeb0\xfd\x8a\x88\xfe"\xbd<h'
p1466
ssS'create_views_books_tests_test_hide_book_view'
p1467
(dp1468
g939
(dp1469
g44
S'create_views_books_tests_test_hide_book_view.html'
p1470
sg46
S'create/views/books/tests/test_hide_book_view'
p1471
sg48
g13
(g14
g15
NtRp1472
(dp1473
g18
I1
sg19
I0
sg20
I25
sg21
I0
sg22
I0
sg23
I0
sg24
I0
sbssg945
S'\xe1\x17\x16\xca\x8a\xc5c\x1b\xce\xab\xb8\xf9G\x03\x9dQ'
p1474
ssS'teach_serializers_teacher_tags_teacher_tag_serializer'
p1475
(dp1476
g55
(dp1477
g31
S'teach_serializers_teacher_tags_teacher_tag_serializer.html'
p1478
sg33
S'teach/serializers/teacher_tags/teacher_tag_serializer'
p1479
sg35
g13
(g14
g15
NtRp1480
(dp1481
g18
I1
sg19
I2
sg20
I26
sg21
I0
sg22
I0
sg23
I9
sg24
I2
sbssg64
S'\x07C\xdf\xcd\x92\x1eS\x1a#\x8e\x9d\x88Dj\n\x12'
p1482
ssS'create_models_daily_quests_tests_test_daily_quest_model'
p1483
(dp1484
g758
(dp1485
g244
S'create_models_daily_quests_tests_test_daily_quest_model.html'
p1486
sg246
S'create/models/daily_quests/tests/test_daily_quest_model'
p1487
sg248
g13
(g14
g15
NtRp1488
(dp1489
g18
I1
sg19
I2
sg20
I51
sg21
I0
sg22
I0
sg23
I0
sg24
I0
sbssg767
S'\x16\x87\xb8\xd4K\xb4\x87\xf9\x84\xc4V\x94\x17\xf6\x1a\xf0'
p1490
ssS'create_admin'
p1491
(dp1492
g42
(dp1493
g57
S'create_admin.html'
p1494
sg59
S'create/admin'
p1495
sg61
g13
(g14
g15
NtRp1496
(dp1497
g18
I1
sg19
I0
sg20
I20
sg21
I0
sg22
I0
sg23
I0
sg24
I0
sbssg51
S'\x03\xe6\xc2\xd5\xa8\xb1\x92\xa5/8\x0fZCN\r\x08'
p1498
ssS'create_views_questions_tests_test_get_question_list_view'
p1499
(dp1500
g42
(dp1501
g93
S'create_views_questions_tests_test_get_question_list_view.html'
p1502
sg95
S'create/views/questions/tests/test_get_question_list_view'
p1503
sg97
g13
(g14
g15
NtRp1504
(dp1505
g18
I1
sg19
I0
sg20
I32
sg21
I0
sg22
I0
sg23
I0
sg24
I0
sbssg51
S'\xa2&\x88;1\\\xa2 \xb4&ejB\xd1%\x06'
p1506
ssS'user_system_views_logins___init__'
p1507
(dp1508
g42
(dp1509
g449
S'user_system_views_logins___init__.html'
p1510
sg451
S'user_system/views/logins/__init__'
p1511
sg453
g13
(g14
g15
NtRp1512
(dp1513
g18
I1
sg19
I0
sg20
I2
sg21
I0
sg22
I0
sg23
I0
sg24
I0
sbssg51
S'\xa0\xd3\xaas\xc2\xb93+ED.\xe5\xfe\xf2\xad\x87'
p1514
ssS'create_views_daily_quest_copies___init__'
p1515
(dp1516
g414
(dp1517
S'html_filename'
p1518
S'create_views_daily_quest_copies___init__.html'
p1519
sS'name'
p1520
S'create/views/daily_quest_copies/__init__'
p1521
sS'nums'
p1522
g13
(g14
g15
NtRp1523
(dp1524
g18
I1
sg19
I0
sg20
I1
sg21
I0
sg22
I0
sg23
I0
sg24
I0
sbssg423
S"'\xb6_z\x90s\x92\xdd\xc7\xb2\x87d\xba\xe24X"
p1525
ssS'create_views_quests_tests_test_hide_quest_view'
p1526
(dp1527
g6
(dp1528
g8
S'create_views_quests_tests_test_hide_quest_view.html'
p1529
sg10
S'create/views/quests/tests/test_hide_quest_view'
p1530
sg12
g13
(g14
g15
NtRp1531
(dp1532
g18
I1
sg19
I0
sg20
I26
sg21
I0
sg22
I0
sg23
I0
sg24
I0
sbssg25
S'G\xcb\xcf\xbb~*\xa2i\xd2\xff\x81\x81\xf0)G\xda'
p1533
ssS'create_views_books_tests_test_add_tag_to_subchapter_view'
p1534
(dp1535
S'index'
p1536
(dp1537
g44
S'create_views_books_tests_test_add_tag_to_subchapter_view.html'
p1538
sg46
S'create/views/books/tests/test_add_tag_to_subchapter_view'
p1539
sg48
g13
(g14
g15
NtRp1540
(dp1541
g18
I1
sg19
I0
sg20
I40
sg21
I0
sg22
I0
sg23
I0
sg24
I0
sbssS'hash'
p1542
S'\xb78\xf4p\xcd\xec\xca\xaa\x93\xb9\xda\xa8Yo37'
p1543
ssS'api_logging_models_modal_logging_modal_user_history_model'
p1544
(dp1545
g297
(dp1546
g177
S'api_logging_models_modal_logging_modal_user_history_model.html'
p1547
sg179
S'api_logging/models/modal_logging/modal_user_history_model'
p1548
sg181
g13
(g14
g15
NtRp1549
(dp1550
g18
I1
sg19
I0
sg20
I15
sg21
I0
sg22
I0
sg23
I3
sg24
I0
sbssg303
S'\xabX\xd42<$9z\xc1]\xc12\xe9\xd8\xbf\xd2'
p1551
ssS'create_views_daily_quests_daily_quest_view'
p1552
(dp1553
g242
(dp1554
g244
S'create_views_daily_quests_daily_quest_view.html'
p1555
sg246
S'create/views/daily_quests/daily_quest_view'
p1556
sg248
g13
(g14
g15
NtRp1557
(dp1558
g18
I1
sg19
I8
sg20
I34
sg21
I0
sg22
I0
sg23
I17
sg24
I8
sbssg251
S'\x9b\xbe99\x1cP\x1d\xd8iT&I;\xb4\xbbf'
p1559
ssS'user_system_managers_user_manager'
p1560
(dp1561
g297
(dp1562
g177
S'user_system_managers_user_manager.html'
p1563
sg179
S'user_system/managers/user_manager'
p1564
sg181
g13
(g14
g15
NtRp1565
(dp1566
g18
I1
sg19
I18
sg20
I46
sg21
I0
sg22
I0
sg23
I37
sg24
I18
sbssg303
S'\xac\xa0\xe1\xde\xdcl\x13`\xfe\xfc\xff\xb5\x18=(\xf4'
p1567
ssS'create_models_quests_tests___init__'
p1568
(dp1569
g103
(dp1570
g622
S'create_models_quests_tests___init__.html'
p1571
sg624
S'create/models/quests/tests/__init__'
p1572
sg626
g13
(g14
g15
NtRp1573
(dp1574
g18
I1
sg19
I0
sg20
I1
sg21
I0
sg22
I0
sg23
I0
sg24
I0
sbssg112
S'\xbc\xd6\xeb\xb3\xba\xcaz\xf7{\xd4B\xb5}l\xdf\x96'
p1575
ssS'create_views_questions___init__'
p1576
(dp1577
g42
(dp1578
g594
S'create_views_questions___init__.html'
p1579
sg596
S'create/views/questions/__init__'
p1580
sg598
g13
(g14
g15
NtRp1581
(dp1582
g18
I1
sg19
I0
sg20
I3
sg21
I0
sg22
I0
sg23
I0
sg24
I0
sbssg51
S'h\x154\xc5\xe58\xa8\xc8\xa9\xa6\xbea?\xcf?i'
p1583
ssS'user_system_views_users_create_teacher_view'
p1584
(dp1585
g297
(dp1586
g177
S'user_system_views_users_create_teacher_view.html'
p1587
sg179
S'user_system/views/users/create_teacher_view'
p1588
sg181
g13
(g14
g15
NtRp1589
(dp1590
g18
I1
sg19
I2
sg20
I34
sg21
I0
sg22
I0
sg23
I21
sg24
I2
sbssg303
S'=\xee\xed^jo\xc1\xebz\xedP\xf9\x91n\xec\x8d'
p1591
ssS'user_system_models_apps_tests___init__'
p1592
(dp1593
g42
(dp1594
g449
S'user_system_models_apps_tests___init__.html'
p1595
sg451
S'user_system/models/apps/tests/__init__'
p1596
sg453
g13
(g14
g15
NtRp1597
(dp1598
g18
I1
sg19
I0
sg20
I0
sg21
I0
sg22
I0
sg23
I0
sg24
I0
sbssg51
S'\x19g\xdfM\x1a\x019\xaf\x1baIeR\xe5u\xa7'
p1599
ssS'privilege_serializers_privileges_user_privilege_serializer'
p1600
(dp1601
g287
(dp1602
g93
S'privilege_serializers_privileges_user_privilege_serializer.html'
p1603
sg95
S'privilege/serializers/privileges/user_privilege_serializer'
p1604
sg97
g13
(g14
g15
NtRp1605
(dp1606
g18
I1
sg19
I0
sg20
I9
sg21
I0
sg22
I0
sg23
I0
sg24
I0
sbssg293
S'#\xe5\xcc\x9as5y,\xa1HiQ\xa2c\xdb2'
p1607
ssS'create_models_quests_tests_test_quest_history_model'
p1608
(dp1609
g103
(dp1610
g1208
S'create_models_quests_tests_test_quest_history_model.html'
p1611
sg1210
S'create/models/quests/tests/test_quest_history_model'
p1612
sg1212
g13
(g14
g15
NtRp1613
(dp1614
g18
I1
sg19
I8
sg20
I79
sg21
I0
sg22
I0
sg23
I0
sg24
I0
sbssg112
S'##\xeax]g;Ka\xb3\xc0Py,oE'
p1615
ssS'create_views_summary___init__'
p1616
(dp1617
S'index'
p1618
(dp1619
g1098
S'create_views_summary___init__.html'
p1620
sg1100
S'create/views/summary/__init__'
p1621
sg1102
g13
(g14
g15
NtRp1622
(dp1623
g18
I1
sg19
I0
sg20
I1
sg21
I0
sg22
I0
sg23
I0
sg24
I0
sbssS'hash'
p1624
S'#\xb7\xbd\xa1M\xe4\xa0\x05\xf5x\x057hU[\xca'
p1625
ssS'create_models_daily_quest_templates___init__'
p1626
(dp1627
g242
(dp1628
g244
S'create_models_daily_quest_templates___init__.html'
p1629
sg246
S'create/models/daily_quest_templates/__init__'
p1630
sg248
g13
(g14
g15
NtRp1631
(dp1632
g18
I1
sg19
I0
sg20
I1
sg21
I0
sg22
I0
sg23
I0
sg24
I0
sbssg251
S'\x12\x89x\xb9F\xfb=b\x04\xddy\xb4\xccZb\xb8'
p1633
ssS'create_views_tags_tests_test_get_tag_by_id_view'
p1634
(dp1635
g427
(dp1636
g93
S'create_views_tags_tests_test_get_tag_by_id_view.html'
p1637
sg95
S'create/views/tags/tests/test_get_tag_by_id_view'
p1638
sg97
g13
(g14
g15
NtRp1639
(dp1640
g18
I1
sg19
I0
sg20
I20
sg21
I0
sg22
I0
sg23
I0
sg24
I0
sbssg436
S'T\xd5\xd7\xd9\xb8\x12\x81xj\xca\x90\xa41\xcf\x02]'
p1641
ssS'api_logging_models_user_activities___init__'
p1642
(dp1643
g297
(dp1644
g177
S'api_logging_models_user_activities___init__.html'
p1645
sg179
S'api_logging/models/user_activities/__init__'
p1646
sg181
g13
(g14
g15
NtRp1647
(dp1648
g18
I1
sg19
I0
sg20
I1
sg21
I0
sg22
I0
sg23
I0
sg24
I0
sbssg303
S'\xd9\xe2\xb9\xa8[\x85h\x8ep\xd5\x12TW1\x9d\x1b'
p1649
ssS'user_system_models_users_tests_test_user_profile_model'
p1650
(dp1651
g42
(dp1652
g158
S'user_system_models_users_tests_test_user_profile_model.html'
p1653
sg160
S'user_system/models/users/tests/test_user_profile_model'
p1654
sg162
g13
(g14
g15
NtRp1655
(dp1656
g18
I1
sg19
I0
sg20
I142
sg21
I0
sg22
I0
sg23
I0
sg24
I0
sbssg51
S'\x00\xb8\xc5\xc0\xcb\xb1\xcaP@!\x086\x84\x1d\xd5\xed'
p1657
ssS'user_system_views_roles_tests_test_user_role_view'
p1658
(dp1659
g42
(dp1660
g44
S'user_system_views_roles_tests_test_user_role_view.html'
p1661
sg46
S'user_system/views/roles/tests/test_user_role_view'
p1662
sg48
g13
(g14
g15
NtRp1663
(dp1664
g18
I1
sg19
I0
sg20
I41
sg21
I0
sg22
I0
sg23
I0
sg24
I0
sbssg51
S'\xaf \x02-\xd3\xa9\xee\x1e7\x87\xa8[\xd9\xd8V\xd8'
p1665
ssS'user_system_views_apps_tests_test_get_apps_list_view'
p1666
(dp1667
g42
(dp1668
g44
S'user_system_views_apps_tests_test_get_apps_list_view.html'
p1669
sg46
S'user_system/views/apps/tests/test_get_apps_list_view'
p1670
sg48
g13
(g14
g15
NtRp1671
(dp1672
g18
I1
sg19
I0
sg20
I18
sg21
I0
sg22
I0
sg23
I0
sg24
I0
sbssg51
S'\x87\xab;"\x01p\xf9\xe5\xa6\xb1\xaej\x8egl\x99'
p1673
ssS'api_logging_models_user_activities_user_activity_model'
p1674
(dp1675
g297
(dp1676
g177
S'api_logging_models_user_activities_user_activity_model.html'
p1677
sg179
S'api_logging/models/user_activities/user_activity_model'
p1678
sg181
g13
(g14
g15
NtRp1679
(dp1680
g18
I1
sg19
I0
sg20
I11
sg21
I0
sg22
I0
sg23
I0
sg24
I0
sbssg303
S'f\xe2(\xd3\xddS\xfd\x1e\xf0d\xb2,\xb2\x8f\x8c\x18'
p1681
ssS'create_views_books_tests_test_create_new_book'
p1682
(dp1683
S'index'
p1684
(dp1685
g44
S'create_views_books_tests_test_create_new_book.html'
p1686
sg46
S'create/views/books/tests/test_create_new_book'
p1687
sg48
g13
(g14
g15
NtRp1688
(dp1689
g18
I1
sg19
I0
sg20
I18
sg21
I0
sg22
I0
sg23
I0
sg24
I0
sbssS'hash'
p1690
S'\xe3\xaew\xf8\xd7\x8f\xc5 \x85\xc1\xb6I\x82X(-'
p1691
ssS'create_serializers_questions_question_type_serializer'
p1692
(dp1693
g42
(dp1694
g449
S'create_serializers_questions_question_type_serializer.html'
p1695
sg451
S'create/serializers/questions/question_type_serializer'
p1696
sg453
g13
(g14
g15
NtRp1697
(dp1698
g18
I1
sg19
I0
sg20
I6
sg21
I0
sg22
I0
sg23
I0
sg24
I0
sbssg51
S'!\x8a\x91KA:\x92\x13/\xdd\xd9\xc2?\x8b\xe1\xc6'
p1699
ssS'create_models_books_tests_test_book_model'
p1700
(dp1701
g349
(dp1702
S'html_filename'
p1703
S'create_models_books_tests_test_book_model.html'
p1704
sS'name'
p1705
S'create/models/books/tests/test_book_model'
p1706
sS'nums'
p1707
g13
(g14
g15
NtRp1708
(dp1709
g18
I1
sg19
I6
sg20
I44
sg21
I0
sg22
I0
sg23
I0
sg24
I0
sbssg355
S'\xff\x88\xcd\xb0\x80\xb2\x9d\xf7\xf9G\xb1.\xaf\xdd\x07\xd7'
p1710
ssS'user_system_serializers_users_teacher_mapping_serializer'
p1711
(dp1712
g297
(dp1713
g177
S'user_system_serializers_users_teacher_mapping_serializer.html'
p1714
sg179
S'user_system/serializers/users/teacher_mapping_serializer'
p1715
sg181
g13
(g14
g15
NtRp1716
(dp1717
g18
I1
sg19
I0
sg20
I7
sg21
I0
sg22
I0
sg23
I0
sg24
I0
sbssg303
S'\x13\xf7\x06\xcfN\x17?&3\xc5\xf6]6uj\xc1'
p1718
ssS'create_models_questions_question_choice_model'
p1719
(dp1720
g42
(dp1721
g1318
S'create_models_questions_question_choice_model.html'
p1722
sg1320
S'create/models/questions/question_choice_model'
p1723
sg1322
g13
(g14
g15
NtRp1724
(dp1725
g18
I1
sg19
I0
sg20
I42
sg21
I0
sg22
I0
sg23
I0
sg24
I0
sbssg51
S'\xd7\xd8\x1f\xbf<\xee\xdd?}\xfe>\x82\\\x97\x15)'
p1726
ssS'flipped_helpers_tests___init__'
p1727
(dp1728
g42
(dp1729
g449
S'flipped_helpers_tests___init__.html'
p1730
sg451
S'flipped/helpers/tests/__init__'
p1731
sg453
g13
(g14
g15
NtRp1732
(dp1733
g18
I1
sg19
I0
sg20
I0
sg21
I0
sg22
I0
sg23
I0
sg24
I0
sbssg51
S'\x19g\xdfM\x1a\x019\xaf\x1baIeR\xe5u\xa7'
p1734
ssS'user_system_models_roles_role_app_model'
p1735
(dp1736
g42
(dp1737
g44
S'user_system_models_roles_role_app_model.html'
p1738
sg46
S'user_system/models/roles/role_app_model'
p1739
sg48
g13
(g14
g15
NtRp1740
(dp1741
g18
I1
sg19
I0
sg20
I18
sg21
I0
sg22
I0
sg23
I0
sg24
I0
sbssg51
S'\x8d\xa3&\x03\x9d\x1cO|\xces.\x11/\x8f`\xcc'
p1742
ssS'create_models_tags_tests_test_tag_model'
p1743
(dp1744
g383
(dp1745
S'html_filename'
p1746
S'create_models_tags_tests_test_tag_model.html'
p1747
sS'name'
p1748
S'create/models/tags/tests/test_tag_model'
p1749
sS'nums'
p1750
g13
(g14
g15
NtRp1751
(dp1752
g18
I1
sg19
I6
sg20
I52
sg21
I0
sg22
I0
sg23
I0
sg24
I0
sbssg389
S'1\x992\xc0\xbb\xb6d *5\xfa\xd2\xdc1\xb2\x92'
p1753
ssS'create_views_tags_tests_test_remove_prerequisite_view'
p1754
(dp1755
g307
(dp1756
g44
S'create_views_tags_tests_test_remove_prerequisite_view.html'
p1757
sg46
S'create/views/tags/tests/test_remove_prerequisite_view'
p1758
sg48
g13
(g14
g15
NtRp1759
(dp1760
g18
I1
sg19
I0
sg20
I31
sg21
I0
sg22
I0
sg23
I0
sg24
I0
sbssg313
S'\x8e\x8c~\xff\x85\x94\x8c~T\x7f\x80\x82W\x96\x19\x9c'
p1761
ssS'learn_models_points_tests_test_point_type_model'
p1762
(dp1763
g297
(dp1764
g633
S'learn_models_points_tests_test_point_type_model.html'
p1765
sg635
S'learn/models/points/tests/test_point_type_model'
p1766
sg637
g13
(g14
g15
NtRp1767
(dp1768
g18
I1
sg19
I0
sg20
I20
sg21
I0
sg22
I0
sg23
I0
sg24
I0
sbssg303
S'\x8a\x938\x82k\xa7\x10\xf1\x95\x07\xc4\xb2\x9d\n\xc6\x1f'
p1769
ssS'teach_serializers_teacher_chapters_teacher_chapter_serializer'
p1770
(dp1771
g55
(dp1772
g57
S'teach_serializers_teacher_chapters_teacher_chapter_serializer.html'
p1773
sg59
S'teach/serializers/teacher_chapters/teacher_chapter_serializer'
p1774
sg61
g13
(g14
g15
NtRp1775
(dp1776
g18
I1
sg19
I0
sg20
I12
sg21
I0
sg22
I0
sg23
I0
sg24
I0
sbssg64
S'\xac\x9b\xf1Q\x91\xf4J\x03y\xc4\xa7\x9c\x996\x13a'
p1777
ssS'user_system_serializers_app_serializer'
p1778
(dp1779
g42
(dp1780
g449
S'user_system_serializers_app_serializer.html'
p1781
sg451
S'user_system/serializers/app_serializer'
p1782
sg453
g13
(g14
g15
NtRp1783
(dp1784
g18
I1
sg19
I0
sg20
I7
sg21
I0
sg22
I0
sg23
I0
sg24
I0
sbssg51
S'\xc1\x87\xd6\x1b\xbe\x8f\xfb\xdd\x1a\xa9\x92A\xe2\xc3\xe2\xf1'
p1785
ssS'user_system_views_logins_tests_test_facebook_login_view'
p1786
(dp1787
g42
(dp1788
g44
S'user_system_views_logins_tests_test_facebook_login_view.html'
p1789
sg46
S'user_system/views/logins/tests/test_facebook_login_view'
p1790
sg48
g13
(g14
g15
NtRp1791
(dp1792
g18
I1
sg19
I0
sg20
I51
sg21
I0
sg22
I0
sg23
I0
sg24
I0
sbssg51
S'\x8eg\xfbA\xbdf+\x81\xe9\x8a\x16\x82\xe9\xe3\xc0\xf4'
p1793
ssS'create_models_books_book_history_model'
p1794
(dp1795
g349
(dp1796
g93
S'create_models_books_book_history_model.html'
p1797
sg95
S'create/models/books/book_history_model'
p1798
sg97
g13
(g14
g15
NtRp1799
(dp1800
g18
I1
sg19
I4
sg20
I43
sg21
I0
sg22
I1
sg23
I0
sg24
I1
sbssg355
S'\xd71\x9e\xd0\x9bqR\xb9(!\x9f2\x10O|\xeb'
p1801
ssS'teach_models_teacher_chapters_tests___init__'
p1802
(dp1803
g55
(dp1804
g57
S'teach_models_teacher_chapters_tests___init__.html'
p1805
sg59
S'teach/models/teacher_chapters/tests/__init__'
p1806
sg61
g13
(g14
g15
NtRp1807
(dp1808
g18
I1
sg19
I0
sg20
I0
sg21
I0
sg22
I0
sg23
I0
sg24
I0
sbssg64
S'\x19g\xdfM\x1a\x019\xaf\x1baIeR\xe5u\xa7'
p1809
ssS'create_views_quests_tests_test_remove_tag_view'
p1810
(dp1811
g6
(dp1812
g8
S'create_views_quests_tests_test_remove_tag_view.html'
p1813
sg10
S'create/views/quests/tests/test_remove_tag_view'
p1814
sg12
g13
(g14
g15
NtRp1815
(dp1816
g18
I1
sg19
I0
sg20
I0
sg21
I0
sg22
I0
sg23
I0
sg24
I0
sbssg25
S'\x19g\xdfM\x1a\x019\xaf\x1baIeR\xe5u\xa7'
p1817
ssS'create_models_books_book_model'
p1818
(dp1819
g349
(dp1820
S'html_filename'
p1821
S'create_models_books_book_model.html'
p1822
sS'name'
p1823
S'create/models/books/book_model'
p1824
sS'nums'
p1825
g13
(g14
g15
NtRp1826
(dp1827
g18
I1
sg19
I4
sg20
I37
sg21
I0
sg22
I0
sg23
I0
sg24
I0
sbssg355
S'Z\x88%\xfa\x8c7\x1e\xf9\x06qW\x80O\xe1\x85.'
p1828
ssS'create_views_books_tests_test_remove_chapter_view'
p1829
(dp1830
g126
(dp1831
g44
S'create_views_books_tests_test_remove_chapter_view.html'
p1832
sg46
S'create/views/books/tests/test_remove_chapter_view'
p1833
sg48
g13
(g14
g15
NtRp1834
(dp1835
g18
I1
sg19
I0
sg20
I39
sg21
I0
sg22
I0
sg23
I0
sg24
I0
sbssg132
S'lJ\xdc\xbe\xe2>\x9d\xde\xb5+ia5;\x042'
p1836
ssS'privilege_models_privileges_tests_test_user_privilege_model'
p1837
(dp1838
g287
(dp1839
g93
S'privilege_models_privileges_tests_test_user_privilege_model.html'
p1840
sg95
S'privilege/models/privileges/tests/test_user_privilege_model'
p1841
sg97
g13
(g14
g15
NtRp1842
(dp1843
g18
I1
sg19
I0
sg20
I19
sg21
I0
sg22
I0
sg23
I0
sg24
I0
sbssg293
S'\xcd\xf2\x96G\xfe\xbc/\xb5\x15\xceNf\x0f\x0b5\xd4'
p1844
ssS'privilege_views___init__'
p1845
(dp1846
g287
(dp1847
g93
S'privilege_views___init__.html'
p1848
sg95
S'privilege/views/__init__'
p1849
sg97
g13
(g14
g15
NtRp1850
(dp1851
g18
I1
sg19
I0
sg20
I0
sg21
I0
sg22
I0
sg23
I0
sg24
I0
sbssg293
S'\x19g\xdfM\x1a\x019\xaf\x1baIeR\xe5u\xa7'
p1852
ssS'user_system_views_users_tests___init__'
p1853
(dp1854
g42
(dp1855
g449
S'user_system_views_users_tests___init__.html'
p1856
sg451
S'user_system/views/users/tests/__init__'
p1857
sg453
g13
(g14
g15
NtRp1858
(dp1859
g18
I1
sg19
I0
sg20
I0
sg21
I0
sg22
I0
sg23
I0
sg24
I0
sbssg51
S'\x19g\xdfM\x1a\x019\xaf\x1baIeR\xe5u\xa7'
p1860
ssS'create_models_tags_tests_test_skill_model'
p1861
(dp1862
g383
(dp1863
g44
S'create_models_tags_tests_test_skill_model.html'
p1864
sg46
S'create/models/tags/tests/test_skill_model'
p1865
sg48
g13
(g14
g15
NtRp1866
(dp1867
g18
I1
sg19
I0
sg20
I12
sg21
I0
sg22
I0
sg23
I0
sg24
I0
sbssg389
S'\x08\x9e\x87e#\x02\x06O\x02l!\x0e\xe8\xeb\xc0.'
p1868
ssS'user_system_views_signups_hardcoded___init__'
p1869
(dp1870
g42
(dp1871
g449
S'user_system_views_signups_hardcoded___init__.html'
p1872
sg451
S'user_system/views/signups/hardcoded/__init__'
p1873
sg453
g13
(g14
g15
NtRp1874
(dp1875
g18
I1
sg19
I0
sg20
I1
sg21
I0
sg22
I0
sg23
I0
sg24
I0
sbssg51
S'?\xfac\x0c\x91\xa4\xd6\xd4\x1d\xe4\x99\xc2[\x83\xfc\xdf'
p1876
ssS'create_models_daily_quest_templates_daily_quest_template_model'
p1877
(dp1878
g242
(dp1879
g244
S'create_models_daily_quest_templates_daily_quest_template_model.html'
p1880
sg246
S'create/models/daily_quest_templates/daily_quest_template_model'
p1881
sg248
g13
(g14
g15
NtRp1882
(dp1883
g18
I1
sg19
I0
sg20
I29
sg21
I0
sg22
I0
sg23
I0
sg24
I0
sbssg251
S'm:\xfa\nsk\x85\xa8p\x96\xc3\xca\xa1c\xb0+'
p1884
ssS'create_models_books_tests_test_book_chapter_model'
p1885
(dp1886
g349
(dp1887
g1703
S'create_models_books_tests_test_book_chapter_model.html'
p1888
sg1705
S'create/models/books/tests/test_book_chapter_model'
p1889
sg1707
g13
(g14
g15
NtRp1890
(dp1891
g18
I1
sg19
I8
sg20
I55
sg21
I0
sg22
I0
sg23
I0
sg24
I0
sbssg355
S'\xc4\x1a\xd7\x12s\xd3V\xef\xac\xa7%\x0c\xdc\x17\x05c'
p1892
ssS'user_system_views_signups_tests_test_verify_email_view'
p1893
(dp1894
g42
(dp1895
g44
S'user_system_views_signups_tests_test_verify_email_view.html'
p1896
sg46
S'user_system/views/signups/tests/test_verify_email_view'
p1897
sg48
g13
(g14
g15
NtRp1898
(dp1899
g18
I1
sg19
I0
sg20
I51
sg21
I0
sg22
I0
sg23
I0
sg24
I0
sbssg51
S'\x81\xacj\x9d\x1f\xa9o\xcc\x1e\xa3\xe59^YT\x9e'
p1900
ssS'teach_models_daily_quest_templates___init__'
p1901
(dp1902
g55
(dp1903
g57
S'teach_models_daily_quest_templates___init__.html'
p1904
sg59
S'teach/models/daily_quest_templates/__init__'
p1905
sg61
g13
(g14
g15
NtRp1906
(dp1907
g18
I1
sg19
I0
sg20
I1
sg21
I0
sg22
I0
sg23
I0
sg24
I0
sbssg64
S'\x12\x89x\xb9F\xfb=b\x04\xddy\xb4\xccZb\xb8'
p1908
ssS'teach_serializers_daily_quest_templates_daily_quest_template_serializer'
p1909
(dp1910
g55
(dp1911
g177
S'teach_serializers_daily_quest_templates_daily_quest_template_serializer.html'
p1912
sg179
S'teach/serializers/daily_quest_templates/daily_quest_template_serializer'
p1913
sg181
g13
(g14
g15
NtRp1914
(dp1915
g18
I1
sg19
I0
sg20
I12
sg21
I0
sg22
I0
sg23
I0
sg24
I0
sbssg64
S"\xd9\x0bcm\x95?'mB\xf9\xdd\xa1\xfc>:="
p1916
ssS'create_views_questions_tests_test_add_tag_view'
p1917
(dp1918
g219
(dp1919
g221
S'create_views_questions_tests_test_add_tag_view.html'
p1920
sg223
S'create/views/questions/tests/test_add_tag_view'
p1921
sg225
g13
(g14
g15
NtRp1922
(dp1923
g18
I1
sg19
I0
sg20
I35
sg21
I0
sg22
I0
sg23
I0
sg24
I0
sbssg228
S'\x8e\x13\xdd\xbd\xba\r&,-|&W-a`\x7f'
p1924
ssS'create_views_quests_quest_view'
p1925
(dp1926
g103
(dp1927
g996
S'create_views_quests_quest_view.html'
p1928
sg998
S'create/views/quests/quest_view'
p1929
sg1000
g13
(g14
g15
NtRp1930
(dp1931
g18
I1
sg19
I84
sg20
I249
sg21
I0
sg22
I0
sg23
I178
sg24
I78
sbssg112
S'(\xa2UK\xe2}\xa8\xe0\xc9 3#\xec\x01\xfd\x16'
p1932
ssS'privilege_models_privileges_tests_test_privilege_model'
p1933
(dp1934
g287
(dp1935
g1243
S'privilege_models_privileges_tests_test_privilege_model.html'
p1936
sg1245
S'privilege/models/privileges/tests/test_privilege_model'
p1937
sg1247
g13
(g14
g15
NtRp1938
(dp1939
g18
I1
sg19
I0
sg20
I30
sg21
I0
sg22
I0
sg23
I0
sg24
I0
sbssg293
S'\xe0^\x80\xd5+a\xd9\xc4\xeabB\xc5\x142;\xc9'
p1940
ssS'api_logging_models'
p1941
(dp1942
g566
(dp1943
g732
S'api_logging_models.html'
p1944
sg734
S'api_logging/models'
p1945
sg736
g13
(g14
g15
NtRp1946
(dp1947
g18
I1
sg19
I0
sg20
I21
sg21
I0
sg22
I0
sg23
I0
sg24
I0
sbssg572
S'\x0c\x96WFX%\xe9\xcf+\xcf\xc2s\xa7a1\xbd'
p1948
ssS'user_system_models_schools_tests_test_grade_model'
p1949
(dp1950
g232
(dp1951
g31
S'user_system_models_schools_tests_test_grade_model.html'
p1952
sg33
S'user_system/models/schools/tests/test_grade_model'
p1953
sg35
g13
(g14
g15
NtRp1954
(dp1955
g18
I1
sg19
I0
sg20
I24
sg21
I0
sg22
I0
sg23
I0
sg24
I0
sbssg238
S'\x1e|\xb0\x10\x05\x9c\xb5\xe9\xbc\xff\x8a\xaan\xdf\xd4\xb2'
p1956
ssS'user_system_models_apps_tests_test_app_model'
p1957
(dp1958
g42
(dp1959
g44
S'user_system_models_apps_tests_test_app_model.html'
p1960
sg46
S'user_system/models/apps/tests/test_app_model'
p1961
sg48
g13
(g14
g15
NtRp1962
(dp1963
g18
I1
sg19
I0
sg20
I18
sg21
I0
sg22
I0
sg23
I0
sg24
I0
sbssg51
S'\xfb\xfc\xe0#\xe2\n\x8e\x9e\x94\xa8\x83\xc5\xb1U\xa3a'
p1964
ssS'create_models_daily_quests_daily_quest_model'
p1965
(dp1966
g758
(dp1967
g1518
S'create_models_daily_quests_daily_quest_model.html'
p1968
sg1520
S'create/models/daily_quests/daily_quest_model'
p1969
sg1522
g13
(g14
g15
NtRp1970
(dp1971
g18
I1
sg19
I2
sg20
I48
sg21
I0
sg22
I0
sg23
I6
sg24
I2
sbssg767
S'\xae\'/"f\x1014\xdd\x0e\x85\xf4\x91\x02\\`'
p1972
ssS'user_system_views_signups_tests_test_email_signup_view'
p1973
(dp1974
g42
(dp1975
g44
S'user_system_views_signups_tests_test_email_signup_view.html'
p1976
sg46
S'user_system/views/signups/tests/test_email_signup_view'
p1977
sg48
g13
(g14
g15
NtRp1978
(dp1979
g18
I1
sg19
I0
sg20
I51
sg21
I0
sg22
I0
sg23
I0
sg24
I0
sbssg51
S'\xa3\xb2\xaf-\x99\xe3]\xcc\xe6\x8b\xeb\xf63=I\xb4'
p1980
ssS'user_system_models_schools_tests_test_organization_model'
p1981
(dp1982
g206
(dp1983
g633
S'user_system_models_schools_tests_test_organization_model.html'
p1984
sg635
S'user_system/models/schools/tests/test_organization_model'
p1985
sg637
g13
(g14
g15
NtRp1986
(dp1987
g18
I1
sg19
I0
sg20
I27
sg21
I0
sg22
I0
sg23
I0
sg24
I0
sbssg215
S"\xa3'h\xadZ,\x82G\xbc\x08wON /j"
p1988
ssS'learn_admin'
p1989
(dp1990
g55
(dp1991
g177
S'learn_admin.html'
p1992
sg179
S'learn/admin'
p1993
sg181
g13
(g14
g15
NtRp1994
(dp1995
g18
I1
sg19
I0
sg20
I6
sg21
I0
sg22
I0
sg23
I0
sg24
I0
sbssg64
S'\x01\xff=[_\x13,\xf8ES\x17G)\x1e\xfb\x10'
p1996
ssS'create_views_books_book_subchapter_view'
p1997
(dp1998
g1536
(dp1999
g44
S'create_views_books_book_subchapter_view.html'
p2000
sg46
S'create/views/books/book_subchapter_view'
p2001
sg48
g13
(g14
g15
NtRp2002
(dp2003
g18
I1
sg19
I8
sg20
I46
sg21
I0
sg22
I0
sg23
I0
sg24
I0
sbssg1542
S'\x0e\xa6\x19V\xf0\xf3;\xa2\x8d \xd8i\xb7*D\x87'
p2004
ssS'user_system_models_roles_tests_test_role_model'
p2005
(dp2006
g42
(dp2007
g44
S'user_system_models_roles_tests_test_role_model.html'
p2008
sg46
S'user_system/models/roles/tests/test_role_model'
p2009
sg48
g13
(g14
g15
NtRp2010
(dp2011
g18
I1
sg19
I0
sg20
I20
sg21
I0
sg22
I0
sg23
I0
sg24
I0
sbssg51
S'\xef\xba\x956\x96\xbc:\xa0\x0f\x00\x84\x80\x0elh\xed'
p2012
ssS'user_system_models_schools_classroom_model'
p2013
(dp2014
g232
(dp2015
g177
S'user_system_models_schools_classroom_model.html'
p2016
sg179
S'user_system/models/schools/classroom_model'
p2017
sg181
g13
(g14
g15
NtRp2018
(dp2019
g18
I1
sg19
I2
sg20
I24
sg21
I0
sg22
I0
sg23
I0
sg24
I0
sbssg238
S'\xb4}\xd2\xf3\xe4P\x96mC/hd\x0c\x17\x97m'
p2020
ssS'user_system_views_logins_email_login_view'
p2021
(dp2022
g42
(dp2023
g177
S'user_system_views_logins_email_login_view.html'
p2024
sg179
S'user_system/views/logins/email_login_view'
p2025
sg181
g13
(g14
g15
NtRp2026
(dp2027
g18
I1
sg19
I8
sg20
I35
sg21
I0
sg22
I0
sg23
I0
sg24
I0
sbssg51
S'\x9e\xe3\x8e\xf9o\x8aYC\xa2\xcb\xe7\xbd\x94\xe1O\x1a'
p2028
ssS'user_system_serializers_users_list_user_serializer'
p2029
(dp2030
g42
(dp2031
g44
S'user_system_serializers_users_list_user_serializer.html'
p2032
sg46
S'user_system/serializers/users/list_user_serializer'
p2033
sg48
g13
(g14
g15
NtRp2034
(dp2035
g18
I1
sg19
I0
sg20
I18
sg21
I0
sg22
I0
sg23
I0
sg24
I0
sbssg51
S'\xdfK>6\xe0\x8d\xcd\xd4/O\xef\xaa\xd0\x9efX'
p2036
ssS'user_system_models_users_tests_test_teacher_profile_model'
p2037
(dp2038
g29
(dp2039
g1435
S'user_system_models_users_tests_test_teacher_profile_model.html'
p2040
sg1437
S'user_system/models/users/tests/test_teacher_profile_model'
p2041
sg1439
g13
(g14
g15
NtRp2042
(dp2043
g18
I1
sg19
I0
sg20
I32
sg21
I0
sg22
I0
sg23
I0
sg24
I0
sbssg38
S'\xe7n\x9a\x17\x9d0\x01\xa6\x0f\x18\x10l\x8ckmy'
p2044
ssS'create_views_quests_tests_test_remove_question_template_view'
p2045
(dp2046
g6
(dp2047
g8
S'create_views_quests_tests_test_remove_question_template_view.html'
p2048
sg10
S'create/views/quests/tests/test_remove_question_template_view'
p2049
sg12
g13
(g14
g15
NtRp2050
(dp2051
g18
I1
sg19
I0
sg20
I0
sg21
I0
sg22
I0
sg23
I0
sg24
I0
sbssg25
S'\x19g\xdfM\x1a\x019\xaf\x1baIeR\xe5u\xa7'
p2052
ssS'user_system_serializers_users_user_profile_update_request_serializer'
p2053
(dp2054
g116
(dp2055
S'html_filename'
p2056
S'user_system_serializers_users_user_profile_update_request_serializer.html'
p2057
sS'name'
p2058
S'user_system/serializers/users/user_profile_update_request_serializer'
p2059
sS'nums'
p2060
g13
(g14
g15
NtRp2061
(dp2062
g18
I1
sg19
I0
sg20
I20
sg21
I0
sg22
I0
sg23
I2
sg24
I0
sbssg122
S'\x19EO\xe6\xb5\xdbWY\xb8\xd9\x1cP&\xe3\xc4\xca'
p2063
ssS'create_views_books_tests_test_get_books_list_view'
p2064
(dp2065
g939
(dp2066
g93
S'create_views_books_tests_test_get_books_list_view.html'
p2067
sg95
S'create/views/books/tests/test_get_books_list_view'
p2068
sg97
g13
(g14
g15
NtRp2069
(dp2070
g18
I1
sg19
I0
sg20
I21
sg21
I0
sg22
I0
sg23
I0
sg24
I0
sbssg945
S'\x16\x8f\xf1\x81>\x0f\xb4S\x19\xff\xcd\xc1Y\xe9;\x98'
p2071
ssS'user_system_serializers_schools_classroom_serializer'
p2072
(dp2073
g116
(dp2074
g31
S'user_system_serializers_schools_classroom_serializer.html'
p2075
sg33
S'user_system/serializers/schools/classroom_serializer'
p2076
sg35
g13
(g14
g15
NtRp2077
(dp2078
g18
I1
sg19
I0
sg20
I13
sg21
I0
sg22
I0
sg23
I2
sg24
I0
sbssg122
S'\\\x02 #\xfc|[\xb1g\x7f\x83+\xb6\xaa\x13\x01'
p2079
ssS'create_models_daily_quest_copies_tests___init__'
p2080
(dp2081
g414
(dp2082
g1518
S'create_models_daily_quest_copies_tests___init__.html'
p2083
sg1520
S'create/models/daily_quest_copies/tests/__init__'
p2084
sg1522
g13
(g14
g15
NtRp2085
(dp2086
g18
I1
sg19
I0
sg20
I0
sg21
I0
sg22
I0
sg23
I0
sg24
I0
sbssg423
S'\x19g\xdfM\x1a\x019\xaf\x1baIeR\xe5u\xa7'
p2087
ssS'api_logging_views_summary_user_activity_summary_view'
p2088
(dp2089
g297
(dp2090
g177
S'api_logging_views_summary_user_activity_summary_view.html'
p2091
sg179
S'api_logging/views/summary/user_activity_summary_view'
p2092
sg181
g13
(g14
g15
NtRp2093
(dp2094
g18
I1
sg19
I8
sg20
I27
sg21
I0
sg22
I0
sg23
I13
sg24
I8
sbssg303
S'\x99\xfc\\\x0e\x10\x840(\x94\xd3(k\x9f\xb4\xd9M'
p2095
ssS'create_urls'
p2096
(dp2097
g42
(dp2098
g57
S'create_urls.html'
p2099
sg59
S'create/urls'
p2100
sg61
g13
(g14
g15
NtRp2101
(dp2102
g18
I1
sg19
I0
sg20
I22
sg21
I0
sg22
I0
sg23
I0
sg24
I0
sbssg51
S"k/4\x8e_h\xf3)p'\x8e\x80v\x1e\xbdg"
p2103
ssS'create_views_tags_tests_test_get_tags_list_view'
p2104
(dp2105
g427
(dp2106
g93
S'create_views_tags_tests_test_get_tags_list_view.html'
p2107
sg95
S'create/views/tags/tests/test_get_tags_list_view'
p2108
sg97
g13
(g14
g15
NtRp2109
(dp2110
g18
I1
sg19
I0
sg20
I21
sg21
I0
sg22
I0
sg23
I0
sg24
I0
sbssg436
S'F\xf6yk?\xb2\xc12\x93\x8b\xe6Bx\xa09\x89'
p2111
ssS'create_serializers_tags_tag_serializer'
p2112
(dp2113
g349
(dp2114
g93
S'create_serializers_tags_tag_serializer.html'
p2115
sg95
S'create/serializers/tags/tag_serializer'
p2116
sg97
g13
(g14
g15
NtRp2117
(dp2118
g18
I1
sg19
I0
sg20
I38
sg21
I0
sg22
I0
sg23
I0
sg24
I0
sbssg355
S'\xf7\xa8n\xd6\xf1\xe1\xf8\xaedX\x8e\xfe\ry\xd4\xc3'
p2119
ssS'user_system_models_users_teacher_mapping_model'
p2120
(dp2121
g29
(dp2122
g1243
S'user_system_models_users_teacher_mapping_model.html'
p2123
sg1245
S'user_system/models/users/teacher_mapping_model'
p2124
sg1247
g13
(g14
g15
NtRp2125
(dp2126
g18
I1
sg19
I4
sg20
I25
sg21
I0
sg22
I0
sg23
I0
sg24
I0
sbssg38
S'\xf8\xaf0\xe2\xc1q\x88\xa4\\\xde\x81@\xa4\xe3\xef\x12'
p2127
ssS'create_models_questions___init__'
p2128
(dp2129
g42
(dp2130
g594
S'create_models_questions___init__.html'
p2131
sg596
S'create/models/questions/__init__'
p2132
sg598
g13
(g14
g15
NtRp2133
(dp2134
g18
I1
sg19
I0
sg20
I6
sg21
I0
sg22
I0
sg23
I0
sg24
I0
sbssg51
S'\xd4\xfd\xae\xf0N\xdd-\x07$U\xac\xf1\xc2\x0f\xa5H'
p2135
ssS'create_models_tags_tag_type_model'
p2136
(dp2137
g383
(dp2138
g44
S'create_models_tags_tag_type_model.html'
p2139
sg46
S'create/models/tags/tag_type_model'
p2140
sg48
g13
(g14
g15
NtRp2141
(dp2142
g18
I1
sg19
I0
sg20
I15
sg21
I0
sg22
I0
sg23
I0
sg24
I0
sbssg389
S'\x89\x07\x8e\xc7^0\x96Do\xbf\xa5\xca5\xe4\x92\xeb'
p2143
ssS'create_serializers___init__'
p2144
(dp2145
g42
(dp2146
g57
S'create_serializers___init__.html'
p2147
sg59
S'create/serializers/__init__'
p2148
sg61
g13
(g14
g15
NtRp2149
(dp2150
g18
I1
sg19
I0
sg20
I6
sg21
I0
sg22
I0
sg23
I0
sg24
I0
sbssg51
S'\x97\xc3"\xfe\x83V\xc1w\xa6r\x02s qES'
p2151
ssS'create_serializers_books_book_history_serializer'
p2152
(dp2153
g939
(dp2154
g93
S'create_serializers_books_book_history_serializer.html'
p2155
sg95
S'create/serializers/books/book_history_serializer'
p2156
sg97
g13
(g14
g15
NtRp2157
(dp2158
g18
I1
sg19
I0
sg20
I14
sg21
I0
sg22
I0
sg23
I0
sg24
I0
sbssg945
S'|g\x1e1\xcdq*ob~B\xca\xd92\x8b\x01'
p2159
ssS'teach_views_daily_quest_templates___init__'
p2160
(dp2161
g55
(dp2162
g57
S'teach_views_daily_quest_templates___init__.html'
p2163
sg59
S'teach/views/daily_quest_templates/__init__'
p2164
sg61
g13
(g14
g15
NtRp2165
(dp2166
g18
I1
sg19
I0
sg20
I1
sg21
I0
sg22
I0
sg23
I0
sg24
I0
sbssg64
S'\xc1b\x1f\x95\xabR`C\xe80\xb9tNC\r3'
p2167
ssS'teach___init__'
p2168
(dp2169
g55
(dp2170
g57
S'teach___init__.html'
p2171
sg59
S'teach/__init__'
p2172
sg61
g13
(g14
g15
NtRp2173
(dp2174
g18
I1
sg19
I0
sg20
I0
sg21
I0
sg22
I0
sg23
I0
sg24
I0
sbssg64
S'\x19g\xdfM\x1a\x019\xaf\x1baIeR\xe5u\xa7'
p2175
ssS'user_system_views_users___init__'
p2176
(dp2177
g42
(dp2178
g177
S'user_system_views_users___init__.html'
p2179
sg179
S'user_system/views/users/__init__'
p2180
sg181
g13
(g14
g15
NtRp2181
(dp2182
g18
I1
sg19
I0
sg20
I6
sg21
I0
sg22
I0
sg23
I0
sg24
I0
sbssg51
S'YNj\xa9zR_\xf0?\x10V\x89y\x81\xbb\xeb'
p2183
ssS'flipped_helpers_tests_test_email_helper'
p2184
(dp2185
g42
(dp2186
g44
S'flipped_helpers_tests_test_email_helper.html'
p2187
sg46
S'flipped/helpers/tests/test_email_helper'
p2188
sg48
g13
(g14
g15
NtRp2189
(dp2190
g18
I1
sg19
I0
sg20
I13
sg21
I0
sg22
I0
sg23
I0
sg24
I0
sbssg51
S'\x13\xee\xcb^E:3A\xff)v\x7f\xd3\xa7\xa2\xaa'
p2191
ssS'user_system_serializers_users___init__'
p2192
(dp2193
g42
(dp2194
g177
S'user_system_serializers_users___init__.html'
p2195
sg179
S'user_system/serializers/users/__init__'
p2196
sg181
g13
(g14
g15
NtRp2197
(dp2198
g18
I1
sg19
I0
sg20
I7
sg21
I0
sg22
I0
sg23
I0
sg24
I0
sbssg51
S'8\xb4\xd8m\x9aA\xf2,\xb1\xe4\xb3\xe2#\xab\xd0#'
p2199
ssS'user_system_models_schools_tests_test_semester_model'
p2200
(dp2201
g206
(dp2202
g1435
S'user_system_models_schools_tests_test_semester_model.html'
p2203
sg1437
S'user_system/models/schools/tests/test_semester_model'
p2204
sg1439
g13
(g14
g15
NtRp2205
(dp2206
g18
I1
sg19
I0
sg20
I29
sg21
I0
sg22
I0
sg23
I0
sg24
I0
sbssg215
S'\xe9\xd9\xdc\\\xb9\x93\xb1\x93Q\x02\xe9\xb7Y,\xa6w'
p2207
ssS'create_views_quests_tests___init__'
p2208
(dp2209
g6
(dp2210
g8
S'create_views_quests_tests___init__.html'
p2211
sg10
S'create/views/quests/tests/__init__'
p2212
sg12
g13
(g14
g15
NtRp2213
(dp2214
g18
I1
sg19
I0
sg20
I0
sg21
I0
sg22
I0
sg23
I0
sg24
I0
sbssg25
S'\x19g\xdfM\x1a\x019\xaf\x1baIeR\xe5u\xa7'
p2215
ssS'user_system_serializers_schools_course_serializer'
p2216
(dp2217
g116
(dp2218
g31
S'user_system_serializers_schools_course_serializer.html'
p2219
sg33
S'user_system/serializers/schools/course_serializer'
p2220
sg35
g13
(g14
g15
NtRp2221
(dp2222
g18
I1
sg19
I0
sg20
I16
sg21
I0
sg22
I0
sg23
I2
sg24
I0
sbssg122
S'\xb0\xa8O3\x01\xce\xfe3\x12\x94\xc0\xc4\xe0@\xafJ'
p2223
ssS'user_system_views_users_tests_test_delete_user_view'
p2224
(dp2225
g42
(dp2226
g44
S'user_system_views_users_tests_test_delete_user_view.html'
p2227
sg46
S'user_system/views/users/tests/test_delete_user_view'
p2228
sg48
g13
(g14
g15
NtRp2229
(dp2230
g18
I1
sg19
I0
sg20
I22
sg21
I0
sg22
I0
sg23
I0
sg24
I0
sbssg51
S'\xe4S$\xa1t\xc6\xbe\xc7\xb9^Y\x05{\x92KQ'
p2231
ssS'learn_models_daily_quests_daily_quest_question_history_model'
p2232
(dp2233
S'index'
p2234
(dp2235
S'html_filename'
p2236
S'learn_models_daily_quests_daily_quest_question_history_model.html'
p2237
sS'name'
p2238
S'learn/models/daily_quests/daily_quest_question_history_model'
p2239
sS'nums'
p2240
g13
(g14
g15
NtRp2241
(dp2242
g18
I1
sg19
I6
sg20
I65
sg21
I0
sg22
I0
sg23
I4
sg24
I2
sbssS'hash'
p2243
S')\x12x?=\x06;DF\xf0#m\x85F\xbd*'
p2244
ssS'user_system_models_users_user_profile_update_request_model'
p2245
(dp2246
g116
(dp2247
g633
S'user_system_models_users_user_profile_update_request_model.html'
p2248
sg635
S'user_system/models/users/user_profile_update_request_model'
p2249
sg637
g13
(g14
g15
NtRp2250
(dp2251
g18
I1
sg19
I0
sg20
I58
sg21
I0
sg22
I0
sg23
I0
sg24
I0
sbssg122
S'\xc8t\x16>\xb9"\xff\x93\xe3\x00\xa5z0[\xacM'
p2252
ssS'create_models_tags_tag_history_model'
p2253
(dp2254
g566
(dp2255
g221
S'create_models_tags_tag_history_model.html'
p2256
sg223
S'create/models/tags/tag_history_model'
p2257
sg225
g13
(g14
g15
NtRp2258
(dp2259
g18
I1
sg19
I0
sg20
I37
sg21
I0
sg22
I0
sg23
I0
sg24
I0
sbssg572
S'\xae\xc8g\xc1\xf5l<\x1f\x9c\xaf\x17\xf98\r\xa1\xe2'
p2260
ssS'create_serializers_daily_quest_copies___init__'
p2261
(dp2262
g414
(dp2263
g1518
S'create_serializers_daily_quest_copies___init__.html'
p2264
sg1520
S'create/serializers/daily_quest_copies/__init__'
p2265
sg1522
g13
(g14
g15
NtRp2266
(dp2267
g18
I1
sg19
I0
sg20
I1
sg21
I0
sg22
I0
sg23
I0
sg24
I0
sbssg423
S'\nX]\x85Nc\xb8\xc0\xe1\xaf\xa0\xda_\x9e\xb9u'
p2268
ssS'user_system_models_schools_course_model'
p2269
(dp2270
g232
(dp2271
g633
S'user_system_models_schools_course_model.html'
p2272
sg635
S'user_system/models/schools/course_model'
p2273
sg637
g13
(g14
g15
NtRp2274
(dp2275
g18
I1
sg19
I6
sg20
I37
sg21
I0
sg22
I0
sg23
I0
sg24
I0
sbssg238
S']\xfb\xca\\\xbf\x86n\xc3fj\xc2\x1ej\\q\x14'
p2276
ssS'create_models_daily_quest_copies_tests_test_daily_quest_copy_model'
p2277
(dp2278
g414
(dp2279
g548
S'create_models_daily_quest_copies_tests_test_daily_quest_copy_model.html'
p2280
sg550
S'create/models/daily_quest_copies/tests/test_daily_quest_copy_model'
p2281
sg552
g13
(g14
g15
NtRp2282
(dp2283
g18
I1
sg19
I4
sg20
I45
sg21
I0
sg22
I0
sg23
I0
sg24
I0
sbssg423
S'\xcd\xeeU\x8a\xd7\x95\x9e5E\xd0\xaf\xd07\x80\x85\xe0'
p2284
ssS'privilege_views_privileges___init__'
p2285
(dp2286
g287
(dp2287
g93
S'privilege_views_privileges___init__.html'
p2288
sg95
S'privilege/views/privileges/__init__'
p2289
sg97
g13
(g14
g15
NtRp2290
(dp2291
g18
I1
sg19
I0
sg20
I1
sg21
I0
sg22
I0
sg23
I0
sg24
I0
sbssg293
S']\x14S\xdf\xb4:Tx\xb9\x98\x89\xe7\x01%DZ'
p2292
ssS'teach_models_teacher_chapters_teacher_chapter_model'
p2293
(dp2294
g55
(dp2295
S'html_filename'
p2296
S'teach_models_teacher_chapters_teacher_chapter_model.html'
p2297
sS'name'
p2298
S'teach/models/teacher_chapters/teacher_chapter_model'
p2299
sS'nums'
p2300
g13
(g14
g15
NtRp2301
(dp2302
g18
I1
sg19
I0
sg20
I23
sg21
I0
sg22
I0
sg23
I0
sg24
I0
sbssg64
S'\x97T&\xd0\x81q\xc2M\xc3\x03\x01U\xf5S!h'
p2303
ssS'create_models_questions_question_template_model'
p2304
(dp2305
g103
(dp2306
S'html_filename'
p2307
S'create_models_questions_question_template_model.html'
p2308
sS'name'
p2309
S'create/models/questions/question_template_model'
p2310
sS'nums'
p2311
g13
(g14
g15
NtRp2312
(dp2313
g18
I1
sg19
I0
sg20
I40
sg21
I0
sg22
I0
sg23
I0
sg24
I0
sbssg112
S'\x845gz\x1d\x17\x1dv\x81\n\x96G\x99pE\\'
p2314
ssS'create_views_questions_tests_test_get_question_by_id_view'
p2315
(dp2316
g42
(dp2317
g93
S'create_views_questions_tests_test_get_question_by_id_view.html'
p2318
sg95
S'create/views/questions/tests/test_get_question_by_id_view'
p2319
sg97
g13
(g14
g15
NtRp2320
(dp2321
g18
I1
sg19
I0
sg20
I24
sg21
I0
sg22
I0
sg23
I0
sg24
I0
sbssg51
S'\xa7[\x91\xa9\xa6\xb4\xbd&n$O^O\xec\xf2X'
p2322
ssS'teach_models_teacher_tags_tests___init__'
p2323
(dp2324
g55
(dp2325
g57
S'teach_models_teacher_tags_tests___init__.html'
p2326
sg59
S'teach/models/teacher_tags/tests/__init__'
p2327
sg61
g13
(g14
g15
NtRp2328
(dp2329
g18
I1
sg19
I0
sg20
I0
sg21
I0
sg22
I0
sg23
I0
sg24
I0
sbssg64
S'\x19g\xdfM\x1a\x019\xaf\x1baIeR\xe5u\xa7'
p2330
ssS'api_logging_urls'
p2331
(dp2332
g297
(dp2333
g177
S'api_logging_urls.html'
p2334
sg179
S'api_logging/urls'
p2335
sg181
g13
(g14
g15
NtRp2336
(dp2337
g18
I1
sg19
I0
sg20
I13
sg21
I0
sg22
I0
sg23
I0
sg24
I0
sbssg303
S'`K\xc5_\x82\xb4\x1c^\xd6\x98+\xe6\xf0/\x97\x06'
p2338
ssS'api_logging_serializers_LoggingSerializer'
p2339
(dp2340
g297
(dp2341
g177
S'api_logging_serializers_LoggingSerializer.html'
p2342
sg179
S'api_logging/serializers/LoggingSerializer'
p2343
sg181
g13
(g14
g15
NtRp2344
(dp2345
g18
I1
sg19
I0
sg20
I12
sg21
I0
sg22
I0
sg23
I0
sg24
I0
sbssg303
S'1\xdb}\x8eJ\x1a\xe6@D\xcc}\xf4\x11(\x11\xb0'
p2346
ssS'create_views_books_tests_test_remove_subchapter_view'
p2347
(dp2348
S'index'
p2349
(dp2350
g44
S'create_views_books_tests_test_remove_subchapter_view.html'
p2351
sg46
S'create/views/books/tests/test_remove_subchapter_view'
p2352
sg48
g13
(g14
g15
NtRp2353
(dp2354
g18
I1
sg19
I0
sg20
I44
sg21
I0
sg22
I0
sg23
I0
sg24
I0
sbssS'hash'
p2355
S'\x0b\xddi\xaa_d\x8c\xf3b\xa2\x12\xbc\xce\xa5\xbf\x8b'
p2356
ssS'teach_views_summaries_daily_quest_daily_summary_view'
p2357
(dp2358
g297
(dp2359
g958
S'teach_views_summaries_daily_quest_daily_summary_view.html'
p2360
sg960
S'teach/views/summaries/daily_quest_daily_summary_view'
p2361
sg962
g13
(g14
g15
NtRp2362
(dp2363
g18
I1
sg19
I14
sg20
I63
sg21
I0
sg22
I0
sg23
I41
sg24
I14
sbssg303
S'B\x1d&|\xd4\xaf\xbb\xc5=\x90,y\xe4"\xf5]'
p2364
ssS'learn_models_points_point_history_model'
p2365
(dp2366
g297
(dp2367
g177
S'learn_models_points_point_history_model.html'
p2368
sg179
S'learn/models/points/point_history_model'
p2369
sg181
g13
(g14
g15
NtRp2370
(dp2371
g18
I1
sg19
I0
sg20
I16
sg21
I0
sg22
I0
sg23
I0
sg24
I0
sbssg303
S'\xa8\xbaH\x19\x11\xbeT\xe2N=\xfe\xed\x9d\xd4\x83\x1e'
p2372
ssS'user_system___init__'
p2373
(dp2374
g42
(dp2375
g449
S'user_system___init__.html'
p2376
sg451
S'user_system/__init__'
p2377
sg453
g13
(g14
g15
NtRp2378
(dp2379
g18
I1
sg19
I0
sg20
I0
sg21
I0
sg22
I0
sg23
I0
sg24
I0
sbssg51
S'\x19g\xdfM\x1a\x019\xaf\x1baIeR\xe5u\xa7'
p2380
ssS'create_models_question_datasets_question_dataset_model'
p2381
(dp2382
g144
(dp2383
g146
S'create_models_question_datasets_question_dataset_model.html'
p2384
sg148
S'create/models/question_datasets/question_dataset_model'
p2385
sg150
g13
(g14
g15
NtRp2386
(dp2387
g18
I1
sg19
I0
sg20
I25
sg21
I0
sg22
I0
sg23
I0
sg24
I0
sbssg153
S'\x9e\x8d\xc6\xe6\xe4\x9f#\xfdc\xc9q\r\x17Y\x8e\xb1'
p2388
ssS'create_views_question_datasets___init__'
p2389
(dp2390
g144
(dp2391
g146
S'create_views_question_datasets___init__.html'
p2392
sg148
S'create/views/question_datasets/__init__'
p2393
sg150
g13
(g14
g15
NtRp2394
(dp2395
g18
I1
sg19
I0
sg20
I1
sg21
I0
sg22
I0
sg23
I0
sg24
I0
sbssg153
S'\x87x\xd1\xbe\x15\xd3\xbc\x99\x86\x08\xf8\x06S\xcf\x00\x87'
p2396
ssS'teach_serializers_daily_quest_templates___init__'
p2397
(dp2398
g55
(dp2399
g57
S'teach_serializers_daily_quest_templates___init__.html'
p2400
sg59
S'teach/serializers/daily_quest_templates/__init__'
p2401
sg61
g13
(g14
g15
NtRp2402
(dp2403
g18
I1
sg19
I0
sg20
I1
sg21
I0
sg22
I0
sg23
I0
sg24
I0
sbssg64
S'\xa2\xd34\x1b\xe2+\x16\xa9un\x8f\xa5\xe6\xc4\\p'
p2404
ssS'create_views_books_tests_test_remove_tag_from_subchapter_view'
p2405
(dp2406
g1536
(dp2407
g44
S'create_views_books_tests_test_remove_tag_from_subchapter_view.html'
p2408
sg46
S'create/views/books/tests/test_remove_tag_from_subchapter_view'
p2409
sg48
g13
(g14
g15
NtRp2410
(dp2411
g18
I1
sg19
I0
sg20
I40
sg21
I0
sg22
I0
sg23
I0
sg24
I0
sbssg1542
S"(Vo#\xdd\x9a\xbc\x11\xff\xd6'\xd7\xeb\xca\x1aM"
p2412
ssS'create_views_daily_quests___init__'
p2413
(dp2414
g242
(dp2415
g244
S'create_views_daily_quests___init__.html'
p2416
sg246
S'create/views/daily_quests/__init__'
p2417
sg248
g13
(g14
g15
NtRp2418
(dp2419
g18
I1
sg19
I0
sg20
I1
sg21
I0
sg22
I0
sg23
I0
sg24
I0
sbssg251
S'\xa3\x08\xf3\xbaF\xd5u\x88\x12\xa3V\x05K\xe5\xd0\xa9'
p2420
ssS'flipped_helpers_email_helper'
p2421
(dp2422
g42
(dp2423
g44
S'flipped_helpers_email_helper.html'
p2424
sg46
S'flipped/helpers/email_helper'
p2425
sg48
g13
(g14
g15
NtRp2426
(dp2427
g18
I1
sg19
I2
sg20
I9
sg21
I0
sg22
I0
sg23
I0
sg24
I0
sbssg51
S"\xeal\t\x03)\xcc\xc4\x0b\r\xe2&\x83a'I\xad"
p2428
ssS'flipped_urls'
p2429
(dp2430
g42
(dp2431
g93
S'flipped_urls.html'
p2432
sg95
S'flipped/urls'
p2433
sg97
g13
(g14
g15
NtRp2434
(dp2435
g18
I1
sg19
I0
sg20
I9
sg21
I0
sg22
I0
sg23
I0
sg24
I0
sbssg51
S'\xcbN{\xd0A\x0b\xa0\xc3\xd4\x8cr\xe3\x1e\x12\x1e\xb0'
p2436
ssS'teach_views_summaries_daily_quest_summary_view'
p2437
(dp2438
g297
(dp2439
g958
S'teach_views_summaries_daily_quest_summary_view.html'
p2440
sg960
S'teach/views/summaries/daily_quest_summary_view'
p2441
sg962
g13
(g14
g15
NtRp2442
(dp2443
g18
I1
sg19
I24
sg20
I72
sg21
I0
sg22
I0
sg23
I52
sg24
I24
sbssg303
S'\xef\xc3D\xecT\x12\xea\x03Zt\xda\x00e\x98\xb0\x8f'
p2444
ssS'user_system_views_users_student_profile_request_view'
p2445
(dp2446
g116
(dp2447
g31
S'user_system_views_users_student_profile_request_view.html'
p2448
sg33
S'user_system/views/users/student_profile_request_view'
p2449
sg35
g13
(g14
g15
NtRp2450
(dp2451
g18
I1
sg19
I0
sg20
I14
sg21
I0
sg22
I0
sg23
I0
sg24
I0
sbssg122
S'\x87:\xd0\xef\x04\xf3-q\r\xe7\xec \xceS\xee<'
p2452
ssS'user_system_views_logins_tests___init__'
p2453
(dp2454
g42
(dp2455
g449
S'user_system_views_logins_tests___init__.html'
p2456
sg451
S'user_system/views/logins/tests/__init__'
p2457
sg453
g13
(g14
g15
NtRp2458
(dp2459
g18
I1
sg19
I0
sg20
I1
sg21
I0
sg22
I0
sg23
I0
sg24
I0
sbssg51
S'\xbc\xd6\xeb\xb3\xba\xcaz\xf7{\xd4B\xb5}l\xdf\x96'
p2460
ssS'api_logging_views_modal_loggings___init__'
p2461
(dp2462
g297
(dp2463
g177
S'api_logging_views_modal_loggings___init__.html'
p2464
sg179
S'api_logging/views/modal_loggings/__init__'
p2465
sg181
g13
(g14
g15
NtRp2466
(dp2467
g18
I1
sg19
I0
sg20
I1
sg21
I0
sg22
I0
sg23
I0
sg24
I0
sbssg303
S'\xf1\x0fWK\x0c\x9eD\xe8\x12\xaf\x93\xfa\xd7q\xa8\x91'
p2468
ssS'user_system_views_users_tests_test_get_users_by_signup_type_view'
p2469
(dp2470
g42
(dp2471
g93
S'user_system_views_users_tests_test_get_users_by_signup_type_view.html'
p2472
sg95
S'user_system/views/users/tests/test_get_users_by_signup_type_view'
p2473
sg97
g13
(g14
g15
NtRp2474
(dp2475
g18
I1
sg19
I0
sg20
I44
sg21
I0
sg22
I0
sg23
I0
sg24
I0
sbssg51
S'T/\xf9\xf8\x94\xd6Lm\x89o\xb6\x99/Z\xc1]'
p2476
ssS'user_system_serializers_users_user_serializer'
p2477
(dp2478
g42
(dp2479
g93
S'user_system_serializers_users_user_serializer.html'
p2480
sg95
S'user_system/serializers/users/user_serializer'
p2481
sg97
g13
(g14
g15
NtRp2482
(dp2483
g18
I1
sg19
I8
sg20
I46
sg21
I0
sg22
I2
sg23
I8
sg24
I6
sbssg51
S'\xb2\xee\xa4\xa6\x8b\xe1\xe1\xce\xaa\xe6\xdd\xbd\xb3\xf2\x81/'
p2484
ssS'create_serializers_daily_quest_copies_daily_quest_copy_serializer'
p2485
(dp2486
g414
(dp2487
g1518
S'create_serializers_daily_quest_copies_daily_quest_copy_serializer.html'
p2488
sg1520
S'create/serializers/daily_quest_copies/daily_quest_copy_serializer'
p2489
sg1522
g13
(g14
g15
NtRp2490
(dp2491
g18
I1
sg19
I0
sg20
I18
sg21
I0
sg22
I0
sg23
I3
sg24
I0
sbssg423
S'\xb6\xc6tAeANu\xae\n4T\xc1.\xe2\xfd'
p2492
ssS'create_models_books_tests_test_book_history_model'
p2493
(dp2494
g349
(dp2495
g633
S'create_models_books_tests_test_book_history_model.html'
p2496
sg635
S'create/models/books/tests/test_book_history_model'
p2497
sg637
g13
(g14
g15
NtRp2498
(dp2499
g18
I1
sg19
I0
sg20
I65
sg21
I0
sg22
I0
sg23
I0
sg24
I0
sbssg355
S'\xedQI\xf5\x17. 8I\x938\xca4\x05=\xf3'
p2500
ssS'create_views_quests_tests_test_remove_question_view'
p2501
(dp2502
g6
(dp2503
g8
S'create_views_quests_tests_test_remove_question_view.html'
p2504
sg10
S'create/views/quests/tests/test_remove_question_view'
p2505
sg12
g13
(g14
g15
NtRp2506
(dp2507
g18
I1
sg19
I0
sg20
I0
sg21
I0
sg22
I0
sg23
I0
sg24
I0
sbssg25
S'\x19g\xdfM\x1a\x019\xaf\x1baIeR\xe5u\xa7'
p2508
ssS'create_serializers_daily_quest_templates_daily_quest_template_serializer'
p2509
(dp2510
g242
(dp2511
g244
S'create_serializers_daily_quest_templates_daily_quest_template_serializer.html'
p2512
sg246
S'create/serializers/daily_quest_templates/daily_quest_template_serializer'
p2513
sg248
g13
(g14
g15
NtRp2514
(dp2515
g18
I1
sg19
I0
sg20
I8
sg21
I0
sg22
I0
sg23
I0
sg24
I0
sbssg251
S'-b,\x8cFu\xd2b\x8b\rw5\xa4\xf7\xc3\xf2'
p2516
ssS'user_system_managers___init__'
p2517
(dp2518
g297
(dp2519
g177
S'user_system_managers___init__.html'
p2520
sg179
S'user_system/managers/__init__'
p2521
sg181
g13
(g14
g15
NtRp2522
(dp2523
g18
I1
sg19
I0
sg20
I2
sg21
I0
sg22
I0
sg23
I0
sg24
I0
sbssg303
S'\xf1\xb0\xc3\xd3B\x8d\xdf\x12\x1bW\x06\xa4\xe7\x13A '
p2524
ssS'teach_models_campaigns_tests_test_campaign_model'
p2525
(dp2526
g116
(dp2527
g31
S'teach_models_campaigns_tests_test_campaign_model.html'
p2528
sg33
S'teach/models/campaigns/tests/test_campaign_model'
p2529
sg35
g13
(g14
g15
NtRp2530
(dp2531
g18
I1
sg19
I0
sg20
I43
sg21
I0
sg22
I0
sg23
I0
sg24
I0
sbssg122
S"\x1b\xbbi{\xe8\xa9o\xd3w\xfb'\x1e\xca\x1b\xd9\xc7"
p2532
ssS'api_logging_views_modal_loggings_modal_user_history_view'
p2533
(dp2534
g297
(dp2535
g177
S'api_logging_views_modal_loggings_modal_user_history_view.html'
p2536
sg179
S'api_logging/views/modal_loggings/modal_user_history_view'
p2537
sg181
g13
(g14
g15
NtRp2538
(dp2539
g18
I1
sg19
I0
sg20
I12
sg21
I0
sg22
I0
sg23
I0
sg24
I0
sbssg303
S'\xb4\xa3\xa1!\x95\x8a\x06\xf5\x19\x1c=\xe2B\xa3b\t'
p2540
ssS'user_system_views_logins_tests_test_email_login_view'
p2541
(dp2542
g42
(dp2543
g44
S'user_system_views_logins_tests_test_email_login_view.html'
p2544
sg46
S'user_system/views/logins/tests/test_email_login_view'
p2545
sg48
g13
(g14
g15
NtRp2546
(dp2547
g18
I1
sg19
I0
sg20
I61
sg21
I0
sg22
I0
sg23
I0
sg24
I0
sbssg51
S'\x926\xe8\xcdL\xf3U\xc1C\x1b\x0f\xaf\xf0c\x9b\xd0'
p2548
ssS'create_views_books_book_chapter_view'
p2549
(dp2550
g566
(dp2551
g177
S'create_views_books_book_chapter_view.html'
p2552
sg179
S'create/views/books/book_chapter_view'
p2553
sg181
g13
(g14
g15
NtRp2554
(dp2555
g18
I1
sg19
I12
sg20
I44
sg21
I0
sg22
I0
sg23
I22
sg24
I12
sbssg572
S'\x0b3\xd8 \xe1\x08#79\x0c\x7f\x1f6\xad0\xe9'
p2556
ssS'create_views___init__'
p2557
(dp2558
g42
(dp2559
g57
S'create_views___init__.html'
p2560
sg59
S'create/views/__init__'
p2561
sg61
g13
(g14
g15
NtRp2562
(dp2563
g18
I1
sg19
I0
sg20
I7
sg21
I0
sg22
I0
sg23
I0
sg24
I0
sbssg51
S'\x8f\x98\x9b$~\xde\xc2\xfc\x97/\x14^\xe8\xf8\x10M'
p2564
ssS'user_system_serializers_users_student_profile_serializer'
p2565
(dp2566
g116
(dp2567
g416
S'user_system_serializers_users_student_profile_serializer.html'
p2568
sg418
S'user_system/serializers/users/student_profile_serializer'
p2569
sg420
g13
(g14
g15
NtRp2570
(dp2571
g18
I1
sg19
I0
sg20
I10
sg21
I0
sg22
I0
sg23
I0
sg24
I0
sbssg122
S'\xb4\n*\x1b\x86\xd1\\\xa2k\xeb\xd8\xeaW\x0c\xd8x'
p2572
ssS'flipped_helpers_errors_helper'
p2573
(dp2574
g42
(dp2575
g44
S'flipped_helpers_errors_helper.html'
p2576
sg46
S'flipped/helpers/errors_helper'
p2577
sg48
g13
(g14
g15
NtRp2578
(dp2579
g18
I1
sg19
I0
sg20
I5
sg21
I0
sg22
I0
sg23
I0
sg24
I0
sbssg51
S'\x91\x04\x1c\xf86c\xad\xf7\xe3\xf13\xf5n8eP'
p2580
ssS'teach_views_teacher_tags_teacher_tag_view'
p2581
(dp2582
g55
(dp2583
g177
S'teach_views_teacher_tags_teacher_tag_view.html'
p2584
sg179
S'teach/views/teacher_tags/teacher_tag_view'
p2585
sg181
g13
(g14
g15
NtRp2586
(dp2587
g18
I1
sg19
I20
sg20
I55
sg21
I0
sg22
I2
sg23
I30
sg24
I18
sbssg64
S'\xec\x1aQ\x839\x80#\xe5\xca\x98\xf6\xec\x84\x17\xa3\xeb'
p2588
ssS'create_models_questions_tests_test_question_history_model'
p2589
(dp2590
g42
(dp2591
g996
S'create_models_questions_tests_test_question_history_model.html'
p2592
sg998
S'create/models/questions/tests/test_question_history_model'
p2593
sg1000
g13
(g14
g15
NtRp2594
(dp2595
g18
I1
sg19
I2
sg20
I73
sg21
I0
sg22
I0
sg23
I0
sg24
I0
sbssg51
S'i\xd4 \xdcI\x9f\xbc\x0c|\x95\x15wW\xb4\xa9\x15'
p2596
ssS'create_views_tags_tests_test_create_tag_view'
p2597
(dp2598
g427
(dp2599
g44
S'create_views_tags_tests_test_create_tag_view.html'
p2600
sg46
S'create/views/tags/tests/test_create_tag_view'
p2601
sg48
g13
(g14
g15
NtRp2602
(dp2603
g18
I1
sg19
I0
sg20
I33
sg21
I0
sg22
I0
sg23
I0
sg24
I0
sbssg436
S'\\\x91{\x1a ;Qg\xbd\x81\xe2\xaf\xa41\xac\x1b'
p2604
ssS'create_views_questions_tests___init__'
p2605
(dp2606
g42
(dp2607
g449
S'create_views_questions_tests___init__.html'
p2608
sg451
S'create/views/questions/tests/__init__'
p2609
sg453
g13
(g14
g15
NtRp2610
(dp2611
g18
I1
sg19
I0
sg20
I0
sg21
I0
sg22
I0
sg23
I0
sg24
I0
sbssg51
S'\x19g\xdfM\x1a\x019\xaf\x1baIeR\xe5u\xa7'
p2612
ssS'flipped___init__'
p2613
(dp2614
g42
(dp2615
g449
S'flipped___init__.html'
p2616
sg451
S'flipped/__init__'
p2617
sg453
g13
(g14
g15
NtRp2618
(dp2619
g18
I1
sg19
I0
sg20
I0
sg21
I0
sg22
I0
sg23
I0
sg24
I0
sbssg51
S'\x19g\xdfM\x1a\x019\xaf\x1baIeR\xe5u\xa7'
p2620
ssS'user_system_views_roles___init__'
p2621
(dp2622
g42
(dp2623
g449
S'user_system_views_roles___init__.html'
p2624
sg451
S'user_system/views/roles/__init__'
p2625
sg453
g13
(g14
g15
NtRp2626
(dp2627
g18
I1
sg19
I0
sg20
I1
sg21
I0
sg22
I0
sg23
I0
sg24
I0
sbssg51
S'\xeb\x15\r\x85I\x9e<\xbc\x15\xd1P\xef\x16\x8c\xe0l'
p2628
ssS'create_models_daily_quest_templates_tests_test_daily_quest_template_model'
p2629
(dp2630
g242
(dp2631
g244
S'create_models_daily_quest_templates_tests_test_daily_quest_template_model.html'
p2632
sg246
S'create/models/daily_quest_templates/tests/test_daily_quest_template_model'
p2633
sg248
g13
(g14
g15
NtRp2634
(dp2635
g18
I1
sg19
I0
sg20
I37
sg21
I0
sg22
I0
sg23
I0
sg24
I0
sbssg251
S'\x01\x04)\xffw\x13\x9aqx\xb2\x9f\x02\xb0\x90\xf3\xa5'
p2636
ssS'teach_views_summaries___init__'
p2637
(dp2638
g297
(dp2639
g188
S'teach_views_summaries___init__.html'
p2640
sg190
S'teach/views/summaries/__init__'
p2641
sg192
g13
(g14
g15
NtRp2642
(dp2643
g18
I1
sg19
I0
sg20
I6
sg21
I0
sg22
I0
sg23
I0
sg24
I0
sbssg303
S'\xf1\xa7@\xae\xc1+T\x8d\tr\xacb\x91s,\xbf'
p2644
ssS'user_system_models_users_user_profile_history_model'
p2645
(dp2646
g116
(dp2647
g31
S'user_system_models_users_user_profile_history_model.html'
p2648
sg33
S'user_system/models/users/user_profile_history_model'
p2649
sg35
g13
(g14
g15
NtRp2650
(dp2651
g18
I1
sg19
I4
sg20
I72
sg21
I0
sg22
I2
sg23
I12
sg24
I2
sbssg122
S'\x9a\x0c\xe2p\x8b\xee\x01\x87\xfd\x81\xb4\x9bzp\x90\xb6'
p2652
ssS'user_system_models_roles_role_model'
p2653
(dp2654
g42
(dp2655
g44
S'user_system_models_roles_role_model.html'
p2656
sg46
S'user_system/models/roles/role_model'
p2657
sg48
g13
(g14
g15
NtRp2658
(dp2659
g18
I1
sg19
I0
sg20
I16
sg21
I0
sg22
I0
sg23
I0
sg24
I0
sbssg51
S'\x180j\xc8\x05 \xa05\xa7\xffj\x1dJ\x8a6\xcb'
p2660
ssS'user_system_views_users_user_view'
p2661
(dp2662
g42
(dp2663
g177
S'user_system_views_users_user_view.html'
p2664
sg179
S'user_system/views/users/user_view'
p2665
sg181
g13
(g14
g15
NtRp2666
(dp2667
g18
I1
sg19
I66
sg20
I186
sg21
I0
sg22
I0
sg23
I108
sg24
I44
sbssg51
S'S`\xa9\xa5\xad\x9d\x84\x8fOl!#\x8a<\x9c\xed'
p2668
ssS'teach_models_daily_quest_templates_tests_test_daily_quest_template_model'
p2669
(dp2670
g55
(dp2671
g57
S'teach_models_daily_quest_templates_tests_test_daily_quest_template_model.html'
p2672
sg59
S'teach/models/daily_quest_templates/tests/test_daily_quest_template_model'
p2673
sg61
g13
(g14
g15
NtRp2674
(dp2675
g18
I1
sg19
I0
sg20
I37
sg21
I0
sg22
I0
sg23
I0
sg24
I0
sbssg64
S'\x01\x04)\xffw\x13\x9aqx\xb2\x9f\x02\xb0\x90\xf3\xa5'
p2676
ssS'user_system_views_apps___init__'
p2677
(dp2678
g42
(dp2679
g449
S'user_system_views_apps___init__.html'
p2680
sg451
S'user_system/views/apps/__init__'
p2681
sg453
g13
(g14
g15
NtRp2682
(dp2683
g18
I1
sg19
I0
sg20
I1
sg21
I0
sg22
I0
sg23
I0
sg24
I0
sbssg51
S'?:\xf2A\xfa^]\xc5NR\xc9\x13\xb0\xe4\xfa\x9e'
p2684
ssS'user_system_views_users_tests_test_get_users_list_view'
p2685
(dp2686
g42
(dp2687
g93
S'user_system_views_users_tests_test_get_users_list_view.html'
p2688
sg95
S'user_system/views/users/tests/test_get_users_list_view'
p2689
sg97
g13
(g14
g15
NtRp2690
(dp2691
g18
I1
sg19
I0
sg20
I34
sg21
I0
sg22
I0
sg23
I0
sg24
I0
sbssg51
S'\xf5\xe3\x1a\x14e\xf8\xc2\xf0\xa8^$\xf7\x9dv\xb8f'
p2692
ssS'create_models_questions_question_type_model'
p2693
(dp2694
g42
(dp2695
g44
S'create_models_questions_question_type_model.html'
p2696
sg46
S'create/models/questions/question_type_model'
p2697
sg48
g13
(g14
g15
NtRp2698
(dp2699
g18
I1
sg19
I0
sg20
I19
sg21
I0
sg22
I0
sg23
I0
sg24
I0
sbssg51
S'\xb9\xe7I\x93\x8b\xa8\xa8H\x80\x02_\xf9\x87\xa2\xe7\xa5'
p2700
ssS'user_system_views_apps_app_view'
p2701
(dp2702
g42
(dp2703
S'html_filename'
p2704
S'user_system_views_apps_app_view.html'
p2705
sS'name'
p2706
S'user_system/views/apps/app_view'
p2707
sS'nums'
p2708
g13
(g14
g15
NtRp2709
(dp2710
g18
I1
sg19
I0
sg20
I13
sg21
I0
sg22
I0
sg23
I0
sg24
I0
sbssg51
S'\xf7n\xffX\xe7\xd2\xb6\xa5\xc5\xe5\x96\x13\xf4\x9c\xac\x1e'
p2711
ssS'teach_views_summaries_student_list_summary'
p2712
(dp2713
g297
(dp2714
g958
S'teach_views_summaries_student_list_summary.html'
p2715
sg960
S'teach/views/summaries/student_list_summary'
p2716
sg962
g13
(g14
g15
NtRp2717
(dp2718
g18
I1
sg19
I26
sg20
I82
sg21
I0
sg22
I0
sg23
I64
sg24
I26
sbssg303
S'\xcc\x1a\n\xd4k-rB\xe4{\x16\x1fG\xf1\x16C'
p2719
ssS'user_system_models_schools_tests_test_classroom_model'
p2720
(dp2721
g232
(dp2722
g177
S'user_system_models_schools_tests_test_classroom_model.html'
p2723
sg179
S'user_system/models/schools/tests/test_classroom_model'
p2724
sg181
g13
(g14
g15
NtRp2725
(dp2726
g18
I1
sg19
I0
sg20
I31
sg21
I0
sg22
I0
sg23
I0
sg24
I0
sbssg238
S'\xfd\xfd\xa2\x92;\xc3\xaa\x06D\x93\xddbD\xda\xa2\x1e'
p2727
ssS'user_system_views_schools_school_view'
p2728
(dp2729
g116
(dp2730
g31
S'user_system_views_schools_school_view.html'
p2731
sg33
S'user_system/views/schools/school_view'
p2732
sg35
g13
(g14
g15
NtRp2733
(dp2734
g18
I1
sg19
I0
sg20
I16
sg21
I0
sg22
I0
sg23
I0
sg24
I0
sbssg122
S'\xc8\x0b\xef\x9e86\xe5\x19\xaa\x9e\x93+\x03\xfb\x98\x99'
p2735
ssS'learn_models_points_point_type_model'
p2736
(dp2737
g297
(dp2738
g633
S'learn_models_points_point_type_model.html'
p2739
sg635
S'learn/models/points/point_type_model'
p2740
sg637
g13
(g14
g15
NtRp2741
(dp2742
g18
I1
sg19
I0
sg20
I20
sg21
I0
sg22
I0
sg23
I0
sg24
I0
sbssg303
S'\x84\x1b\x18\n\xa9\xae\xe5\xd57\xa7}h\xdaD\x19+'
p2743
ssS'user_system_models_roles_tests_test_role_app_model'
p2744
(dp2745
g42
(dp2746
g44
S'user_system_models_roles_tests_test_role_app_model.html'
p2747
sg46
S'user_system/models/roles/tests/test_role_app_model'
p2748
sg48
g13
(g14
g15
NtRp2749
(dp2750
g18
I1
sg19
I0
sg20
I21
sg21
I0
sg22
I0
sg23
I0
sg24
I0
sbssg51
S"\x80\xd7v\xbb\xe5d.\xeb\xfd\xc4\x04\xb2\x04'\xc6V"
p2751
ssS'user_system_views_schools_grade_view'
p2752
(dp2753
g116
(dp2754
g31
S'user_system_views_schools_grade_view.html'
p2755
sg33
S'user_system/views/schools/grade_view'
p2756
sg35
g13
(g14
g15
NtRp2757
(dp2758
g18
I1
sg19
I0
sg20
I16
sg21
I0
sg22
I0
sg23
I0
sg24
I0
sbssg122
S'_i&b\x01\x08$\xe7\xbe\nW\x92\x80\x97\xf1Q'
p2759
ssS'create_serializers_question_datasets_question_dataset_serializer'
p2760
(dp2761
g144
(dp2762
g146
S'create_serializers_question_datasets_question_dataset_serializer.html'
p2763
sg148
S'create/serializers/question_datasets/question_dataset_serializer'
p2764
sg150
g13
(g14
g15
NtRp2765
(dp2766
g18
I1
sg19
I0
sg20
I6
sg21
I0
sg22
I0
sg23
I0
sg24
I0
sbssg153
S'\x1e}6\x82\x0c\x96\xdb\x00{jK\xdb\xc0\x8c\x97\xcd'
p2767
ssS'privilege_models_privileges_user_privilege_model'
p2768
(dp2769
g287
(dp2770
g93
S'privilege_models_privileges_user_privilege_model.html'
p2771
sg95
S'privilege/models/privileges/user_privilege_model'
p2772
sg97
g13
(g14
g15
NtRp2773
(dp2774
g18
I1
sg19
I0
sg20
I17
sg21
I0
sg22
I0
sg23
I1
sg24
I0
sbssg293
S'\xe4\xbfo\xb6Sy\xef\x85\xf2\xf3=\xf3\xc3\xc0\xc9\xc6'
p2775
ssS'create_views_questions_question_template_view'
p2776
(dp2777
g103
(dp2778
g105
S'create_views_questions_question_template_view.html'
p2779
sg107
S'create/views/questions/question_template_view'
p2780
sg109
g13
(g14
g15
NtRp2781
(dp2782
g18
I1
sg19
I40
sg20
I115
sg21
I0
sg22
I0
sg23
I86
sg24
I40
sbssg112
S'\x15\xd2EN\xe9c\xe5\x17\xc5Fh\x02\x1a\xd3\xc4*'
p2783
ssS'create_serializers_quests_quest_serializer'
p2784
(dp2785
g103
(dp2786
g31
S'create_serializers_quests_quest_serializer.html'
p2787
sg33
S'create/serializers/quests/quest_serializer'
p2788
sg35
g13
(g14
g15
NtRp2789
(dp2790
g18
I1
sg19
I0
sg20
I50
sg21
I0
sg22
I0
sg23
I15
sg24
I0
sbssg112
S'\x96:\xdf\x9a\x02\xee\xf5\x97F[z\x16p\x8f\x08\xb2'
p2791
ssS'create_views_summary_create_summary_view'
p2792
(dp2793
g1618
(dp2794
g1098
S'create_views_summary_create_summary_view.html'
p2795
sg1100
S'create/views/summary/create_summary_view'
p2796
sg1102
g13
(g14
g15
NtRp2797
(dp2798
g18
I1
sg19
I0
sg20
I59
sg21
I0
sg22
I0
sg23
I48
sg24
I0
sbssg1624
S"'\xfe\xf4\x8c\xed2\xc3\x18\xf6\x85\x1f\xb0\xf0G\xb7\x8f"
p2799
ssS'create_serializers_books_book_serializer'
p2800
(dp2801
g349
(dp2802
g93
S'create_serializers_books_book_serializer.html'
p2803
sg95
S'create/serializers/books/book_serializer'
p2804
sg97
g13
(g14
g15
NtRp2805
(dp2806
g18
I1
sg19
I0
sg20
I25
sg21
I0
sg22
I0
sg23
I0
sg24
I0
sbssg355
S"o\r\r\x1e8\xe6\xa9\xd1\x83X.\xcf1\x98\xa3'"
p2807
ssS'user_system_models_schools_tests___init__'
p2808
(dp2809
g206
(dp2810
S'html_filename'
p2811
S'user_system_models_schools_tests___init__.html'
p2812
sS'name'
p2813
S'user_system/models/schools/tests/__init__'
p2814
sS'nums'
p2815
g13
(g14
g15
NtRp2816
(dp2817
g18
I1
sg19
I0
sg20
I0
sg21
I0
sg22
I0
sg23
I0
sg24
I0
sbssg215
S'\x19g\xdfM\x1a\x019\xaf\x1baIeR\xe5u\xa7'
p2818
ssS'api_logging_mixins'
p2819
(dp2820
g427
(dp2821
g44
S'api_logging_mixins.html'
p2822
sg46
S'api_logging/mixins'
p2823
sg48
g13
(g14
g15
NtRp2824
(dp2825
g18
I1
sg19
I4
sg20
I26
sg21
I0
sg22
I2
sg23
I2
sg24
I2
sbssg436
S'w\xa7\xcf,\xf7\x87[\xb0\xc5\xb2\x1f\xa5+\x1dSF'
p2826
ssS'privilege_serializers_privileges___init__'
p2827
(dp2828
g287
(dp2829
g93
S'privilege_serializers_privileges___init__.html'
p2830
sg95
S'privilege/serializers/privileges/__init__'
p2831
sg97
g13
(g14
g15
NtRp2832
(dp2833
g18
I1
sg19
I0
sg20
I2
sg21
I0
sg22
I0
sg23
I0
sg24
I0
sbssg293
S'\x1f\xd4u<\xf4\x9bW\xb0\xa9\xd2\xc1\x06\x14`C\xc6'
p2834
ssS'create___init__'
p2835
(dp2836
g42
(dp2837
g449
S'create___init__.html'
p2838
sg451
S'create/__init__'
p2839
sg453
g13
(g14
g15
NtRp2840
(dp2841
g18
I1
sg19
I0
sg20
I0
sg21
I0
sg22
I0
sg23
I0
sg24
I0
sbssg51
S'\x19g\xdfM\x1a\x019\xaf\x1baIeR\xe5u\xa7'
p2842
ssS'user_system_serializers_schools_school_serializer'
p2843
(dp2844
g116
(dp2845
g31
S'user_system_serializers_schools_school_serializer.html'
p2846
sg33
S'user_system/serializers/schools/school_serializer'
p2847
sg35
g13
(g14
g15
NtRp2848
(dp2849
g18
I1
sg19
I0
sg20
I9
sg21
I0
sg22
I0
sg23
I0
sg24
I0
sbssg122
S'_\x0c\x17V\x00H\x8f\xc9x\xe5I\xcb\t\x08\xb9/'
p2850
ssS'user_system_models_users_tests_test_user_profile_update_request_model'
p2851
(dp2852
g116
(dp2853
g633
S'user_system_models_users_tests_test_user_profile_update_request_model.html'
p2854
sg635
S'user_system/models/users/tests/test_user_profile_update_request_model'
p2855
sg637
g13
(g14
g15
NtRp2856
(dp2857
g18
I1
sg19
I0
sg20
I56
sg21
I0
sg22
I0
sg23
I0
sg24
I0
sbssg122
S'U\ng\x0eY\xe2\xc0a\x07f\xb4\x9bFP\x14\x86'
p2858
ssS'user_system_views_users_tests_test_add_role_view'
p2859
(dp2860
g42
(dp2861
g44
S'user_system_views_users_tests_test_add_role_view.html'
p2862
sg46
S'user_system/views/users/tests/test_add_role_view'
p2863
sg48
g13
(g14
g15
NtRp2864
(dp2865
g18
I1
sg19
I0
sg20
I36
sg21
I0
sg22
I0
sg23
I0
sg24
I0
sbssg51
S'\x0eh\xf7\xba\x08_N\xdeM\xdf\x03\xbd\x8c\x8a\x89\xd0'
p2866
ssS'learn_urls'
p2867
(dp2868
g55
(dp2869
g177
S'learn_urls.html'
p2870
sg179
S'learn/urls'
p2871
sg181
g13
(g14
g15
NtRp2872
(dp2873
g18
I1
sg19
I0
sg20
I8
sg21
I0
sg22
I0
sg23
I0
sg24
I0
sbssg64
S'\x1a\xcd\x95\xa0\xd8s\xf6\xb3\x9e\xd7H\xe5*M\xbdG'
p2874
ssS'api_logging___init__'
p2875
(dp2876
g566
(dp2877
g732
S'api_logging___init__.html'
p2878
sg734
S'api_logging/__init__'
p2879
sg736
g13
(g14
g15
NtRp2880
(dp2881
g18
I1
sg19
I0
sg20
I0
sg21
I0
sg22
I0
sg23
I0
sg24
I0
sbssg572
S'\x19g\xdfM\x1a\x019\xaf\x1baIeR\xe5u\xa7'
p2882
ssS'create_views_questions_question_view'
p2883
(dp2884
g42
(dp2885
g760
S'create_views_questions_question_view.html'
p2886
sg762
S'create/views/questions/question_view'
p2887
sg764
g13
(g14
g15
NtRp2888
(dp2889
g18
I1
sg19
I34
sg20
I112
sg21
I0
sg22
I1
sg23
I40
sg24
I21
sbssg51
S"_'M\x9d\x0e\r\xae\x93=\xce\xd2\x1b>\x8eV\xe4"
p2890
ssS'create_views_quests_tests_test_add_question_view'
p2891
(dp2892
g6
(dp2893
g8
S'create_views_quests_tests_test_add_question_view.html'
p2894
sg10
S'create/views/quests/tests/test_add_question_view'
p2895
sg12
g13
(g14
g15
NtRp2896
(dp2897
g18
I1
sg19
I0
sg20
I0
sg21
I0
sg22
I0
sg23
I0
sg24
I0
sbssg25
S'\x19g\xdfM\x1a\x019\xaf\x1baIeR\xe5u\xa7'
p2898
ssS'create_models_daily_quest_copies___init__'
p2899
(dp2900
g414
(dp2901
g1518
S'create_models_daily_quest_copies___init__.html'
p2902
sg1520
S'create/models/daily_quest_copies/__init__'
p2903
sg1522
g13
(g14
g15
NtRp2904
(dp2905
g18
I1
sg19
I0
sg20
I1
sg21
I0
sg22
I0
sg23
I0
sg24
I0
sbssg423
S'\xee\xef\xb8!Z;\x9e_\xb5g4\xe9\xac@l\xe6'
p2906
ssS'create_models_books_tests___init__'
p2907
(dp2908
g349
(dp2909
g780
S'create_models_books_tests___init__.html'
p2910
sg782
S'create/models/books/tests/__init__'
p2911
sg784
g13
(g14
g15
NtRp2912
(dp2913
g18
I1
sg19
I0
sg20
I0
sg21
I0
sg22
I0
sg23
I0
sg24
I0
sbssg355
S'\x19g\xdfM\x1a\x019\xaf\x1baIeR\xe5u\xa7'
p2914
ssS'privilege_models_privileges___init__'
p2915
(dp2916
g287
(dp2917
g93
S'privilege_models_privileges___init__.html'
p2918
sg95
S'privilege/models/privileges/__init__'
p2919
sg97
g13
(g14
g15
NtRp2920
(dp2921
g18
I1
sg19
I0
sg20
I2
sg21
I0
sg22
I0
sg23
I0
sg24
I0
sbssg293
S'\x14\x97Z\xa7<\xbd\xe6Z\xa0jIA\xc0I\xfd"'
p2922
ssS'user_system_managers_streak_manager'
p2923
(dp2924
g297
(dp2925
S'html_filename'
p2926
S'user_system_managers_streak_manager.html'
p2927
sS'name'
p2928
S'user_system/managers/streak_manager'
p2929
sS'nums'
p2930
g13
(g14
g15
NtRp2931
(dp2932
g18
I1
sg19
I30
sg20
I66
sg21
I0
sg22
I2
sg23
I48
sg24
I28
sbssg303
S'\x96\xca\x89\xcd\xff\xdaKx\xe9C\x8d\xbc!\xb4<\x8b'
p2933
ssS'learn_views_student_news_feed_student_news_feed_view'
p2934
(dp2935
g297
(dp2936
g1079
S'learn_views_student_news_feed_student_news_feed_view.html'
p2937
sg1081
S'learn/views/student_news_feed/student_news_feed_view'
p2938
sg1083
g13
(g14
g15
NtRp2939
(dp2940
g18
I1
sg19
I10
sg20
I38
sg21
I0
sg22
I0
sg23
I22
sg24
I10
sbssg303
S'\xd4\xf5w\x10\xf0\xf4l\x18\x16\xdf\xaf\xd1\x9eM\x0e\xb5'
p2941
ssS'user_system_models_schools_tests_test_academic_year_model'
p2942
(dp2943
g206
(dp2944
g1435
S'user_system_models_schools_tests_test_academic_year_model.html'
p2945
sg1437
S'user_system/models/schools/tests/test_academic_year_model'
p2946
sg1439
g13
(g14
g15
NtRp2947
(dp2948
g18
I1
sg19
I0
sg20
I28
sg21
I0
sg22
I0
sg23
I0
sg24
I0
sbssg215
S'{=\xee\xbc8\xbd\xa7\xdd\x0f!3\xf8\xf0os\xe2'
p2949
ssS'learn_serializers_daily_quests_daily_quest_question_history_serializer'
p2950
(dp2951
g297
(dp2952
g177
S'learn_serializers_daily_quests_daily_quest_question_history_serializer.html'
p2953
sg179
S'learn/serializers/daily_quests/daily_quest_question_history_serializer'
p2954
sg181
g13
(g14
g15
NtRp2955
(dp2956
g18
I1
sg19
I0
sg20
I8
sg21
I0
sg22
I0
sg23
I0
sg24
I0
sbssg303
S'q$\xc8~\x9a\xbb\x03\x1a\x12[aG\x9a\x87\xc6\x0c'
p2957
ssS'api_logging_serializers_modal_loggings___init__'
p2958
(dp2959
g297
(dp2960
g177
S'api_logging_serializers_modal_loggings___init__.html'
p2961
sg179
S'api_logging/serializers/modal_loggings/__init__'
p2962
sg181
g13
(g14
g15
NtRp2963
(dp2964
g18
I1
sg19
I0
sg20
I1
sg21
I0
sg22
I0
sg23
I0
sg24
I0
sbssg303
S'\xff)\x01pU0i\x848\xea\xfc\x08\x0b\x0bS\xa4'
p2965
ssS'user_system_models_schools_grade_model'
p2966
(dp2967
g232
(dp2968
g177
S'user_system_models_schools_grade_model.html'
p2969
sg179
S'user_system/models/schools/grade_model'
p2970
sg181
g13
(g14
g15
NtRp2971
(dp2972
g18
I1
sg19
I0
sg20
I29
sg21
I0
sg22
I0
sg23
I2
sg24
I0
sbssg238
S'\xfdv\xccR\xe0u\x91\x0f\x7f\x03\xcb\xc4y\xc19k'
p2973
ssS'user_system_serializers_schools___init__'
p2974
(dp2975
g55
(dp2976
g31
S'user_system_serializers_schools___init__.html'
p2977
sg33
S'user_system/serializers/schools/__init__'
p2978
sg35
g13
(g14
g15
NtRp2979
(dp2980
g18
I1
sg19
I0
sg20
I5
sg21
I0
sg22
I0
sg23
I0
sg24
I0
sbssg64
S'8yN\xa2\x98\xe3%\xd4\xe2\xfd\xf2@\xcc\xa7\x02\xdb'
p2981
ssS'create_serializers_questions_question_choice_serializer'
p2982
(dp2983
g42
(dp2984
g177
S'create_serializers_questions_question_choice_serializer.html'
p2985
sg179
S'create/serializers/questions/question_choice_serializer'
p2986
sg181
g13
(g14
g15
NtRp2987
(dp2988
g18
I1
sg19
I0
sg20
I10
sg21
I0
sg22
I0
sg23
I0
sg24
I0
sbssg51
S'\xe4\xc0O\xa2\x80M\x05Wf\xdeO=\xf7\xaaT\x95'
p2989
ssS'create_serializers_questions_question_template_serializer'
p2990
(dp2991
g103
(dp2992
g1173
S'create_serializers_questions_question_template_serializer.html'
p2993
sg1175
S'create/serializers/questions/question_template_serializer'
p2994
sg1177
g13
(g14
g15
NtRp2995
(dp2996
g18
I1
sg19
I0
sg20
I43
sg21
I0
sg22
I0
sg23
I9
sg24
I0
sbssg112
S'\x1a\x149\xdb\xb8\xc7\xfc\xb6\xbc\x8b\xfe\x8e~N\xb9J'
p2997
ssS'teach_views_summaries_top_answered_questions_summary_view'
p2998
(dp2999
g297
(dp3000
g958
S'teach_views_summaries_top_answered_questions_summary_view.html'
p3001
sg960
S'teach/views/summaries/top_answered_questions_summary_view'
p3002
sg962
g13
(g14
g15
NtRp3003
(dp3004
g18
I1
sg19
I34
sg20
I76
sg21
I0
sg22
I0
sg23
I53
sg24
I34
sbssg303
S'\xbc\x89\xf0k\xe5m.\xda\t/\xf7ZE\x07\xff\x00'
p3005
ssS'user_system_models_apps___init__'
p3006
(dp3007
g42
(dp3008
g449
S'user_system_models_apps___init__.html'
p3009
sg451
S'user_system/models/apps/__init__'
p3010
sg453
g13
(g14
g15
NtRp3011
(dp3012
g18
I1
sg19
I0
sg20
I1
sg21
I0
sg22
I0
sg23
I0
sg24
I0
sbssg51
S'\n\xe9\xce\x15)\x8d\xc6\xdd\xe0\x9b\x990[\xae\x8cl'
p3013
ssS'create_views_books_book_view'
p3014
(dp3015
g349
(dp3016
g8
S'create_views_books_book_view.html'
p3017
sg10
S'create/views/books/book_view'
p3018
sg12
g13
(g14
g15
NtRp3019
(dp3020
g18
I1
sg19
I34
sg20
I124
sg21
I0
sg22
I3
sg23
I8
sg24
I5
sbssg355
S'%\x96\xb2\x15\x98\xef\x0fL\xc0&\xf9\x18\x91-\xb28'
p3021
ssS'create_models_quests___init__'
p3022
(dp3023
g103
(dp3024
g622
S'create_models_quests___init__.html'
p3025
sg624
S'create/models/quests/__init__'
p3026
sg626
g13
(g14
g15
NtRp3027
(dp3028
g18
I1
sg19
I0
sg20
I2
sg21
I0
sg22
I0
sg23
I0
sg24
I0
sbssg112
S'\x1e\x87\x83\xe2\x04\x1d\xcd:`\x99V\x85#\xca\x12^'
p3029
ssS'privilege_serializers_privileges_privilege_serializer'
p3030
(dp3031
g287
(dp3032
g93
S'privilege_serializers_privileges_privilege_serializer.html'
p3033
sg95
S'privilege/serializers/privileges/privilege_serializer'
p3034
sg97
g13
(g14
g15
NtRp3035
(dp3036
g18
I1
sg19
I0
sg20
I7
sg21
I0
sg22
I0
sg23
I0
sg24
I0
sbssg293
S'?v\x87\xf3\x00\x8cw`\xd8\x0b\xeb\x98\x18\xbd\x1dR'
p3037
ssS'user_system_views_signups_hardcoded_tests_test_test_account_view'
p3038
(dp3039
g42
(dp3040
g44
S'user_system_views_signups_hardcoded_tests_test_test_account_view.html'
p3041
sg46
S'user_system/views/signups/hardcoded/tests/test_test_account_view'
p3042
sg48
g13
(g14
g15
NtRp3043
(dp3044
g18
I1
sg19
I0
sg20
I24
sg21
I0
sg22
I0
sg23
I0
sg24
I0
sbssg51
S'@\xc3::\xf8h\x1aT\x9f\x83\xee1\xb7\x9a\xe0\xf9'
p3045
ssS'create_models_tags_concept_model'
p3046
(dp3047
g383
(dp3048
g44
S'create_models_tags_concept_model.html'
p3049
sg46
S'create/models/tags/concept_model'
p3050
sg48
g13
(g14
g15
NtRp3051
(dp3052
g18
I1
sg19
I0
sg20
I10
sg21
I0
sg22
I0
sg23
I0
sg24
I0
sbssg389
S'@vb\xbd\xcay\xb1b\x9e\xaf\xc0v/\xd6\x13\xd3'
p3053
ssS'create_models_tags_tests___init__'
p3054
(dp3055
g383
(dp3056
S'html_filename'
p3057
S'create_models_tags_tests___init__.html'
p3058
sS'name'
p3059
S'create/models/tags/tests/__init__'
p3060
sS'nums'
p3061
g13
(g14
g15
NtRp3062
(dp3063
g18
I1
sg19
I0
sg20
I1
sg21
I0
sg22
I0
sg23
I0
sg24
I0
sbssg389
S'\xbc\xd6\xeb\xb3\xba\xcaz\xf7{\xd4B\xb5}l\xdf\x96'
p3064
ssS'create_serializers_books_book_subchapter_serializer'
p3065
(dp3066
g349
(dp3067
g1173
S'create_serializers_books_book_subchapter_serializer.html'
p3068
sg1175
S'create/serializers/books/book_subchapter_serializer'
p3069
sg1177
g13
(g14
g15
NtRp3070
(dp3071
g18
I1
sg19
I0
sg20
I18
sg21
I0
sg22
I0
sg23
I3
sg24
I0
sbssg355
S'89\x89\x89\xd8\x94\xd2l\x98G]\xad\xe1\xf7\x93\xfc'
p3072
ssS'user_system_views_signups_verify_email_view'
p3073
(dp3074
g42
(dp3075
g44
S'user_system_views_signups_verify_email_view.html'
p3076
sg46
S'user_system/views/signups/verify_email_view'
p3077
sg48
g13
(g14
g15
NtRp3078
(dp3079
g18
I1
sg19
I6
sg20
I26
sg21
I0
sg22
I0
sg23
I0
sg24
I0
sbssg51
S"B+;\xbf\xb1A\x1f\n\x94\x0e\xeb\xd0\xf1Y'l"
p3080
ssS'user_system_models_schools_semester_model'
p3081
(dp3082
g206
(dp3083
g1435
S'user_system_models_schools_semester_model.html'
p3084
sg1437
S'user_system/models/schools/semester_model'
p3085
sg1439
g13
(g14
g15
NtRp3086
(dp3087
g18
I1
sg19
I0
sg20
I23
sg21
I0
sg22
I0
sg23
I0
sg24
I0
sbssg215
S'\x9f&7d<%\x13 \xcaht\xc4\xd4N\xee&'
p3088
ssS'create_views_daily_quest_copies_daily_quest_copy_view'
p3089
(dp3090
g414
(dp3091
g1518
S'create_views_daily_quest_copies_daily_quest_copy_view.html'
p3092
sg1520
S'create/views/daily_quest_copies/daily_quest_copy_view'
p3093
sg1522
g13
(g14
g15
NtRp3094
(dp3095
g18
I1
sg19
I0
sg20
I14
sg21
I0
sg22
I0
sg23
I0
sg24
I0
sbssg423
S'?\x95&\\\xae\xf0@\xfc\x96\xc15\xc9\x13\xf6_R'
p3096
ssS'flipped_helpers_parameters_helper'
p3097
(dp3098
g42
(dp3099
g31
S'flipped_helpers_parameters_helper.html'
p3100
sg33
S'flipped/helpers/parameters_helper'
p3101
sg35
g13
(g14
g15
NtRp3102
(dp3103
g18
I1
sg19
I14
sg20
I22
sg21
I0
sg22
I1
sg23
I4
sg24
I3
sbssg51
S'v\xe1\xf5\xb3r\x1f\xae\xee\x872U\xa1I\xf8\xef\x00'
p3104
ssS'user_system_models___init__'
p3105
(dp3106
g42
(dp3107
g2811
S'user_system_models___init__.html'
p3108
sg2813
S'user_system/models/__init__'
p3109
sg2815
g13
(g14
g15
NtRp3110
(dp3111
g18
I1
sg19
I0
sg20
I4
sg21
I0
sg22
I0
sg23
I0
sg24
I0
sbssg51
S"\xe9'\xed1xn\xd7\xe4\x91\x8ei\xc0\x0f\x1b\x9eY"
p3112
ssS'create_models_questions_tests_test_question_model'
p3113
(dp3114
g42
(dp3115
g1208
S'create_models_questions_tests_test_question_model.html'
p3116
sg1210
S'create/models/questions/tests/test_question_model'
p3117
sg1212
g13
(g14
g15
NtRp3118
(dp3119
g18
I1
sg19
I8
sg20
I58
sg21
I0
sg22
I0
sg23
I0
sg24
I0
sbssg51
S'l\x9e\xee!<,L\xbf\xa0\xe6\r\xd7W\xc9tu'
p3120
ssS'user_system_models_users_tests_test_user_profile_history_model'
p3121
(dp3122
g116
(dp3123
g31
S'user_system_models_users_tests_test_user_profile_history_model.html'
p3124
sg33
S'user_system/models/users/tests/test_user_profile_history_model'
p3125
sg35
g13
(g14
g15
NtRp3126
(dp3127
g18
I1
sg19
I0
sg20
I54
sg21
I0
sg22
I0
sg23
I0
sg24
I0
sbssg122
S'<IT\xa7\x05\xe0ML\xb0gu{\xd2>\xc8$'
p3128
ssS'learn_views___init__'
p3129
(dp3130
g55
(dp3131
g177
S'learn_views___init__.html'
p3132
sg179
S'learn/views/__init__'
p3133
sg181
g13
(g14
g15
NtRp3134
(dp3135
g18
I1
sg19
I0
sg20
I2
sg21
I0
sg22
I0
sg23
I0
sg24
I0
sbssg64
S"?\xc0'\xcb\x1c\xf1\xaa\xf0\x9d\xc7\x0e\xf1\xda\x0eU\x17"
p3136
ssS'create_serializers_questions___init__'
p3137
(dp3138
g42
(dp3139
g177
S'create_serializers_questions___init__.html'
p3140
sg179
S'create/serializers/questions/__init__'
p3141
sg181
g13
(g14
g15
NtRp3142
(dp3143
g18
I1
sg19
I0
sg20
I5
sg21
I0
sg22
I0
sg23
I0
sg24
I0
sbssg51
S'\xe6(4O\xf6\xd4\xe4\x154\xe9\xa1;\x0cD\x90\t'
p3144
ssS'user_system_views_signups_hardcoded_tests___init__'
p3145
(dp3146
g42
(dp3147
g449
S'user_system_views_signups_hardcoded_tests___init__.html'
p3148
sg451
S'user_system/views/signups/hardcoded/tests/__init__'
p3149
sg453
g13
(g14
g15
NtRp3150
(dp3151
g18
I1
sg19
I0
sg20
I0
sg21
I0
sg22
I0
sg23
I0
sg24
I0
sbssg51
S'\x19g\xdfM\x1a\x019\xaf\x1baIeR\xe5u\xa7'
p3152
ssS'create_serializers_questions_question_serializer'
p3153
(dp3154
g42
(dp3155
g93
S'create_serializers_questions_question_serializer.html'
p3156
sg95
S'create/serializers/questions/question_serializer'
p3157
sg97
g13
(g14
g15
NtRp3158
(dp3159
g18
I1
sg19
I0
sg20
I59
sg21
I0
sg22
I0
sg23
I11
sg24
I0
sbssg51
S'\xd6f\xc4\xe6\x97\xe4~\xa4n\xcc+|\xcc\xdayh'
p3160
ssS'user_system_views___init__'
p3161
(dp3162
g42
(dp3163
g31
S'user_system_views___init__.html'
p3164
sg33
S'user_system/views/__init__'
p3165
sg35
g13
(g14
g15
NtRp3166
(dp3167
g18
I1
sg19
I0
sg20
I5
sg21
I0
sg22
I0
sg23
I0
sg24
I0
sbssg51
S'&v35\x98Nv\xc2>un\xb1\x9a\x93\xd2\xea'
p3168
ssS'user_system_views_users_user_profile_update_request_view'
p3169
(dp3170
g116
(dp3171
S'html_filename'
p3172
S'user_system_views_users_user_profile_update_request_view.html'
p3173
sS'name'
p3174
S'user_system/views/users/user_profile_update_request_view'
p3175
sS'nums'
p3176
g13
(g14
g15
NtRp3177
(dp3178
g18
I1
sg19
I24
sg20
I70
sg21
I0
sg22
I0
sg23
I51
sg24
I24
sbssg122
S"\x04\xfd\x81?\x1e<^\xb0%\xad\xa6'\xcf\xa1\xc3)"
p3179
ssS'teach_admin'
p3180
(dp3181
g55
(dp3182
g177
S'teach_admin.html'
p3183
sg179
S'teach/admin'
p3184
sg181
g13
(g14
g15
NtRp3185
(dp3186
g18
I1
sg19
I0
sg20
I6
sg21
I0
sg22
I0
sg23
I0
sg24
I0
sbssg64
S'\xa5$\xa3\xb8$\xe4Z\x9b\xcbO\x9f\xc1\x02b\x95N'
p3187
ssS'user_system_views_roles_user_role_view'
p3188
(dp3189
g42
(dp3190
g44
S'user_system_views_roles_user_role_view.html'
p3191
sg46
S'user_system/views/roles/user_role_view'
p3192
sg48
g13
(g14
g15
NtRp3193
(dp3194
g18
I1
sg19
I8
sg20
I31
sg21
I0
sg22
I0
sg23
I0
sg24
I0
sbssg51
S'S@\xea\xb7\xd6\xe1\x1b\x1dU\x18a\x9d\x80\xe3A\xb9'
p3195
ssS'create_models_questions_tests_test_question_history_remark_model'
p3196
(dp3197
g592
(dp3198
g594
S'create_models_questions_tests_test_question_history_remark_model.html'
p3199
sg596
S'create/models/questions/tests/test_question_history_remark_model'
p3200
sg598
g13
(g14
g15
NtRp3201
(dp3202
g18
I1
sg19
I0
sg20
I30
sg21
I0
sg22
I0
sg23
I0
sg24
I0
sbssg601
S'K>pG_\xbd\x15\x8b\xd8\x05\xd4\x15\xb3\x9b\xcaP'
p3203
ssS'api_logging_serializers___init__'
p3204
(dp3205
g297
(dp3206
g177
S'api_logging_serializers___init__.html'
p3207
sg179
S'api_logging/serializers/__init__'
p3208
sg181
g13
(g14
g15
NtRp3209
(dp3210
g18
I1
sg19
I0
sg20
I2
sg21
I0
sg22
I0
sg23
I0
sg24
I0
sbssg303
S'\x02\xac\xc4\x02\x172\x90\xf3=\xcb\x89>\x99\xbc\x19\xd9'
p3211
ssS'user_system_models_users_tests_test_user_facebook_model'
p3212
(dp3213
g42
(dp3214
g44
S'user_system_models_users_tests_test_user_facebook_model.html'
p3215
sg46
S'user_system/models/users/tests/test_user_facebook_model'
p3216
sg48
g13
(g14
g15
NtRp3217
(dp3218
g18
I1
sg19
I0
sg20
I29
sg21
I0
sg22
I0
sg23
I0
sg24
I0
sbssg51
S'B\xac\x06Z\x1f7\xba2\x81\xd7\xb4\x17\xaf\x84u+'
p3219
ssS'user_system_models_users_user_credentials_model'
p3220
(dp3221
S'index'
p3222
(dp3223
g2056
S'user_system_models_users_user_credentials_model.html'
p3224
sg2058
S'user_system/models/users/user_credentials_model'
p3225
sg2060
g13
(g14
g15
NtRp3226
(dp3227
g18
I1
sg19
I0
sg20
I7
sg21
I0
sg22
I0
sg23
I0
sg24
I0
sbssS'hash'
p3228
S'g\x10U/\x1f\x83\x0bO\x95o\x9c9\xefV\x81\x8e'
p3229
ssS'create_serializers_books___init__'
p3230
(dp3231
g349
(dp3232
g780
S'create_serializers_books___init__.html'
p3233
sg782
S'create/serializers/books/__init__'
p3234
sg784
g13
(g14
g15
NtRp3235
(dp3236
g18
I1
sg19
I0
sg20
I0
sg21
I0
sg22
I0
sg23
I0
sg24
I0
sbssg355
S'\x19g\xdfM\x1a\x019\xaf\x1baIeR\xe5u\xa7'
p3237
ssS'create_models_questions_tests_test_question_template_model'
p3238
(dp3239
g103
(dp3240
g996
S'create_models_questions_tests_test_question_template_model.html'
p3241
sg998
S'create/models/questions/tests/test_question_template_model'
p3242
sg1000
g13
(g14
g15
NtRp3243
(dp3244
g18
I1
sg19
I8
sg20
I74
sg21
I0
sg22
I0
sg23
I0
sg24
I0
sbssg112
S"~\xca\x9c'\x89\x11\x82V\xb3v\x0c4]\x9c\xce4"
p3245
ssS'create_views_quests_tests_test_add_question_template_view'
p3246
(dp3247
g6
(dp3248
g8
S'create_views_quests_tests_test_add_question_template_view.html'
p3249
sg10
S'create/views/quests/tests/test_add_question_template_view'
p3250
sg12
g13
(g14
g15
NtRp3251
(dp3252
g18
I1
sg19
I0
sg20
I0
sg21
I0
sg22
I0
sg23
I0
sg24
I0
sbssg25
S'\x19g\xdfM\x1a\x019\xaf\x1baIeR\xe5u\xa7'
p3253
ssS'learn_models_points_tests___init__'
p3254
(dp3255
g297
(dp3256
g177
S'learn_models_points_tests___init__.html'
p3257
sg179
S'learn/models/points/tests/__init__'
p3258
sg181
g13
(g14
g15
NtRp3259
(dp3260
g18
I1
sg19
I0
sg20
I1
sg21
I0
sg22
I0
sg23
I0
sg24
I0
sbssg303
S'\xbc\xd6\xeb\xb3\xba\xcaz\xf7{\xd4B\xb5}l\xdf\x96'
p3261
ssS'create_views_tags_tests_test_hide_tag_view'
p3262
(dp3263
g427
(dp3264
g44
S'create_views_tags_tests_test_hide_tag_view.html'
p3265
sg46
S'create/views/tags/tests/test_hide_tag_view'
p3266
sg48
g13
(g14
g15
NtRp3267
(dp3268
g18
I1
sg19
I0
sg20
I25
sg21
I0
sg22
I0
sg23
I0
sg24
I0
sbssg436
S'\x8a\x07\xe0\xe1Q\x820\x05R\x14E\xd0\xdf\x8e\xc5\x8a'
p3269
ssS'learn_views_daily_quests___init__'
p3270
(dp3271
g55
(dp3272
g57
S'learn_views_daily_quests___init__.html'
p3273
sg59
S'learn/views/daily_quests/__init__'
p3274
sg61
g13
(g14
g15
NtRp3275
(dp3276
g18
I1
sg19
I0
sg20
I1
sg21
I0
sg22
I0
sg23
I0
sg24
I0
sbssg64
S'\xa3\x08\xf3\xbaF\xd5u\x88\x12\xa3V\x05K\xe5\xd0\xa9'
p3277
ssS'create_views_books_tests___init__'
p3278
(dp3279
g939
(dp3280
S'html_filename'
p3281
S'create_views_books_tests___init__.html'
p3282
sS'name'
p3283
S'create/views/books/tests/__init__'
p3284
sS'nums'
p3285
g13
(g14
g15
NtRp3286
(dp3287
g18
I1
sg19
I0
sg20
I0
sg21
I0
sg22
I0
sg23
I0
sg24
I0
sbssg945
S'\x19g\xdfM\x1a\x019\xaf\x1baIeR\xe5u\xa7'
p3288
ssS'user_system_models_users_tests_test_user_streak_history_model'
p3289
(dp3290
S'index'
p3291
(dp3292
g1243
S'user_system_models_users_tests_test_user_streak_history_model.html'
p3293
sg1245
S'user_system/models/users/tests/test_user_streak_history_model'
p3294
sg1247
g13
(g14
g15
NtRp3295
(dp3296
g18
I1
sg19
I0
sg20
I19
sg21
I0
sg22
I0
sg23
I0
sg24
I0
sbssS'hash'
p3297
S'\xc7I1\x11\xc9\xbf7\xee\x1c\x16@\x10JP\xaf\xfc'
p3298
sssS'version'
p3299
S'3.7.1'
p3300
sS'settings'
p3301
S'\x961E{\x0c29\xd1#\x83\xd3j9"\xd8\x10'
p3302
sS'format'
p3303
I1
s.