(dp1
S'files'
p2
(dp3
S'create_views_quests_tests_test_add_tag_view'
p4
(dp5
S'index'
p6
(dp7
S'html_filename'
p8
S'create_views_quests_tests_test_add_tag_view.html'
p9
sS'name'
p10
S'create/views/quests/tests/test_add_tag_view'
p11
sS'nums'
p12
ccopy_reg
_reconstructor
p13
(ccoverage.results
Numbers
p14
c__builtin__
object
p15
NtRp16
(dp17
S'n_files'
p18
I1
sS'n_branches'
p19
I0
sS'n_statements'
p20
I35
sS'n_excluded'
p21
I0
sS'n_partial_branches'
p22
I0
sS'n_missing'
p23
I0
sS'n_missing_branches'
p24
I0
sbssS'hash'
p25
S'o\xbe\xf1\xf9\x80\xe5|\xbab\xcc\xe2F=\x1e\xacp'
p26
ssS'user_system_models_users_teacher_profile_model'
p27
(dp28
S'index'
p29
(dp30
S'html_filename'
p31
S'user_system_models_users_teacher_profile_model.html'
p32
sS'name'
p33
S'user_system/models/users/teacher_profile_model'
p34
sS'nums'
p35
g13
(g14
g15
NtRp36
(dp37
g18
I1
sg19
I0
sg20
I27
sg21
I0
sg22
I0
sg23
I0
sg24
I0
sbssS'hash'
p38
S'x\x9e\x06\xe6\x8d\x87\xed\xaf\x91\x87\x16\xfc"\x96\xf2\xfc'
p39
ssS'user_system_views_signups_facebook_signup_view'
p40
(dp41
S'index'
p42
(dp43
S'html_filename'
p44
S'user_system_views_signups_facebook_signup_view.html'
p45
sS'name'
p46
S'user_system/views/signups/facebook_signup_view'
p47
sS'nums'
p48
g13
(g14
g15
NtRp49
(dp50
g18
I1
sg19
I8
sg20
I38
sg21
I0
sg22
I0
sg23
I0
sg24
I0
sbssS'hash'
p51
S'\x04E\'\x17r8\x14\xf6 \x98\xb5\xa0sx"@'
p52
ssS'api_logging_serializers_user_activities___init__'
p53
(dp54
S'index'
p55
(dp56
S'html_filename'
p57
S'api_logging_serializers_user_activities___init__.html'
p58
sS'name'
p59
S'api_logging/serializers/user_activities/__init__'
p60
sS'nums'
p61
g13
(g14
g15
NtRp62
(dp63
g18
I1
sg19
I0
sg20
I1
sg21
I0
sg22
I0
sg23
I0
sg24
I0
sbssS'hash'
p64
S'Lrk4\xf7\x16t\xe2\x9f\xd6\xf5t\x0cO>\xdf'
p65
ssS'teach_models_teacher_tags___init__'
p66
(dp67
S'index'
p68
(dp69
S'html_filename'
p70
S'teach_models_teacher_tags___init__.html'
p71
sS'name'
p72
S'teach/models/teacher_tags/__init__'
p73
sS'nums'
p74
g13
(g14
g15
NtRp75
(dp76
g18
I1
sg19
I0
sg20
I1
sg21
I0
sg22
I0
sg23
I0
sg24
I0
sbssS'hash'
p77
S"\x15#y\x16\x1a\x9d\xc6mE\xccg]\x07\xb9'\xe0"
p78
ssS'user_system_models_users_user_facebook_model'
p79
(dp80
g42
(dp81
g44
S'user_system_models_users_user_facebook_model.html'
p82
sg46
S'user_system/models/users/user_facebook_model'
p83
sg48
g13
(g14
g15
NtRp84
(dp85
g18
I1
sg19
I0
sg20
I22
sg21
I0
sg22
I0
sg23
I0
sg24
I0
sbssg51
S'!d\xff\xbcl0O(`\x1b1\xf7\xb3*{X'
p86
ssS'teach_models_teacher_chapters___init__'
p87
(dp88
g68
(dp89
g70
S'teach_models_teacher_chapters___init__.html'
p90
sg72
S'teach/models/teacher_chapters/__init__'
p91
sg74
g13
(g14
g15
NtRp92
(dp93
g18
I1
sg19
I0
sg20
I1
sg21
I0
sg22
I0
sg23
I0
sg24
I0
sbssg77
S'\xfa\xce(\x03\x8d\xd7\xc1h\xedT\xf9d\xae\x03w^'
p94
ssS'user_system_views_logins_facebook_login_view'
p95
(dp96
g42
(dp97
g44
S'user_system_views_logins_facebook_login_view.html'
p98
sg46
S'user_system/views/logins/facebook_login_view'
p99
sg48
g13
(g14
g15
NtRp100
(dp101
g18
I1
sg19
I4
sg20
I24
sg21
I0
sg22
I0
sg23
I0
sg24
I0
sbssg51
S',\xf8~\x8d\x9b\xfe\xa6wQ5\x92t\x15\xe5\x95\x8d'
p102
ssS'create_serializers_questions_question_history_serializer'
p103
(dp104
g42
(dp105
S'html_filename'
p106
S'create_serializers_questions_question_history_serializer.html'
p107
sS'name'
p108
S'create/serializers/questions/question_history_serializer'
p109
sS'nums'
p110
g13
(g14
g15
NtRp111
(dp112
g18
I1
sg19
I2
sg20
I30
sg21
I0
sg22
I1
sg23
I2
sg24
I1
sbssg51
S'C\x93,\xa4\xac3\xb6\xb8\xca\x076\xae\x14\x15\xc0J'
p113
ssS'create_serializers_quests_quest_history_serializer'
p114
(dp115
S'index'
p116
(dp117
S'html_filename'
p118
S'create_serializers_quests_quest_history_serializer.html'
p119
sS'name'
p120
S'create/serializers/quests/quest_history_serializer'
p121
sS'nums'
p122
g13
(g14
g15
NtRp123
(dp124
g18
I1
sg19
I0
sg20
I38
sg21
I0
sg22
I0
sg23
I15
sg24
I0
sbssS'hash'
p125
S'\x0c\x10\x81\x11\xc3\xff\x01\x8d<#\xe5~\x84\xec\x18\xfd'
p126
ssS'learn_views_daily_quests_student_submission_view'
p127
(dp128
g55
(dp129
g57
S'learn_views_daily_quests_student_submission_view.html'
p130
sg59
S'learn/views/daily_quests/student_submission_view'
p131
sg61
g13
(g14
g15
NtRp132
(dp133
g18
I1
sg19
I10
sg20
I39
sg21
I0
sg22
I0
sg23
I22
sg24
I10
sbssg64
S'\xa1\xb8\xa5\x15\xe6;\xce4\xd7\x05\x02\xc5]N\x7f\x91'
p134
ssS'user_system_models_users_tests_test_student_profile_request_model'
p135
(dp136
S'index'
p137
(dp138
g31
S'user_system_models_users_tests_test_student_profile_request_model.html'
p139
sg33
S'user_system/models/users/tests/test_student_profile_request_model'
p140
sg35
g13
(g14
g15
NtRp141
(dp142
g18
I1
sg19
I0
sg20
I42
sg21
I0
sg22
I0
sg23
I0
sg24
I0
sbssS'hash'
p143
S'\x0c4FG\x9bD\x9e\xaa\xb9a\xd6\xee\xc6&0T'
p144
ssS'create_views_books_tests_test_add_chapter_view'
p145
(dp146
S'index'
p147
(dp148
g44
S'create_views_books_tests_test_add_chapter_view.html'
p149
sg46
S'create/views/books/tests/test_add_chapter_view'
p150
sg48
g13
(g14
g15
NtRp151
(dp152
g18
I1
sg19
I0
sg20
I69
sg21
I0
sg22
I0
sg23
I0
sg24
I0
sbssS'hash'
p153
S'\xea\xcd\x81\xff\xe6p74\xe3\xab\xc2R\x1aZ#Y'
p154
ssS'teach_models_teacher_chapters_tests_test_teacher_chapter_model'
p155
(dp156
g68
(dp157
g70
S'teach_models_teacher_chapters_tests_test_teacher_chapter_model.html'
p158
sg72
S'teach/models/teacher_chapters/tests/test_teacher_chapter_model'
p159
sg74
g13
(g14
g15
NtRp160
(dp161
g18
I1
sg19
I0
sg20
I28
sg21
I0
sg22
I0
sg23
I0
sg24
I0
sbssg77
S'm\xb2B\x1a\x04\xa5\x94N\xbe\xb6\xfa\xa9\x16J\x10\x92'
p162
ssS'create_serializers_question_datasets___init__'
p163
(dp164
S'index'
p165
(dp166
S'html_filename'
p167
S'create_serializers_question_datasets___init__.html'
p168
sS'name'
p169
S'create/serializers/question_datasets/__init__'
p170
sS'nums'
p171
g13
(g14
g15
NtRp172
(dp173
g18
I1
sg19
I0
sg20
I1
sg21
I0
sg22
I0
sg23
I0
sg24
I0
sbssS'hash'
p174
S'Z\xf8\x02Tc\xc1C;<_\x87\xc6\xc2H\xa6\xdc'
p175
ssS'user_system_models_users_user_profile_model'
p176
(dp177
g42
(dp178
g57
S'user_system_models_users_user_profile_model.html'
p179
sg59
S'user_system/models/users/user_profile_model'
p180
sg61
g13
(g14
g15
NtRp181
(dp182
g18
I1
sg19
I48
sg20
I178
sg21
I0
sg22
I0
sg23
I24
sg24
I6
sbssg51
S'\xf2\xb8\xecp\xaf\xff\n\xe3b\x06\xe8\xc3p\xf9\xe4W'
p183
ssS'create_models_question_datasets_tests_test_question_dataset_model'
p184
(dp185
g165
(dp186
g167
S'create_models_question_datasets_tests_test_question_dataset_model.html'
p187
sg169
S'create/models/question_datasets/tests/test_question_dataset_model'
p188
sg171
g13
(g14
g15
NtRp189
(dp190
g18
I1
sg19
I2
sg20
I39
sg21
I0
sg22
I0
sg23
I0
sg24
I0
sbssg174
S'!\t\x88\xfc\x0f\xaa\x0c\x88\xe3\xf9\x04\xd1\\0w\xf1'
p191
ssS'user_system_models_users___init__'
p192
(dp193
g42
(dp194
g57
S'user_system_models_users___init__.html'
p195
sg59
S'user_system/models/users/__init__'
p196
sg61
g13
(g14
g15
NtRp197
(dp198
g18
I1
sg19
I0
sg20
I11
sg21
I0
sg22
I0
sg23
I0
sg24
I0
sbssg51
S'\x81\xefKrW:\x98\xa0\xfbl\x17\xe1E\xb8..'
p199
ssS'teach_urls'
p200
(dp201
g68
(dp202
S'html_filename'
p203
S'teach_urls.html'
p204
sS'name'
p205
S'teach/urls'
p206
sS'nums'
p207
g13
(g14
g15
NtRp208
(dp209
g18
I1
sg19
I0
sg20
I13
sg21
I0
sg22
I0
sg23
I0
sg24
I0
sbssg77
S'1\xa6\x90\x84\xbf\x9b\x9at\x1f4\xf1\x1b\x92\x03\xff%'
p210
ssS'learn_serializers_daily_quests___init__'
p211
(dp212
g68
(dp213
S'html_filename'
p214
S'learn_serializers_daily_quests___init__.html'
p215
sS'name'
p216
S'learn/serializers/daily_quests/__init__'
p217
sS'nums'
p218
g13
(g14
g15
NtRp219
(dp220
g18
I1
sg19
I0
sg20
I2
sg21
I0
sg22
I0
sg23
I0
sg24
I0
sbssg77
S'\x8e\x0b\xa4\xc1x\xdb]\xcc\xf6 \x7f\xbeO\x91\xca@'
p221
ssS'user_system_models_schools___init__'
p222
(dp223
S'index'
p224
(dp225
S'html_filename'
p226
S'user_system_models_schools___init__.html'
p227
sS'name'
p228
S'user_system/models/schools/__init__'
p229
sS'nums'
p230
g13
(g14
g15
NtRp231
(dp232
g18
I1
sg19
I0
sg20
I6
sg21
I0
sg22
I0
sg23
I0
sg24
I0
sbssS'hash'
p233
S'\xbe\xc9\xb2f\x05\x1f\xe6\xee\xef\x01#\xe8\x16\xc2\x83\xdb'
p234
ssS'create_views_questions_tests_test_remove_tag_view'
p235
(dp236
S'index'
p237
(dp238
S'html_filename'
p239
S'create_views_questions_tests_test_remove_tag_view.html'
p240
sS'name'
p241
S'create/views/questions/tests/test_remove_tag_view'
p242
sS'nums'
p243
g13
(g14
g15
NtRp244
(dp245
g18
I1
sg19
I0
sg20
I36
sg21
I0
sg22
I0
sg23
I0
sg24
I0
sbssS'hash'
p246
S'\xbdV1EN\xfe\x8e;\xe4\x92\x91r\xd6Q\x03\x80'
p247
ssS'user_system_models_users_tests_test_student_profile_model'
p248
(dp249
S'index'
p250
(dp251
g214
S'user_system_models_users_tests_test_student_profile_model.html'
p252
sg216
S'user_system/models/users/tests/test_student_profile_model'
p253
sg218
g13
(g14
g15
NtRp254
(dp255
g18
I1
sg19
I0
sg20
I48
sg21
I0
sg22
I0
sg23
I0
sg24
I0
sbssS'hash'
p256
S'\n_\xb5B0\x1dR\x0b\x16i\x1fy.Z\x14#'
p257
ssS'create_views_daily_quest_templates___init__'
p258
(dp259
S'index'
p260
(dp261
S'html_filename'
p262
S'create_views_daily_quest_templates___init__.html'
p263
sS'name'
p264
S'create/views/daily_quest_templates/__init__'
p265
sS'nums'
p266
g13
(g14
g15
NtRp267
(dp268
g18
I1
sg19
I0
sg20
I1
sg21
I0
sg22
I0
sg23
I0
sg24
I0
sbssS'hash'
p269
S'\xc1b\x1f\x95\xabR`C\xe80\xb9tNC\r3'
p270
ssS'api_logging_views_query_stat_query_stat_view'
p271
(dp272
S'index'
p273
(dp274
g57
S'api_logging_views_query_stat_query_stat_view.html'
p275
sg59
S'api_logging/views/query_stat/query_stat_view'
p276
sg61
g13
(g14
g15
NtRp277
(dp278
g18
I1
sg19
I2
sg20
I42
sg21
I0
sg22
I0
sg23
I20
sg24
I2
sbssS'hash'
p279
S"\x9f9\xc7\x1a\xbbo\xc7E\xa3\x8anH\xcb\x83W'"
p280
ssS'learn___init__'
p281
(dp282
g68
(dp283
g70
S'learn___init__.html'
p284
sg72
S'learn/__init__'
p285
sg74
g13
(g14
g15
NtRp286
(dp287
g18
I1
sg19
I0
sg20
I0
sg21
I0
sg22
I0
sg23
I0
sg24
I0
sbssg77
S'\x19g\xdfM\x1a\x019\xaf\x1baIeR\xe5u\xa7'
p288
ssS'create_serializers_quests___init__'
p289
(dp290
g116
(dp291
g31
S'create_serializers_quests___init__.html'
p292
sg33
S'create/serializers/quests/__init__'
p293
sg35
g13
(g14
g15
NtRp294
(dp295
g18
I1
sg19
I0
sg20
I2
sg21
I0
sg22
I0
sg23
I0
sg24
I0
sbssg125
S'\xc0,Fh\xaf\xa0(\x8f\xde\x02{\x88!\x04\x7f\xb6'
p296
ssS'teach_views_teacher_chapters___init__'
p297
(dp298
g68
(dp299
g70
S'teach_views_teacher_chapters___init__.html'
p300
sg72
S'teach/views/teacher_chapters/__init__'
p301
sg74
g13
(g14
g15
NtRp302
(dp303
g18
I1
sg19
I0
sg20
I1
sg21
I0
sg22
I0
sg23
I0
sg24
I0
sbssg77
S'\x10AP\xc9\nC\xd2REz\xf6\xe5\xd2(\xee`'
p304
ssS'user_system_models_users_student_profile_request_model'
p305
(dp306
g137
(dp307
g31
S'user_system_models_users_student_profile_request_model.html'
p308
sg33
S'user_system/models/users/student_profile_request_model'
p309
sg35
g13
(g14
g15
NtRp310
(dp311
g18
I1
sg19
I0
sg20
I45
sg21
I0
sg22
I0
sg23
I0
sg24
I0
sbssg143
S'\xeeZA}\xa0\xf5\x88k0a2\x9fS\xf3}\x05'
p312
ssS'privilege_models___init__'
p313
(dp314
S'index'
p315
(dp316
g106
S'privilege_models___init__.html'
p317
sg108
S'privilege/models/__init__'
p318
sg110
g13
(g14
g15
NtRp319
(dp320
g18
I1
sg19
I0
sg20
I1
sg21
I0
sg22
I0
sg23
I0
sg24
I0
sbssS'hash'
p321
S'\x13V\xca}S\xd3\x98Rp?\xb0\xe1\x904>b'
p322
ssS'user_system_views_users_teacher_mapping_view'
p323
(dp324
S'index'
p325
(dp326
g214
S'user_system_views_users_teacher_mapping_view.html'
p327
sg216
S'user_system/views/users/teacher_mapping_view'
p328
sg218
g13
(g14
g15
NtRp329
(dp330
g18
I1
sg19
I0
sg20
I14
sg21
I0
sg22
I0
sg23
I0
sg24
I0
sbssS'hash'
p331
S'B\x04t\x93Z\x86Q.\x17\xf9\xa0*\xf6\x86\xcf\x10'
p332
ssS'create_views_tags_tests_test_search_tag_view'
p333
(dp334
S'index'
p335
(dp336
g106
S'create_views_tags_tests_test_search_tag_view.html'
p337
sg108
S'create/views/tags/tests/test_search_tag_view'
p338
sg110
g13
(g14
g15
NtRp339
(dp340
g18
I1
sg19
I0
sg20
I22
sg21
I0
sg22
I0
sg23
I0
sg24
I0
sbssS'hash'
p341
S'\rh\xcb\xb3g\x15\x9c\xe3hR\xc5r\xb9\x9c\xb2\x1f'
p342
ssS'create_views_questions_tests_test_hide_question_view'
p343
(dp344
g42
(dp345
g44
S'create_views_questions_tests_test_hide_question_view.html'
p346
sg46
S'create/views/questions/tests/test_hide_question_view'
p347
sg48
g13
(g14
g15
NtRp348
(dp349
g18
I1
sg19
I0
sg20
I30
sg21
I0
sg22
I0
sg23
I0
sg24
I0
sbssg51
S'\xb3\x10S\x8a\x9b\xecw\xaa\xd3\x81\x1b\xf2\xab\xb2QG'
p350
ssS'user_system_serializers_users_student_profile_request_serializer'
p351
(dp352
g137
(dp353
g31
S'user_system_serializers_users_student_profile_request_serializer.html'
p354
sg33
S'user_system/serializers/users/student_profile_request_serializer'
p355
sg35
g13
(g14
g15
NtRp356
(dp357
g18
I1
sg19
I0
sg20
I8
sg21
I0
sg22
I0
sg23
I0
sg24
I0
sbssg143
S'\xa9VJ\x07M\x02\xee$\t\xc8O\xc43$\x1a-'
p358
ssS'create_views_question_datasets_question_dataset_view'
p359
(dp360
g165
(dp361
g167
S'create_views_question_datasets_question_dataset_view.html'
p362
sg169
S'create/views/question_datasets/question_dataset_view'
p363
sg171
g13
(g14
g15
NtRp364
(dp365
g18
I1
sg19
I4
sg20
I20
sg21
I0
sg22
I0
sg23
I5
sg24
I4
sbssg174
S'\x01\xfb\xf2\x86m\xd4\xf9\xc3\xe6\xb6\x11\x96u;\x1ez'
p366
ssS'teach_models_campaigns___init__'
p367
(dp368
g137
(dp369
g31
S'teach_models_campaigns___init__.html'
p370
sg33
S'teach/models/campaigns/__init__'
p371
sg35
g13
(g14
g15
NtRp372
(dp373
g18
I1
sg19
I0
sg20
I1
sg21
I0
sg22
I0
sg23
I0
sg24
I0
sbssg143
S'\xba\x82\x818\x88\xe0\xf2#\xe9\x89\xffso\xdc\xe6\xd4'
p374
ssS'create_serializers_books_book_chapter_serializer'
p375
(dp376
S'index'
p377
(dp378
g70
S'create_serializers_books_book_chapter_serializer.html'
p379
sg72
S'create/serializers/books/book_chapter_serializer'
p380
sg74
g13
(g14
g15
NtRp381
(dp382
g18
I1
sg19
I0
sg20
I23
sg21
I0
sg22
I0
sg23
I3
sg24
I0
sbssS'hash'
p383
S'\xf1~, f\x89\xad\xc8p\xcc\xd4E_\x0b3\x06'
p384
ssS'api_logging_models_api_logging_api_logging_model'
p385
(dp386
g325
(dp387
g214
S'api_logging_models_api_logging_api_logging_model.html'
p388
sg216
S'api_logging/models/api_logging/api_logging_model'
p389
sg218
g13
(g14
g15
NtRp390
(dp391
g18
I1
sg19
I0
sg20
I21
sg21
I0
sg22
I0
sg23
I0
sg24
I0
sbssg331
S'\x0c\x96WFX%\xe9\xcf+\xcf\xc2s\xa7a1\xbd'
p392
ssS'create_models_question_datasets___init__'
p393
(dp394
g165
(dp395
g167
S'create_models_question_datasets___init__.html'
p396
sg169
S'create/models/question_datasets/__init__'
p397
sg171
g13
(g14
g15
NtRp398
(dp399
g18
I1
sg19
I0
sg20
I1
sg21
I0
sg22
I0
sg23
I0
sg24
I0
sbssg174
S'\xeb\xb7>&t\x02-\xeaaJ,\x8a\xae\xc3\x1a]'
p400
ssS'user_system_urls'
p401
(dp402
g42
(dp403
g57
S'user_system_urls.html'
p404
sg59
S'user_system/urls'
p405
sg61
g13
(g14
g15
NtRp406
(dp407
g18
I1
sg19
I0
sg20
I19
sg21
I0
sg22
I0
sg23
I0
sg24
I0
sbssg51
S"\x94\xa8\xa9\x90w.1\xc2'#\x8aF\xeb\xae\x8cw"
p408
ssS'create_models_tags_tests_test_tag_type_model'
p409
(dp410
S'index'
p411
(dp412
g44
S'create_models_tags_tests_test_tag_type_model.html'
p413
sg46
S'create/models/tags/tests/test_tag_type_model'
p414
sg48
g13
(g14
g15
NtRp415
(dp416
g18
I1
sg19
I0
sg20
I17
sg21
I0
sg22
I0
sg23
I0
sg24
I0
sbssS'hash'
p417
S'?6\xfcg\xce\x11\x1a7E\xaf\xb2\x02\t"\xddA'
p418
ssS'create_models_quests_quest_history_model'
p419
(dp420
g116
(dp421
g8
S'create_models_quests_quest_history_model.html'
p422
sg10
S'create/models/quests/quest_history_model'
p423
sg12
g13
(g14
g15
NtRp424
(dp425
g18
I1
sg19
I8
sg20
I75
sg21
I0
sg22
I3
sg23
I4
sg24
I3
sbssg125
S'@\xe7\xfa\x02?w\xe7\x93\xa3\x85\x0f\x0fz\xf0\xdbR'
p426
ssS'learn_models_daily_quests_tests_test_daily_quest_question_history_model'
p427
(dp428
S'index'
p429
(dp430
S'html_filename'
p431
S'learn_models_daily_quests_tests_test_daily_quest_question_history_model.html'
p432
sS'name'
p433
S'learn/models/daily_quests/tests/test_daily_quest_question_history_model'
p434
sS'nums'
p435
g13
(g14
g15
NtRp436
(dp437
g18
I1
sg19
I0
sg20
I202
sg21
I0
sg22
I0
sg23
I0
sg24
I0
sbssS'hash'
p438
S"(\xfe\xfc\x9b\xd9\xaf\n\x08\x83_\xc9Ko'\xc4\xb9"
p439
ssS'create_models_daily_quest_copies_daily_quest_copy_model'
p440
(dp441
S'index'
p442
(dp443
S'html_filename'
p444
S'create_models_daily_quest_copies_daily_quest_copy_model.html'
p445
sS'name'
p446
S'create/models/daily_quest_copies/daily_quest_copy_model'
p447
sS'nums'
p448
g13
(g14
g15
NtRp449
(dp450
g18
I1
sg19
I6
sg20
I47
sg21
I0
sg22
I0
sg23
I14
sg24
I6
sbssS'hash'
p451
S'\x90\xa7\xba\xee\x88\xf84\xf7\xd1B\x9b9@\\\x80P'
p452
ssS'create_views_tags_tests___init__'
p453
(dp454
S'index'
p455
(dp456
S'html_filename'
p457
S'create_views_tags_tests___init__.html'
p458
sS'name'
p459
S'create/views/tags/tests/__init__'
p460
sS'nums'
p461
g13
(g14
g15
NtRp462
(dp463
g18
I1
sg19
I0
sg20
I0
sg21
I0
sg22
I0
sg23
I0
sg24
I0
sbssS'hash'
p464
S'\x19g\xdfM\x1a\x019\xaf\x1baIeR\xe5u\xa7'
p465
ssS'user_system_models_apps_app_model'
p466
(dp467
g42
(dp468
g44
S'user_system_models_apps_app_model.html'
p469
sg46
S'user_system/models/apps/app_model'
p470
sg48
g13
(g14
g15
NtRp471
(dp472
g18
I1
sg19
I0
sg20
I16
sg21
I0
sg22
I0
sg23
I0
sg24
I0
sbssg51
S',\x89\x9d;<\xa3\xdc\x92@\xa5\x9c\x7fcg\x05?'
p473
ssS'user_system_views_apps_tests___init__'
p474
(dp475
g42
(dp476
S'html_filename'
p477
S'user_system_views_apps_tests___init__.html'
p478
sS'name'
p479
S'user_system/views/apps/tests/__init__'
p480
sS'nums'
p481
g13
(g14
g15
NtRp482
(dp483
g18
I1
sg19
I0
sg20
I0
sg21
I0
sg22
I0
sg23
I0
sg24
I0
sbssg51
S'\x19g\xdfM\x1a\x019\xaf\x1baIeR\xe5u\xa7'
p484
ssS'privilege___init__'
p485
(dp486
g315
(dp487
g106
S'privilege___init__.html'
p488
sg108
S'privilege/__init__'
p489
sg110
g13
(g14
g15
NtRp490
(dp491
g18
I1
sg19
I0
sg20
I0
sg21
I0
sg22
I0
sg23
I0
sg24
I0
sbssg321
S'\x19g\xdfM\x1a\x019\xaf\x1baIeR\xe5u\xa7'
p492
ssS'create_views_books___init__'
p493
(dp494
g377
(dp495
S'html_filename'
p496
S'create_views_books___init__.html'
p497
sS'name'
p498
S'create/views/books/__init__'
p499
sS'nums'
p500
g13
(g14
g15
NtRp501
(dp502
g18
I1
sg19
I0
sg20
I3
sg21
I0
sg22
I0
sg23
I0
sg24
I0
sbssg383
S'\xce\x13\xc8S|wF\xe3\x148\xa0?ez,\xc4'
p503
ssS'create_models_books_book_chapter_model'
p504
(dp505
g377
(dp506
g31
S'create_models_books_book_chapter_model.html'
p507
sg33
S'create/models/books/book_chapter_model'
p508
sg35
g13
(g14
g15
NtRp509
(dp510
g18
I1
sg19
I8
sg20
I58
sg21
I0
sg22
I1
sg23
I3
sg24
I3
sbssg383
S'5h\xa3E\x99\xf4H\x97\xbf\x08?=+K\xe7\xad'
p511
ssS'user_system_admin'
p512
(dp513
g42
(dp514
g214
S'user_system_admin.html'
p515
sg216
S'user_system/admin'
p516
sg218
g13
(g14
g15
NtRp517
(dp518
g18
I1
sg19
I0
sg20
I25
sg21
I0
sg22
I0
sg23
I0
sg24
I0
sbssg51
S',\xc1@k;\x98\x80\xb5\xbc\xab\x11\xf3\xdc\x0b\xd1U'
p519
ssS'user_system_serializers_users_teacher_profile_serializer'
p520
(dp521
g137
(dp522
g31
S'user_system_serializers_users_teacher_profile_serializer.html'
p523
sg33
S'user_system/serializers/users/teacher_profile_serializer'
p524
sg35
g13
(g14
g15
NtRp525
(dp526
g18
I1
sg19
I4
sg20
I20
sg21
I0
sg22
I0
sg23
I9
sg24
I4
sbssg143
S'\xe2\xa5\xba\xd6e\xc2\x88\xab\xaes\x15\x08\xa9ta\xd6'
p527
ssS'user_system_models_users_tests___init__'
p528
(dp529
g42
(dp530
g477
S'user_system_models_users_tests___init__.html'
p531
sg479
S'user_system/models/users/tests/__init__'
p532
sg481
g13
(g14
g15
NtRp533
(dp534
g18
I1
sg19
I0
sg20
I0
sg21
I0
sg22
I0
sg23
I0
sg24
I0
sbssg51
S'\x19g\xdfM\x1a\x019\xaf\x1baIeR\xe5u\xa7'
p535
ssS'user_system_models_users_user_profile_picture_model'
p536
(dp537
g137
(dp538
g31
S'user_system_models_users_user_profile_picture_model.html'
p539
sg33
S'user_system/models/users/user_profile_picture_model'
p540
sg35
g13
(g14
g15
NtRp541
(dp542
g18
I1
sg19
I0
sg20
I18
sg21
I0
sg22
I0
sg23
I0
sg24
I0
sbssg143
S'$E\xff\xf5f,\xb2\xc7\xb4\x9b*\x0es|s\xcc'
p543
ssS'teach_models_teacher_tags_teacher_tag_model'
p544
(dp545
g68
(dp546
g70
S'teach_models_teacher_tags_teacher_tag_model.html'
p547
sg72
S'teach/models/teacher_tags/teacher_tag_model'
p548
sg74
g13
(g14
g15
NtRp549
(dp550
g18
I1
sg19
I0
sg20
I30
sg21
I0
sg22
I0
sg23
I0
sg24
I0
sbssg77
S'\\\xb6A\xa8\xa7\x93\x16K\xceQ>\xe8t\xdb<#'
p551
ssS'teach_models_daily_quest_templates_daily_quest_template_model'
p552
(dp553
g68
(dp554
S'html_filename'
p555
S'teach_models_daily_quest_templates_daily_quest_template_model.html'
p556
sS'name'
p557
S'teach/models/daily_quest_templates/daily_quest_template_model'
p558
sS'nums'
p559
g13
(g14
g15
NtRp560
(dp561
g18
I1
sg19
I0
sg20
I32
sg21
I0
sg22
I0
sg23
I0
sg24
I0
sbssg77
S'\xd8?/FZ\xe7\xb6\xa6E&6\x86\xa5\x93\x7f='
p562
ssS'create_views_books_tests_test_add_subchapter_view'
p563
(dp564
S'index'
p565
(dp566
g44
S'create_views_books_tests_test_add_subchapter_view.html'
p567
sg46
S'create/views/books/tests/test_add_subchapter_view'
p568
sg48
g13
(g14
g15
NtRp569
(dp570
g18
I1
sg19
I0
sg20
I60
sg21
I0
sg22
I0
sg23
I0
sg24
I0
sbssS'hash'
p571
S"\xcc^2\xc4\xf2\xb1\xdc\xe8\xf0t\xb6\xcc\x1f\xce\xf1'"
p572
ssS'create_models_quests_quest_model'
p573
(dp574
g116
(dp575
S'html_filename'
p576
S'create_models_quests_quest_model.html'
p577
sS'name'
p578
S'create/models/quests/quest_model'
p579
sS'nums'
p580
g13
(g14
g15
NtRp581
(dp582
g18
I1
sg19
I4
sg20
I59
sg21
I0
sg22
I0
sg23
I13
sg24
I4
sbssg125
S'^g\x1e\x82\xee1[\xc0\xbe\x04\xca\xb1`M\xe7\xe9'
p583
ssS'user_system_views_users_tests_test_remove_role_view'
p584
(dp585
g42
(dp586
g44
S'user_system_views_users_tests_test_remove_role_view.html'
p587
sg46
S'user_system/views/users/tests/test_remove_role_view'
p588
sg48
g13
(g14
g15
NtRp589
(dp590
g18
I1
sg19
I0
sg20
I42
sg21
I0
sg22
I0
sg23
I0
sg24
I0
sbssg51
S'\xfb\x9b\xa3\xe5\x90\xe7q99\x19\x10"<@L\x8c'
p591
ssS'create_models_tags_tests_test_tag_history_model'
p592
(dp593
S'index'
p594
(dp595
g70
S'create_models_tags_tests_test_tag_history_model.html'
p596
sg72
S'create/models/tags/tests/test_tag_history_model'
p597
sg74
g13
(g14
g15
NtRp598
(dp599
g18
I1
sg19
I0
sg20
I58
sg21
I0
sg22
I0
sg23
I0
sg24
I0
sbssS'hash'
p600
S"\x05Y\xa9\xba\xf0\xa8\xd2*7_\xcb]\xfb*#'"
p601
ssS'teach_views_teacher_news_feed___init__'
p602
(dp603
g325
(dp604
g214
S'teach_views_teacher_news_feed___init__.html'
p605
sg216
S'teach/views/teacher_news_feed/__init__'
p606
sg218
g13
(g14
g15
NtRp607
(dp608
g18
I1
sg19
I0
sg20
I1
sg21
I0
sg22
I0
sg23
I0
sg24
I0
sbssg331
S'\xe8\xcd\xf3\x9f\xa3=;`\xf0oZ\xcb!\x98\xac\x1c'
p609
ssS'create_views_daily_quest_templates_daily_quest_template_view'
p610
(dp611
g260
(dp612
g262
S'create_views_daily_quest_templates_daily_quest_template_view.html'
p613
sg264
S'create/views/daily_quest_templates/daily_quest_template_view'
p614
sg266
g13
(g14
g15
NtRp615
(dp616
g18
I1
sg19
I4
sg20
I20
sg21
I0
sg22
I0
sg23
I5
sg24
I4
sbssg269
S'*(w\xa3\x82\x06\xe8D\x8c\xaa+3\xbc\xe3\xa5\x1d'
p617
ssS'create_models_questions_question_history_remark_model'
p618
(dp619
S'index'
p620
(dp621
S'html_filename'
p622
S'create_models_questions_question_history_remark_model.html'
p623
sS'name'
p624
S'create/models/questions/question_history_remark_model'
p625
sS'nums'
p626
g13
(g14
g15
NtRp627
(dp628
g18
I1
sg19
I0
sg20
I27
sg21
I0
sg22
I0
sg23
I0
sg24
I0
sbssS'hash'
p629
S'\xac"G5\x1c\xf2\xef\xa9\x1dUd\xce4.\xac\xa4'
p630
ssS'learn_serializers___init__'
p631
(dp632
g68
(dp633
g70
S'learn_serializers___init__.html'
p634
sg72
S'learn/serializers/__init__'
p635
sg74
g13
(g14
g15
NtRp636
(dp637
g18
I1
sg19
I0
sg20
I1
sg21
I0
sg22
I0
sg23
I0
sg24
I0
sbssg77
S'cLP\xd9\xc0\x91mD\xa3\xd2\xbczr\xdak\xf4'
p638
ssS'user_system_views_schools___init__'
p639
(dp640
g137
(dp641
g31
S'user_system_views_schools___init__.html'
p642
sg33
S'user_system/views/schools/__init__'
p643
sg35
g13
(g14
g15
NtRp644
(dp645
g18
I1
sg19
I0
sg20
I2
sg21
I0
sg22
I0
sg23
I0
sg24
I0
sbssg143
S'\x85\xe2\x7f\xa7\xac\x16HY\x8b\x10\x9b\xc0r\x17|\x8c'
p646
ssS'create_views_quests___init__'
p647
(dp648
g116
(dp649
S'html_filename'
p650
S'create_views_quests___init__.html'
p651
sS'name'
p652
S'create/views/quests/__init__'
p653
sS'nums'
p654
g13
(g14
g15
NtRp655
(dp656
g18
I1
sg19
I0
sg20
I1
sg21
I0
sg22
I0
sg23
I0
sg24
I0
sbssg125
S'\x8d\x97\x8c^6\xf0o\xc3_\x8dRQ}\xd2]a'
p657
ssS'user_system_models_schools_tests_test_course_model'
p658
(dp659
g250
(dp660
S'html_filename'
p661
S'user_system_models_schools_tests_test_course_model.html'
p662
sS'name'
p663
S'user_system/models/schools/tests/test_course_model'
p664
sS'nums'
p665
g13
(g14
g15
NtRp666
(dp667
g18
I1
sg19
I8
sg20
I50
sg21
I0
sg22
I0
sg23
I0
sg24
I0
sbssg256
S'\xd7va\xe6uR6*v\xca\x885\xf3]$1'
p668
ssS'create_models_question_datasets_tests___init__'
p669
(dp670
g165
(dp671
g167
S'create_models_question_datasets_tests___init__.html'
p672
sg169
S'create/models/question_datasets/tests/__init__'
p673
sg171
g13
(g14
g15
NtRp674
(dp675
g18
I1
sg19
I0
sg20
I0
sg21
I0
sg22
I0
sg23
I0
sg24
I0
sbssg174
S'\x19g\xdfM\x1a\x019\xaf\x1baIeR\xe5u\xa7'
p676
ssS'api_logging_models_modal_logging_modal_model'
p677
(dp678
g325
(dp679
g214
S'api_logging_models_modal_logging_modal_model.html'
p680
sg216
S'api_logging/models/modal_logging/modal_model'
p681
sg218
g13
(g14
g15
NtRp682
(dp683
g18
I1
sg19
I0
sg20
I19
sg21
I0
sg22
I0
sg23
I5
sg24
I0
sbssg331
S'\x0f\x1e\xac\x00_hQ\xcb\xa2\xa8\xf4@\xb9\x97\x9c\x1e'
p684
ssS'user_system_views_signups_hardcoded_test_account_view'
p685
(dp686
g42
(dp687
g44
S'user_system_views_signups_hardcoded_test_account_view.html'
p688
sg46
S'user_system/views/signups/hardcoded/test_account_view'
p689
sg48
g13
(g14
g15
NtRp690
(dp691
g18
I1
sg19
I2
sg20
I18
sg21
I0
sg22
I0
sg23
I0
sg24
I0
sbssg51
S"\xb4\xf1\xfdH\x8f\xf1QX7'\\\xd3\xab.\xbc\x80"
p692
ssS'user_system_views_users_create_student_view'
p693
(dp694
g325
(dp695
g214
S'user_system_views_users_create_student_view.html'
p696
sg216
S'user_system/views/users/create_student_view'
p697
sg218
g13
(g14
g15
NtRp698
(dp699
g18
I1
sg19
I2
sg20
I37
sg21
I0
sg22
I0
sg23
I24
sg24
I2
sbssg331
S'\x8e\xce\xac\xe9\xe3J4\xbb\x88$\xefFS\x06Ow'
p700
ssS'teach_serializers_teacher_tags___init__'
p701
(dp702
g68
(dp703
g70
S'teach_serializers_teacher_tags___init__.html'
p704
sg72
S'teach/serializers/teacher_tags/__init__'
p705
sg74
g13
(g14
g15
NtRp706
(dp707
g18
I1
sg19
I0
sg20
I1
sg21
I0
sg22
I0
sg23
I0
sg24
I0
sbssg77
S'Q\xc1\xe2\xf5*\x8fJ\xddv\xe7\x91\xd1S\xf5\xa9\xa3'
p708
ssS'learn_models_daily_quests_tests___init__'
p709
(dp710
g68
(dp711
g70
S'learn_models_daily_quests_tests___init__.html'
p712
sg72
S'learn/models/daily_quests/tests/__init__'
p713
sg74
g13
(g14
g15
NtRp714
(dp715
g18
I1
sg19
I0
sg20
I1
sg21
I0
sg22
I0
sg23
I0
sg24
I0
sbssg77
S'\xbc\xd6\xeb\xb3\xba\xcaz\xf7{\xd4B\xb5}l\xdf\x96'
p716
ssS'user_system_views_signups___init__'
p717
(dp718
g42
(dp719
g57
S'user_system_views_signups___init__.html'
p720
sg59
S'user_system/views/signups/__init__'
p721
sg61
g13
(g14
g15
NtRp722
(dp723
g18
I1
sg19
I0
sg20
I5
sg21
I0
sg22
I0
sg23
I0
sg24
I0
sbssg51
S'\xad\xb5\x1c"8P^k\xe3\xaa\x7fv\xbc\xc9\xc6\x01'
p724
ssS'create_views_tags_tag_view'
p725
(dp726
g455
(dp727
g118
S'create_views_tags_tag_view.html'
p728
sg120
S'create/views/tags/tag_view'
p729
sg122
g13
(g14
g15
NtRp730
(dp731
g18
I1
sg19
I32
sg20
I92
sg21
I0
sg22
I8
sg23
I13
sg24
I16
sbssg464
S'\xd5\xd6\xf9\xa6U<\xf82\xe0xx\x06}\xa5\xeb\xe7'
p732
ssS'api_logging_managers'
p733
(dp734
g594
(dp735
g44
S'api_logging_managers.html'
p736
sg46
S'api_logging/managers'
p737
sg48
g13
(g14
g15
NtRp738
(dp739
g18
I1
sg19
I0
sg20
I4
sg21
I0
sg22
I0
sg23
I0
sg24
I0
sbssg600
S'\xef\xaf\x98\xcd63\x10\x1c\xc1\xfcP\x12\xc1\xe7\xa5\xc7'
p740
ssS'teach_models_campaigns_campaign_model'
p741
(dp742
g137
(dp743
g214
S'teach_models_campaigns_campaign_model.html'
p744
sg216
S'teach/models/campaigns/campaign_model'
p745
sg218
g13
(g14
g15
NtRp746
(dp747
g18
I1
sg19
I0
sg20
I40
sg21
I0
sg22
I0
sg23
I0
sg24
I0
sbssg143
S'>\xc8\xe2\xfb\xdd\xc1"@\xea/\xe1\xbb\xf1\xa4\x80\x0f'
p748
ssS'create_views_tags_tests_test_add_prerequisite_view'
p749
(dp750
g335
(dp751
g44
S'create_views_tags_tests_test_add_prerequisite_view.html'
p752
sg46
S'create/views/tags/tests/test_add_prerequisite_view'
p753
sg48
g13
(g14
g15
NtRp754
(dp755
g18
I1
sg19
I0
sg20
I26
sg21
I0
sg22
I0
sg23
I0
sg24
I0
sbssg341
S'\xd2\xef\x02\xe1{\xbc\x9b\xf3\x8b\xbd\xf0\xd2\xe7\xcc\xb5\xa4'
p756
ssS'create_models_tags___init__'
p757
(dp758
g411
(dp759
S'html_filename'
p760
S'create_models_tags___init__.html'
p761
sS'name'
p762
S'create/models/tags/__init__'
p763
sS'nums'
p764
g13
(g14
g15
NtRp765
(dp766
g18
I1
sg19
I0
sg20
I5
sg21
I0
sg22
I0
sg23
I0
sg24
I0
sbssg417
S'\xcck\xb0R5)\xa8c\xdb\xa6\xfb\xec\x18 \xde}'
p767
ssS'teach_models_campaigns_tests___init__'
p768
(dp769
g137
(dp770
g31
S'teach_models_campaigns_tests___init__.html'
p771
sg33
S'teach/models/campaigns/tests/__init__'
p772
sg35
g13
(g14
g15
NtRp773
(dp774
g18
I1
sg19
I0
sg20
I0
sg21
I0
sg22
I0
sg23
I0
sg24
I0
sbssg143
S'\x19g\xdfM\x1a\x019\xaf\x1baIeR\xe5u\xa7'
p775
ssS'learn_views_student_news_feed___init__'
p776
(dp777
g325
(dp778
g214
S'learn_views_student_news_feed___init__.html'
p779
sg216
S'learn/views/student_news_feed/__init__'
p780
sg218
g13
(g14
g15
NtRp781
(dp782
g18
I1
sg19
I0
sg20
I1
sg21
I0
sg22
I0
sg23
I0
sg24
I0
sbssg331
S'\xc5\x87\xccQ|\xa2\xee\x11p\x84\xfe\xed\xe3W\xfa\x07'
p783
ssS'create_models_daily_quests___init__'
p784
(dp785
S'index'
p786
(dp787
S'html_filename'
p788
S'create_models_daily_quests___init__.html'
p789
sS'name'
p790
S'create/models/daily_quests/__init__'
p791
sS'nums'
p792
g13
(g14
g15
NtRp793
(dp794
g18
I1
sg19
I0
sg20
I1
sg21
I0
sg22
I0
sg23
I0
sg24
I0
sbssS'hash'
p795
S'\x94\x0eB\xb3\x8e\xc6\x81\xc0\x16\x84P.\x11:\x8e\xc9'
p796
ssS'teach_views_teacher_chapters_teacher_chapter_view'
p797
(dp798
g68
(dp799
g31
S'teach_views_teacher_chapters_teacher_chapter_view.html'
p800
sg33
S'teach/views/teacher_chapters/teacher_chapter_view'
p801
sg35
g13
(g14
g15
NtRp802
(dp803
g18
I1
sg19
I12
sg20
I44
sg21
I0
sg22
I0
sg23
I25
sg24
I12
sbssg77
S'Z\xc5\n\xdb\xe5!2~7\xe3i\xa7j\xd4\x10\x8c'
p804
ssS'create_serializers_tags_concept_serializer'
p805
(dp806
g377
(dp807
S'html_filename'
p808
S'create_serializers_tags_concept_serializer.html'
p809
sS'name'
p810
S'create/serializers/tags/concept_serializer'
p811
sS'nums'
p812
g13
(g14
g15
NtRp813
(dp814
g18
I1
sg19
I0
sg20
I6
sg21
I0
sg22
I0
sg23
I0
sg24
I0
sbssg383
S'\xf1\xe0\xc7%%\xbd\xfc@\x12\x02\x96\xbb\x0c\xbf\x9fq'
p815
ssS'create_serializers_questions_question_history_remark_serializer'
p816
(dp817
g620
(dp818
g622
S'create_serializers_questions_question_history_remark_serializer.html'
p819
sg624
S'create/serializers/questions/question_history_remark_serializer'
p820
sg626
g13
(g14
g15
NtRp821
(dp822
g18
I1
sg19
I0
sg20
I6
sg21
I0
sg22
I0
sg23
I0
sg24
I0
sbssg629
S'\xb53\t\x11\xa6\x1b\xf7!D"\xc8\xa3\xcb41\x9d'
p823
ssS'user_system_models_roles_tests___init__'
p824
(dp825
g42
(dp826
g477
S'user_system_models_roles_tests___init__.html'
p827
sg479
S'user_system/models/roles/tests/__init__'
p828
sg481
g13
(g14
g15
NtRp829
(dp830
g18
I1
sg19
I0
sg20
I0
sg21
I0
sg22
I0
sg23
I0
sg24
I0
sbssg51
S'\x19g\xdfM\x1a\x019\xaf\x1baIeR\xe5u\xa7'
p831
ssS'create_serializers_tags___init__'
p832
(dp833
S'index'
p834
(dp835
S'html_filename'
p836
S'create_serializers_tags___init__.html'
p837
sS'name'
p838
S'create/serializers/tags/__init__'
p839
sS'nums'
p840
g13
(g14
g15
NtRp841
(dp842
g18
I1
sg19
I0
sg20
I0
sg21
I0
sg22
I0
sg23
I0
sg24
I0
sbssS'hash'
p843
S'\x19g\xdfM\x1a\x019\xaf\x1baIeR\xe5u\xa7'
p844
ssS'privilege_urls'
p845
(dp846
g315
(dp847
g106
S'privilege_urls.html'
p848
sg108
S'privilege/urls'
p849
sg110
g13
(g14
g15
NtRp850
(dp851
g18
I1
sg19
I0
sg20
I7
sg21
I0
sg22
I0
sg23
I0
sg24
I0
sbssg321
S'\x86\xbf\xcdE\x8fy\xc9\xd5\x13I\x11#-J.\xe8'
p852
ssS'flipped_helpers_time_helper'
p853
(dp854
g137
(dp855
g431
S'flipped_helpers_time_helper.html'
p856
sg433
S'flipped/helpers/time_helper'
p857
sg435
g13
(g14
g15
NtRp858
(dp859
g18
I1
sg19
I2
sg20
I31
sg21
I0
sg22
I0
sg23
I19
sg24
I2
sbssg143
S'\xca\x92a\xc5\xd9\xf1\xd2\xa6H\x16\xd9\xed\xcdv&\xdb'
p860
ssS'create_serializers_daily_quests___init__'
p861
(dp862
g786
(dp863
g262
S'create_serializers_daily_quests___init__.html'
p864
sg264
S'create/serializers/daily_quests/__init__'
p865
sg266
g13
(g14
g15
NtRp866
(dp867
g18
I1
sg19
I0
sg20
I1
sg21
I0
sg22
I0
sg23
I0
sg24
I0
sbssg795
S'N\xb8\x18\x1c\x0c\xc7\xca\x91\xa0|\xe1\x02L\xeeC\xbe'
p868
ssS'api_logging_views_LoggingView'
p869
(dp870
g325
(dp871
g214
S'api_logging_views_LoggingView.html'
p872
sg216
S'api_logging/views/LoggingView'
p873
sg218
g13
(g14
g15
NtRp874
(dp875
g18
I1
sg19
I8
sg20
I41
sg21
I0
sg22
I0
sg23
I27
sg24
I8
sbssg331
S'\xe3\xefQ\x1e\x9e\xec\xea\xa7\xc5\x05\xb9\x90\xf6\xf3\x88\x9b'
p876
ssS'create_models_questions_tests_test_question_type_model'
p877
(dp878
g42
(dp879
g44
S'create_models_questions_tests_test_question_type_model.html'
p880
sg46
S'create/models/questions/tests/test_question_type_model'
p881
sg48
g13
(g14
g15
NtRp882
(dp883
g18
I1
sg19
I0
sg20
I17
sg21
I0
sg22
I0
sg23
I0
sg24
I0
sbssg51
S'e\x1b\x19\xbb)\x89\xff\xfa\xe5\xca\xde\x08\x08CUL'
p884
ssS'teach_models___init__'
p885
(dp886
g68
(dp887
g31
S'teach_models___init__.html'
p888
sg33
S'teach/models/__init__'
p889
sg35
g13
(g14
g15
NtRp890
(dp891
g18
I1
sg19
I0
sg20
I4
sg21
I0
sg22
I0
sg23
I0
sg24
I0
sbssg77
S'\x18\xb4\x9a\xf6\x89\xe4oR\x81\xdbb\xf7E\xf9\x92\xb7'
p892
ssS'create_models_tags_skill_model'
p893
(dp894
g411
(dp895
g44
S'create_models_tags_skill_model.html'
p896
sg46
S'create/models/tags/skill_model'
p897
sg48
g13
(g14
g15
NtRp898
(dp899
g18
I1
sg19
I0
sg20
I10
sg21
I0
sg22
I0
sg23
I0
sg24
I0
sbssg417
S'B&\x06S\xb6\x85A\xdbx\xd4\xc7#]\x13\xe1\xca'
p900
ssS'learn_tests'
p901
(dp902
g68
(dp903
g70
S'learn_tests.html'
p904
sg72
S'learn/tests'
p905
sg74
g13
(g14
g15
NtRp906
(dp907
g18
I1
sg19
I0
sg20
I1
sg21
I0
sg22
I0
sg23
I0
sg24
I0
sbssg77
S'\xe3\x7f\x86\xaa\x99\xac\xc8\x80\xdblE4\x0f\xe7\x1d\xfc'
p908
ssS'learn_models_daily_quests_daily_quest_model'
p909
(dp910
g68
(dp911
S'html_filename'
p912
S'learn_models_daily_quests_daily_quest_model.html'
p913
sS'name'
p914
S'learn/models/daily_quests/daily_quest_model'
p915
sS'nums'
p916
g13
(g14
g15
NtRp917
(dp918
g18
I1
sg19
I22
sg20
I123
sg21
I0
sg22
I3
sg23
I9
sg24
I5
sbssg77
S'V\xc0\xd6\x96s\xd6\x88\x97%.\xd5\x9dSII\xdb'
p919
ssS'api_logging_views___init__'
p920
(dp921
g325
(dp922
g57
S'api_logging_views___init__.html'
p923
sg59
S'api_logging/views/__init__'
p924
sg61
g13
(g14
g15
NtRp925
(dp926
g18
I1
sg19
I0
sg20
I5
sg21
I0
sg22
I0
sg23
I0
sg24
I0
sbssg331
S'E\xf0\xc8*y9Q5\x96\xa8]\xdf\x95Zq\xed'
p927
ssS'create_models_books___init__'
p928
(dp929
g377
(dp930
g808
S'create_models_books___init__.html'
p931
sg810
S'create/models/books/__init__'
p932
sg812
g13
(g14
g15
NtRp933
(dp934
g18
I1
sg19
I0
sg20
I4
sg21
I0
sg22
I0
sg23
I0
sg24
I0
sbssg383
S'\xba\x14\x87u\xc0\x80\x96\x82s\x8d\x8bU)\x1c\xc3\x91'
p935
ssS'flipped_helpers___init__'
p936
(dp937
g42
(dp938
g431
S'flipped_helpers___init__.html'
p939
sg433
S'flipped/helpers/__init__'
p940
sg435
g13
(g14
g15
NtRp941
(dp942
g18
I1
sg19
I0
sg20
I5
sg21
I0
sg22
I0
sg23
I0
sg24
I0
sbssg51
S'\x8d&\xda\xf5\x1f\xe2\xe9/Cb\xfb\x88\x04UM6'
p943
ssS'create_models_quests_tests_test_quest_model'
p944
(dp945
g116
(dp946
g576
S'create_models_quests_tests_test_quest_model.html'
p947
sg578
S'create/models/quests/tests/test_quest_model'
p948
sg580
g13
(g14
g15
NtRp949
(dp950
g18
I1
sg19
I4
sg20
I48
sg21
I0
sg22
I0
sg23
I0
sg24
I0
sbssg125
S'\xcdF\x98\xd0k\x14\x9e\xe4\x90\x96\x03\xddNdiH'
p951
ssS'privilege_views_privileges_user_privilege_view'
p952
(dp953
g315
(dp954
g106
S'privilege_views_privileges_user_privilege_view.html'
p955
sg108
S'privilege/views/privileges/user_privilege_view'
p956
sg110
g13
(g14
g15
NtRp957
(dp958
g18
I1
sg19
I10
sg20
I38
sg21
I0
sg22
I0
sg23
I22
sg24
I10
sbssg321
S'\xf699\xa5A\xca\x9e\x91,l\xf8\x8dI[PR'
p959
ssS'learn_models_daily_quests_tests_test_daily_quest_model'
p960
(dp961
g68
(dp962
g431
S'learn_models_daily_quests_tests_test_daily_quest_model.html'
p963
sg433
S'learn/models/daily_quests/tests/test_daily_quest_model'
p964
sg435
g13
(g14
g15
NtRp965
(dp966
g18
I1
sg19
I12
sg20
I249
sg21
I0
sg22
I0
sg23
I0
sg24
I0
sbssg77
S'+\xfc\x0c\xee\x10\x00\x0f+\xad\x07l\xcf\x8b\xac\xefF'
p967
ssS'create_views_books_tests_test_get_book_by_id_view'
p968
(dp969
S'index'
p970
(dp971
g106
S'create_views_books_tests_test_get_book_by_id_view.html'
p972
sg108
S'create/views/books/tests/test_get_book_by_id_view'
p973
sg110
g13
(g14
g15
NtRp974
(dp975
g18
I1
sg19
I0
sg20
I20
sg21
I0
sg22
I0
sg23
I0
sg24
I0
sbssS'hash'
p976
S'\xc88x\xaf\x84e\xaa6\x17\xdf\x0e\x8c`\xcaAO'
p977
ssS'user_system_views_apps_tests_test_get_app_by_id_view'
p978
(dp979
g42
(dp980
g44
S'user_system_views_apps_tests_test_get_app_by_id_view.html'
p981
sg46
S'user_system/views/apps/tests/test_get_app_by_id_view'
p982
sg48
g13
(g14
g15
NtRp983
(dp984
g18
I1
sg19
I0
sg20
I17
sg21
I0
sg22
I0
sg23
I0
sg24
I0
sbssg51
S"\xa2\x1eG%r{-~\xc5=\x8aj\x99X!'"
p985
ssS'teach_views_daily_quest_templates_daily_quest_template_view'
p986
(dp987
g68
(dp988
S'html_filename'
p989
S'teach_views_daily_quest_templates_daily_quest_template_view.html'
p990
sS'name'
p991
S'teach/views/daily_quest_templates/daily_quest_template_view'
p992
sS'nums'
p993
g13
(g14
g15
NtRp994
(dp995
g18
I1
sg19
I18
sg20
I54
sg21
I0
sg22
I0
sg23
I33
sg24
I18
sbssg77
S'\x97J\xccM\x9b\xcd1\xaf\x95\xea\xd8\x8d\xdc(\x89['
p996
ssS'api_logging_views_summary___init__'
p997
(dp998
g325
(dp999
g214
S'api_logging_views_summary___init__.html'
p1000
sg216
S'api_logging/views/summary/__init__'
p1001
sg218
g13
(g14
g15
NtRp1002
(dp1003
g18
I1
sg19
I0
sg20
I1
sg21
I0
sg22
I0
sg23
I0
sg24
I0
sbssg331
S'\x04\x12bh\x96\xc5j\x88dm\x0e\xd7\xe1\x94Lq'
p1004
ssS'privilege_serializers___init__'
p1005
(dp1006
g315
(dp1007
g106
S'privilege_serializers___init__.html'
p1008
sg108
S'privilege/serializers/__init__'
p1009
sg110
g13
(g14
g15
NtRp1010
(dp1011
g18
I1
sg19
I0
sg20
I1
sg21
I0
sg22
I0
sg23
I0
sg24
I0
sbssg321
S'\x13V\xca}S\xd3\x98Rp?\xb0\xe1\x904>b'
p1012
ssS'create_models_books_tests_test_book_subchapter_model'
p1013
(dp1014
g377
(dp1015
S'html_filename'
p1016
S'create_models_books_tests_test_book_subchapter_model.html'
p1017
sS'name'
p1018
S'create/models/books/tests/test_book_subchapter_model'
p1019
sS'nums'
p1020
g13
(g14
g15
NtRp1021
(dp1022
g18
I1
sg19
I0
sg20
I42
sg21
I0
sg22
I0
sg23
I0
sg24
I0
sbssg383
S'\xe3*\xba\x94d#\xcd\t\xc9\xb8\x05w\nz\xb8\xc0'
p1023
ssS'learn_models_daily_quests___init__'
p1024
(dp1025
g68
(dp1026
S'html_filename'
p1027
S'learn_models_daily_quests___init__.html'
p1028
sS'name'
p1029
S'learn/models/daily_quests/__init__'
p1030
sS'nums'
p1031
g13
(g14
g15
NtRp1032
(dp1033
g18
I1
sg19
I0
sg20
I2
sg21
I0
sg22
I0
sg23
I0
sg24
I0
sbssg77
S's\x11\xbfV}\xab\xfcdH\xcf4Q\xc5\x86\xa3\xb4'
p1034
ssS'create_models_daily_quest_templates_tests___init__'
p1035
(dp1036
g260
(dp1037
g262
S'create_models_daily_quest_templates_tests___init__.html'
p1038
sg264
S'create/models/daily_quest_templates/tests/__init__'
p1039
sg266
g13
(g14
g15
NtRp1040
(dp1041
g18
I1
sg19
I0
sg20
I0
sg21
I0
sg22
I0
sg23
I0
sg24
I0
sbssg269
S'\x19g\xdfM\x1a\x019\xaf\x1baIeR\xe5u\xa7'
p1042
ssS'create_models_tags_tag_model'
p1043
(dp1044
g411
(dp1045
g106
S'create_models_tags_tag_model.html'
p1046
sg108
S'create/models/tags/tag_model'
p1047
sg110
g13
(g14
g15
NtRp1048
(dp1049
g18
I1
sg19
I0
sg20
I37
sg21
I0
sg22
I0
sg23
I0
sg24
I0
sbssg417
S'rJ0\x91]\xe5\xfc\xa8\x8c\x00}RI\x18\xf0\x07'
p1050
ssS'create_views_tags___init__'
p1051
(dp1052
g455
(dp1053
g457
S'create_views_tags___init__.html'
p1054
sg459
S'create/views/tags/__init__'
p1055
sg461
g13
(g14
g15
NtRp1056
(dp1057
g18
I1
sg19
I0
sg20
I1
sg21
I0
sg22
I0
sg23
I0
sg24
I0
sbssg464
S'|r<\xaap\x01\xb1\xbc"\xe5\xbb\xd8\x87\xa5\xd2H'
p1058
ssS'api_logging_models_query_stat___init__'
p1059
(dp1060
g273
(dp1061
S'html_filename'
p1062
S'api_logging_models_query_stat___init__.html'
p1063
sS'name'
p1064
S'api_logging/models/query_stat/__init__'
p1065
sS'nums'
p1066
g13
(g14
g15
NtRp1067
(dp1068
g18
I1
sg19
I0
sg20
I1
sg21
I0
sg22
I0
sg23
I0
sg24
I0
sbssg279
S'lAVjsm\xf3\xa0\xf4\x14\x8bL\xb9S\xd6\xe6'
p1069
ssS'create_serializers_tags_skill_serializer'
p1070
(dp1071
g377
(dp1072
g808
S'create_serializers_tags_skill_serializer.html'
p1073
sg810
S'create/serializers/tags/skill_serializer'
p1074
sg812
g13
(g14
g15
NtRp1075
(dp1076
g18
I1
sg19
I0
sg20
I6
sg21
I0
sg22
I0
sg23
I0
sg24
I0
sbssg383
S'\x1b\x10O\xca\xd5i\\\x06C\x00q}\xf43\xcb\xa6'
p1077
ssS'create_views_questions_question_history_remark_view'
p1078
(dp1079
g620
(dp1080
g622
S'create_views_questions_question_history_remark_view.html'
p1081
sg624
S'create/views/questions/question_history_remark_view'
p1082
sg626
g13
(g14
g15
NtRp1083
(dp1084
g18
I1
sg19
I0
sg20
I14
sg21
I0
sg22
I0
sg23
I0
sg24
I0
sbssg629
S'{4O\x0e\xb3\xad\xc8\xb72\x8f\x1f\x11\xc0\x9e\xa0\xd6'
p1085
ssS'create_serializers_tags_tag_type_serializer'
p1086
(dp1087
g377
(dp1088
g808
S'create_serializers_tags_tag_type_serializer.html'
p1089
sg810
S'create/serializers/tags/tag_type_serializer'
p1090
sg812
g13
(g14
g15
NtRp1091
(dp1092
g18
I1
sg19
I0
sg20
I6
sg21
I0
sg22
I0
sg23
I0
sg24
I0
sbssg383
S'\xc3\xfd\x81\x18{\x97,\xb1\xb6\x9f\xee\xf2kZ\x1e\x02'
p1093
ssS'learn_models_points_tests_test_point_history_model'
p1094
(dp1095
g325
(dp1096
g214
S'learn_models_points_tests_test_point_history_model.html'
p1097
sg216
S'learn/models/points/tests/test_point_history_model'
p1098
sg218
g13
(g14
g15
NtRp1099
(dp1100
g18
I1
sg19
I0
sg20
I22
sg21
I0
sg22
I0
sg23
I0
sg24
I0
sbssg331
S"\x8d\xd7\x96\xe4\x1b\xf6\xc4\xed:B\x13\xa9MA'\x99"
p1101
ssS'learn_serializers_daily_quests_daily_quest_serializer'
p1102
(dp1103
g68
(dp1104
S'html_filename'
p1105
S'learn_serializers_daily_quests_daily_quest_serializer.html'
p1106
sS'name'
p1107
S'learn/serializers/daily_quests/daily_quest_serializer'
p1108
sS'nums'
p1109
g13
(g14
g15
NtRp1110
(dp1111
g18
I1
sg19
I2
sg20
I61
sg21
I0
sg22
I0
sg23
I27
sg24
I2
sbssg77
S'[\x88\x15VYH\x14\xb8S\xb2\x02\xa7a<\x08\x7f'
p1112
ssS'user_system_models_users_tests_test_user_profile_picture_model'
p1113
(dp1114
g137
(dp1115
g31
S'user_system_models_users_tests_test_user_profile_picture_model.html'
p1116
sg33
S'user_system/models/users/tests/test_user_profile_picture_model'
p1117
sg35
g13
(g14
g15
NtRp1118
(dp1119
g18
I1
sg19
I0
sg20
I21
sg21
I0
sg22
I0
sg23
I0
sg24
I0
sbssg143
S'\xbc/\x93\xf6\x8a\x1eC\x99t\xd0\xdc\x96\xf8\x970\xc9'
p1120
ssS'teach_views_teacher_news_feed_teacher_news_feed_view'
p1121
(dp1122
g325
(dp1123
g57
S'teach_views_teacher_news_feed_teacher_news_feed_view.html'
p1124
sg59
S'teach/views/teacher_news_feed/teacher_news_feed_view'
p1125
sg61
g13
(g14
g15
NtRp1126
(dp1127
g18
I1
sg19
I8
sg20
I60
sg21
I0
sg22
I0
sg23
I38
sg24
I8
sbssg331
S'\n]Y\xde\x93\x8f\xd7O\x05\xcd\x92\x98!=\xcdd'
p1128
ssS'user_system_serializers_schools_organization_serializer'
p1129
(dp1130
g68
(dp1131
g70
S'user_system_serializers_schools_organization_serializer.html'
p1132
sg72
S'user_system/serializers/schools/organization_serializer'
p1133
sg74
g13
(g14
g15
NtRp1134
(dp1135
g18
I1
sg19
I0
sg20
I7
sg21
I0
sg22
I0
sg23
I0
sg24
I0
sbssg77
S'90~\xe3\x8f\x8e\xd9m\xb4\nInn\x03(\xdb'
p1136
ssS'create_models_books_book_subchapter_model'
p1137
(dp1138
g377
(dp1139
S'html_filename'
p1140
S'create_models_books_book_subchapter_model.html'
p1141
sS'name'
p1142
S'create/models/books/book_subchapter_model'
p1143
sS'nums'
p1144
g13
(g14
g15
NtRp1145
(dp1146
g18
I1
sg19
I2
sg20
I45
sg21
I0
sg22
I0
sg23
I0
sg24
I0
sbssg383
S'\xbc\xee\x91\x7f;\xa9\x15\xeaau\xef\x82\x07"\x02\xd3'
p1147
ssS'teach_views_summaries_leaderboard_view'
p1148
(dp1149
g325
(dp1150
g57
S'teach_views_summaries_leaderboard_view.html'
p1151
sg59
S'teach/views/summaries/leaderboard_view'
p1152
sg61
g13
(g14
g15
NtRp1153
(dp1154
g18
I1
sg19
I64
sg20
I159
sg21
I0
sg22
I0
sg23
I129
sg24
I64
sbssg331
S'\xc4A\xb6\x15>\xf4\xb1\x89\x13Ef?r\x92\xab\xac'
p1155
ssS'api_logging_serializers_modal_loggings_modal_user_history_serializer'
p1156
(dp1157
g325
(dp1158
g214
S'api_logging_serializers_modal_loggings_modal_user_history_serializer.html'
p1159
sg216
S'api_logging/serializers/modal_loggings/modal_user_history_serializer'
p1160
sg218
g13
(g14
g15
NtRp1161
(dp1162
g18
I1
sg19
I0
sg20
I7
sg21
I0
sg22
I0
sg23
I0
sg24
I0
sbssg331
S'\xc2\x8f\x89\xe8$\x9c~\x81\xa9\xca\xf8h\x80\xb7hp'
p1163
ssS'learn_models_points___init__'
p1164
(dp1165
g325
(dp1166
g214
S'learn_models_points___init__.html'
p1167
sg216
S'learn/models/points/__init__'
p1168
sg218
g13
(g14
g15
NtRp1169
(dp1170
g18
I1
sg19
I0
sg20
I2
sg21
I0
sg22
I0
sg23
I0
sg24
I0
sbssg331
S'\x1d_\xe1\xcei\x14zD\xd7\x8e\xa1\xf55\x1f\xd1\xd5'
p1171
ssS'api_logging_models___init__'
p1172
(dp1173
g325
(dp1174
g1062
S'api_logging_models___init__.html'
p1175
sg1064
S'api_logging/models/__init__'
p1176
sg1066
g13
(g14
g15
NtRp1177
(dp1178
g18
I1
sg19
I0
sg20
I4
sg21
I0
sg22
I0
sg23
I0
sg24
I0
sbssg331
S'\x1e\xe1SC\x84\x0bP\xec\xc0\xa61\xf48)\xde\xbb'
p1179
ssS'teach_serializers___init__'
p1180
(dp1181
g68
(dp1182
g70
S'teach_serializers___init__.html'
p1183
sg72
S'teach/serializers/__init__'
p1184
sg74
g13
(g14
g15
NtRp1185
(dp1186
g18
I1
sg19
I0
sg20
I3
sg21
I0
sg22
I0
sg23
I0
sg24
I0
sbssg77
S'3\x13\x12&\xcb\xecC\xee\xa8lR\x1a\x1d\xb9M\xba'
p1187
ssS'user_system_views_signups_tests___init__'
p1188
(dp1189
g42
(dp1190
g477
S'user_system_views_signups_tests___init__.html'
p1191
sg479
S'user_system/views/signups/tests/__init__'
p1192
sg481
g13
(g14
g15
NtRp1193
(dp1194
g18
I1
sg19
I0
sg20
I1
sg21
I0
sg22
I0
sg23
I0
sg24
I0
sbssg51
S'\xbc\xd6\xeb\xb3\xba\xcaz\xf7{\xd4B\xb5}l\xdf\x96'
p1195
ssS'create_models_daily_quests_tests___init__'
p1196
(dp1197
g786
(dp1198
g788
S'create_models_daily_quests_tests___init__.html'
p1199
sg790
S'create/models/daily_quests/tests/__init__'
p1200
sg792
g13
(g14
g15
NtRp1201
(dp1202
g18
I1
sg19
I0
sg20
I1
sg21
I0
sg22
I0
sg23
I0
sg24
I0
sbssg795
S'\xbc\xd6\xeb\xb3\xba\xcaz\xf7{\xd4B\xb5}l\xdf\x96'
p1203
ssS'api_logging_models_api_logging___init__'
p1204
(dp1205
g325
(dp1206
g214
S'api_logging_models_api_logging___init__.html'
p1207
sg216
S'api_logging/models/api_logging/__init__'
p1208
sg218
g13
(g14
g15
NtRp1209
(dp1210
g18
I1
sg19
I0
sg20
I1
sg21
I0
sg22
I0
sg23
I0
sg24
I0
sbssg331
S'C\xe8\xcf\x97-\xc6\xd3j\xcb\x90*\xea\xd3w\x83\xe0'
p1211
ssS'create_serializers_daily_quests_daily_quest_serializer'
p1212
(dp1213
g260
(dp1214
S'html_filename'
p1215
S'create_serializers_daily_quests_daily_quest_serializer.html'
p1216
sS'name'
p1217
S'create/serializers/daily_quests/daily_quest_serializer'
p1218
sS'nums'
p1219
g13
(g14
g15
NtRp1220
(dp1221
g18
I1
sg19
I0
sg20
I12
sg21
I0
sg22
I0
sg23
I3
sg24
I0
sbssg269
S' $!\xf6\xe6\x92\x9f\x9f\xafy\xe9\x8b\x1c\xf4\xb6\x01'
p1222
ssS'user_system_views_signups_email_signup_view'
p1223
(dp1224
g42
(dp1225
g44
S'user_system_views_signups_email_signup_view.html'
p1226
sg46
S'user_system/views/signups/email_signup_view'
p1227
sg48
g13
(g14
g15
NtRp1228
(dp1229
g18
I1
sg19
I8
sg20
I44
sg21
I0
sg22
I0
sg23
I0
sg24
I0
sbssg51
S'&G\xd1\xc4{\x9b\xbf\x14\x92F\xbe\x13\xeer\x84\x1b'
p1230
ssS'teach_views_teacher_tags___init__'
p1231
(dp1232
g68
(dp1233
g70
S'teach_views_teacher_tags___init__.html'
p1234
sg72
S'teach/views/teacher_tags/__init__'
p1235
sg74
g13
(g14
g15
NtRp1236
(dp1237
g18
I1
sg19
I0
sg20
I1
sg21
I0
sg22
I0
sg23
I0
sg24
I0
sbssg77
S'cp\x00\xdc\x00\xe5M\x9f\x1f\xaa\xb2Y\xd9%\x1d"'
p1238
ssS'flipped_helpers_success_response_helper'
p1239
(dp1240
g42
(dp1241
g44
S'flipped_helpers_success_response_helper.html'
p1242
sg46
S'flipped/helpers/success_response_helper'
p1243
sg48
g13
(g14
g15
NtRp1244
(dp1245
g18
I1
sg19
I2
sg20
I4
sg21
I0
sg22
I0
sg23
I0
sg24
I0
sbssg51
S"'Bp\xbe\xd9\xfa\x92\xa4;\xb6\t\xa8\xfe<\x9d\xa5"
p1246
ssS'create_models_questions_question_model'
p1247
(dp1248
g42
(dp1249
S'html_filename'
p1250
S'create_models_questions_question_model.html'
p1251
sS'name'
p1252
S'create/models/questions/question_model'
p1253
sS'nums'
p1254
g13
(g14
g15
NtRp1255
(dp1256
g18
I1
sg19
I0
sg20
I48
sg21
I0
sg22
I0
sg23
I0
sg24
I0
sbssg51
S'\tGy\xb6\x10\x17dQ\xd7\xd8N>\xd5\x96R\x82'
p1257
ssS'user_system_models_roles___init__'
p1258
(dp1259
g42
(dp1260
g477
S'user_system_models_roles___init__.html'
p1261
sg479
S'user_system/models/roles/__init__'
p1262
sg481
g13
(g14
g15
NtRp1263
(dp1264
g18
I1
sg19
I0
sg20
I2
sg21
I0
sg22
I0
sg23
I0
sg24
I0
sbssg51
S'\xa3\xc2\r\x1b\x1bC\x85\xa5\xads\x7fl\xab`*1'
p1265
ssS'create_models_questions_question_history_model'
p1266
(dp1267
g42
(dp1268
g106
S'create_models_questions_question_history_model.html'
p1269
sg108
S'create/models/questions/question_history_model'
p1270
sg110
g13
(g14
g15
NtRp1271
(dp1272
g18
I1
sg19
I8
sg20
I68
sg21
I0
sg22
I2
sg23
I2
sg24
I2
sbssg51
S'\xd0\xe9\x0bm$j\x15\x9b@\x93\xe5C\xa7\x97\xfd\xf4'
p1273
ssS'user_system_views_signups_tests_test_facebook_signup_view'
p1274
(dp1275
g42
(dp1276
g44
S'user_system_views_signups_tests_test_facebook_signup_view.html'
p1277
sg46
S'user_system/views/signups/tests/test_facebook_signup_view'
p1278
sg48
g13
(g14
g15
NtRp1279
(dp1280
g18
I1
sg19
I0
sg20
I60
sg21
I0
sg22
I0
sg23
I0
sg24
I0
sbssg51
S'\x93<\xc8]\x14\t\xa8/\xdd\xd1\xa4]\xfbp!\xbd'
p1281
ssS'user_system_models_users_tests_test_teacher_mapping_model'
p1282
(dp1283
g29
(dp1284
S'html_filename'
p1285
S'user_system_models_users_tests_test_teacher_mapping_model.html'
p1286
sS'name'
p1287
S'user_system/models/users/tests/test_teacher_mapping_model'
p1288
sS'nums'
p1289
g13
(g14
g15
NtRp1290
(dp1291
g18
I1
sg19
I4
sg20
I35
sg21
I0
sg22
I0
sg23
I0
sg24
I0
sbssg38
S'\x96\x93\xca\x00>\xf7\xc8\xe6:\xb8\x7f\xf5q:\xb6\xaa'
p1292
ssS'learn_views_daily_quests_daily_quest_view'
p1293
(dp1294
g68
(dp1295
g214
S'learn_views_daily_quests_daily_quest_view.html'
p1296
sg216
S'learn/views/daily_quests/daily_quest_view'
p1297
sg218
g13
(g14
g15
NtRp1298
(dp1299
g18
I1
sg19
I16
sg20
I61
sg21
I0
sg22
I0
sg23
I40
sg24
I16
sbssg77
S'\xceiA\x93\xcd>Y\x85L\x07Oz\x9aw\xae;'
p1300
ssS'teach_views_summaries_class_ranking_view'
p1301
(dp1302
g325
(dp1303
g57
S'teach_views_summaries_class_ranking_view.html'
p1304
sg59
S'teach/views/summaries/class_ranking_view'
p1305
sg61
g13
(g14
g15
NtRp1306
(dp1307
g18
I1
sg19
I22
sg20
I82
sg21
I0
sg22
I0
sg23
I59
sg24
I22
sbssg331
S'\xce\x9f\x94\rO\x92\x17\x1b\xc0\xd3\xcf\xf2"T\x1e\x7f'
p1308
ssS'privilege_models_privileges_tests___init__'
p1309
(dp1310
g315
(dp1311
g106
S'privilege_models_privileges_tests___init__.html'
p1312
sg108
S'privilege/models/privileges/tests/__init__'
p1313
sg110
g13
(g14
g15
NtRp1314
(dp1315
g18
I1
sg19
I0
sg20
I0
sg21
I0
sg22
I0
sg23
I0
sg24
I0
sbssg321
S'\x19g\xdfM\x1a\x019\xaf\x1baIeR\xe5u\xa7'
p1316
ssS'teach_serializers_teacher_chapters___init__'
p1317
(dp1318
g68
(dp1319
g70
S'teach_serializers_teacher_chapters___init__.html'
p1320
sg72
S'teach/serializers/teacher_chapters/__init__'
p1321
sg74
g13
(g14
g15
NtRp1322
(dp1323
g18
I1
sg19
I0
sg20
I1
sg21
I0
sg22
I0
sg23
I0
sg24
I0
sbssg77
S'\xfe\x88\xda\x10\xec!\x99\xb7-\x8d\x90E\xe18K\xb1'
p1324
ssS'api_logging_admin'
p1325
(dp1326
g594
(dp1327
g57
S'api_logging_admin.html'
p1328
sg59
S'api_logging/admin'
p1329
sg61
g13
(g14
g15
NtRp1330
(dp1331
g18
I1
sg19
I0
sg20
I12
sg21
I0
sg22
I0
sg23
I0
sg24
I0
sbssg600
S'!\xbak\xf6\xdb\xef\xb4\xc9ra$\xb3\x10\xed\xbf\x8f'
p1332
ssS'user_system_models_users_user_streak_history_model'
p1333
(dp1334
g325
(dp1335
g1285
S'user_system_models_users_user_streak_history_model.html'
p1336
sg1287
S'user_system/models/users/user_streak_history_model'
p1337
sg1289
g13
(g14
g15
NtRp1338
(dp1339
g18
I1
sg19
I0
sg20
I28
sg21
I0
sg22
I0
sg23
I0
sg24
I0
sbssg331
S'w\x85uw\r5\x1a\xa5\xea>\xdaqki`p'
p1340
ssS'create_models_tags_tests_test_concept_model'
p1341
(dp1342
g411
(dp1343
g44
S'create_models_tags_tests_test_concept_model.html'
p1344
sg46
S'create/models/tags/tests/test_concept_model'
p1345
sg48
g13
(g14
g15
NtRp1346
(dp1347
g18
I1
sg19
I0
sg20
I12
sg21
I0
sg22
I0
sg23
I0
sg24
I0
sbssg417
S'@\x95\xd9\xf7\xa5\xc4\x0c\xb1\xad\xa4\xf5p\x95\x06!N'
p1348
ssS'privilege_models_privileges_privilege_model'
p1349
(dp1350
g315
(dp1351
g1285
S'privilege_models_privileges_privilege_model.html'
p1352
sg1287
S'privilege/models/privileges/privilege_model'
p1353
sg1289
g13
(g14
g15
NtRp1354
(dp1355
g18
I1
sg19
I0
sg20
I29
sg21
I0
sg22
I0
sg23
I0
sg24
I0
sbssg321
S'\xa3\xbf\x7fn\x8c\xe8#\xf8\xa9\x95#\xc7\xdb\xf0Y\xe6'
p1356
ssS'create_models_questions_tests_test_question_choice_model'
p1357
(dp1358
g42
(dp1359
S'html_filename'
p1360
S'create_models_questions_tests_test_question_choice_model.html'
p1361
sS'name'
p1362
S'create/models/questions/tests/test_question_choice_model'
p1363
sS'nums'
p1364
g13
(g14
g15
NtRp1365
(dp1366
g18
I1
sg19
I0
sg20
I46
sg21
I0
sg22
I0
sg23
I0
sg24
I0
sbssg51
S'$\x08N\xfb\nW\n\xecG\x9a[\xb7\xe2\xc1\xbd\x06'
p1367
ssS'user_system_views_users_tests_test_get_user_by_id_view'
p1368
(dp1369
g42
(dp1370
g106
S'user_system_views_users_tests_test_get_user_by_id_view.html'
p1371
sg108
S'user_system/views/users/tests/test_get_user_by_id_view'
p1372
sg110
g13
(g14
g15
NtRp1373
(dp1374
g18
I1
sg19
I0
sg20
I27
sg21
I0
sg22
I0
sg23
I0
sg24
I0
sbssg51
S'\xd7\x7f\x0c\xb9\xda.\xf1\x82\xb4\xdf*z\x10(o)'
p1375
ssS'create_models___init__'
p1376
(dp1377
g42
(dp1378
g70
S'create_models___init__.html'
p1379
sg72
S'create/models/__init__'
p1380
sg74
g13
(g14
g15
NtRp1381
(dp1382
g18
I1
sg19
I0
sg20
I6
sg21
I0
sg22
I0
sg23
I0
sg24
I0
sbssg51
S'\x1a\xde\xff\xb8/\x08R\x8e\xff\x13\x8b\xeb`\xfd\x98\xf8'
p1383
ssS'create_serializers_tags_tag_history_serializer'
p1384
(dp1385
S'index'
p1386
(dp1387
g118
S'create_serializers_tags_tag_history_serializer.html'
p1388
sg120
S'create/serializers/tags/tag_history_serializer'
p1389
sg122
g13
(g14
g15
NtRp1390
(dp1391
g18
I1
sg19
I0
sg20
I14
sg21
I0
sg22
I0
sg23
I0
sg24
I0
sbssS'hash'
p1392
S'\xc1"\xf9l4\xe66\x8a\xd0)r!\x05Y+\xd2'
p1393
ssS'create_serializers_daily_quest_templates___init__'
p1394
(dp1395
g260
(dp1396
g262
S'create_serializers_daily_quest_templates___init__.html'
p1397
sg264
S'create/serializers/daily_quest_templates/__init__'
p1398
sg266
g13
(g14
g15
NtRp1399
(dp1400
g18
I1
sg19
I0
sg20
I1
sg21
I0
sg22
I0
sg23
I0
sg24
I0
sbssg269
S'\xa2\xd34\x1b\xe2+\x16\xa9un\x8f\xa5\xe6\xc4\\p'
p1401
ssS'user_system_views_roles_tests___init__'
p1402
(dp1403
g42
(dp1404
g477
S'user_system_views_roles_tests___init__.html'
p1405
sg479
S'user_system/views/roles/tests/__init__'
p1406
sg481
g13
(g14
g15
NtRp1407
(dp1408
g18
I1
sg19
I0
sg20
I0
sg21
I0
sg22
I0
sg23
I0
sg24
I0
sbssg51
S'\x19g\xdfM\x1a\x019\xaf\x1baIeR\xe5u\xa7'
p1409
ssS'api_logging_models_modal_logging___init__'
p1410
(dp1411
g325
(dp1412
g214
S'api_logging_models_modal_logging___init__.html'
p1413
sg216
S'api_logging/models/modal_logging/__init__'
p1414
sg218
g13
(g14
g15
NtRp1415
(dp1416
g18
I1
sg19
I0
sg20
I2
sg21
I0
sg22
I0
sg23
I0
sg24
I0
sbssg331
S"+\x16\xa4\xd1\xf5m\xa9\x9e*\xd0\xa23O'}-"
p1417
ssS'user_system_serializers___init__'
p1418
(dp1419
g42
(dp1420
g70
S'user_system_serializers___init__.html'
p1421
sg72
S'user_system/serializers/__init__'
p1422
sg74
g13
(g14
g15
NtRp1423
(dp1424
g18
I1
sg19
I0
sg20
I3
sg21
I0
sg22
I0
sg23
I0
sg24
I0
sbssg51
S'\x85\x12\xbd.\x85L4\xea\t4\x9c\xcf\xb5 \x81\xb4'
p1425
ssS'teach_models_daily_quest_templates_tests___init__'
p1426
(dp1427
g68
(dp1428
g70
S'teach_models_daily_quest_templates_tests___init__.html'
p1429
sg72
S'teach/models/daily_quest_templates/tests/__init__'
p1430
sg74
g13
(g14
g15
NtRp1431
(dp1432
g18
I1
sg19
I0
sg20
I0
sg21
I0
sg22
I0
sg23
I0
sg24
I0
sbssg77
S'\x19g\xdfM\x1a\x019\xaf\x1baIeR\xe5u\xa7'
p1433
ssS'user_system_serializers_schools_grade_serializer'
p1434
(dp1435
g137
(dp1436
g31
S'user_system_serializers_schools_grade_serializer.html'
p1437
sg33
S'user_system/serializers/schools/grade_serializer'
p1438
sg35
g13
(g14
g15
NtRp1439
(dp1440
g18
I1
sg19
I0
sg20
I9
sg21
I0
sg22
I0
sg23
I0
sg24
I0
sbssg143
S"()\x18t._h'\x1c\x9bV\x14KS\xf6,"
p1441
ssS'create_models_questions_tests___init__'
p1442
(dp1443
g42
(dp1444
g477
S'create_models_questions_tests___init__.html'
p1445
sg479
S'create/models/questions/tests/__init__'
p1446
sg481
g13
(g14
g15
NtRp1447
(dp1448
g18
I1
sg19
I0
sg20
I0
sg21
I0
sg22
I0
sg23
I0
sg24
I0
sbssg51
S'\x19g\xdfM\x1a\x019\xaf\x1baIeR\xe5u\xa7'
p1449
ssS'teach_views___init__'
p1450
(dp1451
g68
(dp1452
g214
S'teach_views___init__.html'
p1453
sg216
S'teach/views/__init__'
p1454
sg218
g13
(g14
g15
NtRp1455
(dp1456
g18
I1
sg19
I0
sg20
I3
sg21
I0
sg22
I0
sg23
I0
sg24
I0
sbssg77
S'\xddN\x8bL\xe7O\xba\x93\x86:\xc2\x15\x13gc6'
p1457
ssS'privilege_admin'
p1458
(dp1459
g315
(dp1460
g106
S'privilege_admin.html'
p1461
sg108
S'privilege/admin'
p1462
sg110
g13
(g14
g15
NtRp1463
(dp1464
g18
I1
sg19
I0
sg20
I4
sg21
I0
sg22
I0
sg23
I0
sg24
I0
sbssg321
S'\xa1\x9fb^\xc7l\x00\x1f\x0e\x9c\x06\x08\x99Kx\x94'
p1465
ssS'teach_models_teacher_tags_tests_test_teacher_tag_model'
p1466
(dp1467
g68
(dp1468
g70
S'teach_models_teacher_tags_tests_test_teacher_tag_model.html'
p1469
sg72
S'teach/models/teacher_tags/tests/test_teacher_tag_model'
p1470
sg74
g13
(g14
g15
NtRp1471
(dp1472
g18
I1
sg19
I0
sg20
I30
sg21
I0
sg22
I0
sg23
I0
sg24
I0
sbssg77
S'\xf3\x06\xd8\xd6\x93V\xab\xdc\x87\x05\xf6vJ\xa9`\xe6'
p1473
ssS'user_system_models_schools_academic_year_model'
p1474
(dp1475
g224
(dp1476
S'html_filename'
p1477
S'user_system_models_schools_academic_year_model.html'
p1478
sS'name'
p1479
S'user_system/models/schools/academic_year_model'
p1480
sS'nums'
p1481
g13
(g14
g15
NtRp1482
(dp1483
g18
I1
sg19
I0
sg20
I23
sg21
I0
sg22
I0
sg23
I0
sg24
I0
sbssg233
S'\xf1Zl\xd3\xdd4\xdcX&\xdf\xf0<.\x11FY'
p1484
ssS'learn_models___init__'
p1485
(dp1486
g68
(dp1487
g214
S'learn_models___init__.html'
p1488
sg216
S'learn/models/__init__'
p1489
sg218
g13
(g14
g15
NtRp1490
(dp1491
g18
I1
sg19
I0
sg20
I2
sg21
I0
sg22
I0
sg23
I0
sg24
I0
sbssg77
S'J\x07\xbfU\xe2\xd2\xed\xadY\xe2o$\x84\x86bd'
p1492
ssS'user_system_models_users_student_profile_model'
p1493
(dp1494
g250
(dp1495
g214
S'user_system_models_users_student_profile_model.html'
p1496
sg216
S'user_system/models/users/student_profile_model'
p1497
sg218
g13
(g14
g15
NtRp1498
(dp1499
g18
I1
sg19
I2
sg20
I41
sg21
I0
sg22
I0
sg23
I0
sg24
I0
sbssg256
S'q\x83gLh\x1e\xeb\xb5+w&@\xe2"=\xb8'
p1500
ssS'user_system_models_schools_organization_model'
p1501
(dp1502
g224
(dp1503
g661
S'user_system_models_schools_organization_model.html'
p1504
sg663
S'user_system/models/schools/organization_model'
p1505
sg665
g13
(g14
g15
NtRp1506
(dp1507
g18
I1
sg19
I0
sg20
I28
sg21
I0
sg22
I0
sg23
I0
sg24
I0
sbssg233
S']\xd3\xfd\x922s\xeb0\xfd\x8a\x88\xfe"\xbd<h'
p1508
ssS'create_views_books_tests_test_hide_book_view'
p1509
(dp1510
g970
(dp1511
g44
S'create_views_books_tests_test_hide_book_view.html'
p1512
sg46
S'create/views/books/tests/test_hide_book_view'
p1513
sg48
g13
(g14
g15
NtRp1514
(dp1515
g18
I1
sg19
I0
sg20
I25
sg21
I0
sg22
I0
sg23
I0
sg24
I0
sbssg976
S'\xe1\x17\x16\xca\x8a\xc5c\x1b\xce\xab\xb8\xf9G\x03\x9dQ'
p1516
ssS'teach_serializers_teacher_tags_teacher_tag_serializer'
p1517
(dp1518
g68
(dp1519
g31
S'teach_serializers_teacher_tags_teacher_tag_serializer.html'
p1520
sg33
S'teach/serializers/teacher_tags/teacher_tag_serializer'
p1521
sg35
g13
(g14
g15
NtRp1522
(dp1523
g18
I1
sg19
I2
sg20
I26
sg21
I0
sg22
I0
sg23
I9
sg24
I2
sbssg77
S'\x07C\xdf\xcd\x92\x1eS\x1a#\x8e\x9d\x88Dj\n\x12'
p1524
ssS'create_models_daily_quests_tests_test_daily_quest_model'
p1525
(dp1526
g786
(dp1527
g262
S'create_models_daily_quests_tests_test_daily_quest_model.html'
p1528
sg264
S'create/models/daily_quests/tests/test_daily_quest_model'
p1529
sg266
g13
(g14
g15
NtRp1530
(dp1531
g18
I1
sg19
I2
sg20
I51
sg21
I0
sg22
I0
sg23
I0
sg24
I0
sbssg795
S'\x16\x87\xb8\xd4K\xb4\x87\xf9\x84\xc4V\x94\x17\xf6\x1a\xf0'
p1532
ssS'create_admin'
p1533
(dp1534
g42
(dp1535
g70
S'create_admin.html'
p1536
sg72
S'create/admin'
p1537
sg74
g13
(g14
g15
NtRp1538
(dp1539
g18
I1
sg19
I0
sg20
I20
sg21
I0
sg22
I0
sg23
I0
sg24
I0
sbssg51
S'\x03\xe6\xc2\xd5\xa8\xb1\x92\xa5/8\x0fZCN\r\x08'
p1540
ssS'create_views_questions_tests_test_get_question_list_view'
p1541
(dp1542
g42
(dp1543
g106
S'create_views_questions_tests_test_get_question_list_view.html'
p1544
sg108
S'create/views/questions/tests/test_get_question_list_view'
p1545
sg110
g13
(g14
g15
NtRp1546
(dp1547
g18
I1
sg19
I0
sg20
I32
sg21
I0
sg22
I0
sg23
I0
sg24
I0
sbssg51
S'\xa2&\x88;1\\\xa2 \xb4&ejB\xd1%\x06'
p1548
ssS'user_system_views_batch_processing_update_user_streak_view'
p1549
(dp1550
g55
(dp1551
g57
S'user_system_views_batch_processing_update_user_streak_view.html'
p1552
sg59
S'user_system/views/batch_processing/update_user_streak_view'
p1553
sg61
g13
(g14
g15
NtRp1554
(dp1555
g18
I1
sg19
I4
sg20
I26
sg21
I0
sg22
I0
sg23
I13
sg24
I4
sbssg64
S'\x0c\xa4\xfc<-\xca\x06\xe7\x99B\xd5\x0bFC\x94c'
p1556
ssS'user_system_views_logins___init__'
p1557
(dp1558
g42
(dp1559
g477
S'user_system_views_logins___init__.html'
p1560
sg479
S'user_system/views/logins/__init__'
p1561
sg481
g13
(g14
g15
NtRp1562
(dp1563
g18
I1
sg19
I0
sg20
I2
sg21
I0
sg22
I0
sg23
I0
sg24
I0
sbssg51
S'\xa0\xd3\xaas\xc2\xb93+ED.\xe5\xfe\xf2\xad\x87'
p1564
ssS'create_views_daily_quest_copies___init__'
p1565
(dp1566
g442
(dp1567
S'html_filename'
p1568
S'create_views_daily_quest_copies___init__.html'
p1569
sS'name'
p1570
S'create/views/daily_quest_copies/__init__'
p1571
sS'nums'
p1572
g13
(g14
g15
NtRp1573
(dp1574
g18
I1
sg19
I0
sg20
I1
sg21
I0
sg22
I0
sg23
I0
sg24
I0
sbssg451
S"'\xb6_z\x90s\x92\xdd\xc7\xb2\x87d\xba\xe24X"
p1575
ssS'create_views_quests_tests_test_hide_quest_view'
p1576
(dp1577
g6
(dp1578
g8
S'create_views_quests_tests_test_hide_quest_view.html'
p1579
sg10
S'create/views/quests/tests/test_hide_quest_view'
p1580
sg12
g13
(g14
g15
NtRp1581
(dp1582
g18
I1
sg19
I0
sg20
I26
sg21
I0
sg22
I0
sg23
I0
sg24
I0
sbssg25
S'G\xcb\xcf\xbb~*\xa2i\xd2\xff\x81\x81\xf0)G\xda'
p1583
ssS'create_views_books_tests_test_add_tag_to_subchapter_view'
p1584
(dp1585
S'index'
p1586
(dp1587
g44
S'create_views_books_tests_test_add_tag_to_subchapter_view.html'
p1588
sg46
S'create/views/books/tests/test_add_tag_to_subchapter_view'
p1589
sg48
g13
(g14
g15
NtRp1590
(dp1591
g18
I1
sg19
I0
sg20
I40
sg21
I0
sg22
I0
sg23
I0
sg24
I0
sbssS'hash'
p1592
S'\xb78\xf4p\xcd\xec\xca\xaa\x93\xb9\xda\xa8Yo37'
p1593
ssS'api_logging_models_modal_logging_modal_user_history_model'
p1594
(dp1595
g325
(dp1596
g214
S'api_logging_models_modal_logging_modal_user_history_model.html'
p1597
sg216
S'api_logging/models/modal_logging/modal_user_history_model'
p1598
sg218
g13
(g14
g15
NtRp1599
(dp1600
g18
I1
sg19
I0
sg20
I15
sg21
I0
sg22
I0
sg23
I3
sg24
I0
sbssg331
S'\xabX\xd42<$9z\xc1]\xc12\xe9\xd8\xbf\xd2'
p1601
ssS'create_views_daily_quests_daily_quest_view'
p1602
(dp1603
g260
(dp1604
g262
S'create_views_daily_quests_daily_quest_view.html'
p1605
sg264
S'create/views/daily_quests/daily_quest_view'
p1606
sg266
g13
(g14
g15
NtRp1607
(dp1608
g18
I1
sg19
I8
sg20
I34
sg21
I0
sg22
I0
sg23
I17
sg24
I8
sbssg269
S'\x9b\xbe99\x1cP\x1d\xd8iT&I;\xb4\xbbf'
p1609
ssS'user_system_managers_user_manager'
p1610
(dp1611
g325
(dp1612
g57
S'user_system_managers_user_manager.html'
p1613
sg59
S'user_system/managers/user_manager'
p1614
sg61
g13
(g14
g15
NtRp1615
(dp1616
g18
I1
sg19
I26
sg20
I62
sg21
I0
sg22
I0
sg23
I51
sg24
I26
sbssg331
S'\x83-\xd9?\xef\x07\xd5\xed\x15i\xec\xb8\xc2\xca`('
p1617
ssS'create_models_quests_tests___init__'
p1618
(dp1619
g116
(dp1620
g650
S'create_models_quests_tests___init__.html'
p1621
sg652
S'create/models/quests/tests/__init__'
p1622
sg654
g13
(g14
g15
NtRp1623
(dp1624
g18
I1
sg19
I0
sg20
I1
sg21
I0
sg22
I0
sg23
I0
sg24
I0
sbssg125
S'\xbc\xd6\xeb\xb3\xba\xcaz\xf7{\xd4B\xb5}l\xdf\x96'
p1625
ssS'create_views_questions___init__'
p1626
(dp1627
g42
(dp1628
g622
S'create_views_questions___init__.html'
p1629
sg624
S'create/views/questions/__init__'
p1630
sg626
g13
(g14
g15
NtRp1631
(dp1632
g18
I1
sg19
I0
sg20
I3
sg21
I0
sg22
I0
sg23
I0
sg24
I0
sbssg51
S'h\x154\xc5\xe58\xa8\xc8\xa9\xa6\xbea?\xcf?i'
p1633
ssS'user_system_views_users_create_teacher_view'
p1634
(dp1635
g325
(dp1636
g214
S'user_system_views_users_create_teacher_view.html'
p1637
sg216
S'user_system/views/users/create_teacher_view'
p1638
sg218
g13
(g14
g15
NtRp1639
(dp1640
g18
I1
sg19
I2
sg20
I34
sg21
I0
sg22
I0
sg23
I21
sg24
I2
sbssg331
S'=\xee\xed^jo\xc1\xebz\xedP\xf9\x91n\xec\x8d'
p1641
ssS'user_system_models_apps_tests___init__'
p1642
(dp1643
g42
(dp1644
g477
S'user_system_models_apps_tests___init__.html'
p1645
sg479
S'user_system/models/apps/tests/__init__'
p1646
sg481
g13
(g14
g15
NtRp1647
(dp1648
g18
I1
sg19
I0
sg20
I0
sg21
I0
sg22
I0
sg23
I0
sg24
I0
sbssg51
S'\x19g\xdfM\x1a\x019\xaf\x1baIeR\xe5u\xa7'
p1649
ssS'privilege_serializers_privileges_user_privilege_serializer'
p1650
(dp1651
g315
(dp1652
g106
S'privilege_serializers_privileges_user_privilege_serializer.html'
p1653
sg108
S'privilege/serializers/privileges/user_privilege_serializer'
p1654
sg110
g13
(g14
g15
NtRp1655
(dp1656
g18
I1
sg19
I0
sg20
I9
sg21
I0
sg22
I0
sg23
I0
sg24
I0
sbssg321
S'#\xe5\xcc\x9as5y,\xa1HiQ\xa2c\xdb2'
p1657
ssS'create_models_quests_tests_test_quest_history_model'
p1658
(dp1659
g116
(dp1660
g1250
S'create_models_quests_tests_test_quest_history_model.html'
p1661
sg1252
S'create/models/quests/tests/test_quest_history_model'
p1662
sg1254
g13
(g14
g15
NtRp1663
(dp1664
g18
I1
sg19
I8
sg20
I79
sg21
I0
sg22
I0
sg23
I0
sg24
I0
sbssg125
S'##\xeax]g;Ka\xb3\xc0Py,oE'
p1665
ssS'create_views_summary___init__'
p1666
(dp1667
S'index'
p1668
(dp1669
g1140
S'create_views_summary___init__.html'
p1670
sg1142
S'create/views/summary/__init__'
p1671
sg1144
g13
(g14
g15
NtRp1672
(dp1673
g18
I1
sg19
I0
sg20
I1
sg21
I0
sg22
I0
sg23
I0
sg24
I0
sbssS'hash'
p1674
S'#\xb7\xbd\xa1M\xe4\xa0\x05\xf5x\x057hU[\xca'
p1675
ssS'create_models_daily_quest_templates___init__'
p1676
(dp1677
g260
(dp1678
g262
S'create_models_daily_quest_templates___init__.html'
p1679
sg264
S'create/models/daily_quest_templates/__init__'
p1680
sg266
g13
(g14
g15
NtRp1681
(dp1682
g18
I1
sg19
I0
sg20
I1
sg21
I0
sg22
I0
sg23
I0
sg24
I0
sbssg269
S'\x12\x89x\xb9F\xfb=b\x04\xddy\xb4\xccZb\xb8'
p1683
ssS'create_views_tags_tests_test_get_tag_by_id_view'
p1684
(dp1685
g455
(dp1686
g106
S'create_views_tags_tests_test_get_tag_by_id_view.html'
p1687
sg108
S'create/views/tags/tests/test_get_tag_by_id_view'
p1688
sg110
g13
(g14
g15
NtRp1689
(dp1690
g18
I1
sg19
I0
sg20
I20
sg21
I0
sg22
I0
sg23
I0
sg24
I0
sbssg464
S'T\xd5\xd7\xd9\xb8\x12\x81xj\xca\x90\xa41\xcf\x02]'
p1691
ssS'api_logging_models_user_activities___init__'
p1692
(dp1693
g325
(dp1694
g57
S'api_logging_models_user_activities___init__.html'
p1695
sg59
S'api_logging/models/user_activities/__init__'
p1696
sg61
g13
(g14
g15
NtRp1697
(dp1698
g18
I1
sg19
I0
sg20
I2
sg21
I0
sg22
I0
sg23
I0
sg24
I0
sbssg331
S'[5wJ\x18h\x1e\xbf>\xcd\x82\x04\xf1,\xd1\xde'
p1699
ssS'user_system_models_users_tests_test_user_profile_model'
p1700
(dp1701
g42
(dp1702
S'html_filename'
p1703
S'user_system_models_users_tests_test_user_profile_model.html'
p1704
sS'name'
p1705
S'user_system/models/users/tests/test_user_profile_model'
p1706
sS'nums'
p1707
g13
(g14
g15
NtRp1708
(dp1709
g18
I1
sg19
I0
sg20
I142
sg21
I0
sg22
I0
sg23
I0
sg24
I0
sbssg51
S'\x00\xb8\xc5\xc0\xcb\xb1\xcaP@!\x086\x84\x1d\xd5\xed'
p1710
ssS'user_system_views_users_user_streak_history_view'
p1711
(dp1712
S'index'
p1713
(dp1714
g431
S'user_system_views_users_user_streak_history_view.html'
p1715
sg433
S'user_system/views/users/user_streak_history_view'
p1716
sg435
g13
(g14
g15
NtRp1717
(dp1718
g18
I1
sg19
I0
sg20
I15
sg21
I0
sg22
I0
sg23
I0
sg24
I0
sbssS'hash'
p1719
S'\x82\xa4:\x84\x8dJE7\xc0"\xbb\xceU\xa9\xd6\x07'
p1720
ssS'user_system_views_roles_tests_test_user_role_view'
p1721
(dp1722
g42
(dp1723
g44
S'user_system_views_roles_tests_test_user_role_view.html'
p1724
sg46
S'user_system/views/roles/tests/test_user_role_view'
p1725
sg48
g13
(g14
g15
NtRp1726
(dp1727
g18
I1
sg19
I0
sg20
I41
sg21
I0
sg22
I0
sg23
I0
sg24
I0
sbssg51
S'\xaf \x02-\xd3\xa9\xee\x1e7\x87\xa8[\xd9\xd8V\xd8'
p1728
ssS'user_system_views_apps_tests_test_get_apps_list_view'
p1729
(dp1730
g42
(dp1731
g44
S'user_system_views_apps_tests_test_get_apps_list_view.html'
p1732
sg46
S'user_system/views/apps/tests/test_get_apps_list_view'
p1733
sg48
g13
(g14
g15
NtRp1734
(dp1735
g18
I1
sg19
I0
sg20
I18
sg21
I0
sg22
I0
sg23
I0
sg24
I0
sbssg51
S'\x87\xab;"\x01p\xf9\xe5\xa6\xb1\xaej\x8egl\x99'
p1736
ssS'api_logging_models_user_activities_user_activity_model'
p1737
(dp1738
g325
(dp1739
g214
S'api_logging_models_user_activities_user_activity_model.html'
p1740
sg216
S'api_logging/models/user_activities/user_activity_model'
p1741
sg218
g13
(g14
g15
NtRp1742
(dp1743
g18
I1
sg19
I0
sg20
I11
sg21
I0
sg22
I0
sg23
I0
sg24
I0
sbssg331
S'f\xe2(\xd3\xddS\xfd\x1e\xf0d\xb2,\xb2\x8f\x8c\x18'
p1744
ssS'create_views_books_tests_test_create_new_book'
p1745
(dp1746
S'index'
p1747
(dp1748
g44
S'create_views_books_tests_test_create_new_book.html'
p1749
sg46
S'create/views/books/tests/test_create_new_book'
p1750
sg48
g13
(g14
g15
NtRp1751
(dp1752
g18
I1
sg19
I0
sg20
I18
sg21
I0
sg22
I0
sg23
I0
sg24
I0
sbssS'hash'
p1753
S'\xe3\xaew\xf8\xd7\x8f\xc5 \x85\xc1\xb6I\x82X(-'
p1754
ssS'create_serializers_questions_question_type_serializer'
p1755
(dp1756
g42
(dp1757
g477
S'create_serializers_questions_question_type_serializer.html'
p1758
sg479
S'create/serializers/questions/question_type_serializer'
p1759
sg481
g13
(g14
g15
NtRp1760
(dp1761
g18
I1
sg19
I0
sg20
I6
sg21
I0
sg22
I0
sg23
I0
sg24
I0
sbssg51
S'!\x8a\x91KA:\x92\x13/\xdd\xd9\xc2?\x8b\xe1\xc6'
p1762
ssS'create_models_books_tests_test_book_model'
p1763
(dp1764
g377
(dp1765
S'html_filename'
p1766
S'create_models_books_tests_test_book_model.html'
p1767
sS'name'
p1768
S'create/models/books/tests/test_book_model'
p1769
sS'nums'
p1770
g13
(g14
g15
NtRp1771
(dp1772
g18
I1
sg19
I6
sg20
I44
sg21
I0
sg22
I0
sg23
I0
sg24
I0
sbssg383
S'\xff\x88\xcd\xb0\x80\xb2\x9d\xf7\xf9G\xb1.\xaf\xdd\x07\xd7'
p1773
ssS'user_system_serializers_users_teacher_mapping_serializer'
p1774
(dp1775
g325
(dp1776
g214
S'user_system_serializers_users_teacher_mapping_serializer.html'
p1777
sg216
S'user_system/serializers/users/teacher_mapping_serializer'
p1778
sg218
g13
(g14
g15
NtRp1779
(dp1780
g18
I1
sg19
I0
sg20
I7
sg21
I0
sg22
I0
sg23
I0
sg24
I0
sbssg331
S'\x13\xf7\x06\xcfN\x17?&3\xc5\xf6]6uj\xc1'
p1781
ssS'create_models_questions_question_choice_model'
p1782
(dp1783
g42
(dp1784
g1360
S'create_models_questions_question_choice_model.html'
p1785
sg1362
S'create/models/questions/question_choice_model'
p1786
sg1364
g13
(g14
g15
NtRp1787
(dp1788
g18
I1
sg19
I0
sg20
I42
sg21
I0
sg22
I0
sg23
I0
sg24
I0
sbssg51
S'\xd7\xd8\x1f\xbf<\xee\xdd?}\xfe>\x82\\\x97\x15)'
p1789
ssS'flipped_helpers_tests___init__'
p1790
(dp1791
g42
(dp1792
g477
S'flipped_helpers_tests___init__.html'
p1793
sg479
S'flipped/helpers/tests/__init__'
p1794
sg481
g13
(g14
g15
NtRp1795
(dp1796
g18
I1
sg19
I0
sg20
I0
sg21
I0
sg22
I0
sg23
I0
sg24
I0
sbssg51
S'\x19g\xdfM\x1a\x019\xaf\x1baIeR\xe5u\xa7'
p1797
ssS'user_system_models_roles_role_app_model'
p1798
(dp1799
g42
(dp1800
g44
S'user_system_models_roles_role_app_model.html'
p1801
sg46
S'user_system/models/roles/role_app_model'
p1802
sg48
g13
(g14
g15
NtRp1803
(dp1804
g18
I1
sg19
I0
sg20
I18
sg21
I0
sg22
I0
sg23
I0
sg24
I0
sbssg51
S'\x8d\xa3&\x03\x9d\x1cO|\xces.\x11/\x8f`\xcc'
p1805
ssS'create_models_tags_tests_test_tag_model'
p1806
(dp1807
g411
(dp1808
S'html_filename'
p1809
S'create_models_tags_tests_test_tag_model.html'
p1810
sS'name'
p1811
S'create/models/tags/tests/test_tag_model'
p1812
sS'nums'
p1813
g13
(g14
g15
NtRp1814
(dp1815
g18
I1
sg19
I6
sg20
I52
sg21
I0
sg22
I0
sg23
I0
sg24
I0
sbssg417
S'1\x992\xc0\xbb\xb6d *5\xfa\xd2\xdc1\xb2\x92'
p1816
ssS'create_views_tags_tests_test_remove_prerequisite_view'
p1817
(dp1818
g335
(dp1819
g44
S'create_views_tags_tests_test_remove_prerequisite_view.html'
p1820
sg46
S'create/views/tags/tests/test_remove_prerequisite_view'
p1821
sg48
g13
(g14
g15
NtRp1822
(dp1823
g18
I1
sg19
I0
sg20
I31
sg21
I0
sg22
I0
sg23
I0
sg24
I0
sbssg341
S'\x8e\x8c~\xff\x85\x94\x8c~T\x7f\x80\x82W\x96\x19\x9c'
p1824
ssS'learn_models_points_tests_test_point_type_model'
p1825
(dp1826
g325
(dp1827
g661
S'learn_models_points_tests_test_point_type_model.html'
p1828
sg663
S'learn/models/points/tests/test_point_type_model'
p1829
sg665
g13
(g14
g15
NtRp1830
(dp1831
g18
I1
sg19
I0
sg20
I20
sg21
I0
sg22
I0
sg23
I0
sg24
I0
sbssg331
S'\x8a\x938\x82k\xa7\x10\xf1\x95\x07\xc4\xb2\x9d\n\xc6\x1f'
p1832
ssS'api_logging_views_user_activities___init__'
p1833
(dp1834
g55
(dp1835
g57
S'api_logging_views_user_activities___init__.html'
p1836
sg59
S'api_logging/views/user_activities/__init__'
p1837
sg61
g13
(g14
g15
NtRp1838
(dp1839
g18
I1
sg19
I0
sg20
I1
sg21
I0
sg22
I0
sg23
I0
sg24
I0
sbssg64
S'\xbc\x87\xa7&\xe2B=>v\tt\x06,\x1d<['
p1840
ssS'teach_serializers_teacher_chapters_teacher_chapter_serializer'
p1841
(dp1842
g68
(dp1843
g70
S'teach_serializers_teacher_chapters_teacher_chapter_serializer.html'
p1844
sg72
S'teach/serializers/teacher_chapters/teacher_chapter_serializer'
p1845
sg74
g13
(g14
g15
NtRp1846
(dp1847
g18
I1
sg19
I0
sg20
I12
sg21
I0
sg22
I0
sg23
I0
sg24
I0
sbssg77
S'\xac\x9b\xf1Q\x91\xf4J\x03y\xc4\xa7\x9c\x996\x13a'
p1848
ssS'user_system_serializers_app_serializer'
p1849
(dp1850
g42
(dp1851
g477
S'user_system_serializers_app_serializer.html'
p1852
sg479
S'user_system/serializers/app_serializer'
p1853
sg481
g13
(g14
g15
NtRp1854
(dp1855
g18
I1
sg19
I0
sg20
I7
sg21
I0
sg22
I0
sg23
I0
sg24
I0
sbssg51
S'\xc1\x87\xd6\x1b\xbe\x8f\xfb\xdd\x1a\xa9\x92A\xe2\xc3\xe2\xf1'
p1856
ssS'user_system_views_logins_tests_test_facebook_login_view'
p1857
(dp1858
g42
(dp1859
g44
S'user_system_views_logins_tests_test_facebook_login_view.html'
p1860
sg46
S'user_system/views/logins/tests/test_facebook_login_view'
p1861
sg48
g13
(g14
g15
NtRp1862
(dp1863
g18
I1
sg19
I0
sg20
I51
sg21
I0
sg22
I0
sg23
I0
sg24
I0
sbssg51
S'\x8eg\xfbA\xbdf+\x81\xe9\x8a\x16\x82\xe9\xe3\xc0\xf4'
p1864
ssS'create_models_books_book_history_model'
p1865
(dp1866
g377
(dp1867
g106
S'create_models_books_book_history_model.html'
p1868
sg108
S'create/models/books/book_history_model'
p1869
sg110
g13
(g14
g15
NtRp1870
(dp1871
g18
I1
sg19
I4
sg20
I43
sg21
I0
sg22
I1
sg23
I0
sg24
I1
sbssg383
S'\xd71\x9e\xd0\x9bqR\xb9(!\x9f2\x10O|\xeb'
p1872
ssS'teach_models_teacher_chapters_tests___init__'
p1873
(dp1874
g68
(dp1875
g70
S'teach_models_teacher_chapters_tests___init__.html'
p1876
sg72
S'teach/models/teacher_chapters/tests/__init__'
p1877
sg74
g13
(g14
g15
NtRp1878
(dp1879
g18
I1
sg19
I0
sg20
I0
sg21
I0
sg22
I0
sg23
I0
sg24
I0
sbssg77
S'\x19g\xdfM\x1a\x019\xaf\x1baIeR\xe5u\xa7'
p1880
ssS'create_views_quests_tests_test_remove_tag_view'
p1881
(dp1882
g6
(dp1883
g8
S'create_views_quests_tests_test_remove_tag_view.html'
p1884
sg10
S'create/views/quests/tests/test_remove_tag_view'
p1885
sg12
g13
(g14
g15
NtRp1886
(dp1887
g18
I1
sg19
I0
sg20
I0
sg21
I0
sg22
I0
sg23
I0
sg24
I0
sbssg25
S'\x19g\xdfM\x1a\x019\xaf\x1baIeR\xe5u\xa7'
p1888
ssS'create_models_books_book_model'
p1889
(dp1890
g377
(dp1891
S'html_filename'
p1892
S'create_models_books_book_model.html'
p1893
sS'name'
p1894
S'create/models/books/book_model'
p1895
sS'nums'
p1896
g13
(g14
g15
NtRp1897
(dp1898
g18
I1
sg19
I4
sg20
I37
sg21
I0
sg22
I0
sg23
I0
sg24
I0
sbssg383
S'Z\x88%\xfa\x8c7\x1e\xf9\x06qW\x80O\xe1\x85.'
p1899
ssS'create_views_books_tests_test_remove_chapter_view'
p1900
(dp1901
g147
(dp1902
g44
S'create_views_books_tests_test_remove_chapter_view.html'
p1903
sg46
S'create/views/books/tests/test_remove_chapter_view'
p1904
sg48
g13
(g14
g15
NtRp1905
(dp1906
g18
I1
sg19
I0
sg20
I39
sg21
I0
sg22
I0
sg23
I0
sg24
I0
sbssg153
S'lJ\xdc\xbe\xe2>\x9d\xde\xb5+ia5;\x042'
p1907
ssS'privilege_models_privileges_tests_test_user_privilege_model'
p1908
(dp1909
g315
(dp1910
g106
S'privilege_models_privileges_tests_test_user_privilege_model.html'
p1911
sg108
S'privilege/models/privileges/tests/test_user_privilege_model'
p1912
sg110
g13
(g14
g15
NtRp1913
(dp1914
g18
I1
sg19
I0
sg20
I19
sg21
I0
sg22
I0
sg23
I0
sg24
I0
sbssg321
S'\xcd\xf2\x96G\xfe\xbc/\xb5\x15\xceNf\x0f\x0b5\xd4'
p1915
ssS'privilege_views___init__'
p1916
(dp1917
g315
(dp1918
g106
S'privilege_views___init__.html'
p1919
sg108
S'privilege/views/__init__'
p1920
sg110
g13
(g14
g15
NtRp1921
(dp1922
g18
I1
sg19
I0
sg20
I0
sg21
I0
sg22
I0
sg23
I0
sg24
I0
sbssg321
S'\x19g\xdfM\x1a\x019\xaf\x1baIeR\xe5u\xa7'
p1923
ssS'api_logging_views_query_stat___init__'
p1924
(dp1925
g273
(dp1926
g1062
S'api_logging_views_query_stat___init__.html'
p1927
sg1064
S'api_logging/views/query_stat/__init__'
p1928
sg1066
g13
(g14
g15
NtRp1929
(dp1930
g18
I1
sg19
I0
sg20
I1
sg21
I0
sg22
I0
sg23
I0
sg24
I0
sbssg279
S'\xbe{\x9f#C\x83\xe9\xa5\xf6B\xf2\xd6\x8a\x0eB\xd0'
p1931
ssS'user_system_views_users_tests___init__'
p1932
(dp1933
g42
(dp1934
g477
S'user_system_views_users_tests___init__.html'
p1935
sg479
S'user_system/views/users/tests/__init__'
p1936
sg481
g13
(g14
g15
NtRp1937
(dp1938
g18
I1
sg19
I0
sg20
I0
sg21
I0
sg22
I0
sg23
I0
sg24
I0
sbssg51
S'\x19g\xdfM\x1a\x019\xaf\x1baIeR\xe5u\xa7'
p1939
ssS'create_models_tags_tests_test_skill_model'
p1940
(dp1941
g411
(dp1942
g44
S'create_models_tags_tests_test_skill_model.html'
p1943
sg46
S'create/models/tags/tests/test_skill_model'
p1944
sg48
g13
(g14
g15
NtRp1945
(dp1946
g18
I1
sg19
I0
sg20
I12
sg21
I0
sg22
I0
sg23
I0
sg24
I0
sbssg417
S'\x08\x9e\x87e#\x02\x06O\x02l!\x0e\xe8\xeb\xc0.'
p1947
ssS'user_system_views_signups_hardcoded___init__'
p1948
(dp1949
g42
(dp1950
g477
S'user_system_views_signups_hardcoded___init__.html'
p1951
sg479
S'user_system/views/signups/hardcoded/__init__'
p1952
sg481
g13
(g14
g15
NtRp1953
(dp1954
g18
I1
sg19
I0
sg20
I1
sg21
I0
sg22
I0
sg23
I0
sg24
I0
sbssg51
S'?\xfac\x0c\x91\xa4\xd6\xd4\x1d\xe4\x99\xc2[\x83\xfc\xdf'
p1955
ssS'create_models_daily_quest_templates_daily_quest_template_model'
p1956
(dp1957
g260
(dp1958
g262
S'create_models_daily_quest_templates_daily_quest_template_model.html'
p1959
sg264
S'create/models/daily_quest_templates/daily_quest_template_model'
p1960
sg266
g13
(g14
g15
NtRp1961
(dp1962
g18
I1
sg19
I0
sg20
I29
sg21
I0
sg22
I0
sg23
I0
sg24
I0
sbssg269
S'm:\xfa\nsk\x85\xa8p\x96\xc3\xca\xa1c\xb0+'
p1963
ssS'create_models_books_tests_test_book_chapter_model'
p1964
(dp1965
g377
(dp1966
g1766
S'create_models_books_tests_test_book_chapter_model.html'
p1967
sg1768
S'create/models/books/tests/test_book_chapter_model'
p1968
sg1770
g13
(g14
g15
NtRp1969
(dp1970
g18
I1
sg19
I8
sg20
I55
sg21
I0
sg22
I0
sg23
I0
sg24
I0
sbssg383
S'\xc4\x1a\xd7\x12s\xd3V\xef\xac\xa7%\x0c\xdc\x17\x05c'
p1971
ssS'user_system_views_signups_tests_test_verify_email_view'
p1972
(dp1973
g42
(dp1974
g44
S'user_system_views_signups_tests_test_verify_email_view.html'
p1975
sg46
S'user_system/views/signups/tests/test_verify_email_view'
p1976
sg48
g13
(g14
g15
NtRp1977
(dp1978
g18
I1
sg19
I0
sg20
I51
sg21
I0
sg22
I0
sg23
I0
sg24
I0
sbssg51
S'\x81\xacj\x9d\x1f\xa9o\xcc\x1e\xa3\xe59^YT\x9e'
p1979
ssS'teach_models_daily_quest_templates___init__'
p1980
(dp1981
g68
(dp1982
g70
S'teach_models_daily_quest_templates___init__.html'
p1983
sg72
S'teach/models/daily_quest_templates/__init__'
p1984
sg74
g13
(g14
g15
NtRp1985
(dp1986
g18
I1
sg19
I0
sg20
I1
sg21
I0
sg22
I0
sg23
I0
sg24
I0
sbssg77
S'\x12\x89x\xb9F\xfb=b\x04\xddy\xb4\xccZb\xb8'
p1987
ssS'teach_serializers_daily_quest_templates_daily_quest_template_serializer'
p1988
(dp1989
g68
(dp1990
g214
S'teach_serializers_daily_quest_templates_daily_quest_template_serializer.html'
p1991
sg216
S'teach/serializers/daily_quest_templates/daily_quest_template_serializer'
p1992
sg218
g13
(g14
g15
NtRp1993
(dp1994
g18
I1
sg19
I0
sg20
I12
sg21
I0
sg22
I0
sg23
I0
sg24
I0
sbssg77
S"\xd9\x0bcm\x95?'mB\xf9\xdd\xa1\xfc>:="
p1995
ssS'create_views_questions_tests_test_add_tag_view'
p1996
(dp1997
g237
(dp1998
g239
S'create_views_questions_tests_test_add_tag_view.html'
p1999
sg241
S'create/views/questions/tests/test_add_tag_view'
p2000
sg243
g13
(g14
g15
NtRp2001
(dp2002
g18
I1
sg19
I0
sg20
I35
sg21
I0
sg22
I0
sg23
I0
sg24
I0
sbssg246
S'\x8e\x13\xdd\xbd\xba\r&,-|&W-a`\x7f'
p2003
ssS'create_views_quests_quest_view'
p2004
(dp2005
g116
(dp2006
g1027
S'create_views_quests_quest_view.html'
p2007
sg1029
S'create/views/quests/quest_view'
p2008
sg1031
g13
(g14
g15
NtRp2009
(dp2010
g18
I1
sg19
I84
sg20
I249
sg21
I0
sg22
I0
sg23
I178
sg24
I78
sbssg125
S'(\xa2UK\xe2}\xa8\xe0\xc9 3#\xec\x01\xfd\x16'
p2011
ssS'privilege_models_privileges_tests_test_privilege_model'
p2012
(dp2013
g315
(dp2014
g1285
S'privilege_models_privileges_tests_test_privilege_model.html'
p2015
sg1287
S'privilege/models/privileges/tests/test_privilege_model'
p2016
sg1289
g13
(g14
g15
NtRp2017
(dp2018
g18
I1
sg19
I0
sg20
I30
sg21
I0
sg22
I0
sg23
I0
sg24
I0
sbssg321
S'\xe0^\x80\xd5+a\xd9\xc4\xeabB\xc5\x142;\xc9'
p2019
ssS'api_logging_models'
p2020
(dp2021
g594
(dp2022
g760
S'api_logging_models.html'
p2023
sg762
S'api_logging/models'
p2024
sg764
g13
(g14
g15
NtRp2025
(dp2026
g18
I1
sg19
I0
sg20
I21
sg21
I0
sg22
I0
sg23
I0
sg24
I0
sbssg600
S'\x0c\x96WFX%\xe9\xcf+\xcf\xc2s\xa7a1\xbd'
p2027
ssS'user_system_models_schools_tests_test_grade_model'
p2028
(dp2029
g250
(dp2030
g31
S'user_system_models_schools_tests_test_grade_model.html'
p2031
sg33
S'user_system/models/schools/tests/test_grade_model'
p2032
sg35
g13
(g14
g15
NtRp2033
(dp2034
g18
I1
sg19
I0
sg20
I24
sg21
I0
sg22
I0
sg23
I0
sg24
I0
sbssg256
S'\x1e|\xb0\x10\x05\x9c\xb5\xe9\xbc\xff\x8a\xaan\xdf\xd4\xb2'
p2035
ssS'user_system_models_apps_tests_test_app_model'
p2036
(dp2037
g42
(dp2038
g44
S'user_system_models_apps_tests_test_app_model.html'
p2039
sg46
S'user_system/models/apps/tests/test_app_model'
p2040
sg48
g13
(g14
g15
NtRp2041
(dp2042
g18
I1
sg19
I0
sg20
I18
sg21
I0
sg22
I0
sg23
I0
sg24
I0
sbssg51
S'\xfb\xfc\xe0#\xe2\n\x8e\x9e\x94\xa8\x83\xc5\xb1U\xa3a'
p2043
ssS'create_models_daily_quests_daily_quest_model'
p2044
(dp2045
g786
(dp2046
g1568
S'create_models_daily_quests_daily_quest_model.html'
p2047
sg1570
S'create/models/daily_quests/daily_quest_model'
p2048
sg1572
g13
(g14
g15
NtRp2049
(dp2050
g18
I1
sg19
I2
sg20
I48
sg21
I0
sg22
I0
sg23
I6
sg24
I2
sbssg795
S'\xae\'/"f\x1014\xdd\x0e\x85\xf4\x91\x02\\`'
p2051
ssS'user_system_views_signups_tests_test_email_signup_view'
p2052
(dp2053
g42
(dp2054
g44
S'user_system_views_signups_tests_test_email_signup_view.html'
p2055
sg46
S'user_system/views/signups/tests/test_email_signup_view'
p2056
sg48
g13
(g14
g15
NtRp2057
(dp2058
g18
I1
sg19
I0
sg20
I51
sg21
I0
sg22
I0
sg23
I0
sg24
I0
sbssg51
S'\xa3\xb2\xaf-\x99\xe3]\xcc\xe6\x8b\xeb\xf63=I\xb4'
p2059
ssS'user_system_models_schools_tests_test_organization_model'
p2060
(dp2061
g224
(dp2062
g661
S'user_system_models_schools_tests_test_organization_model.html'
p2063
sg663
S'user_system/models/schools/tests/test_organization_model'
p2064
sg665
g13
(g14
g15
NtRp2065
(dp2066
g18
I1
sg19
I0
sg20
I27
sg21
I0
sg22
I0
sg23
I0
sg24
I0
sbssg233
S"\xa3'h\xadZ,\x82G\xbc\x08wON /j"
p2067
ssS'learn_admin'
p2068
(dp2069
g68
(dp2070
g214
S'learn_admin.html'
p2071
sg216
S'learn/admin'
p2072
sg218
g13
(g14
g15
NtRp2073
(dp2074
g18
I1
sg19
I0
sg20
I6
sg21
I0
sg22
I0
sg23
I0
sg24
I0
sbssg77
S'\x01\xff=[_\x13,\xf8ES\x17G)\x1e\xfb\x10'
p2075
ssS'create_views_books_book_subchapter_view'
p2076
(dp2077
g1586
(dp2078
g44
S'create_views_books_book_subchapter_view.html'
p2079
sg46
S'create/views/books/book_subchapter_view'
p2080
sg48
g13
(g14
g15
NtRp2081
(dp2082
g18
I1
sg19
I8
sg20
I46
sg21
I0
sg22
I0
sg23
I0
sg24
I0
sbssg1592
S'\x0e\xa6\x19V\xf0\xf3;\xa2\x8d \xd8i\xb7*D\x87'
p2083
ssS'user_system_models_roles_tests_test_role_model'
p2084
(dp2085
g42
(dp2086
g44
S'user_system_models_roles_tests_test_role_model.html'
p2087
sg46
S'user_system/models/roles/tests/test_role_model'
p2088
sg48
g13
(g14
g15
NtRp2089
(dp2090
g18
I1
sg19
I0
sg20
I20
sg21
I0
sg22
I0
sg23
I0
sg24
I0
sbssg51
S'\xef\xba\x956\x96\xbc:\xa0\x0f\x00\x84\x80\x0elh\xed'
p2091
ssS'user_system_models_schools_classroom_model'
p2092
(dp2093
g250
(dp2094
g57
S'user_system_models_schools_classroom_model.html'
p2095
sg59
S'user_system/models/schools/classroom_model'
p2096
sg61
g13
(g14
g15
NtRp2097
(dp2098
g18
I1
sg19
I2
sg20
I25
sg21
I0
sg22
I0
sg23
I0
sg24
I0
sbssg256
S'4\xd4E/\xd8\xd6\xca\xde\xb8\xfa\x1e\xd4\xcd\x12\xafQ'
p2099
ssS'user_system_views_logins_email_login_view'
p2100
(dp2101
g42
(dp2102
g214
S'user_system_views_logins_email_login_view.html'
p2103
sg216
S'user_system/views/logins/email_login_view'
p2104
sg218
g13
(g14
g15
NtRp2105
(dp2106
g18
I1
sg19
I8
sg20
I35
sg21
I0
sg22
I0
sg23
I0
sg24
I0
sbssg51
S'\x9e\xe3\x8e\xf9o\x8aYC\xa2\xcb\xe7\xbd\x94\xe1O\x1a'
p2107
ssS'user_system_serializers_users_list_user_serializer'
p2108
(dp2109
g42
(dp2110
g44
S'user_system_serializers_users_list_user_serializer.html'
p2111
sg46
S'user_system/serializers/users/list_user_serializer'
p2112
sg48
g13
(g14
g15
NtRp2113
(dp2114
g18
I1
sg19
I0
sg20
I18
sg21
I0
sg22
I0
sg23
I0
sg24
I0
sbssg51
S'\xdfK>6\xe0\x8d\xcd\xd4/O\xef\xaa\xd0\x9efX'
p2115
ssS'user_system_models_users_tests_test_teacher_profile_model'
p2116
(dp2117
g29
(dp2118
g1477
S'user_system_models_users_tests_test_teacher_profile_model.html'
p2119
sg1479
S'user_system/models/users/tests/test_teacher_profile_model'
p2120
sg1481
g13
(g14
g15
NtRp2121
(dp2122
g18
I1
sg19
I0
sg20
I32
sg21
I0
sg22
I0
sg23
I0
sg24
I0
sbssg38
S'\xe7n\x9a\x17\x9d0\x01\xa6\x0f\x18\x10l\x8ckmy'
p2123
ssS'create_views_quests_tests_test_remove_question_template_view'
p2124
(dp2125
g6
(dp2126
g8
S'create_views_quests_tests_test_remove_question_template_view.html'
p2127
sg10
S'create/views/quests/tests/test_remove_question_template_view'
p2128
sg12
g13
(g14
g15
NtRp2129
(dp2130
g18
I1
sg19
I0
sg20
I0
sg21
I0
sg22
I0
sg23
I0
sg24
I0
sbssg25
S'\x19g\xdfM\x1a\x019\xaf\x1baIeR\xe5u\xa7'
p2131
ssS'user_system_serializers_users_user_profile_update_request_serializer'
p2132
(dp2133
g137
(dp2134
S'html_filename'
p2135
S'user_system_serializers_users_user_profile_update_request_serializer.html'
p2136
sS'name'
p2137
S'user_system/serializers/users/user_profile_update_request_serializer'
p2138
sS'nums'
p2139
g13
(g14
g15
NtRp2140
(dp2141
g18
I1
sg19
I0
sg20
I20
sg21
I0
sg22
I0
sg23
I2
sg24
I0
sbssg143
S'\x19EO\xe6\xb5\xdbWY\xb8\xd9\x1cP&\xe3\xc4\xca'
p2142
ssS'create_views_books_tests_test_get_books_list_view'
p2143
(dp2144
g970
(dp2145
g106
S'create_views_books_tests_test_get_books_list_view.html'
p2146
sg108
S'create/views/books/tests/test_get_books_list_view'
p2147
sg110
g13
(g14
g15
NtRp2148
(dp2149
g18
I1
sg19
I0
sg20
I21
sg21
I0
sg22
I0
sg23
I0
sg24
I0
sbssg976
S'\x16\x8f\xf1\x81>\x0f\xb4S\x19\xff\xcd\xc1Y\xe9;\x98'
p2150
ssS'user_system_serializers_schools_classroom_serializer'
p2151
(dp2152
g137
(dp2153
g31
S'user_system_serializers_schools_classroom_serializer.html'
p2154
sg33
S'user_system/serializers/schools/classroom_serializer'
p2155
sg35
g13
(g14
g15
NtRp2156
(dp2157
g18
I1
sg19
I0
sg20
I13
sg21
I0
sg22
I0
sg23
I2
sg24
I0
sbssg143
S'\\\x02 #\xfc|[\xb1g\x7f\x83+\xb6\xaa\x13\x01'
p2158
ssS'create_models_daily_quest_copies_tests___init__'
p2159
(dp2160
g442
(dp2161
g1568
S'create_models_daily_quest_copies_tests___init__.html'
p2162
sg1570
S'create/models/daily_quest_copies/tests/__init__'
p2163
sg1572
g13
(g14
g15
NtRp2164
(dp2165
g18
I1
sg19
I0
sg20
I0
sg21
I0
sg22
I0
sg23
I0
sg24
I0
sbssg451
S'\x19g\xdfM\x1a\x019\xaf\x1baIeR\xe5u\xa7'
p2166
ssS'api_logging_views_summary_user_activity_summary_view'
p2167
(dp2168
g325
(dp2169
g214
S'api_logging_views_summary_user_activity_summary_view.html'
p2170
sg216
S'api_logging/views/summary/user_activity_summary_view'
p2171
sg218
g13
(g14
g15
NtRp2172
(dp2173
g18
I1
sg19
I8
sg20
I27
sg21
I0
sg22
I0
sg23
I13
sg24
I8
sbssg331
S'\x99\xfc\\\x0e\x10\x840(\x94\xd3(k\x9f\xb4\xd9M'
p2174
ssS'create_urls'
p2175
(dp2176
g42
(dp2177
g70
S'create_urls.html'
p2178
sg72
S'create/urls'
p2179
sg74
g13
(g14
g15
NtRp2180
(dp2181
g18
I1
sg19
I0
sg20
I22
sg21
I0
sg22
I0
sg23
I0
sg24
I0
sbssg51
S"k/4\x8e_h\xf3)p'\x8e\x80v\x1e\xbdg"
p2182
ssS'create_views_tags_tests_test_get_tags_list_view'
p2183
(dp2184
g455
(dp2185
g106
S'create_views_tags_tests_test_get_tags_list_view.html'
p2186
sg108
S'create/views/tags/tests/test_get_tags_list_view'
p2187
sg110
g13
(g14
g15
NtRp2188
(dp2189
g18
I1
sg19
I0
sg20
I21
sg21
I0
sg22
I0
sg23
I0
sg24
I0
sbssg464
S'F\xf6yk?\xb2\xc12\x93\x8b\xe6Bx\xa09\x89'
p2190
ssS'create_serializers_tags_tag_serializer'
p2191
(dp2192
g377
(dp2193
g106
S'create_serializers_tags_tag_serializer.html'
p2194
sg108
S'create/serializers/tags/tag_serializer'
p2195
sg110
g13
(g14
g15
NtRp2196
(dp2197
g18
I1
sg19
I0
sg20
I38
sg21
I0
sg22
I0
sg23
I0
sg24
I0
sbssg383
S'\xf7\xa8n\xd6\xf1\xe1\xf8\xaedX\x8e\xfe\ry\xd4\xc3'
p2198
ssS'user_system_models_users_teacher_mapping_model'
p2199
(dp2200
g29
(dp2201
g57
S'user_system_models_users_teacher_mapping_model.html'
p2202
sg59
S'user_system/models/users/teacher_mapping_model'
p2203
sg61
g13
(g14
g15
NtRp2204
(dp2205
g18
I1
sg19
I4
sg20
I26
sg21
I0
sg22
I0
sg23
I0
sg24
I0
sbssg38
S'\xbe\xceOL\xe0\x1eu?\xb0\x7f\x95\x03;\xe1\x12>'
p2206
ssS'create_models_questions___init__'
p2207
(dp2208
g42
(dp2209
g622
S'create_models_questions___init__.html'
p2210
sg624
S'create/models/questions/__init__'
p2211
sg626
g13
(g14
g15
NtRp2212
(dp2213
g18
I1
sg19
I0
sg20
I6
sg21
I0
sg22
I0
sg23
I0
sg24
I0
sbssg51
S'\xd4\xfd\xae\xf0N\xdd-\x07$U\xac\xf1\xc2\x0f\xa5H'
p2214
ssS'create_models_tags_tag_type_model'
p2215
(dp2216
g411
(dp2217
g44
S'create_models_tags_tag_type_model.html'
p2218
sg46
S'create/models/tags/tag_type_model'
p2219
sg48
g13
(g14
g15
NtRp2220
(dp2221
g18
I1
sg19
I0
sg20
I15
sg21
I0
sg22
I0
sg23
I0
sg24
I0
sbssg417
S'\x89\x07\x8e\xc7^0\x96Do\xbf\xa5\xca5\xe4\x92\xeb'
p2222
ssS'create_serializers___init__'
p2223
(dp2224
g42
(dp2225
g70
S'create_serializers___init__.html'
p2226
sg72
S'create/serializers/__init__'
p2227
sg74
g13
(g14
g15
NtRp2228
(dp2229
g18
I1
sg19
I0
sg20
I6
sg21
I0
sg22
I0
sg23
I0
sg24
I0
sbssg51
S'\x97\xc3"\xfe\x83V\xc1w\xa6r\x02s qES'
p2230
ssS'create_serializers_books_book_history_serializer'
p2231
(dp2232
g970
(dp2233
g106
S'create_serializers_books_book_history_serializer.html'
p2234
sg108
S'create/serializers/books/book_history_serializer'
p2235
sg110
g13
(g14
g15
NtRp2236
(dp2237
g18
I1
sg19
I0
sg20
I14
sg21
I0
sg22
I0
sg23
I0
sg24
I0
sbssg976
S'|g\x1e1\xcdq*ob~B\xca\xd92\x8b\x01'
p2238
ssS'teach_views_daily_quest_templates___init__'
p2239
(dp2240
g68
(dp2241
g70
S'teach_views_daily_quest_templates___init__.html'
p2242
sg72
S'teach/views/daily_quest_templates/__init__'
p2243
sg74
g13
(g14
g15
NtRp2244
(dp2245
g18
I1
sg19
I0
sg20
I1
sg21
I0
sg22
I0
sg23
I0
sg24
I0
sbssg77
S'\xc1b\x1f\x95\xabR`C\xe80\xb9tNC\r3'
p2246
ssS'teach___init__'
p2247
(dp2248
g68
(dp2249
g70
S'teach___init__.html'
p2250
sg72
S'teach/__init__'
p2251
sg74
g13
(g14
g15
NtRp2252
(dp2253
g18
I1
sg19
I0
sg20
I0
sg21
I0
sg22
I0
sg23
I0
sg24
I0
sbssg77
S'\x19g\xdfM\x1a\x019\xaf\x1baIeR\xe5u\xa7'
p2254
ssS'user_system_views_users___init__'
p2255
(dp2256
g42
(dp2257
g431
S'user_system_views_users___init__.html'
p2258
sg433
S'user_system/views/users/__init__'
p2259
sg435
g13
(g14
g15
NtRp2260
(dp2261
g18
I1
sg19
I0
sg20
I7
sg21
I0
sg22
I0
sg23
I0
sg24
I0
sbssg51
S']\x15\xfe\xc7\xefw\x97\xcc\x87v\xa2Z\x9b\xb1\x91\xaf'
p2262
ssS'user_system_serializers_users_user_streak_history_serializer'
p2263
(dp2264
g1713
(dp2265
g431
S'user_system_serializers_users_user_streak_history_serializer.html'
p2266
sg433
S'user_system/serializers/users/user_streak_history_serializer'
p2267
sg435
g13
(g14
g15
NtRp2268
(dp2269
g18
I1
sg19
I0
sg20
I7
sg21
I0
sg22
I0
sg23
I0
sg24
I0
sbssg1719
S'\xc8\x05\x87\xf4N\xc27/(.\xaf\xf4NliE'
p2270
ssS'flipped_helpers_tests_test_email_helper'
p2271
(dp2272
g42
(dp2273
g44
S'flipped_helpers_tests_test_email_helper.html'
p2274
sg46
S'flipped/helpers/tests/test_email_helper'
p2275
sg48
g13
(g14
g15
NtRp2276
(dp2277
g18
I1
sg19
I0
sg20
I13
sg21
I0
sg22
I0
sg23
I0
sg24
I0
sbssg51
S'\x13\xee\xcb^E:3A\xff)v\x7f\xd3\xa7\xa2\xaa'
p2278
ssS'user_system_serializers_users___init__'
p2279
(dp2280
g42
(dp2281
g431
S'user_system_serializers_users___init__.html'
p2282
sg433
S'user_system/serializers/users/__init__'
p2283
sg435
g13
(g14
g15
NtRp2284
(dp2285
g18
I1
sg19
I0
sg20
I8
sg21
I0
sg22
I0
sg23
I0
sg24
I0
sbssg51
S'\xb6(Qu\xed\x1eu\xb3\x15,\xae\x0c\xe6>\xe2\x80'
p2286
ssS'user_system_models_schools_tests_test_semester_model'
p2287
(dp2288
g224
(dp2289
g1477
S'user_system_models_schools_tests_test_semester_model.html'
p2290
sg1479
S'user_system/models/schools/tests/test_semester_model'
p2291
sg1481
g13
(g14
g15
NtRp2292
(dp2293
g18
I1
sg19
I0
sg20
I29
sg21
I0
sg22
I0
sg23
I0
sg24
I0
sbssg233
S'\xe9\xd9\xdc\\\xb9\x93\xb1\x93Q\x02\xe9\xb7Y,\xa6w'
p2294
ssS'create_views_quests_tests___init__'
p2295
(dp2296
g6
(dp2297
g8
S'create_views_quests_tests___init__.html'
p2298
sg10
S'create/views/quests/tests/__init__'
p2299
sg12
g13
(g14
g15
NtRp2300
(dp2301
g18
I1
sg19
I0
sg20
I0
sg21
I0
sg22
I0
sg23
I0
sg24
I0
sbssg25
S'\x19g\xdfM\x1a\x019\xaf\x1baIeR\xe5u\xa7'
p2302
ssS'user_system_serializers_schools_course_serializer'
p2303
(dp2304
g137
(dp2305
g31
S'user_system_serializers_schools_course_serializer.html'
p2306
sg33
S'user_system/serializers/schools/course_serializer'
p2307
sg35
g13
(g14
g15
NtRp2308
(dp2309
g18
I1
sg19
I0
sg20
I16
sg21
I0
sg22
I0
sg23
I2
sg24
I0
sbssg143
S'\xb0\xa8O3\x01\xce\xfe3\x12\x94\xc0\xc4\xe0@\xafJ'
p2310
ssS'user_system_views_users_tests_test_delete_user_view'
p2311
(dp2312
g42
(dp2313
g44
S'user_system_views_users_tests_test_delete_user_view.html'
p2314
sg46
S'user_system/views/users/tests/test_delete_user_view'
p2315
sg48
g13
(g14
g15
NtRp2316
(dp2317
g18
I1
sg19
I0
sg20
I22
sg21
I0
sg22
I0
sg23
I0
sg24
I0
sbssg51
S'\xe4S$\xa1t\xc6\xbe\xc7\xb9^Y\x05{\x92KQ'
p2318
ssS'learn_models_daily_quests_daily_quest_question_history_model'
p2319
(dp2320
S'index'
p2321
(dp2322
S'html_filename'
p2323
S'learn_models_daily_quests_daily_quest_question_history_model.html'
p2324
sS'name'
p2325
S'learn/models/daily_quests/daily_quest_question_history_model'
p2326
sS'nums'
p2327
g13
(g14
g15
NtRp2328
(dp2329
g18
I1
sg19
I6
sg20
I65
sg21
I0
sg22
I0
sg23
I4
sg24
I2
sbssS'hash'
p2330
S')\x12x?=\x06;DF\xf0#m\x85F\xbd*'
p2331
ssS'user_system_models_users_user_profile_update_request_model'
p2332
(dp2333
g137
(dp2334
g661
S'user_system_models_users_user_profile_update_request_model.html'
p2335
sg663
S'user_system/models/users/user_profile_update_request_model'
p2336
sg665
g13
(g14
g15
NtRp2337
(dp2338
g18
I1
sg19
I0
sg20
I58
sg21
I0
sg22
I0
sg23
I0
sg24
I0
sbssg143
S'\xc8t\x16>\xb9"\xff\x93\xe3\x00\xa5z0[\xacM'
p2339
ssS'create_models_tags_tag_history_model'
p2340
(dp2341
g594
(dp2342
g239
S'create_models_tags_tag_history_model.html'
p2343
sg241
S'create/models/tags/tag_history_model'
p2344
sg243
g13
(g14
g15
NtRp2345
(dp2346
g18
I1
sg19
I0
sg20
I37
sg21
I0
sg22
I0
sg23
I0
sg24
I0
sbssg600
S'\xae\xc8g\xc1\xf5l<\x1f\x9c\xaf\x17\xf98\r\xa1\xe2'
p2347
ssS'create_serializers_daily_quest_copies___init__'
p2348
(dp2349
g442
(dp2350
g1568
S'create_serializers_daily_quest_copies___init__.html'
p2351
sg1570
S'create/serializers/daily_quest_copies/__init__'
p2352
sg1572
g13
(g14
g15
NtRp2353
(dp2354
g18
I1
sg19
I0
sg20
I1
sg21
I0
sg22
I0
sg23
I0
sg24
I0
sbssg451
S'\nX]\x85Nc\xb8\xc0\xe1\xaf\xa0\xda_\x9e\xb9u'
p2355
ssS'user_system_models_schools_course_model'
p2356
(dp2357
g250
(dp2358
g661
S'user_system_models_schools_course_model.html'
p2359
sg663
S'user_system/models/schools/course_model'
p2360
sg665
g13
(g14
g15
NtRp2361
(dp2362
g18
I1
sg19
I6
sg20
I37
sg21
I0
sg22
I0
sg23
I0
sg24
I0
sbssg256
S']\xfb\xca\\\xbf\x86n\xc3fj\xc2\x1ej\\q\x14'
p2363
ssS'create_models_daily_quest_copies_tests_test_daily_quest_copy_model'
p2364
(dp2365
g442
(dp2366
g576
S'create_models_daily_quest_copies_tests_test_daily_quest_copy_model.html'
p2367
sg578
S'create/models/daily_quest_copies/tests/test_daily_quest_copy_model'
p2368
sg580
g13
(g14
g15
NtRp2369
(dp2370
g18
I1
sg19
I4
sg20
I45
sg21
I0
sg22
I0
sg23
I0
sg24
I0
sbssg451
S'\xcd\xeeU\x8a\xd7\x95\x9e5E\xd0\xaf\xd07\x80\x85\xe0'
p2371
ssS'privilege_views_privileges___init__'
p2372
(dp2373
g315
(dp2374
g106
S'privilege_views_privileges___init__.html'
p2375
sg108
S'privilege/views/privileges/__init__'
p2376
sg110
g13
(g14
g15
NtRp2377
(dp2378
g18
I1
sg19
I0
sg20
I1
sg21
I0
sg22
I0
sg23
I0
sg24
I0
sbssg321
S']\x14S\xdf\xb4:Tx\xb9\x98\x89\xe7\x01%DZ'
p2379
ssS'teach_models_teacher_chapters_teacher_chapter_model'
p2380
(dp2381
g68
(dp2382
S'html_filename'
p2383
S'teach_models_teacher_chapters_teacher_chapter_model.html'
p2384
sS'name'
p2385
S'teach/models/teacher_chapters/teacher_chapter_model'
p2386
sS'nums'
p2387
g13
(g14
g15
NtRp2388
(dp2389
g18
I1
sg19
I0
sg20
I23
sg21
I0
sg22
I0
sg23
I0
sg24
I0
sbssg77
S'\x97T&\xd0\x81q\xc2M\xc3\x03\x01U\xf5S!h'
p2390
ssS'create_models_questions_question_template_model'
p2391
(dp2392
g116
(dp2393
S'html_filename'
p2394
S'create_models_questions_question_template_model.html'
p2395
sS'name'
p2396
S'create/models/questions/question_template_model'
p2397
sS'nums'
p2398
g13
(g14
g15
NtRp2399
(dp2400
g18
I1
sg19
I0
sg20
I40
sg21
I0
sg22
I0
sg23
I0
sg24
I0
sbssg125
S'\x845gz\x1d\x17\x1dv\x81\n\x96G\x99pE\\'
p2401
ssS'create_views_questions_tests_test_get_question_by_id_view'
p2402
(dp2403
g42
(dp2404
g106
S'create_views_questions_tests_test_get_question_by_id_view.html'
p2405
sg108
S'create/views/questions/tests/test_get_question_by_id_view'
p2406
sg110
g13
(g14
g15
NtRp2407
(dp2408
g18
I1
sg19
I0
sg20
I24
sg21
I0
sg22
I0
sg23
I0
sg24
I0
sbssg51
S'\xa7[\x91\xa9\xa6\xb4\xbd&n$O^O\xec\xf2X'
p2409
ssS'teach_models_teacher_tags_tests___init__'
p2410
(dp2411
g68
(dp2412
g70
S'teach_models_teacher_tags_tests___init__.html'
p2413
sg72
S'teach/models/teacher_tags/tests/__init__'
p2414
sg74
g13
(g14
g15
NtRp2415
(dp2416
g18
I1
sg19
I0
sg20
I0
sg21
I0
sg22
I0
sg23
I0
sg24
I0
sbssg77
S'\x19g\xdfM\x1a\x019\xaf\x1baIeR\xe5u\xa7'
p2417
ssS'api_logging_urls'
p2418
(dp2419
g325
(dp2420
g57
S'api_logging_urls.html'
p2421
sg59
S'api_logging/urls'
p2422
sg61
g13
(g14
g15
NtRp2423
(dp2424
g18
I1
sg19
I0
sg20
I14
sg21
I0
sg22
I0
sg23
I0
sg24
I0
sbssg331
S'\x89\xca#\xfe\xc8\xc0\xbfd\xd8>\x1c/\xbbdMP'
p2425
ssS'api_logging_serializers_LoggingSerializer'
p2426
(dp2427
g325
(dp2428
g214
S'api_logging_serializers_LoggingSerializer.html'
p2429
sg216
S'api_logging/serializers/LoggingSerializer'
p2430
sg218
g13
(g14
g15
NtRp2431
(dp2432
g18
I1
sg19
I0
sg20
I12
sg21
I0
sg22
I0
sg23
I0
sg24
I0
sbssg331
S'1\xdb}\x8eJ\x1a\xe6@D\xcc}\xf4\x11(\x11\xb0'
p2433
ssS'create_views_books_tests_test_remove_subchapter_view'
p2434
(dp2435
S'index'
p2436
(dp2437
g44
S'create_views_books_tests_test_remove_subchapter_view.html'
p2438
sg46
S'create/views/books/tests/test_remove_subchapter_view'
p2439
sg48
g13
(g14
g15
NtRp2440
(dp2441
g18
I1
sg19
I0
sg20
I44
sg21
I0
sg22
I0
sg23
I0
sg24
I0
sbssS'hash'
p2442
S'\x0b\xddi\xaa_d\x8c\xf3b\xa2\x12\xbc\xce\xa5\xbf\x8b'
p2443
ssS'teach_views_summaries_daily_quest_daily_summary_view'
p2444
(dp2445
g325
(dp2446
g431
S'teach_views_summaries_daily_quest_daily_summary_view.html'
p2447
sg433
S'teach/views/summaries/daily_quest_daily_summary_view'
p2448
sg435
g13
(g14
g15
NtRp2449
(dp2450
g18
I1
sg19
I12
sg20
I61
sg21
I0
sg22
I0
sg23
I39
sg24
I12
sbssg331
S'\x06\\F.\x8c\xd3M\x8e\xc5\xc9\xd5<\x13V\xd6C'
p2451
ssS'learn_models_points_point_history_model'
p2452
(dp2453
g325
(dp2454
g214
S'learn_models_points_point_history_model.html'
p2455
sg216
S'learn/models/points/point_history_model'
p2456
sg218
g13
(g14
g15
NtRp2457
(dp2458
g18
I1
sg19
I0
sg20
I16
sg21
I0
sg22
I0
sg23
I0
sg24
I0
sbssg331
S'\xa8\xbaH\x19\x11\xbeT\xe2N=\xfe\xed\x9d\xd4\x83\x1e'
p2459
ssS'user_system___init__'
p2460
(dp2461
g42
(dp2462
g477
S'user_system___init__.html'
p2463
sg479
S'user_system/__init__'
p2464
sg481
g13
(g14
g15
NtRp2465
(dp2466
g18
I1
sg19
I0
sg20
I0
sg21
I0
sg22
I0
sg23
I0
sg24
I0
sbssg51
S'\x19g\xdfM\x1a\x019\xaf\x1baIeR\xe5u\xa7'
p2467
ssS'create_models_question_datasets_question_dataset_model'
p2468
(dp2469
g165
(dp2470
g167
S'create_models_question_datasets_question_dataset_model.html'
p2471
sg169
S'create/models/question_datasets/question_dataset_model'
p2472
sg171
g13
(g14
g15
NtRp2473
(dp2474
g18
I1
sg19
I0
sg20
I25
sg21
I0
sg22
I0
sg23
I0
sg24
I0
sbssg174
S'\x9e\x8d\xc6\xe6\xe4\x9f#\xfdc\xc9q\r\x17Y\x8e\xb1'
p2475
ssS'create_views_question_datasets___init__'
p2476
(dp2477
g165
(dp2478
g167
S'create_views_question_datasets___init__.html'
p2479
sg169
S'create/views/question_datasets/__init__'
p2480
sg171
g13
(g14
g15
NtRp2481
(dp2482
g18
I1
sg19
I0
sg20
I1
sg21
I0
sg22
I0
sg23
I0
sg24
I0
sbssg174
S'\x87x\xd1\xbe\x15\xd3\xbc\x99\x86\x08\xf8\x06S\xcf\x00\x87'
p2483
ssS'teach_serializers_daily_quest_templates___init__'
p2484
(dp2485
g68
(dp2486
g70
S'teach_serializers_daily_quest_templates___init__.html'
p2487
sg72
S'teach/serializers/daily_quest_templates/__init__'
p2488
sg74
g13
(g14
g15
NtRp2489
(dp2490
g18
I1
sg19
I0
sg20
I1
sg21
I0
sg22
I0
sg23
I0
sg24
I0
sbssg77
S'\xa2\xd34\x1b\xe2+\x16\xa9un\x8f\xa5\xe6\xc4\\p'
p2491
ssS'create_views_books_tests_test_remove_tag_from_subchapter_view'
p2492
(dp2493
g1586
(dp2494
g44
S'create_views_books_tests_test_remove_tag_from_subchapter_view.html'
p2495
sg46
S'create/views/books/tests/test_remove_tag_from_subchapter_view'
p2496
sg48
g13
(g14
g15
NtRp2497
(dp2498
g18
I1
sg19
I0
sg20
I40
sg21
I0
sg22
I0
sg23
I0
sg24
I0
sbssg1592
S"(Vo#\xdd\x9a\xbc\x11\xff\xd6'\xd7\xeb\xca\x1aM"
p2499
ssS'create_views_daily_quests___init__'
p2500
(dp2501
g260
(dp2502
g262
S'create_views_daily_quests___init__.html'
p2503
sg264
S'create/views/daily_quests/__init__'
p2504
sg266
g13
(g14
g15
NtRp2505
(dp2506
g18
I1
sg19
I0
sg20
I1
sg21
I0
sg22
I0
sg23
I0
sg24
I0
sbssg269
S'\xa3\x08\xf3\xbaF\xd5u\x88\x12\xa3V\x05K\xe5\xd0\xa9'
p2507
ssS'flipped_helpers_email_helper'
p2508
(dp2509
g42
(dp2510
g44
S'flipped_helpers_email_helper.html'
p2511
sg46
S'flipped/helpers/email_helper'
p2512
sg48
g13
(g14
g15
NtRp2513
(dp2514
g18
I1
sg19
I2
sg20
I9
sg21
I0
sg22
I0
sg23
I0
sg24
I0
sbssg51
S"\xeal\t\x03)\xcc\xc4\x0b\r\xe2&\x83a'I\xad"
p2515
ssS'flipped_urls'
p2516
(dp2517
g42
(dp2518
g106
S'flipped_urls.html'
p2519
sg108
S'flipped/urls'
p2520
sg110
g13
(g14
g15
NtRp2521
(dp2522
g18
I1
sg19
I0
sg20
I9
sg21
I0
sg22
I0
sg23
I0
sg24
I0
sbssg51
S'\xcbN{\xd0A\x0b\xa0\xc3\xd4\x8cr\xe3\x1e\x12\x1e\xb0'
p2523
ssS'api_logging_views_user_activities_user_agent_view'
p2524
(dp2525
g55
(dp2526
g57
S'api_logging_views_user_activities_user_agent_view.html'
p2527
sg59
S'api_logging/views/user_activities/user_agent_view'
p2528
sg61
g13
(g14
g15
NtRp2529
(dp2530
g18
I1
sg19
I26
sg20
I68
sg21
I0
sg22
I0
sg23
I50
sg24
I26
sbssg64
S'\xc4\xc5\xa3P\xc7\xa8\xdc\x1b#\x14\xe4\xe7o\x17\xba\x82'
p2531
ssS'teach_views_summaries_daily_quest_summary_view'
p2532
(dp2533
g325
(dp2534
g57
S'teach_views_summaries_daily_quest_summary_view.html'
p2535
sg59
S'teach/views/summaries/daily_quest_summary_view'
p2536
sg61
g13
(g14
g15
NtRp2537
(dp2538
g18
I1
sg19
I28
sg20
I80
sg21
I0
sg22
I0
sg23
I59
sg24
I28
sbssg331
S'\x9fe\xf9\x1c\x8a\xe2\xf4dr\xd6i\xd4\x89\xae\x1b\xf6'
p2539
ssS'user_system_views_users_student_profile_request_view'
p2540
(dp2541
g137
(dp2542
g31
S'user_system_views_users_student_profile_request_view.html'
p2543
sg33
S'user_system/views/users/student_profile_request_view'
p2544
sg35
g13
(g14
g15
NtRp2545
(dp2546
g18
I1
sg19
I0
sg20
I14
sg21
I0
sg22
I0
sg23
I0
sg24
I0
sbssg143
S'\x87:\xd0\xef\x04\xf3-q\r\xe7\xec \xceS\xee<'
p2547
ssS'user_system_views_logins_tests___init__'
p2548
(dp2549
g42
(dp2550
g477
S'user_system_views_logins_tests___init__.html'
p2551
sg479
S'user_system/views/logins/tests/__init__'
p2552
sg481
g13
(g14
g15
NtRp2553
(dp2554
g18
I1
sg19
I0
sg20
I1
sg21
I0
sg22
I0
sg23
I0
sg24
I0
sbssg51
S'\xbc\xd6\xeb\xb3\xba\xcaz\xf7{\xd4B\xb5}l\xdf\x96'
p2555
ssS'api_logging_views_modal_loggings___init__'
p2556
(dp2557
g325
(dp2558
g214
S'api_logging_views_modal_loggings___init__.html'
p2559
sg216
S'api_logging/views/modal_loggings/__init__'
p2560
sg218
g13
(g14
g15
NtRp2561
(dp2562
g18
I1
sg19
I0
sg20
I1
sg21
I0
sg22
I0
sg23
I0
sg24
I0
sbssg331
S'\xf1\x0fWK\x0c\x9eD\xe8\x12\xaf\x93\xfa\xd7q\xa8\x91'
p2563
ssS'user_system_views_users_tests_test_get_users_by_signup_type_view'
p2564
(dp2565
g42
(dp2566
g106
S'user_system_views_users_tests_test_get_users_by_signup_type_view.html'
p2567
sg108
S'user_system/views/users/tests/test_get_users_by_signup_type_view'
p2568
sg110
g13
(g14
g15
NtRp2569
(dp2570
g18
I1
sg19
I0
sg20
I44
sg21
I0
sg22
I0
sg23
I0
sg24
I0
sbssg51
S'T/\xf9\xf8\x94\xd6Lm\x89o\xb6\x99/Z\xc1]'
p2571
ssS'user_system_serializers_users_user_serializer'
p2572
(dp2573
g42
(dp2574
g106
S'user_system_serializers_users_user_serializer.html'
p2575
sg108
S'user_system/serializers/users/user_serializer'
p2576
sg110
g13
(g14
g15
NtRp2577
(dp2578
g18
I1
sg19
I8
sg20
I46
sg21
I0
sg22
I2
sg23
I8
sg24
I6
sbssg51
S'\xb2\xee\xa4\xa6\x8b\xe1\xe1\xce\xaa\xe6\xdd\xbd\xb3\xf2\x81/'
p2579
ssS'create_serializers_daily_quest_copies_daily_quest_copy_serializer'
p2580
(dp2581
g442
(dp2582
g1568
S'create_serializers_daily_quest_copies_daily_quest_copy_serializer.html'
p2583
sg1570
S'create/serializers/daily_quest_copies/daily_quest_copy_serializer'
p2584
sg1572
g13
(g14
g15
NtRp2585
(dp2586
g18
I1
sg19
I0
sg20
I18
sg21
I0
sg22
I0
sg23
I3
sg24
I0
sbssg451
S'\xb6\xc6tAeANu\xae\n4T\xc1.\xe2\xfd'
p2587
ssS'create_models_books_tests_test_book_history_model'
p2588
(dp2589
g377
(dp2590
g661
S'create_models_books_tests_test_book_history_model.html'
p2591
sg663
S'create/models/books/tests/test_book_history_model'
p2592
sg665
g13
(g14
g15
NtRp2593
(dp2594
g18
I1
sg19
I0
sg20
I65
sg21
I0
sg22
I0
sg23
I0
sg24
I0
sbssg383
S'\xedQI\xf5\x17. 8I\x938\xca4\x05=\xf3'
p2595
ssS'create_views_quests_tests_test_remove_question_view'
p2596
(dp2597
g6
(dp2598
g8
S'create_views_quests_tests_test_remove_question_view.html'
p2599
sg10
S'create/views/quests/tests/test_remove_question_view'
p2600
sg12
g13
(g14
g15
NtRp2601
(dp2602
g18
I1
sg19
I0
sg20
I0
sg21
I0
sg22
I0
sg23
I0
sg24
I0
sbssg25
S'\x19g\xdfM\x1a\x019\xaf\x1baIeR\xe5u\xa7'
p2603
ssS'create_serializers_daily_quest_templates_daily_quest_template_serializer'
p2604
(dp2605
g260
(dp2606
g262
S'create_serializers_daily_quest_templates_daily_quest_template_serializer.html'
p2607
sg264
S'create/serializers/daily_quest_templates/daily_quest_template_serializer'
p2608
sg266
g13
(g14
g15
NtRp2609
(dp2610
g18
I1
sg19
I0
sg20
I8
sg21
I0
sg22
I0
sg23
I0
sg24
I0
sbssg269
S'-b,\x8cFu\xd2b\x8b\rw5\xa4\xf7\xc3\xf2'
p2611
ssS'user_system_managers___init__'
p2612
(dp2613
g325
(dp2614
g1105
S'user_system_managers___init__.html'
p2615
sg1107
S'user_system/managers/__init__'
p2616
sg1109
g13
(g14
g15
NtRp2617
(dp2618
g18
I1
sg19
I0
sg20
I2
sg21
I0
sg22
I0
sg23
I0
sg24
I0
sbssg331
S'\xa5\xc9\x8d9\xe4\xb5\xce\xe3R\xccW\x976\xcdI\xa4'
p2619
ssS'teach_models_campaigns_tests_test_campaign_model'
p2620
(dp2621
g137
(dp2622
g31
S'teach_models_campaigns_tests_test_campaign_model.html'
p2623
sg33
S'teach/models/campaigns/tests/test_campaign_model'
p2624
sg35
g13
(g14
g15
NtRp2625
(dp2626
g18
I1
sg19
I0
sg20
I43
sg21
I0
sg22
I0
sg23
I0
sg24
I0
sbssg143
S"\x1b\xbbi{\xe8\xa9o\xd3w\xfb'\x1e\xca\x1b\xd9\xc7"
p2627
ssS'api_logging_views_modal_loggings_modal_user_history_view'
p2628
(dp2629
g325
(dp2630
g1105
S'api_logging_views_modal_loggings_modal_user_history_view.html'
p2631
sg1107
S'api_logging/views/modal_loggings/modal_user_history_view'
p2632
sg1109
g13
(g14
g15
NtRp2633
(dp2634
g18
I1
sg19
I0
sg20
I12
sg21
I0
sg22
I0
sg23
I0
sg24
I0
sbssg331
S'\xe0g\x1c\xea/\xf3m\xa8\x9d\x1f7\xba\x82w\x88\x9c'
p2635
ssS'user_system_views_logins_tests_test_email_login_view'
p2636
(dp2637
g42
(dp2638
g44
S'user_system_views_logins_tests_test_email_login_view.html'
p2639
sg46
S'user_system/views/logins/tests/test_email_login_view'
p2640
sg48
g13
(g14
g15
NtRp2641
(dp2642
g18
I1
sg19
I0
sg20
I61
sg21
I0
sg22
I0
sg23
I0
sg24
I0
sbssg51
S'\x926\xe8\xcdL\xf3U\xc1C\x1b\x0f\xaf\xf0c\x9b\xd0'
p2643
ssS'create_views_books_book_chapter_view'
p2644
(dp2645
g594
(dp2646
g214
S'create_views_books_book_chapter_view.html'
p2647
sg216
S'create/views/books/book_chapter_view'
p2648
sg218
g13
(g14
g15
NtRp2649
(dp2650
g18
I1
sg19
I12
sg20
I44
sg21
I0
sg22
I0
sg23
I22
sg24
I12
sbssg600
S'\x0b3\xd8 \xe1\x08#79\x0c\x7f\x1f6\xad0\xe9'
p2651
ssS'create_views___init__'
p2652
(dp2653
g42
(dp2654
g70
S'create_views___init__.html'
p2655
sg72
S'create/views/__init__'
p2656
sg74
g13
(g14
g15
NtRp2657
(dp2658
g18
I1
sg19
I0
sg20
I7
sg21
I0
sg22
I0
sg23
I0
sg24
I0
sbssg51
S'\x8f\x98\x9b$~\xde\xc2\xfc\x97/\x14^\xe8\xf8\x10M'
p2659
ssS'api_logging_serializers_user_activities_user_agent_serializer'
p2660
(dp2661
g55
(dp2662
g57
S'api_logging_serializers_user_activities_user_agent_serializer.html'
p2663
sg59
S'api_logging/serializers/user_activities/user_agent_serializer'
p2664
sg61
g13
(g14
g15
NtRp2665
(dp2666
g18
I1
sg19
I0
sg20
I7
sg21
I0
sg22
I0
sg23
I0
sg24
I0
sbssg64
S'\x03\x03.3u\r\xc1\x91\xbc\xba/Kv4\xa5\x85'
p2667
ssS'user_system_serializers_users_student_profile_serializer'
p2668
(dp2669
g137
(dp2670
g1105
S'user_system_serializers_users_student_profile_serializer.html'
p2671
sg1107
S'user_system/serializers/users/student_profile_serializer'
p2672
sg1109
g13
(g14
g15
NtRp2673
(dp2674
g18
I1
sg19
I0
sg20
I17
sg21
I0
sg22
I0
sg23
I4
sg24
I0
sbssg143
S'\xc4\x88\x8d\xdd\xa1\xf5H \xfeB\xa4<!8\x8c\x9e'
p2675
ssS'flipped_helpers_errors_helper'
p2676
(dp2677
g42
(dp2678
g44
S'flipped_helpers_errors_helper.html'
p2679
sg46
S'flipped/helpers/errors_helper'
p2680
sg48
g13
(g14
g15
NtRp2681
(dp2682
g18
I1
sg19
I0
sg20
I5
sg21
I0
sg22
I0
sg23
I0
sg24
I0
sbssg51
S'\x91\x04\x1c\xf86c\xad\xf7\xe3\xf13\xf5n8eP'
p2683
ssS'teach_views_teacher_tags_teacher_tag_view'
p2684
(dp2685
g68
(dp2686
g1105
S'teach_views_teacher_tags_teacher_tag_view.html'
p2687
sg1107
S'teach/views/teacher_tags/teacher_tag_view'
p2688
sg1109
g13
(g14
g15
NtRp2689
(dp2690
g18
I1
sg19
I20
sg20
I55
sg21
I0
sg22
I2
sg23
I30
sg24
I18
sbssg77
S'\xd6\xdf\xb7\xf7\xc0\x9b\xae\x8c\x81\x0f\x89C\xb0k\xaf\xd5'
p2691
ssS'create_models_questions_tests_test_question_history_model'
p2692
(dp2693
g42
(dp2694
g1027
S'create_models_questions_tests_test_question_history_model.html'
p2695
sg1029
S'create/models/questions/tests/test_question_history_model'
p2696
sg1031
g13
(g14
g15
NtRp2697
(dp2698
g18
I1
sg19
I2
sg20
I73
sg21
I0
sg22
I0
sg23
I0
sg24
I0
sbssg51
S'i\xd4 \xdcI\x9f\xbc\x0c|\x95\x15wW\xb4\xa9\x15'
p2699
ssS'create_views_tags_tests_test_create_tag_view'
p2700
(dp2701
g455
(dp2702
g44
S'create_views_tags_tests_test_create_tag_view.html'
p2703
sg46
S'create/views/tags/tests/test_create_tag_view'
p2704
sg48
g13
(g14
g15
NtRp2705
(dp2706
g18
I1
sg19
I0
sg20
I33
sg21
I0
sg22
I0
sg23
I0
sg24
I0
sbssg464
S'\\\x91{\x1a ;Qg\xbd\x81\xe2\xaf\xa41\xac\x1b'
p2707
ssS'create_views_questions_tests___init__'
p2708
(dp2709
g42
(dp2710
g477
S'create_views_questions_tests___init__.html'
p2711
sg479
S'create/views/questions/tests/__init__'
p2712
sg481
g13
(g14
g15
NtRp2713
(dp2714
g18
I1
sg19
I0
sg20
I0
sg21
I0
sg22
I0
sg23
I0
sg24
I0
sbssg51
S'\x19g\xdfM\x1a\x019\xaf\x1baIeR\xe5u\xa7'
p2715
ssS'flipped___init__'
p2716
(dp2717
g42
(dp2718
g477
S'flipped___init__.html'
p2719
sg479
S'flipped/__init__'
p2720
sg481
g13
(g14
g15
NtRp2721
(dp2722
g18
I1
sg19
I0
sg20
I0
sg21
I0
sg22
I0
sg23
I0
sg24
I0
sbssg51
S'\x19g\xdfM\x1a\x019\xaf\x1baIeR\xe5u\xa7'
p2723
ssS'user_system_views_roles___init__'
p2724
(dp2725
g42
(dp2726
g477
S'user_system_views_roles___init__.html'
p2727
sg479
S'user_system/views/roles/__init__'
p2728
sg481
g13
(g14
g15
NtRp2729
(dp2730
g18
I1
sg19
I0
sg20
I1
sg21
I0
sg22
I0
sg23
I0
sg24
I0
sbssg51
S'\xeb\x15\r\x85I\x9e<\xbc\x15\xd1P\xef\x16\x8c\xe0l'
p2731
ssS'create_models_daily_quest_templates_tests_test_daily_quest_template_model'
p2732
(dp2733
g260
(dp2734
g262
S'create_models_daily_quest_templates_tests_test_daily_quest_template_model.html'
p2735
sg264
S'create/models/daily_quest_templates/tests/test_daily_quest_template_model'
p2736
sg266
g13
(g14
g15
NtRp2737
(dp2738
g18
I1
sg19
I0
sg20
I37
sg21
I0
sg22
I0
sg23
I0
sg24
I0
sbssg269
S'\x01\x04)\xffw\x13\x9aqx\xb2\x9f\x02\xb0\x90\xf3\xa5'
p2739
ssS'teach_views_summaries___init__'
p2740
(dp2741
g325
(dp2742
g203
S'teach_views_summaries___init__.html'
p2743
sg205
S'teach/views/summaries/__init__'
p2744
sg207
g13
(g14
g15
NtRp2745
(dp2746
g18
I1
sg19
I0
sg20
I6
sg21
I0
sg22
I0
sg23
I0
sg24
I0
sbssg331
S'\xf1\xa7@\xae\xc1+T\x8d\tr\xacb\x91s,\xbf'
p2747
ssS'user_system_models_users_user_profile_history_model'
p2748
(dp2749
g137
(dp2750
g31
S'user_system_models_users_user_profile_history_model.html'
p2751
sg33
S'user_system/models/users/user_profile_history_model'
p2752
sg35
g13
(g14
g15
NtRp2753
(dp2754
g18
I1
sg19
I4
sg20
I72
sg21
I0
sg22
I2
sg23
I12
sg24
I2
sbssg143
S'\x9a\x0c\xe2p\x8b\xee\x01\x87\xfd\x81\xb4\x9bzp\x90\xb6'
p2755
ssS'user_system_models_roles_role_model'
p2756
(dp2757
g42
(dp2758
g44
S'user_system_models_roles_role_model.html'
p2759
sg46
S'user_system/models/roles/role_model'
p2760
sg48
g13
(g14
g15
NtRp2761
(dp2762
g18
I1
sg19
I0
sg20
I16
sg21
I0
sg22
I0
sg23
I0
sg24
I0
sbssg51
S'\x180j\xc8\x05 \xa05\xa7\xffj\x1dJ\x8a6\xcb'
p2763
ssS'user_system_views_users_user_view'
p2764
(dp2765
g42
(dp2766
g431
S'user_system_views_users_user_view.html'
p2767
sg433
S'user_system/views/users/user_view'
p2768
sg435
g13
(g14
g15
NtRp2769
(dp2770
g18
I1
sg19
I66
sg20
I191
sg21
I0
sg22
I0
sg23
I110
sg24
I44
sbssg51
S'\xc15\x8d)\x8f\xca@r\xd5%m#\x11{\x13\x9b'
p2771
ssS'teach_models_daily_quest_templates_tests_test_daily_quest_template_model'
p2772
(dp2773
g68
(dp2774
g70
S'teach_models_daily_quest_templates_tests_test_daily_quest_template_model.html'
p2775
sg72
S'teach/models/daily_quest_templates/tests/test_daily_quest_template_model'
p2776
sg74
g13
(g14
g15
NtRp2777
(dp2778
g18
I1
sg19
I0
sg20
I37
sg21
I0
sg22
I0
sg23
I0
sg24
I0
sbssg77
S'\x01\x04)\xffw\x13\x9aqx\xb2\x9f\x02\xb0\x90\xf3\xa5'
p2779
ssS'user_system_views_apps___init__'
p2780
(dp2781
g42
(dp2782
g477
S'user_system_views_apps___init__.html'
p2783
sg479
S'user_system/views/apps/__init__'
p2784
sg481
g13
(g14
g15
NtRp2785
(dp2786
g18
I1
sg19
I0
sg20
I1
sg21
I0
sg22
I0
sg23
I0
sg24
I0
sbssg51
S'?:\xf2A\xfa^]\xc5NR\xc9\x13\xb0\xe4\xfa\x9e'
p2787
ssS'user_system_views_users_tests_test_get_users_list_view'
p2788
(dp2789
g42
(dp2790
g106
S'user_system_views_users_tests_test_get_users_list_view.html'
p2791
sg108
S'user_system/views/users/tests/test_get_users_list_view'
p2792
sg110
g13
(g14
g15
NtRp2793
(dp2794
g18
I1
sg19
I0
sg20
I34
sg21
I0
sg22
I0
sg23
I0
sg24
I0
sbssg51
S'\xf5\xe3\x1a\x14e\xf8\xc2\xf0\xa8^$\xf7\x9dv\xb8f'
p2795
ssS'create_models_questions_question_type_model'
p2796
(dp2797
g42
(dp2798
g44
S'create_models_questions_question_type_model.html'
p2799
sg46
S'create/models/questions/question_type_model'
p2800
sg48
g13
(g14
g15
NtRp2801
(dp2802
g18
I1
sg19
I0
sg20
I19
sg21
I0
sg22
I0
sg23
I0
sg24
I0
sbssg51
S'\xb9\xe7I\x93\x8b\xa8\xa8H\x80\x02_\xf9\x87\xa2\xe7\xa5'
p2803
ssS'user_system_views_apps_app_view'
p2804
(dp2805
g42
(dp2806
S'html_filename'
p2807
S'user_system_views_apps_app_view.html'
p2808
sS'name'
p2809
S'user_system/views/apps/app_view'
p2810
sS'nums'
p2811
g13
(g14
g15
NtRp2812
(dp2813
g18
I1
sg19
I0
sg20
I13
sg21
I0
sg22
I0
sg23
I0
sg24
I0
sbssg51
S'\xf7n\xffX\xe7\xd2\xb6\xa5\xc5\xe5\x96\x13\xf4\x9c\xac\x1e'
p2814
ssS'teach_views_summaries_student_list_summary'
p2815
(dp2816
g325
(dp2817
g431
S'teach_views_summaries_student_list_summary.html'
p2818
sg433
S'teach/views/summaries/student_list_summary'
p2819
sg435
g13
(g14
g15
NtRp2820
(dp2821
g18
I1
sg19
I26
sg20
I81
sg21
I0
sg22
I0
sg23
I63
sg24
I26
sbssg331
S'i\x1e\xd7\x9f\xceE"\x92\xc3\xfd\xd9\xdd\xac%\xe7\x10'
p2822
ssS'user_system_models_schools_tests_test_classroom_model'
p2823
(dp2824
g250
(dp2825
g214
S'user_system_models_schools_tests_test_classroom_model.html'
p2826
sg216
S'user_system/models/schools/tests/test_classroom_model'
p2827
sg218
g13
(g14
g15
NtRp2828
(dp2829
g18
I1
sg19
I0
sg20
I31
sg21
I0
sg22
I0
sg23
I0
sg24
I0
sbssg256
S'\xfd\xfd\xa2\x92;\xc3\xaa\x06D\x93\xddbD\xda\xa2\x1e'
p2830
ssS'user_system_views_schools_school_view'
p2831
(dp2832
g137
(dp2833
g31
S'user_system_views_schools_school_view.html'
p2834
sg33
S'user_system/views/schools/school_view'
p2835
sg35
g13
(g14
g15
NtRp2836
(dp2837
g18
I1
sg19
I0
sg20
I16
sg21
I0
sg22
I0
sg23
I0
sg24
I0
sbssg143
S'\xc8\x0b\xef\x9e86\xe5\x19\xaa\x9e\x93+\x03\xfb\x98\x99'
p2838
ssS'learn_models_points_point_type_model'
p2839
(dp2840
g325
(dp2841
g661
S'learn_models_points_point_type_model.html'
p2842
sg663
S'learn/models/points/point_type_model'
p2843
sg665
g13
(g14
g15
NtRp2844
(dp2845
g18
I1
sg19
I0
sg20
I20
sg21
I0
sg22
I0
sg23
I0
sg24
I0
sbssg331
S'\x84\x1b\x18\n\xa9\xae\xe5\xd57\xa7}h\xdaD\x19+'
p2846
ssS'user_system_models_roles_tests_test_role_app_model'
p2847
(dp2848
g42
(dp2849
g44
S'user_system_models_roles_tests_test_role_app_model.html'
p2850
sg46
S'user_system/models/roles/tests/test_role_app_model'
p2851
sg48
g13
(g14
g15
NtRp2852
(dp2853
g18
I1
sg19
I0
sg20
I21
sg21
I0
sg22
I0
sg23
I0
sg24
I0
sbssg51
S"\x80\xd7v\xbb\xe5d.\xeb\xfd\xc4\x04\xb2\x04'\xc6V"
p2854
ssS'user_system_views_schools_grade_view'
p2855
(dp2856
g137
(dp2857
g31
S'user_system_views_schools_grade_view.html'
p2858
sg33
S'user_system/views/schools/grade_view'
p2859
sg35
g13
(g14
g15
NtRp2860
(dp2861
g18
I1
sg19
I0
sg20
I16
sg21
I0
sg22
I0
sg23
I0
sg24
I0
sbssg143
S'_i&b\x01\x08$\xe7\xbe\nW\x92\x80\x97\xf1Q'
p2862
ssS'create_serializers_question_datasets_question_dataset_serializer'
p2863
(dp2864
g165
(dp2865
g167
S'create_serializers_question_datasets_question_dataset_serializer.html'
p2866
sg169
S'create/serializers/question_datasets/question_dataset_serializer'
p2867
sg171
g13
(g14
g15
NtRp2868
(dp2869
g18
I1
sg19
I0
sg20
I6
sg21
I0
sg22
I0
sg23
I0
sg24
I0
sbssg174
S'\x1e}6\x82\x0c\x96\xdb\x00{jK\xdb\xc0\x8c\x97\xcd'
p2870
ssS'privilege_models_privileges_user_privilege_model'
p2871
(dp2872
g315
(dp2873
g106
S'privilege_models_privileges_user_privilege_model.html'
p2874
sg108
S'privilege/models/privileges/user_privilege_model'
p2875
sg110
g13
(g14
g15
NtRp2876
(dp2877
g18
I1
sg19
I0
sg20
I17
sg21
I0
sg22
I0
sg23
I1
sg24
I0
sbssg321
S'\xe4\xbfo\xb6Sy\xef\x85\xf2\xf3=\xf3\xc3\xc0\xc9\xc6'
p2878
ssS'create_views_questions_question_template_view'
p2879
(dp2880
g116
(dp2881
g118
S'create_views_questions_question_template_view.html'
p2882
sg120
S'create/views/questions/question_template_view'
p2883
sg122
g13
(g14
g15
NtRp2884
(dp2885
g18
I1
sg19
I40
sg20
I115
sg21
I0
sg22
I0
sg23
I86
sg24
I40
sbssg125
S'\x15\xd2EN\xe9c\xe5\x17\xc5Fh\x02\x1a\xd3\xc4*'
p2886
ssS'create_serializers_quests_quest_serializer'
p2887
(dp2888
g116
(dp2889
g31
S'create_serializers_quests_quest_serializer.html'
p2890
sg33
S'create/serializers/quests/quest_serializer'
p2891
sg35
g13
(g14
g15
NtRp2892
(dp2893
g18
I1
sg19
I0
sg20
I50
sg21
I0
sg22
I0
sg23
I15
sg24
I0
sbssg125
S'\x96:\xdf\x9a\x02\xee\xf5\x97F[z\x16p\x8f\x08\xb2'
p2894
ssS'create_views_summary_create_summary_view'
p2895
(dp2896
g1668
(dp2897
g1140
S'create_views_summary_create_summary_view.html'
p2898
sg1142
S'create/views/summary/create_summary_view'
p2899
sg1144
g13
(g14
g15
NtRp2900
(dp2901
g18
I1
sg19
I0
sg20
I59
sg21
I0
sg22
I0
sg23
I48
sg24
I0
sbssg1674
S"'\xfe\xf4\x8c\xed2\xc3\x18\xf6\x85\x1f\xb0\xf0G\xb7\x8f"
p2902
ssS'create_serializers_books_book_serializer'
p2903
(dp2904
g377
(dp2905
g106
S'create_serializers_books_book_serializer.html'
p2906
sg108
S'create/serializers/books/book_serializer'
p2907
sg110
g13
(g14
g15
NtRp2908
(dp2909
g18
I1
sg19
I0
sg20
I25
sg21
I0
sg22
I0
sg23
I0
sg24
I0
sbssg383
S"o\r\r\x1e8\xe6\xa9\xd1\x83X.\xcf1\x98\xa3'"
p2910
ssS'user_system_models_schools_tests___init__'
p2911
(dp2912
g224
(dp2913
S'html_filename'
p2914
S'user_system_models_schools_tests___init__.html'
p2915
sS'name'
p2916
S'user_system/models/schools/tests/__init__'
p2917
sS'nums'
p2918
g13
(g14
g15
NtRp2919
(dp2920
g18
I1
sg19
I0
sg20
I0
sg21
I0
sg22
I0
sg23
I0
sg24
I0
sbssg233
S'\x19g\xdfM\x1a\x019\xaf\x1baIeR\xe5u\xa7'
p2921
ssS'api_logging_mixins'
p2922
(dp2923
g455
(dp2924
g44
S'api_logging_mixins.html'
p2925
sg46
S'api_logging/mixins'
p2926
sg48
g13
(g14
g15
NtRp2927
(dp2928
g18
I1
sg19
I4
sg20
I26
sg21
I0
sg22
I2
sg23
I2
sg24
I2
sbssg464
S'w\xa7\xcf,\xf7\x87[\xb0\xc5\xb2\x1f\xa5+\x1dSF'
p2929
ssS'privilege_serializers_privileges___init__'
p2930
(dp2931
g315
(dp2932
g106
S'privilege_serializers_privileges___init__.html'
p2933
sg108
S'privilege/serializers/privileges/__init__'
p2934
sg110
g13
(g14
g15
NtRp2935
(dp2936
g18
I1
sg19
I0
sg20
I2
sg21
I0
sg22
I0
sg23
I0
sg24
I0
sbssg321
S'\x1f\xd4u<\xf4\x9bW\xb0\xa9\xd2\xc1\x06\x14`C\xc6'
p2937
ssS'create___init__'
p2938
(dp2939
g42
(dp2940
g477
S'create___init__.html'
p2941
sg479
S'create/__init__'
p2942
sg481
g13
(g14
g15
NtRp2943
(dp2944
g18
I1
sg19
I0
sg20
I0
sg21
I0
sg22
I0
sg23
I0
sg24
I0
sbssg51
S'\x19g\xdfM\x1a\x019\xaf\x1baIeR\xe5u\xa7'
p2945
ssS'user_system_serializers_schools_school_serializer'
p2946
(dp2947
g137
(dp2948
g31
S'user_system_serializers_schools_school_serializer.html'
p2949
sg33
S'user_system/serializers/schools/school_serializer'
p2950
sg35
g13
(g14
g15
NtRp2951
(dp2952
g18
I1
sg19
I0
sg20
I9
sg21
I0
sg22
I0
sg23
I0
sg24
I0
sbssg143
S'_\x0c\x17V\x00H\x8f\xc9x\xe5I\xcb\t\x08\xb9/'
p2953
ssS'user_system_models_users_tests_test_user_profile_update_request_model'
p2954
(dp2955
g137
(dp2956
g661
S'user_system_models_users_tests_test_user_profile_update_request_model.html'
p2957
sg663
S'user_system/models/users/tests/test_user_profile_update_request_model'
p2958
sg665
g13
(g14
g15
NtRp2959
(dp2960
g18
I1
sg19
I0
sg20
I56
sg21
I0
sg22
I0
sg23
I0
sg24
I0
sbssg143
S'U\ng\x0eY\xe2\xc0a\x07f\xb4\x9bFP\x14\x86'
p2961
ssS'user_system_views_users_tests_test_add_role_view'
p2962
(dp2963
g42
(dp2964
g44
S'user_system_views_users_tests_test_add_role_view.html'
p2965
sg46
S'user_system/views/users/tests/test_add_role_view'
p2966
sg48
g13
(g14
g15
NtRp2967
(dp2968
g18
I1
sg19
I0
sg20
I36
sg21
I0
sg22
I0
sg23
I0
sg24
I0
sbssg51
S'\x0eh\xf7\xba\x08_N\xdeM\xdf\x03\xbd\x8c\x8a\x89\xd0'
p2969
ssS'learn_urls'
p2970
(dp2971
g68
(dp2972
g57
S'learn_urls.html'
p2973
sg59
S'learn/urls'
p2974
sg61
g13
(g14
g15
NtRp2975
(dp2976
g18
I1
sg19
I0
sg20
I9
sg21
I0
sg22
I0
sg23
I0
sg24
I0
sbssg77
S'?86m1s7\xd9\x9a4\x93\xfcY\xbd\xaf7'
p2977
ssS'api_logging___init__'
p2978
(dp2979
g594
(dp2980
g760
S'api_logging___init__.html'
p2981
sg762
S'api_logging/__init__'
p2982
sg764
g13
(g14
g15
NtRp2983
(dp2984
g18
I1
sg19
I0
sg20
I0
sg21
I0
sg22
I0
sg23
I0
sg24
I0
sbssg600
S'\x19g\xdfM\x1a\x019\xaf\x1baIeR\xe5u\xa7'
p2985
ssS'create_views_questions_question_view'
p2986
(dp2987
g42
(dp2988
g1062
S'create_views_questions_question_view.html'
p2989
sg1064
S'create/views/questions/question_view'
p2990
sg1066
g13
(g14
g15
NtRp2991
(dp2992
g18
I1
sg19
I34
sg20
I113
sg21
I0
sg22
I1
sg23
I40
sg24
I21
sbssg51
S'x\x1b\xf3\x9b\x13Z\xdalU\x8bJ\x89\xb3qc\x8d'
p2993
ssS'create_views_quests_tests_test_add_question_view'
p2994
(dp2995
g6
(dp2996
g8
S'create_views_quests_tests_test_add_question_view.html'
p2997
sg10
S'create/views/quests/tests/test_add_question_view'
p2998
sg12
g13
(g14
g15
NtRp2999
(dp3000
g18
I1
sg19
I0
sg20
I0
sg21
I0
sg22
I0
sg23
I0
sg24
I0
sbssg25
S'\x19g\xdfM\x1a\x019\xaf\x1baIeR\xe5u\xa7'
p3001
ssS'create_models_daily_quest_copies___init__'
p3002
(dp3003
g442
(dp3004
g1568
S'create_models_daily_quest_copies___init__.html'
p3005
sg1570
S'create/models/daily_quest_copies/__init__'
p3006
sg1572
g13
(g14
g15
NtRp3007
(dp3008
g18
I1
sg19
I0
sg20
I1
sg21
I0
sg22
I0
sg23
I0
sg24
I0
sbssg451
S'\xee\xef\xb8!Z;\x9e_\xb5g4\xe9\xac@l\xe6'
p3009
ssS'create_models_books_tests___init__'
p3010
(dp3011
g377
(dp3012
g808
S'create_models_books_tests___init__.html'
p3013
sg810
S'create/models/books/tests/__init__'
p3014
sg812
g13
(g14
g15
NtRp3015
(dp3016
g18
I1
sg19
I0
sg20
I0
sg21
I0
sg22
I0
sg23
I0
sg24
I0
sbssg383
S'\x19g\xdfM\x1a\x019\xaf\x1baIeR\xe5u\xa7'
p3017
ssS'privilege_models_privileges___init__'
p3018
(dp3019
g315
(dp3020
g106
S'privilege_models_privileges___init__.html'
p3021
sg108
S'privilege/models/privileges/__init__'
p3022
sg110
g13
(g14
g15
NtRp3023
(dp3024
g18
I1
sg19
I0
sg20
I2
sg21
I0
sg22
I0
sg23
I0
sg24
I0
sbssg321
S'\x14\x97Z\xa7<\xbd\xe6Z\xa0jIA\xc0I\xfd"'
p3025
ssS'user_system_managers_streak_manager'
p3026
(dp3027
g325
(dp3028
g431
S'user_system_managers_streak_manager.html'
p3029
sg433
S'user_system/managers/streak_manager'
p3030
sg435
g13
(g14
g15
NtRp3031
(dp3032
g18
I1
sg19
I30
sg20
I66
sg21
I0
sg22
I2
sg23
I48
sg24
I28
sbssg331
S'9\x9e\xa2\xbd\x80\x8b\xa4\xb3N>\xb8ZsW\xe8\xd0'
p3033
ssS'user_system_views_signups_map_demo_signup_view'
p3034
(dp3035
g55
(dp3036
g57
S'user_system_views_signups_map_demo_signup_view.html'
p3037
sg59
S'user_system/views/signups/map_demo_signup_view'
p3038
sg61
g13
(g14
g15
NtRp3039
(dp3040
g18
I1
sg19
I18
sg20
I134
sg21
I0
sg22
I0
sg23
I115
sg24
I18
sbssg64
S"\xc8(\xb1Q\xfb\xb0\xdfc\x94\xe2\x99\r\xb4'G["
p3041
ssS'learn_views_student_news_feed_student_news_feed_view'
p3042
(dp3043
g325
(dp3044
g57
S'learn_views_student_news_feed_student_news_feed_view.html'
p3045
sg59
S'learn/views/student_news_feed/student_news_feed_view'
p3046
sg61
g13
(g14
g15
NtRp3047
(dp3048
g18
I1
sg19
I14
sg20
I64
sg21
I0
sg22
I0
sg23
I43
sg24
I14
sbssg331
S'$\x9f\xf4\xd0\x91\x0e\xf7\xe7\xb3\x8b\x1f\x87S:\xa0\xec'
p3049
ssS'user_system_models_schools_tests_test_academic_year_model'
p3050
(dp3051
g224
(dp3052
g1477
S'user_system_models_schools_tests_test_academic_year_model.html'
p3053
sg1479
S'user_system/models/schools/tests/test_academic_year_model'
p3054
sg1481
g13
(g14
g15
NtRp3055
(dp3056
g18
I1
sg19
I0
sg20
I28
sg21
I0
sg22
I0
sg23
I0
sg24
I0
sbssg233
S'{=\xee\xbc8\xbd\xa7\xdd\x0f!3\xf8\xf0os\xe2'
p3057
ssS'learn_serializers_daily_quests_daily_quest_question_history_serializer'
p3058
(dp3059
g325
(dp3060
g214
S'learn_serializers_daily_quests_daily_quest_question_history_serializer.html'
p3061
sg216
S'learn/serializers/daily_quests/daily_quest_question_history_serializer'
p3062
sg218
g13
(g14
g15
NtRp3063
(dp3064
g18
I1
sg19
I0
sg20
I8
sg21
I0
sg22
I0
sg23
I0
sg24
I0
sbssg331
S'q$\xc8~\x9a\xbb\x03\x1a\x12[aG\x9a\x87\xc6\x0c'
p3065
ssS'api_logging_serializers_modal_loggings___init__'
p3066
(dp3067
g325
(dp3068
g214
S'api_logging_serializers_modal_loggings___init__.html'
p3069
sg216
S'api_logging/serializers/modal_loggings/__init__'
p3070
sg218
g13
(g14
g15
NtRp3071
(dp3072
g18
I1
sg19
I0
sg20
I1
sg21
I0
sg22
I0
sg23
I0
sg24
I0
sbssg331
S'\xff)\x01pU0i\x848\xea\xfc\x08\x0b\x0bS\xa4'
p3073
ssS'user_system_models_schools_grade_model'
p3074
(dp3075
g250
(dp3076
g214
S'user_system_models_schools_grade_model.html'
p3077
sg216
S'user_system/models/schools/grade_model'
p3078
sg218
g13
(g14
g15
NtRp3079
(dp3080
g18
I1
sg19
I0
sg20
I29
sg21
I0
sg22
I0
sg23
I2
sg24
I0
sbssg256
S'\xfdv\xccR\xe0u\x91\x0f\x7f\x03\xcb\xc4y\xc19k'
p3081
ssS'user_system_serializers_schools___init__'
p3082
(dp3083
g68
(dp3084
g31
S'user_system_serializers_schools___init__.html'
p3085
sg33
S'user_system/serializers/schools/__init__'
p3086
sg35
g13
(g14
g15
NtRp3087
(dp3088
g18
I1
sg19
I0
sg20
I5
sg21
I0
sg22
I0
sg23
I0
sg24
I0
sbssg77
S'8yN\xa2\x98\xe3%\xd4\xe2\xfd\xf2@\xcc\xa7\x02\xdb'
p3089
ssS'create_serializers_questions_question_choice_serializer'
p3090
(dp3091
g42
(dp3092
g214
S'create_serializers_questions_question_choice_serializer.html'
p3093
sg216
S'create/serializers/questions/question_choice_serializer'
p3094
sg218
g13
(g14
g15
NtRp3095
(dp3096
g18
I1
sg19
I0
sg20
I10
sg21
I0
sg22
I0
sg23
I0
sg24
I0
sbssg51
S'\xe4\xc0O\xa2\x80M\x05Wf\xdeO=\xf7\xaaT\x95'
p3097
ssS'create_serializers_questions_question_template_serializer'
p3098
(dp3099
g116
(dp3100
g1215
S'create_serializers_questions_question_template_serializer.html'
p3101
sg1217
S'create/serializers/questions/question_template_serializer'
p3102
sg1219
g13
(g14
g15
NtRp3103
(dp3104
g18
I1
sg19
I0
sg20
I43
sg21
I0
sg22
I0
sg23
I9
sg24
I0
sbssg125
S'\x1a\x149\xdb\xb8\xc7\xfc\xb6\xbc\x8b\xfe\x8e~N\xb9J'
p3105
ssS'teach_views_summaries_top_answered_questions_summary_view'
p3106
(dp3107
g325
(dp3108
g57
S'teach_views_summaries_top_answered_questions_summary_view.html'
p3109
sg59
S'teach/views/summaries/top_answered_questions_summary_view'
p3110
sg61
g13
(g14
g15
NtRp3111
(dp3112
g18
I1
sg19
I34
sg20
I77
sg21
I0
sg22
I0
sg23
I54
sg24
I34
sbssg331
S'\x9e\xb0khf9\xceHZ\x1e\x91\x1ac,\x8c\x0c'
p3113
ssS'user_system_models_apps___init__'
p3114
(dp3115
g42
(dp3116
g477
S'user_system_models_apps___init__.html'
p3117
sg479
S'user_system/models/apps/__init__'
p3118
sg481
g13
(g14
g15
NtRp3119
(dp3120
g18
I1
sg19
I0
sg20
I1
sg21
I0
sg22
I0
sg23
I0
sg24
I0
sbssg51
S'\n\xe9\xce\x15)\x8d\xc6\xdd\xe0\x9b\x990[\xae\x8cl'
p3121
ssS'create_views_books_book_view'
p3122
(dp3123
g377
(dp3124
g8
S'create_views_books_book_view.html'
p3125
sg10
S'create/views/books/book_view'
p3126
sg12
g13
(g14
g15
NtRp3127
(dp3128
g18
I1
sg19
I34
sg20
I124
sg21
I0
sg22
I3
sg23
I8
sg24
I5
sbssg383
S'%\x96\xb2\x15\x98\xef\x0fL\xc0&\xf9\x18\x91-\xb28'
p3129
ssS'create_models_quests___init__'
p3130
(dp3131
g116
(dp3132
g650
S'create_models_quests___init__.html'
p3133
sg652
S'create/models/quests/__init__'
p3134
sg654
g13
(g14
g15
NtRp3135
(dp3136
g18
I1
sg19
I0
sg20
I2
sg21
I0
sg22
I0
sg23
I0
sg24
I0
sbssg125
S'\x1e\x87\x83\xe2\x04\x1d\xcd:`\x99V\x85#\xca\x12^'
p3137
ssS'privilege_serializers_privileges_privilege_serializer'
p3138
(dp3139
g315
(dp3140
g106
S'privilege_serializers_privileges_privilege_serializer.html'
p3141
sg108
S'privilege/serializers/privileges/privilege_serializer'
p3142
sg110
g13
(g14
g15
NtRp3143
(dp3144
g18
I1
sg19
I0
sg20
I7
sg21
I0
sg22
I0
sg23
I0
sg24
I0
sbssg321
S'?v\x87\xf3\x00\x8cw`\xd8\x0b\xeb\x98\x18\xbd\x1dR'
p3145
ssS'user_system_views_signups_hardcoded_tests_test_test_account_view'
p3146
(dp3147
g42
(dp3148
g44
S'user_system_views_signups_hardcoded_tests_test_test_account_view.html'
p3149
sg46
S'user_system/views/signups/hardcoded/tests/test_test_account_view'
p3150
sg48
g13
(g14
g15
NtRp3151
(dp3152
g18
I1
sg19
I0
sg20
I24
sg21
I0
sg22
I0
sg23
I0
sg24
I0
sbssg51
S'@\xc3::\xf8h\x1aT\x9f\x83\xee1\xb7\x9a\xe0\xf9'
p3153
ssS'api_logging_models_query_stat_query_stat_model'
p3154
(dp3155
g273
(dp3156
g57
S'api_logging_models_query_stat_query_stat_model.html'
p3157
sg59
S'api_logging/models/query_stat/query_stat_model'
p3158
sg61
g13
(g14
g15
NtRp3159
(dp3160
g18
I1
sg19
I0
sg20
I16
sg21
I0
sg22
I0
sg23
I3
sg24
I0
sbssg279
S'\xa3=\x10\x13c\x11z=\xd9\x93q\x14\x17\x00\x0e\x8a'
p3161
ssS'create_models_tags_concept_model'
p3162
(dp3163
g411
(dp3164
g44
S'create_models_tags_concept_model.html'
p3165
sg46
S'create/models/tags/concept_model'
p3166
sg48
g13
(g14
g15
NtRp3167
(dp3168
g18
I1
sg19
I0
sg20
I10
sg21
I0
sg22
I0
sg23
I0
sg24
I0
sbssg417
S'@vb\xbd\xcay\xb1b\x9e\xaf\xc0v/\xd6\x13\xd3'
p3169
ssS'create_models_tags_tests___init__'
p3170
(dp3171
g411
(dp3172
S'html_filename'
p3173
S'create_models_tags_tests___init__.html'
p3174
sS'name'
p3175
S'create/models/tags/tests/__init__'
p3176
sS'nums'
p3177
g13
(g14
g15
NtRp3178
(dp3179
g18
I1
sg19
I0
sg20
I1
sg21
I0
sg22
I0
sg23
I0
sg24
I0
sbssg417
S'\xbc\xd6\xeb\xb3\xba\xcaz\xf7{\xd4B\xb5}l\xdf\x96'
p3180
ssS'create_serializers_books_book_subchapter_serializer'
p3181
(dp3182
g377
(dp3183
g1215
S'create_serializers_books_book_subchapter_serializer.html'
p3184
sg1217
S'create/serializers/books/book_subchapter_serializer'
p3185
sg1219
g13
(g14
g15
NtRp3186
(dp3187
g18
I1
sg19
I0
sg20
I18
sg21
I0
sg22
I0
sg23
I3
sg24
I0
sbssg383
S'89\x89\x89\xd8\x94\xd2l\x98G]\xad\xe1\xf7\x93\xfc'
p3188
ssS'user_system_views_signups_verify_email_view'
p3189
(dp3190
g42
(dp3191
g44
S'user_system_views_signups_verify_email_view.html'
p3192
sg46
S'user_system/views/signups/verify_email_view'
p3193
sg48
g13
(g14
g15
NtRp3194
(dp3195
g18
I1
sg19
I6
sg20
I26
sg21
I0
sg22
I0
sg23
I0
sg24
I0
sbssg51
S"B+;\xbf\xb1A\x1f\n\x94\x0e\xeb\xd0\xf1Y'l"
p3196
ssS'user_system_models_schools_semester_model'
p3197
(dp3198
g224
(dp3199
g1477
S'user_system_models_schools_semester_model.html'
p3200
sg1479
S'user_system/models/schools/semester_model'
p3201
sg1481
g13
(g14
g15
NtRp3202
(dp3203
g18
I1
sg19
I0
sg20
I23
sg21
I0
sg22
I0
sg23
I0
sg24
I0
sbssg233
S'\x9f&7d<%\x13 \xcaht\xc4\xd4N\xee&'
p3204
ssS'create_views_daily_quest_copies_daily_quest_copy_view'
p3205
(dp3206
g442
(dp3207
g1568
S'create_views_daily_quest_copies_daily_quest_copy_view.html'
p3208
sg1570
S'create/views/daily_quest_copies/daily_quest_copy_view'
p3209
sg1572
g13
(g14
g15
NtRp3210
(dp3211
g18
I1
sg19
I0
sg20
I14
sg21
I0
sg22
I0
sg23
I0
sg24
I0
sbssg451
S'?\x95&\\\xae\xf0@\xfc\x96\xc15\xc9\x13\xf6_R'
p3212
ssS'flipped_helpers_parameters_helper'
p3213
(dp3214
g42
(dp3215
g31
S'flipped_helpers_parameters_helper.html'
p3216
sg33
S'flipped/helpers/parameters_helper'
p3217
sg35
g13
(g14
g15
NtRp3218
(dp3219
g18
I1
sg19
I14
sg20
I22
sg21
I0
sg22
I1
sg23
I4
sg24
I3
sbssg51
S'v\xe1\xf5\xb3r\x1f\xae\xee\x872U\xa1I\xf8\xef\x00'
p3220
ssS'user_system_models___init__'
p3221
(dp3222
g42
(dp3223
g57
S'user_system_models___init__.html'
p3224
sg59
S'user_system/models/__init__'
p3225
sg61
g13
(g14
g15
NtRp3226
(dp3227
g18
I1
sg19
I0
sg20
I4
sg21
I0
sg22
I0
sg23
I0
sg24
I0
sbssg51
S"\xe9'\xed1xn\xd7\xe4\x91\x8ei\xc0\x0f\x1b\x9eY"
p3228
ssS'create_models_questions_tests_test_question_model'
p3229
(dp3230
g42
(dp3231
g1250
S'create_models_questions_tests_test_question_model.html'
p3232
sg1252
S'create/models/questions/tests/test_question_model'
p3233
sg1254
g13
(g14
g15
NtRp3234
(dp3235
g18
I1
sg19
I8
sg20
I58
sg21
I0
sg22
I0
sg23
I0
sg24
I0
sbssg51
S'l\x9e\xee!<,L\xbf\xa0\xe6\r\xd7W\xc9tu'
p3236
ssS'user_system_models_users_tests_test_user_profile_history_model'
p3237
(dp3238
g137
(dp3239
g31
S'user_system_models_users_tests_test_user_profile_history_model.html'
p3240
sg33
S'user_system/models/users/tests/test_user_profile_history_model'
p3241
sg35
g13
(g14
g15
NtRp3242
(dp3243
g18
I1
sg19
I0
sg20
I54
sg21
I0
sg22
I0
sg23
I0
sg24
I0
sbssg143
S'<IT\xa7\x05\xe0ML\xb0gu{\xd2>\xc8$'
p3244
ssS'learn_views___init__'
p3245
(dp3246
g68
(dp3247
g214
S'learn_views___init__.html'
p3248
sg216
S'learn/views/__init__'
p3249
sg218
g13
(g14
g15
NtRp3250
(dp3251
g18
I1
sg19
I0
sg20
I2
sg21
I0
sg22
I0
sg23
I0
sg24
I0
sbssg77
S"?\xc0'\xcb\x1c\xf1\xaa\xf0\x9d\xc7\x0e\xf1\xda\x0eU\x17"
p3252
ssS'create_serializers_questions___init__'
p3253
(dp3254
g42
(dp3255
g214
S'create_serializers_questions___init__.html'
p3256
sg216
S'create/serializers/questions/__init__'
p3257
sg218
g13
(g14
g15
NtRp3258
(dp3259
g18
I1
sg19
I0
sg20
I5
sg21
I0
sg22
I0
sg23
I0
sg24
I0
sbssg51
S'\xe6(4O\xf6\xd4\xe4\x154\xe9\xa1;\x0cD\x90\t'
p3260
ssS'user_system_views_signups_hardcoded_tests___init__'
p3261
(dp3262
g42
(dp3263
g477
S'user_system_views_signups_hardcoded_tests___init__.html'
p3264
sg479
S'user_system/views/signups/hardcoded/tests/__init__'
p3265
sg481
g13
(g14
g15
NtRp3266
(dp3267
g18
I1
sg19
I0
sg20
I0
sg21
I0
sg22
I0
sg23
I0
sg24
I0
sbssg51
S'\x19g\xdfM\x1a\x019\xaf\x1baIeR\xe5u\xa7'
p3268
ssS'create_serializers_questions_question_serializer'
p3269
(dp3270
g42
(dp3271
g106
S'create_serializers_questions_question_serializer.html'
p3272
sg108
S'create/serializers/questions/question_serializer'
p3273
sg110
g13
(g14
g15
NtRp3274
(dp3275
g18
I1
sg19
I0
sg20
I59
sg21
I0
sg22
I0
sg23
I11
sg24
I0
sbssg51
S'\xd6f\xc4\xe6\x97\xe4~\xa4n\xcc+|\xcc\xdayh'
p3276
ssS'user_system_views___init__'
p3277
(dp3278
g42
(dp3279
g57
S'user_system_views___init__.html'
p3280
sg59
S'user_system/views/__init__'
p3281
sg61
g13
(g14
g15
NtRp3282
(dp3283
g18
I1
sg19
I0
sg20
I6
sg21
I0
sg22
I0
sg23
I0
sg24
I0
sbssg51
S'F\xa0L<\x89\xf6\x17C\x98\xb9\xf9\x9c\x08\xff\x8d\x8a'
p3284
ssS'user_system_views_users_user_profile_update_request_view'
p3285
(dp3286
g137
(dp3287
S'html_filename'
p3288
S'user_system_views_users_user_profile_update_request_view.html'
p3289
sS'name'
p3290
S'user_system/views/users/user_profile_update_request_view'
p3291
sS'nums'
p3292
g13
(g14
g15
NtRp3293
(dp3294
g18
I1
sg19
I24
sg20
I70
sg21
I0
sg22
I0
sg23
I51
sg24
I24
sbssg143
S"\x04\xfd\x81?\x1e<^\xb0%\xad\xa6'\xcf\xa1\xc3)"
p3295
ssS'teach_admin'
p3296
(dp3297
g68
(dp3298
g214
S'teach_admin.html'
p3299
sg216
S'teach/admin'
p3300
sg218
g13
(g14
g15
NtRp3301
(dp3302
g18
I1
sg19
I0
sg20
I6
sg21
I0
sg22
I0
sg23
I0
sg24
I0
sbssg77
S'\xa5$\xa3\xb8$\xe4Z\x9b\xcbO\x9f\xc1\x02b\x95N'
p3303
ssS'user_system_views_roles_user_role_view'
p3304
(dp3305
g42
(dp3306
g44
S'user_system_views_roles_user_role_view.html'
p3307
sg46
S'user_system/views/roles/user_role_view'
p3308
sg48
g13
(g14
g15
NtRp3309
(dp3310
g18
I1
sg19
I8
sg20
I31
sg21
I0
sg22
I0
sg23
I0
sg24
I0
sbssg51
S'S@\xea\xb7\xd6\xe1\x1b\x1dU\x18a\x9d\x80\xe3A\xb9'
p3311
ssS'create_models_questions_tests_test_question_history_remark_model'
p3312
(dp3313
g620
(dp3314
g622
S'create_models_questions_tests_test_question_history_remark_model.html'
p3315
sg624
S'create/models/questions/tests/test_question_history_remark_model'
p3316
sg626
g13
(g14
g15
NtRp3317
(dp3318
g18
I1
sg19
I0
sg20
I30
sg21
I0
sg22
I0
sg23
I0
sg24
I0
sbssg629
S'K>pG_\xbd\x15\x8b\xd8\x05\xd4\x15\xb3\x9b\xcaP'
p3319
ssS'api_logging_serializers___init__'
p3320
(dp3321
g325
(dp3322
g57
S'api_logging_serializers___init__.html'
p3323
sg59
S'api_logging/serializers/__init__'
p3324
sg61
g13
(g14
g15
NtRp3325
(dp3326
g18
I1
sg19
I0
sg20
I3
sg21
I0
sg22
I0
sg23
I0
sg24
I0
sbssg331
S'k\xcf\xab\xc1\x97\xc9\x1a\x1f\xc7f\x86\xc9\x05S\xc4\x15'
p3327
ssS'user_system_models_users_tests_test_user_facebook_model'
p3328
(dp3329
g42
(dp3330
g44
S'user_system_models_users_tests_test_user_facebook_model.html'
p3331
sg46
S'user_system/models/users/tests/test_user_facebook_model'
p3332
sg48
g13
(g14
g15
NtRp3333
(dp3334
g18
I1
sg19
I0
sg20
I29
sg21
I0
sg22
I0
sg23
I0
sg24
I0
sbssg51
S'B\xac\x06Z\x1f7\xba2\x81\xd7\xb4\x17\xaf\x84u+'
p3335
ssS'user_system_models_users_user_credentials_model'
p3336
(dp3337
S'index'
p3338
(dp3339
g2135
S'user_system_models_users_user_credentials_model.html'
p3340
sg2137
S'user_system/models/users/user_credentials_model'
p3341
sg2139
g13
(g14
g15
NtRp3342
(dp3343
g18
I1
sg19
I0
sg20
I7
sg21
I0
sg22
I0
sg23
I0
sg24
I0
sbssS'hash'
p3344
S'g\x10U/\x1f\x83\x0bO\x95o\x9c9\xefV\x81\x8e'
p3345
ssS'create_serializers_books___init__'
p3346
(dp3347
g377
(dp3348
g808
S'create_serializers_books___init__.html'
p3349
sg810
S'create/serializers/books/__init__'
p3350
sg812
g13
(g14
g15
NtRp3351
(dp3352
g18
I1
sg19
I0
sg20
I0
sg21
I0
sg22
I0
sg23
I0
sg24
I0
sbssg383
S'\x19g\xdfM\x1a\x019\xaf\x1baIeR\xe5u\xa7'
p3353
ssS'api_logging_models_user_activities_user_agent_model'
p3354
(dp3355
g55
(dp3356
g57
S'api_logging_models_user_activities_user_agent_model.html'
p3357
sg59
S'api_logging/models/user_activities/user_agent_model'
p3358
sg61
g13
(g14
g15
NtRp3359
(dp3360
g18
I1
sg19
I0
sg20
I14
sg21
I0
sg22
I0
sg23
I3
sg24
I0
sbssg64
S'\xff%\xca\x02Mb5a\xf8Qr\x85\x95|\xa4\x95'
p3361
ssS'create_models_questions_tests_test_question_template_model'
p3362
(dp3363
g116
(dp3364
g1027
S'create_models_questions_tests_test_question_template_model.html'
p3365
sg1029
S'create/models/questions/tests/test_question_template_model'
p3366
sg1031
g13
(g14
g15
NtRp3367
(dp3368
g18
I1
sg19
I8
sg20
I74
sg21
I0
sg22
I0
sg23
I0
sg24
I0
sbssg125
S"~\xca\x9c'\x89\x11\x82V\xb3v\x0c4]\x9c\xce4"
p3369
ssS'create_views_quests_tests_test_add_question_template_view'
p3370
(dp3371
g6
(dp3372
g8
S'create_views_quests_tests_test_add_question_template_view.html'
p3373
sg10
S'create/views/quests/tests/test_add_question_template_view'
p3374
sg12
g13
(g14
g15
NtRp3375
(dp3376
g18
I1
sg19
I0
sg20
I0
sg21
I0
sg22
I0
sg23
I0
sg24
I0
sbssg25
S'\x19g\xdfM\x1a\x019\xaf\x1baIeR\xe5u\xa7'
p3377
ssS'learn_models_points_tests___init__'
p3378
(dp3379
g325
(dp3380
g214
S'learn_models_points_tests___init__.html'
p3381
sg216
S'learn/models/points/tests/__init__'
p3382
sg218
g13
(g14
g15
NtRp3383
(dp3384
g18
I1
sg19
I0
sg20
I1
sg21
I0
sg22
I0
sg23
I0
sg24
I0
sbssg331
S'\xbc\xd6\xeb\xb3\xba\xcaz\xf7{\xd4B\xb5}l\xdf\x96'
p3385
ssS'create_views_tags_tests_test_hide_tag_view'
p3386
(dp3387
g455
(dp3388
g44
S'create_views_tags_tests_test_hide_tag_view.html'
p3389
sg46
S'create/views/tags/tests/test_hide_tag_view'
p3390
sg48
g13
(g14
g15
NtRp3391
(dp3392
g18
I1
sg19
I0
sg20
I25
sg21
I0
sg22
I0
sg23
I0
sg24
I0
sbssg464
S'\x8a\x07\xe0\xe1Q\x820\x05R\x14E\xd0\xdf\x8e\xc5\x8a'
p3393
ssS'learn_views_daily_quests___init__'
p3394
(dp3395
g68
(dp3396
g57
S'learn_views_daily_quests___init__.html'
p3397
sg59
S'learn/views/daily_quests/__init__'
p3398
sg61
g13
(g14
g15
NtRp3399
(dp3400
g18
I1
sg19
I0
sg20
I2
sg21
I0
sg22
I0
sg23
I0
sg24
I0
sbssg77
S'\xad\xdd\x80\xbb7\xc5N\x06>w\xed\xf2F\x83+\t'
p3401
ssS'user_system_views_batch_processing___init__'
p3402
(dp3403
g55
(dp3404
g57
S'user_system_views_batch_processing___init__.html'
p3405
sg59
S'user_system/views/batch_processing/__init__'
p3406
sg61
g13
(g14
g15
NtRp3407
(dp3408
g18
I1
sg19
I0
sg20
I1
sg21
I0
sg22
I0
sg23
I0
sg24
I0
sbssg64
S'\x11\xaa\xa5O\xecz\xb9\x06\xf9\x1bZ\xd3\xf3\x8bm]'
p3409
ssS'create_views_books_tests___init__'
p3410
(dp3411
g970
(dp3412
S'html_filename'
p3413
S'create_views_books_tests___init__.html'
p3414
sS'name'
p3415
S'create/views/books/tests/__init__'
p3416
sS'nums'
p3417
g13
(g14
g15
NtRp3418
(dp3419
g18
I1
sg19
I0
sg20
I0
sg21
I0
sg22
I0
sg23
I0
sg24
I0
sbssg976
S'\x19g\xdfM\x1a\x019\xaf\x1baIeR\xe5u\xa7'
p3420
ssS'user_system_models_users_tests_test_user_streak_history_model'
p3421
(dp3422
S'index'
p3423
(dp3424
g1285
S'user_system_models_users_tests_test_user_streak_history_model.html'
p3425
sg1287
S'user_system/models/users/tests/test_user_streak_history_model'
p3426
sg1289
g13
(g14
g15
NtRp3427
(dp3428
g18
I1
sg19
I0
sg20
I19
sg21
I0
sg22
I0
sg23
I0
sg24
I0
sbssS'hash'
p3429
S'\xc7I1\x11\xc9\xbf7\xee\x1c\x16@\x10JP\xaf\xfc'
p3430
sssS'version'
p3431
S'3.7.1'
p3432
sS'settings'
p3433
S'\x961E{\x0c29\xd1#\x83\xd3j9"\xd8\x10'
p3434
sS'format'
p3435
I1
s.