(dp1
S'files'
p2
(dp3
S'create_views_quests_tests_test_add_tag_view'
p4
(dp5
S'index'
p6
(dp7
S'html_filename'
p8
S'create_views_quests_tests_test_add_tag_view.html'
p9
sS'name'
p10
S'create/views/quests/tests/test_add_tag_view'
p11
sS'nums'
p12
ccopy_reg
_reconstructor
p13
(ccoverage.results
Numbers
p14
c__builtin__
object
p15
NtRp16
(dp17
S'n_files'
p18
I1
sS'n_branches'
p19
I0
sS'n_statements'
p20
I35
sS'n_excluded'
p21
I0
sS'n_partial_branches'
p22
I0
sS'n_missing'
p23
I0
sS'n_missing_branches'
p24
I0
sbssS'hash'
p25
S'o\xbe\xf1\xf9\x80\xe5|\xbab\xcc\xe2F=\x1e\xacp'
p26
ssS'user_system_models_users_teacher_profile_model'
p27
(dp28
S'index'
p29
(dp30
S'html_filename'
p31
S'user_system_models_users_teacher_profile_model.html'
p32
sS'name'
p33
S'user_system/models/users/teacher_profile_model'
p34
sS'nums'
p35
g13
(g14
g15
NtRp36
(dp37
g18
I1
sg19
I0
sg20
I27
sg21
I0
sg22
I0
sg23
I0
sg24
I0
sbssS'hash'
p38
S'x\x9e\x06\xe6\x8d\x87\xed\xaf\x91\x87\x16\xfc"\x96\xf2\xfc'
p39
ssS'user_system_views_signups_facebook_signup_view'
p40
(dp41
S'index'
p42
(dp43
S'html_filename'
p44
S'user_system_views_signups_facebook_signup_view.html'
p45
sS'name'
p46
S'user_system/views/signups/facebook_signup_view'
p47
sS'nums'
p48
g13
(g14
g15
NtRp49
(dp50
g18
I1
sg19
I8
sg20
I38
sg21
I0
sg22
I0
sg23
I0
sg24
I0
sbssS'hash'
p51
S'\x04E\'\x17r8\x14\xf6 \x98\xb5\xa0sx"@'
p52
ssS'teach_models_teacher_tags___init__'
p53
(dp54
S'index'
p55
(dp56
S'html_filename'
p57
S'teach_models_teacher_tags___init__.html'
p58
sS'name'
p59
S'teach/models/teacher_tags/__init__'
p60
sS'nums'
p61
g13
(g14
g15
NtRp62
(dp63
g18
I1
sg19
I0
sg20
I1
sg21
I0
sg22
I0
sg23
I0
sg24
I0
sbssS'hash'
p64
S"\x15#y\x16\x1a\x9d\xc6mE\xccg]\x07\xb9'\xe0"
p65
ssS'user_system_models_users_user_facebook_model'
p66
(dp67
g42
(dp68
g44
S'user_system_models_users_user_facebook_model.html'
p69
sg46
S'user_system/models/users/user_facebook_model'
p70
sg48
g13
(g14
g15
NtRp71
(dp72
g18
I1
sg19
I0
sg20
I22
sg21
I0
sg22
I0
sg23
I0
sg24
I0
sbssg51
S'!d\xff\xbcl0O(`\x1b1\xf7\xb3*{X'
p73
ssS'teach_models_teacher_chapters___init__'
p74
(dp75
g55
(dp76
g57
S'teach_models_teacher_chapters___init__.html'
p77
sg59
S'teach/models/teacher_chapters/__init__'
p78
sg61
g13
(g14
g15
NtRp79
(dp80
g18
I1
sg19
I0
sg20
I1
sg21
I0
sg22
I0
sg23
I0
sg24
I0
sbssg64
S'\xfa\xce(\x03\x8d\xd7\xc1h\xedT\xf9d\xae\x03w^'
p81
ssS'user_system_views_logins_facebook_login_view'
p82
(dp83
g42
(dp84
g44
S'user_system_views_logins_facebook_login_view.html'
p85
sg46
S'user_system/views/logins/facebook_login_view'
p86
sg48
g13
(g14
g15
NtRp87
(dp88
g18
I1
sg19
I4
sg20
I24
sg21
I0
sg22
I0
sg23
I0
sg24
I0
sbssg51
S',\xf8~\x8d\x9b\xfe\xa6wQ5\x92t\x15\xe5\x95\x8d'
p89
ssS'create_serializers_questions_question_history_serializer'
p90
(dp91
g42
(dp92
S'html_filename'
p93
S'create_serializers_questions_question_history_serializer.html'
p94
sS'name'
p95
S'create/serializers/questions/question_history_serializer'
p96
sS'nums'
p97
g13
(g14
g15
NtRp98
(dp99
g18
I1
sg19
I2
sg20
I30
sg21
I0
sg22
I1
sg23
I2
sg24
I1
sbssg51
S'C\x93,\xa4\xac3\xb6\xb8\xca\x076\xae\x14\x15\xc0J'
p100
ssS'create_serializers_quests_quest_history_serializer'
p101
(dp102
S'index'
p103
(dp104
S'html_filename'
p105
S'create_serializers_quests_quest_history_serializer.html'
p106
sS'name'
p107
S'create/serializers/quests/quest_history_serializer'
p108
sS'nums'
p109
g13
(g14
g15
NtRp110
(dp111
g18
I1
sg19
I0
sg20
I38
sg21
I0
sg22
I0
sg23
I15
sg24
I0
sbssS'hash'
p112
S'\x0c\x10\x81\x11\xc3\xff\x01\x8d<#\xe5~\x84\xec\x18\xfd'
p113
ssS'user_system_models_users_tests_test_student_profile_request_model'
p114
(dp115
S'index'
p116
(dp117
g31
S'user_system_models_users_tests_test_student_profile_request_model.html'
p118
sg33
S'user_system/models/users/tests/test_student_profile_request_model'
p119
sg35
g13
(g14
g15
NtRp120
(dp121
g18
I1
sg19
I0
sg20
I42
sg21
I0
sg22
I0
sg23
I0
sg24
I0
sbssS'hash'
p122
S'\x0c4FG\x9bD\x9e\xaa\xb9a\xd6\xee\xc6&0T'
p123
ssS'create_views_books_tests_test_add_chapter_view'
p124
(dp125
S'index'
p126
(dp127
g44
S'create_views_books_tests_test_add_chapter_view.html'
p128
sg46
S'create/views/books/tests/test_add_chapter_view'
p129
sg48
g13
(g14
g15
NtRp130
(dp131
g18
I1
sg19
I0
sg20
I69
sg21
I0
sg22
I0
sg23
I0
sg24
I0
sbssS'hash'
p132
S'\xea\xcd\x81\xff\xe6p74\xe3\xab\xc2R\x1aZ#Y'
p133
ssS'teach_models_teacher_chapters_tests_test_teacher_chapter_model'
p134
(dp135
g55
(dp136
g57
S'teach_models_teacher_chapters_tests_test_teacher_chapter_model.html'
p137
sg59
S'teach/models/teacher_chapters/tests/test_teacher_chapter_model'
p138
sg61
g13
(g14
g15
NtRp139
(dp140
g18
I1
sg19
I0
sg20
I28
sg21
I0
sg22
I0
sg23
I0
sg24
I0
sbssg64
S'm\xb2B\x1a\x04\xa5\x94N\xbe\xb6\xfa\xa9\x16J\x10\x92'
p141
ssS'create_serializers_question_datasets___init__'
p142
(dp143
S'index'
p144
(dp145
S'html_filename'
p146
S'create_serializers_question_datasets___init__.html'
p147
sS'name'
p148
S'create/serializers/question_datasets/__init__'
p149
sS'nums'
p150
g13
(g14
g15
NtRp151
(dp152
g18
I1
sg19
I0
sg20
I1
sg21
I0
sg22
I0
sg23
I0
sg24
I0
sbssS'hash'
p153
S'Z\xf8\x02Tc\xc1C;<_\x87\xc6\xc2H\xa6\xdc'
p154
ssS'user_system_models_users_user_profile_model'
p155
(dp156
g42
(dp157
S'html_filename'
p158
S'user_system_models_users_user_profile_model.html'
p159
sS'name'
p160
S'user_system/models/users/user_profile_model'
p161
sS'nums'
p162
g13
(g14
g15
NtRp163
(dp164
g18
I1
sg19
I48
sg20
I178
sg21
I0
sg22
I0
sg23
I24
sg24
I6
sbssg51
S'\xf2\xb8\xecp\xaf\xff\n\xe3b\x06\xe8\xc3p\xf9\xe4W'
p165
ssS'create_models_question_datasets_tests_test_question_dataset_model'
p166
(dp167
g144
(dp168
g146
S'create_models_question_datasets_tests_test_question_dataset_model.html'
p169
sg148
S'create/models/question_datasets/tests/test_question_dataset_model'
p170
sg150
g13
(g14
g15
NtRp171
(dp172
g18
I1
sg19
I2
sg20
I39
sg21
I0
sg22
I0
sg23
I0
sg24
I0
sbssg153
S'!\t\x88\xfc\x0f\xaa\x0c\x88\xe3\xf9\x04\xd1\\0w\xf1'
p173
ssS'user_system_models_users___init__'
p174
(dp175
g42
(dp176
S'html_filename'
p177
S'user_system_models_users___init__.html'
p178
sS'name'
p179
S'user_system/models/users/__init__'
p180
sS'nums'
p181
g13
(g14
g15
NtRp182
(dp183
g18
I1
sg19
I0
sg20
I11
sg21
I0
sg22
I0
sg23
I0
sg24
I0
sbssg51
S'\x81\xefKrW:\x98\xa0\xfbl\x17\xe1E\xb8..'
p184
ssS'teach_urls'
p185
(dp186
g55
(dp187
S'html_filename'
p188
S'teach_urls.html'
p189
sS'name'
p190
S'teach/urls'
p191
sS'nums'
p192
g13
(g14
g15
NtRp193
(dp194
g18
I1
sg19
I0
sg20
I13
sg21
I0
sg22
I0
sg23
I0
sg24
I0
sbssg64
S'1\xa6\x90\x84\xbf\x9b\x9at\x1f4\xf1\x1b\x92\x03\xff%'
p195
ssS'learn_serializers_daily_quests___init__'
p196
(dp197
g55
(dp198
g177
S'learn_serializers_daily_quests___init__.html'
p199
sg179
S'learn/serializers/daily_quests/__init__'
p200
sg181
g13
(g14
g15
NtRp201
(dp202
g18
I1
sg19
I0
sg20
I2
sg21
I0
sg22
I0
sg23
I0
sg24
I0
sbssg64
S'\x8e\x0b\xa4\xc1x\xdb]\xcc\xf6 \x7f\xbeO\x91\xca@'
p203
ssS'user_system_models_schools___init__'
p204
(dp205
S'index'
p206
(dp207
S'html_filename'
p208
S'user_system_models_schools___init__.html'
p209
sS'name'
p210
S'user_system/models/schools/__init__'
p211
sS'nums'
p212
g13
(g14
g15
NtRp213
(dp214
g18
I1
sg19
I0
sg20
I6
sg21
I0
sg22
I0
sg23
I0
sg24
I0
sbssS'hash'
p215
S'\xbe\xc9\xb2f\x05\x1f\xe6\xee\xef\x01#\xe8\x16\xc2\x83\xdb'
p216
ssS'create_views_questions_tests_test_remove_tag_view'
p217
(dp218
S'index'
p219
(dp220
S'html_filename'
p221
S'create_views_questions_tests_test_remove_tag_view.html'
p222
sS'name'
p223
S'create/views/questions/tests/test_remove_tag_view'
p224
sS'nums'
p225
g13
(g14
g15
NtRp226
(dp227
g18
I1
sg19
I0
sg20
I36
sg21
I0
sg22
I0
sg23
I0
sg24
I0
sbssS'hash'
p228
S'\xbdV1EN\xfe\x8e;\xe4\x92\x91r\xd6Q\x03\x80'
p229
ssS'user_system_models_users_tests_test_student_profile_model'
p230
(dp231
S'index'
p232
(dp233
g177
S'user_system_models_users_tests_test_student_profile_model.html'
p234
sg179
S'user_system/models/users/tests/test_student_profile_model'
p235
sg181
g13
(g14
g15
NtRp236
(dp237
g18
I1
sg19
I0
sg20
I48
sg21
I0
sg22
I0
sg23
I0
sg24
I0
sbssS'hash'
p238
S'\n_\xb5B0\x1dR\x0b\x16i\x1fy.Z\x14#'
p239
ssS'create_views_daily_quest_templates___init__'
p240
(dp241
S'index'
p242
(dp243
S'html_filename'
p244
S'create_views_daily_quest_templates___init__.html'
p245
sS'name'
p246
S'create/views/daily_quest_templates/__init__'
p247
sS'nums'
p248
g13
(g14
g15
NtRp249
(dp250
g18
I1
sg19
I0
sg20
I1
sg21
I0
sg22
I0
sg23
I0
sg24
I0
sbssS'hash'
p251
S'\xc1b\x1f\x95\xabR`C\xe80\xb9tNC\r3'
p252
ssS'learn___init__'
p253
(dp254
g55
(dp255
g57
S'learn___init__.html'
p256
sg59
S'learn/__init__'
p257
sg61
g13
(g14
g15
NtRp258
(dp259
g18
I1
sg19
I0
sg20
I0
sg21
I0
sg22
I0
sg23
I0
sg24
I0
sbssg64
S'\x19g\xdfM\x1a\x019\xaf\x1baIeR\xe5u\xa7'
p260
ssS'create_serializers_quests___init__'
p261
(dp262
g103
(dp263
g31
S'create_serializers_quests___init__.html'
p264
sg33
S'create/serializers/quests/__init__'
p265
sg35
g13
(g14
g15
NtRp266
(dp267
g18
I1
sg19
I0
sg20
I2
sg21
I0
sg22
I0
sg23
I0
sg24
I0
sbssg112
S'\xc0,Fh\xaf\xa0(\x8f\xde\x02{\x88!\x04\x7f\xb6'
p268
ssS'teach_views_teacher_chapters___init__'
p269
(dp270
g55
(dp271
g57
S'teach_views_teacher_chapters___init__.html'
p272
sg59
S'teach/views/teacher_chapters/__init__'
p273
sg61
g13
(g14
g15
NtRp274
(dp275
g18
I1
sg19
I0
sg20
I1
sg21
I0
sg22
I0
sg23
I0
sg24
I0
sbssg64
S'\x10AP\xc9\nC\xd2REz\xf6\xe5\xd2(\xee`'
p276
ssS'user_system_models_users_student_profile_request_model'
p277
(dp278
g116
(dp279
g31
S'user_system_models_users_student_profile_request_model.html'
p280
sg33
S'user_system/models/users/student_profile_request_model'
p281
sg35
g13
(g14
g15
NtRp282
(dp283
g18
I1
sg19
I0
sg20
I45
sg21
I0
sg22
I0
sg23
I0
sg24
I0
sbssg122
S'\xeeZA}\xa0\xf5\x88k0a2\x9fS\xf3}\x05'
p284
ssS'privilege_models___init__'
p285
(dp286
S'index'
p287
(dp288
g93
S'privilege_models___init__.html'
p289
sg95
S'privilege/models/__init__'
p290
sg97
g13
(g14
g15
NtRp291
(dp292
g18
I1
sg19
I0
sg20
I1
sg21
I0
sg22
I0
sg23
I0
sg24
I0
sbssS'hash'
p293
S'\x13V\xca}S\xd3\x98Rp?\xb0\xe1\x904>b'
p294
ssS'user_system_views_users_teacher_mapping_view'
p295
(dp296
S'index'
p297
(dp298
g177
S'user_system_views_users_teacher_mapping_view.html'
p299
sg179
S'user_system/views/users/teacher_mapping_view'
p300
sg181
g13
(g14
g15
NtRp301
(dp302
g18
I1
sg19
I0
sg20
I14
sg21
I0
sg22
I0
sg23
I0
sg24
I0
sbssS'hash'
p303
S'B\x04t\x93Z\x86Q.\x17\xf9\xa0*\xf6\x86\xcf\x10'
p304
ssS'create_views_tags_tests_test_search_tag_view'
p305
(dp306
S'index'
p307
(dp308
g93
S'create_views_tags_tests_test_search_tag_view.html'
p309
sg95
S'create/views/tags/tests/test_search_tag_view'
p310
sg97
g13
(g14
g15
NtRp311
(dp312
g18
I1
sg19
I0
sg20
I22
sg21
I0
sg22
I0
sg23
I0
sg24
I0
sbssS'hash'
p313
S'\rh\xcb\xb3g\x15\x9c\xe3hR\xc5r\xb9\x9c\xb2\x1f'
p314
ssS'create_views_questions_tests_test_hide_question_view'
p315
(dp316
g42
(dp317
g44
S'create_views_questions_tests_test_hide_question_view.html'
p318
sg46
S'create/views/questions/tests/test_hide_question_view'
p319
sg48
g13
(g14
g15
NtRp320
(dp321
g18
I1
sg19
I0
sg20
I30
sg21
I0
sg22
I0
sg23
I0
sg24
I0
sbssg51
S'\xb3\x10S\x8a\x9b\xecw\xaa\xd3\x81\x1b\xf2\xab\xb2QG'
p322
ssS'user_system_serializers_users_student_profile_request_serializer'
p323
(dp324
g116
(dp325
g31
S'user_system_serializers_users_student_profile_request_serializer.html'
p326
sg33
S'user_system/serializers/users/student_profile_request_serializer'
p327
sg35
g13
(g14
g15
NtRp328
(dp329
g18
I1
sg19
I0
sg20
I8
sg21
I0
sg22
I0
sg23
I0
sg24
I0
sbssg122
S'\xa9VJ\x07M\x02\xee$\t\xc8O\xc43$\x1a-'
p330
ssS'create_views_question_datasets_question_dataset_view'
p331
(dp332
g144
(dp333
g146
S'create_views_question_datasets_question_dataset_view.html'
p334
sg148
S'create/views/question_datasets/question_dataset_view'
p335
sg150
g13
(g14
g15
NtRp336
(dp337
g18
I1
sg19
I4
sg20
I20
sg21
I0
sg22
I0
sg23
I5
sg24
I4
sbssg153
S'\x01\xfb\xf2\x86m\xd4\xf9\xc3\xe6\xb6\x11\x96u;\x1ez'
p338
ssS'teach_models_campaigns___init__'
p339
(dp340
g116
(dp341
g31
S'teach_models_campaigns___init__.html'
p342
sg33
S'teach/models/campaigns/__init__'
p343
sg35
g13
(g14
g15
NtRp344
(dp345
g18
I1
sg19
I0
sg20
I1
sg21
I0
sg22
I0
sg23
I0
sg24
I0
sbssg122
S'\xba\x82\x818\x88\xe0\xf2#\xe9\x89\xffso\xdc\xe6\xd4'
p346
ssS'create_serializers_books_book_chapter_serializer'
p347
(dp348
S'index'
p349
(dp350
g57
S'create_serializers_books_book_chapter_serializer.html'
p351
sg59
S'create/serializers/books/book_chapter_serializer'
p352
sg61
g13
(g14
g15
NtRp353
(dp354
g18
I1
sg19
I0
sg20
I23
sg21
I0
sg22
I0
sg23
I3
sg24
I0
sbssS'hash'
p355
S'\xf1~, f\x89\xad\xc8p\xcc\xd4E_\x0b3\x06'
p356
ssS'api_logging_models_api_logging_api_logging_model'
p357
(dp358
g297
(dp359
g177
S'api_logging_models_api_logging_api_logging_model.html'
p360
sg179
S'api_logging/models/api_logging/api_logging_model'
p361
sg181
g13
(g14
g15
NtRp362
(dp363
g18
I1
sg19
I0
sg20
I21
sg21
I0
sg22
I0
sg23
I0
sg24
I0
sbssg303
S'\x0c\x96WFX%\xe9\xcf+\xcf\xc2s\xa7a1\xbd'
p364
ssS'create_models_question_datasets___init__'
p365
(dp366
g144
(dp367
g146
S'create_models_question_datasets___init__.html'
p368
sg148
S'create/models/question_datasets/__init__'
p369
sg150
g13
(g14
g15
NtRp370
(dp371
g18
I1
sg19
I0
sg20
I1
sg21
I0
sg22
I0
sg23
I0
sg24
I0
sbssg153
S'\xeb\xb7>&t\x02-\xeaaJ,\x8a\xae\xc3\x1a]'
p372
ssS'user_system_urls'
p373
(dp374
g42
(dp375
g177
S'user_system_urls.html'
p376
sg179
S'user_system/urls'
p377
sg181
g13
(g14
g15
NtRp378
(dp379
g18
I1
sg19
I0
sg20
I17
sg21
I0
sg22
I0
sg23
I0
sg24
I0
sbssg51
S'SKXe\xb2\x8f\xd8\xdc\xf3\x99\xa6\x9e.\x82\x96\xe9'
p380
ssS'create_models_tags_tests_test_tag_type_model'
p381
(dp382
S'index'
p383
(dp384
g44
S'create_models_tags_tests_test_tag_type_model.html'
p385
sg46
S'create/models/tags/tests/test_tag_type_model'
p386
sg48
g13
(g14
g15
NtRp387
(dp388
g18
I1
sg19
I0
sg20
I17
sg21
I0
sg22
I0
sg23
I0
sg24
I0
sbssS'hash'
p389
S'?6\xfcg\xce\x11\x1a7E\xaf\xb2\x02\t"\xddA'
p390
ssS'create_models_quests_quest_history_model'
p391
(dp392
g103
(dp393
g8
S'create_models_quests_quest_history_model.html'
p394
sg10
S'create/models/quests/quest_history_model'
p395
sg12
g13
(g14
g15
NtRp396
(dp397
g18
I1
sg19
I8
sg20
I75
sg21
I0
sg22
I3
sg23
I4
sg24
I3
sbssg112
S'@\xe7\xfa\x02?w\xe7\x93\xa3\x85\x0f\x0fz\xf0\xdbR'
p398
ssS'learn_models_daily_quests_tests_test_daily_quest_question_history_model'
p399
(dp400
S'index'
p401
(dp402
g158
S'learn_models_daily_quests_tests_test_daily_quest_question_history_model.html'
p403
sg160
S'learn/models/daily_quests/tests/test_daily_quest_question_history_model'
p404
sg162
g13
(g14
g15
NtRp405
(dp406
g18
I1
sg19
I0
sg20
I47
sg21
I0
sg22
I0
sg23
I0
sg24
I0
sbssS'hash'
p407
S'\x04\x1c\xfax\x9bA\x05\xc4\x07\xb1\x96F\x8aI\x13\xa6'
p408
ssS'create_models_daily_quest_copies_daily_quest_copy_model'
p409
(dp410
S'index'
p411
(dp412
S'html_filename'
p413
S'create_models_daily_quest_copies_daily_quest_copy_model.html'
p414
sS'name'
p415
S'create/models/daily_quest_copies/daily_quest_copy_model'
p416
sS'nums'
p417
g13
(g14
g15
NtRp418
(dp419
g18
I1
sg19
I6
sg20
I47
sg21
I0
sg22
I0
sg23
I14
sg24
I6
sbssS'hash'
p420
S'\x90\xa7\xba\xee\x88\xf84\xf7\xd1B\x9b9@\\\x80P'
p421
ssS'create_views_tags_tests___init__'
p422
(dp423
S'index'
p424
(dp425
S'html_filename'
p426
S'create_views_tags_tests___init__.html'
p427
sS'name'
p428
S'create/views/tags/tests/__init__'
p429
sS'nums'
p430
g13
(g14
g15
NtRp431
(dp432
g18
I1
sg19
I0
sg20
I0
sg21
I0
sg22
I0
sg23
I0
sg24
I0
sbssS'hash'
p433
S'\x19g\xdfM\x1a\x019\xaf\x1baIeR\xe5u\xa7'
p434
ssS'user_system_models_apps_app_model'
p435
(dp436
g42
(dp437
g44
S'user_system_models_apps_app_model.html'
p438
sg46
S'user_system/models/apps/app_model'
p439
sg48
g13
(g14
g15
NtRp440
(dp441
g18
I1
sg19
I0
sg20
I16
sg21
I0
sg22
I0
sg23
I0
sg24
I0
sbssg51
S',\x89\x9d;<\xa3\xdc\x92@\xa5\x9c\x7fcg\x05?'
p442
ssS'user_system_views_apps_tests___init__'
p443
(dp444
g42
(dp445
S'html_filename'
p446
S'user_system_views_apps_tests___init__.html'
p447
sS'name'
p448
S'user_system/views/apps/tests/__init__'
p449
sS'nums'
p450
g13
(g14
g15
NtRp451
(dp452
g18
I1
sg19
I0
sg20
I0
sg21
I0
sg22
I0
sg23
I0
sg24
I0
sbssg51
S'\x19g\xdfM\x1a\x019\xaf\x1baIeR\xe5u\xa7'
p453
ssS'privilege___init__'
p454
(dp455
g287
(dp456
g93
S'privilege___init__.html'
p457
sg95
S'privilege/__init__'
p458
sg97
g13
(g14
g15
NtRp459
(dp460
g18
I1
sg19
I0
sg20
I0
sg21
I0
sg22
I0
sg23
I0
sg24
I0
sbssg293
S'\x19g\xdfM\x1a\x019\xaf\x1baIeR\xe5u\xa7'
p461
ssS'create_views_books___init__'
p462
(dp463
g349
(dp464
S'html_filename'
p465
S'create_views_books___init__.html'
p466
sS'name'
p467
S'create/views/books/__init__'
p468
sS'nums'
p469
g13
(g14
g15
NtRp470
(dp471
g18
I1
sg19
I0
sg20
I3
sg21
I0
sg22
I0
sg23
I0
sg24
I0
sbssg355
S'\xce\x13\xc8S|wF\xe3\x148\xa0?ez,\xc4'
p472
ssS'create_models_books_book_chapter_model'
p473
(dp474
g349
(dp475
g31
S'create_models_books_book_chapter_model.html'
p476
sg33
S'create/models/books/book_chapter_model'
p477
sg35
g13
(g14
g15
NtRp478
(dp479
g18
I1
sg19
I8
sg20
I58
sg21
I0
sg22
I1
sg23
I3
sg24
I3
sbssg355
S'5h\xa3E\x99\xf4H\x97\xbf\x08?=+K\xe7\xad'
p480
ssS'user_system_admin'
p481
(dp482
g42
(dp483
g177
S'user_system_admin.html'
p484
sg179
S'user_system/admin'
p485
sg181
g13
(g14
g15
NtRp486
(dp487
g18
I1
sg19
I0
sg20
I25
sg21
I0
sg22
I0
sg23
I0
sg24
I0
sbssg51
S',\xc1@k;\x98\x80\xb5\xbc\xab\x11\xf3\xdc\x0b\xd1U'
p488
ssS'user_system_serializers_users_teacher_profile_serializer'
p489
(dp490
g116
(dp491
g31
S'user_system_serializers_users_teacher_profile_serializer.html'
p492
sg33
S'user_system/serializers/users/teacher_profile_serializer'
p493
sg35
g13
(g14
g15
NtRp494
(dp495
g18
I1
sg19
I4
sg20
I20
sg21
I0
sg22
I0
sg23
I9
sg24
I4
sbssg122
S'\xe2\xa5\xba\xd6e\xc2\x88\xab\xaes\x15\x08\xa9ta\xd6'
p496
ssS'user_system_models_users_tests___init__'
p497
(dp498
g42
(dp499
g446
S'user_system_models_users_tests___init__.html'
p500
sg448
S'user_system/models/users/tests/__init__'
p501
sg450
g13
(g14
g15
NtRp502
(dp503
g18
I1
sg19
I0
sg20
I0
sg21
I0
sg22
I0
sg23
I0
sg24
I0
sbssg51
S'\x19g\xdfM\x1a\x019\xaf\x1baIeR\xe5u\xa7'
p504
ssS'user_system_models_users_user_profile_picture_model'
p505
(dp506
g116
(dp507
g31
S'user_system_models_users_user_profile_picture_model.html'
p508
sg33
S'user_system/models/users/user_profile_picture_model'
p509
sg35
g13
(g14
g15
NtRp510
(dp511
g18
I1
sg19
I0
sg20
I18
sg21
I0
sg22
I0
sg23
I0
sg24
I0
sbssg122
S'$E\xff\xf5f,\xb2\xc7\xb4\x9b*\x0es|s\xcc'
p512
ssS'teach_models_teacher_tags_teacher_tag_model'
p513
(dp514
g55
(dp515
g57
S'teach_models_teacher_tags_teacher_tag_model.html'
p516
sg59
S'teach/models/teacher_tags/teacher_tag_model'
p517
sg61
g13
(g14
g15
NtRp518
(dp519
g18
I1
sg19
I0
sg20
I30
sg21
I0
sg22
I0
sg23
I0
sg24
I0
sbssg64
S'\\\xb6A\xa8\xa7\x93\x16K\xceQ>\xe8t\xdb<#'
p520
ssS'teach_models_daily_quest_templates_daily_quest_template_model'
p521
(dp522
g55
(dp523
g177
S'teach_models_daily_quest_templates_daily_quest_template_model.html'
p524
sg179
S'teach/models/daily_quest_templates/daily_quest_template_model'
p525
sg181
g13
(g14
g15
NtRp526
(dp527
g18
I1
sg19
I0
sg20
I32
sg21
I0
sg22
I0
sg23
I1
sg24
I0
sbssg64
S"\xf8\xcd\xe9T\xea\x98\xb1\xcb\xd1\xfe\xdca\xa4b'`"
p528
ssS'create_views_books_tests_test_add_subchapter_view'
p529
(dp530
S'index'
p531
(dp532
g44
S'create_views_books_tests_test_add_subchapter_view.html'
p533
sg46
S'create/views/books/tests/test_add_subchapter_view'
p534
sg48
g13
(g14
g15
NtRp535
(dp536
g18
I1
sg19
I0
sg20
I60
sg21
I0
sg22
I0
sg23
I0
sg24
I0
sbssS'hash'
p537
S"\xcc^2\xc4\xf2\xb1\xdc\xe8\xf0t\xb6\xcc\x1f\xce\xf1'"
p538
ssS'create_models_quests_quest_model'
p539
(dp540
g103
(dp541
S'html_filename'
p542
S'create_models_quests_quest_model.html'
p543
sS'name'
p544
S'create/models/quests/quest_model'
p545
sS'nums'
p546
g13
(g14
g15
NtRp547
(dp548
g18
I1
sg19
I4
sg20
I59
sg21
I0
sg22
I0
sg23
I13
sg24
I4
sbssg112
S'^g\x1e\x82\xee1[\xc0\xbe\x04\xca\xb1`M\xe7\xe9'
p549
ssS'user_system_views_users_tests_test_remove_role_view'
p550
(dp551
g42
(dp552
g44
S'user_system_views_users_tests_test_remove_role_view.html'
p553
sg46
S'user_system/views/users/tests/test_remove_role_view'
p554
sg48
g13
(g14
g15
NtRp555
(dp556
g18
I1
sg19
I0
sg20
I42
sg21
I0
sg22
I0
sg23
I0
sg24
I0
sbssg51
S'\xfb\x9b\xa3\xe5\x90\xe7q99\x19\x10"<@L\x8c'
p557
ssS'create_models_tags_tests_test_tag_history_model'
p558
(dp559
S'index'
p560
(dp561
g57
S'create_models_tags_tests_test_tag_history_model.html'
p562
sg59
S'create/models/tags/tests/test_tag_history_model'
p563
sg61
g13
(g14
g15
NtRp564
(dp565
g18
I1
sg19
I0
sg20
I58
sg21
I0
sg22
I0
sg23
I0
sg24
I0
sbssS'hash'
p566
S"\x05Y\xa9\xba\xf0\xa8\xd2*7_\xcb]\xfb*#'"
p567
ssS'teach_views_teacher_news_feed___init__'
p568
(dp569
g297
(dp570
g177
S'teach_views_teacher_news_feed___init__.html'
p571
sg179
S'teach/views/teacher_news_feed/__init__'
p572
sg181
g13
(g14
g15
NtRp573
(dp574
g18
I1
sg19
I0
sg20
I1
sg21
I0
sg22
I0
sg23
I0
sg24
I0
sbssg303
S'\xe8\xcd\xf3\x9f\xa3=;`\xf0oZ\xcb!\x98\xac\x1c'
p575
ssS'create_views_daily_quest_templates_daily_quest_template_view'
p576
(dp577
g242
(dp578
g244
S'create_views_daily_quest_templates_daily_quest_template_view.html'
p579
sg246
S'create/views/daily_quest_templates/daily_quest_template_view'
p580
sg248
g13
(g14
g15
NtRp581
(dp582
g18
I1
sg19
I4
sg20
I20
sg21
I0
sg22
I0
sg23
I5
sg24
I4
sbssg251
S'*(w\xa3\x82\x06\xe8D\x8c\xaa+3\xbc\xe3\xa5\x1d'
p583
ssS'create_models_questions_question_history_remark_model'
p584
(dp585
S'index'
p586
(dp587
S'html_filename'
p588
S'create_models_questions_question_history_remark_model.html'
p589
sS'name'
p590
S'create/models/questions/question_history_remark_model'
p591
sS'nums'
p592
g13
(g14
g15
NtRp593
(dp594
g18
I1
sg19
I0
sg20
I27
sg21
I0
sg22
I0
sg23
I0
sg24
I0
sbssS'hash'
p595
S'\xac"G5\x1c\xf2\xef\xa9\x1dUd\xce4.\xac\xa4'
p596
ssS'learn_serializers___init__'
p597
(dp598
g55
(dp599
g57
S'learn_serializers___init__.html'
p600
sg59
S'learn/serializers/__init__'
p601
sg61
g13
(g14
g15
NtRp602
(dp603
g18
I1
sg19
I0
sg20
I1
sg21
I0
sg22
I0
sg23
I0
sg24
I0
sbssg64
S'cLP\xd9\xc0\x91mD\xa3\xd2\xbczr\xdak\xf4'
p604
ssS'user_system_views_schools___init__'
p605
(dp606
g116
(dp607
g31
S'user_system_views_schools___init__.html'
p608
sg33
S'user_system/views/schools/__init__'
p609
sg35
g13
(g14
g15
NtRp610
(dp611
g18
I1
sg19
I0
sg20
I2
sg21
I0
sg22
I0
sg23
I0
sg24
I0
sbssg122
S'\x85\xe2\x7f\xa7\xac\x16HY\x8b\x10\x9b\xc0r\x17|\x8c'
p612
ssS'create_views_quests___init__'
p613
(dp614
g103
(dp615
S'html_filename'
p616
S'create_views_quests___init__.html'
p617
sS'name'
p618
S'create/views/quests/__init__'
p619
sS'nums'
p620
g13
(g14
g15
NtRp621
(dp622
g18
I1
sg19
I0
sg20
I1
sg21
I0
sg22
I0
sg23
I0
sg24
I0
sbssg112
S'\x8d\x97\x8c^6\xf0o\xc3_\x8dRQ}\xd2]a'
p623
ssS'user_system_models_schools_tests_test_course_model'
p624
(dp625
g232
(dp626
S'html_filename'
p627
S'user_system_models_schools_tests_test_course_model.html'
p628
sS'name'
p629
S'user_system/models/schools/tests/test_course_model'
p630
sS'nums'
p631
g13
(g14
g15
NtRp632
(dp633
g18
I1
sg19
I8
sg20
I50
sg21
I0
sg22
I0
sg23
I0
sg24
I0
sbssg238
S'\xd7va\xe6uR6*v\xca\x885\xf3]$1'
p634
ssS'create_models_question_datasets_tests___init__'
p635
(dp636
g144
(dp637
g146
S'create_models_question_datasets_tests___init__.html'
p638
sg148
S'create/models/question_datasets/tests/__init__'
p639
sg150
g13
(g14
g15
NtRp640
(dp641
g18
I1
sg19
I0
sg20
I0
sg21
I0
sg22
I0
sg23
I0
sg24
I0
sbssg153
S'\x19g\xdfM\x1a\x019\xaf\x1baIeR\xe5u\xa7'
p642
ssS'api_logging_models_modal_logging_modal_model'
p643
(dp644
g297
(dp645
g177
S'api_logging_models_modal_logging_modal_model.html'
p646
sg179
S'api_logging/models/modal_logging/modal_model'
p647
sg181
g13
(g14
g15
NtRp648
(dp649
g18
I1
sg19
I0
sg20
I19
sg21
I0
sg22
I0
sg23
I5
sg24
I0
sbssg303
S'\x0f\x1e\xac\x00_hQ\xcb\xa2\xa8\xf4@\xb9\x97\x9c\x1e'
p650
ssS'user_system_views_signups_hardcoded_test_account_view'
p651
(dp652
g42
(dp653
g44
S'user_system_views_signups_hardcoded_test_account_view.html'
p654
sg46
S'user_system/views/signups/hardcoded/test_account_view'
p655
sg48
g13
(g14
g15
NtRp656
(dp657
g18
I1
sg19
I2
sg20
I18
sg21
I0
sg22
I0
sg23
I0
sg24
I0
sbssg51
S"\xb4\xf1\xfdH\x8f\xf1QX7'\\\xd3\xab.\xbc\x80"
p658
ssS'user_system_views_users_create_student_view'
p659
(dp660
g297
(dp661
g177
S'user_system_views_users_create_student_view.html'
p662
sg179
S'user_system/views/users/create_student_view'
p663
sg181
g13
(g14
g15
NtRp664
(dp665
g18
I1
sg19
I2
sg20
I37
sg21
I0
sg22
I0
sg23
I24
sg24
I2
sbssg303
S'\x8e\xce\xac\xe9\xe3J4\xbb\x88$\xefFS\x06Ow'
p666
ssS'teach_serializers_teacher_tags___init__'
p667
(dp668
g55
(dp669
g57
S'teach_serializers_teacher_tags___init__.html'
p670
sg59
S'teach/serializers/teacher_tags/__init__'
p671
sg61
g13
(g14
g15
NtRp672
(dp673
g18
I1
sg19
I0
sg20
I1
sg21
I0
sg22
I0
sg23
I0
sg24
I0
sbssg64
S'Q\xc1\xe2\xf5*\x8fJ\xddv\xe7\x91\xd1S\xf5\xa9\xa3'
p674
ssS'learn_models_daily_quests_tests___init__'
p675
(dp676
g55
(dp677
g57
S'learn_models_daily_quests_tests___init__.html'
p678
sg59
S'learn/models/daily_quests/tests/__init__'
p679
sg61
g13
(g14
g15
NtRp680
(dp681
g18
I1
sg19
I0
sg20
I1
sg21
I0
sg22
I0
sg23
I0
sg24
I0
sbssg64
S'\xbc\xd6\xeb\xb3\xba\xcaz\xf7{\xd4B\xb5}l\xdf\x96'
p682
ssS'user_system_views_signups___init__'
p683
(dp684
g42
(dp685
g446
S'user_system_views_signups___init__.html'
p686
sg448
S'user_system/views/signups/__init__'
p687
sg450
g13
(g14
g15
NtRp688
(dp689
g18
I1
sg19
I0
sg20
I4
sg21
I0
sg22
I0
sg23
I0
sg24
I0
sbssg51
S'\x02\x1d\x90mQ#+\xc5\x93\xdb\xa4Hs\xcf\xa8\x97'
p690
ssS'create_views_tags_tag_view'
p691
(dp692
g424
(dp693
g105
S'create_views_tags_tag_view.html'
p694
sg107
S'create/views/tags/tag_view'
p695
sg109
g13
(g14
g15
NtRp696
(dp697
g18
I1
sg19
I32
sg20
I92
sg21
I0
sg22
I8
sg23
I13
sg24
I16
sbssg433
S'\xd5\xd6\xf9\xa6U<\xf82\xe0xx\x06}\xa5\xeb\xe7'
p698
ssS'api_logging_managers'
p699
(dp700
g560
(dp701
g44
S'api_logging_managers.html'
p702
sg46
S'api_logging/managers'
p703
sg48
g13
(g14
g15
NtRp704
(dp705
g18
I1
sg19
I0
sg20
I4
sg21
I0
sg22
I0
sg23
I0
sg24
I0
sbssg566
S'\xef\xaf\x98\xcd63\x10\x1c\xc1\xfcP\x12\xc1\xe7\xa5\xc7'
p706
ssS'teach_models_campaigns_campaign_model'
p707
(dp708
g116
(dp709
g177
S'teach_models_campaigns_campaign_model.html'
p710
sg179
S'teach/models/campaigns/campaign_model'
p711
sg181
g13
(g14
g15
NtRp712
(dp713
g18
I1
sg19
I0
sg20
I40
sg21
I0
sg22
I0
sg23
I0
sg24
I0
sbssg122
S'>\xc8\xe2\xfb\xdd\xc1"@\xea/\xe1\xbb\xf1\xa4\x80\x0f'
p714
ssS'create_views_tags_tests_test_add_prerequisite_view'
p715
(dp716
g307
(dp717
g44
S'create_views_tags_tests_test_add_prerequisite_view.html'
p718
sg46
S'create/views/tags/tests/test_add_prerequisite_view'
p719
sg48
g13
(g14
g15
NtRp720
(dp721
g18
I1
sg19
I0
sg20
I26
sg21
I0
sg22
I0
sg23
I0
sg24
I0
sbssg313
S'\xd2\xef\x02\xe1{\xbc\x9b\xf3\x8b\xbd\xf0\xd2\xe7\xcc\xb5\xa4'
p722
ssS'create_models_tags___init__'
p723
(dp724
g383
(dp725
S'html_filename'
p726
S'create_models_tags___init__.html'
p727
sS'name'
p728
S'create/models/tags/__init__'
p729
sS'nums'
p730
g13
(g14
g15
NtRp731
(dp732
g18
I1
sg19
I0
sg20
I5
sg21
I0
sg22
I0
sg23
I0
sg24
I0
sbssg389
S'\xcck\xb0R5)\xa8c\xdb\xa6\xfb\xec\x18 \xde}'
p733
ssS'teach_models_campaigns_tests___init__'
p734
(dp735
g116
(dp736
g31
S'teach_models_campaigns_tests___init__.html'
p737
sg33
S'teach/models/campaigns/tests/__init__'
p738
sg35
g13
(g14
g15
NtRp739
(dp740
g18
I1
sg19
I0
sg20
I0
sg21
I0
sg22
I0
sg23
I0
sg24
I0
sbssg122
S'\x19g\xdfM\x1a\x019\xaf\x1baIeR\xe5u\xa7'
p741
ssS'learn_views_student_news_feed___init__'
p742
(dp743
g297
(dp744
g177
S'learn_views_student_news_feed___init__.html'
p745
sg179
S'learn/views/student_news_feed/__init__'
p746
sg181
g13
(g14
g15
NtRp747
(dp748
g18
I1
sg19
I0
sg20
I1
sg21
I0
sg22
I0
sg23
I0
sg24
I0
sbssg303
S'\xc5\x87\xccQ|\xa2\xee\x11p\x84\xfe\xed\xe3W\xfa\x07'
p749
ssS'create_models_daily_quests___init__'
p750
(dp751
S'index'
p752
(dp753
S'html_filename'
p754
S'create_models_daily_quests___init__.html'
p755
sS'name'
p756
S'create/models/daily_quests/__init__'
p757
sS'nums'
p758
g13
(g14
g15
NtRp759
(dp760
g18
I1
sg19
I0
sg20
I1
sg21
I0
sg22
I0
sg23
I0
sg24
I0
sbssS'hash'
p761
S'\x94\x0eB\xb3\x8e\xc6\x81\xc0\x16\x84P.\x11:\x8e\xc9'
p762
ssS'teach_views_teacher_chapters_teacher_chapter_view'
p763
(dp764
g55
(dp765
g31
S'teach_views_teacher_chapters_teacher_chapter_view.html'
p766
sg33
S'teach/views/teacher_chapters/teacher_chapter_view'
p767
sg35
g13
(g14
g15
NtRp768
(dp769
g18
I1
sg19
I12
sg20
I44
sg21
I0
sg22
I0
sg23
I25
sg24
I12
sbssg64
S'Z\xc5\n\xdb\xe5!2~7\xe3i\xa7j\xd4\x10\x8c'
p770
ssS'create_serializers_tags_concept_serializer'
p771
(dp772
g349
(dp773
S'html_filename'
p774
S'create_serializers_tags_concept_serializer.html'
p775
sS'name'
p776
S'create/serializers/tags/concept_serializer'
p777
sS'nums'
p778
g13
(g14
g15
NtRp779
(dp780
g18
I1
sg19
I0
sg20
I6
sg21
I0
sg22
I0
sg23
I0
sg24
I0
sbssg355
S'\xf1\xe0\xc7%%\xbd\xfc@\x12\x02\x96\xbb\x0c\xbf\x9fq'
p781
ssS'create_serializers_questions_question_history_remark_serializer'
p782
(dp783
g586
(dp784
g588
S'create_serializers_questions_question_history_remark_serializer.html'
p785
sg590
S'create/serializers/questions/question_history_remark_serializer'
p786
sg592
g13
(g14
g15
NtRp787
(dp788
g18
I1
sg19
I0
sg20
I6
sg21
I0
sg22
I0
sg23
I0
sg24
I0
sbssg595
S'\xb53\t\x11\xa6\x1b\xf7!D"\xc8\xa3\xcb41\x9d'
p789
ssS'user_system_models_roles_tests___init__'
p790
(dp791
g42
(dp792
g446
S'user_system_models_roles_tests___init__.html'
p793
sg448
S'user_system/models/roles/tests/__init__'
p794
sg450
g13
(g14
g15
NtRp795
(dp796
g18
I1
sg19
I0
sg20
I0
sg21
I0
sg22
I0
sg23
I0
sg24
I0
sbssg51
S'\x19g\xdfM\x1a\x019\xaf\x1baIeR\xe5u\xa7'
p797
ssS'create_serializers_tags___init__'
p798
(dp799
S'index'
p800
(dp801
S'html_filename'
p802
S'create_serializers_tags___init__.html'
p803
sS'name'
p804
S'create/serializers/tags/__init__'
p805
sS'nums'
p806
g13
(g14
g15
NtRp807
(dp808
g18
I1
sg19
I0
sg20
I0
sg21
I0
sg22
I0
sg23
I0
sg24
I0
sbssS'hash'
p809
S'\x19g\xdfM\x1a\x019\xaf\x1baIeR\xe5u\xa7'
p810
ssS'privilege_urls'
p811
(dp812
g287
(dp813
g93
S'privilege_urls.html'
p814
sg95
S'privilege/urls'
p815
sg97
g13
(g14
g15
NtRp816
(dp817
g18
I1
sg19
I0
sg20
I7
sg21
I0
sg22
I0
sg23
I0
sg24
I0
sbssg293
S'\x86\xbf\xcdE\x8fy\xc9\xd5\x13I\x11#-J.\xe8'
p818
ssS'flipped_helpers_time_helper'
p819
(dp820
g116
(dp821
g177
S'flipped_helpers_time_helper.html'
p822
sg179
S'flipped/helpers/time_helper'
p823
sg181
g13
(g14
g15
NtRp824
(dp825
g18
I1
sg19
I2
sg20
I26
sg21
I0
sg22
I0
sg23
I17
sg24
I2
sbssg122
S'\xc4\x9dt\xafh9\xf1\xa5\xbe\xbd\xe6\xb9G\xd0\xcf\xad'
p826
ssS'create_serializers_daily_quests___init__'
p827
(dp828
g752
(dp829
g244
S'create_serializers_daily_quests___init__.html'
p830
sg246
S'create/serializers/daily_quests/__init__'
p831
sg248
g13
(g14
g15
NtRp832
(dp833
g18
I1
sg19
I0
sg20
I1
sg21
I0
sg22
I0
sg23
I0
sg24
I0
sbssg761
S'N\xb8\x18\x1c\x0c\xc7\xca\x91\xa0|\xe1\x02L\xeeC\xbe'
p834
ssS'api_logging_views_LoggingView'
p835
(dp836
g297
(dp837
g177
S'api_logging_views_LoggingView.html'
p838
sg179
S'api_logging/views/LoggingView'
p839
sg181
g13
(g14
g15
NtRp840
(dp841
g18
I1
sg19
I8
sg20
I41
sg21
I0
sg22
I0
sg23
I27
sg24
I8
sbssg303
S'\xe3\xefQ\x1e\x9e\xec\xea\xa7\xc5\x05\xb9\x90\xf6\xf3\x88\x9b'
p842
ssS'create_models_questions_tests_test_question_type_model'
p843
(dp844
g42
(dp845
g44
S'create_models_questions_tests_test_question_type_model.html'
p846
sg46
S'create/models/questions/tests/test_question_type_model'
p847
sg48
g13
(g14
g15
NtRp848
(dp849
g18
I1
sg19
I0
sg20
I17
sg21
I0
sg22
I0
sg23
I0
sg24
I0
sbssg51
S'e\x1b\x19\xbb)\x89\xff\xfa\xe5\xca\xde\x08\x08CUL'
p850
ssS'teach_models___init__'
p851
(dp852
g55
(dp853
g31
S'teach_models___init__.html'
p854
sg33
S'teach/models/__init__'
p855
sg35
g13
(g14
g15
NtRp856
(dp857
g18
I1
sg19
I0
sg20
I4
sg21
I0
sg22
I0
sg23
I0
sg24
I0
sbssg64
S'\x18\xb4\x9a\xf6\x89\xe4oR\x81\xdbb\xf7E\xf9\x92\xb7'
p858
ssS'create_models_tags_skill_model'
p859
(dp860
g383
(dp861
g44
S'create_models_tags_skill_model.html'
p862
sg46
S'create/models/tags/skill_model'
p863
sg48
g13
(g14
g15
NtRp864
(dp865
g18
I1
sg19
I0
sg20
I10
sg21
I0
sg22
I0
sg23
I0
sg24
I0
sbssg389
S'B&\x06S\xb6\x85A\xdbx\xd4\xc7#]\x13\xe1\xca'
p866
ssS'learn_tests'
p867
(dp868
g55
(dp869
g57
S'learn_tests.html'
p870
sg59
S'learn/tests'
p871
sg61
g13
(g14
g15
NtRp872
(dp873
g18
I1
sg19
I0
sg20
I1
sg21
I0
sg22
I0
sg23
I0
sg24
I0
sbssg64
S'\xe3\x7f\x86\xaa\x99\xac\xc8\x80\xdblE4\x0f\xe7\x1d\xfc'
p874
ssS'learn_models_daily_quests_daily_quest_model'
p875
(dp876
g55
(dp877
S'html_filename'
p878
S'learn_models_daily_quests_daily_quest_model.html'
p879
sS'name'
p880
S'learn/models/daily_quests/daily_quest_model'
p881
sS'nums'
p882
g13
(g14
g15
NtRp883
(dp884
g18
I1
sg19
I20
sg20
I118
sg21
I0
sg22
I0
sg23
I36
sg24
I20
sbssg64
S'{S\xf8!\x88\xe9\xef\x10C\xba\xf8z\xfcae*'
p885
ssS'api_logging_views___init__'
p886
(dp887
g297
(dp888
g177
S'api_logging_views___init__.html'
p889
sg179
S'api_logging/views/__init__'
p890
sg181
g13
(g14
g15
NtRp891
(dp892
g18
I1
sg19
I0
sg20
I3
sg21
I0
sg22
I0
sg23
I0
sg24
I0
sbssg303
S'_Q\x0f\x0cLb\xd8Cm\xa7\x81g\xaa\x95\xbdd'
p893
ssS'create_models_books___init__'
p894
(dp895
g349
(dp896
g774
S'create_models_books___init__.html'
p897
sg776
S'create/models/books/__init__'
p898
sg778
g13
(g14
g15
NtRp899
(dp900
g18
I1
sg19
I0
sg20
I4
sg21
I0
sg22
I0
sg23
I0
sg24
I0
sbssg355
S'\xba\x14\x87u\xc0\x80\x96\x82s\x8d\x8bU)\x1c\xc3\x91'
p901
ssS'flipped_helpers___init__'
p902
(dp903
g42
(dp904
g177
S'flipped_helpers___init__.html'
p905
sg179
S'flipped/helpers/__init__'
p906
sg181
g13
(g14
g15
NtRp907
(dp908
g18
I1
sg19
I0
sg20
I5
sg21
I0
sg22
I0
sg23
I0
sg24
I0
sbssg51
S'\x95\xcd\x9a\xf9\xe3\xd8\xff\x94\x81\xae\x9c\x14\xc0P\x95~'
p909
ssS'create_models_quests_tests_test_quest_model'
p910
(dp911
g103
(dp912
g542
S'create_models_quests_tests_test_quest_model.html'
p913
sg544
S'create/models/quests/tests/test_quest_model'
p914
sg546
g13
(g14
g15
NtRp915
(dp916
g18
I1
sg19
I4
sg20
I48
sg21
I0
sg22
I0
sg23
I0
sg24
I0
sbssg112
S'\xcdF\x98\xd0k\x14\x9e\xe4\x90\x96\x03\xddNdiH'
p917
ssS'privilege_views_privileges_user_privilege_view'
p918
(dp919
g287
(dp920
g93
S'privilege_views_privileges_user_privilege_view.html'
p921
sg95
S'privilege/views/privileges/user_privilege_view'
p922
sg97
g13
(g14
g15
NtRp923
(dp924
g18
I1
sg19
I10
sg20
I38
sg21
I0
sg22
I0
sg23
I22
sg24
I10
sbssg293
S'\xf699\xa5A\xca\x9e\x91,l\xf8\x8dI[PR'
p925
ssS'learn_models_daily_quests_tests_test_daily_quest_model'
p926
(dp927
g55
(dp928
g878
S'learn_models_daily_quests_tests_test_daily_quest_model.html'
p929
sg880
S'learn/models/daily_quests/tests/test_daily_quest_model'
p930
sg882
g13
(g14
g15
NtRp931
(dp932
g18
I1
sg19
I2
sg20
I95
sg21
I0
sg22
I0
sg23
I0
sg24
I0
sbssg64
S'\xa0?A\x8e\xaep%v\xb7\xab\x8b\xa6W\xd3vr'
p933
ssS'create_views_books_tests_test_get_book_by_id_view'
p934
(dp935
S'index'
p936
(dp937
g93
S'create_views_books_tests_test_get_book_by_id_view.html'
p938
sg95
S'create/views/books/tests/test_get_book_by_id_view'
p939
sg97
g13
(g14
g15
NtRp940
(dp941
g18
I1
sg19
I0
sg20
I20
sg21
I0
sg22
I0
sg23
I0
sg24
I0
sbssS'hash'
p942
S'\xc88x\xaf\x84e\xaa6\x17\xdf\x0e\x8c`\xcaAO'
p943
ssS'user_system_views_apps_tests_test_get_app_by_id_view'
p944
(dp945
g42
(dp946
g44
S'user_system_views_apps_tests_test_get_app_by_id_view.html'
p947
sg46
S'user_system/views/apps/tests/test_get_app_by_id_view'
p948
sg48
g13
(g14
g15
NtRp949
(dp950
g18
I1
sg19
I0
sg20
I17
sg21
I0
sg22
I0
sg23
I0
sg24
I0
sbssg51
S"\xa2\x1eG%r{-~\xc5=\x8aj\x99X!'"
p951
ssS'teach_views_daily_quest_templates_daily_quest_template_view'
p952
(dp953
g55
(dp954
S'html_filename'
p955
S'teach_views_daily_quest_templates_daily_quest_template_view.html'
p956
sS'name'
p957
S'teach/views/daily_quest_templates/daily_quest_template_view'
p958
sS'nums'
p959
g13
(g14
g15
NtRp960
(dp961
g18
I1
sg19
I18
sg20
I54
sg21
I0
sg22
I0
sg23
I33
sg24
I18
sbssg64
S'\x97J\xccM\x9b\xcd1\xaf\x95\xea\xd8\x8d\xdc(\x89['
p962
ssS'api_logging_views_summary___init__'
p963
(dp964
g297
(dp965
g177
S'api_logging_views_summary___init__.html'
p966
sg179
S'api_logging/views/summary/__init__'
p967
sg181
g13
(g14
g15
NtRp968
(dp969
g18
I1
sg19
I0
sg20
I1
sg21
I0
sg22
I0
sg23
I0
sg24
I0
sbssg303
S'\x04\x12bh\x96\xc5j\x88dm\x0e\xd7\xe1\x94Lq'
p970
ssS'privilege_serializers___init__'
p971
(dp972
g287
(dp973
g93
S'privilege_serializers___init__.html'
p974
sg95
S'privilege/serializers/__init__'
p975
sg97
g13
(g14
g15
NtRp976
(dp977
g18
I1
sg19
I0
sg20
I1
sg21
I0
sg22
I0
sg23
I0
sg24
I0
sbssg293
S'\x13V\xca}S\xd3\x98Rp?\xb0\xe1\x904>b'
p978
ssS'create_models_books_tests_test_book_subchapter_model'
p979
(dp980
g349
(dp981
S'html_filename'
p982
S'create_models_books_tests_test_book_subchapter_model.html'
p983
sS'name'
p984
S'create/models/books/tests/test_book_subchapter_model'
p985
sS'nums'
p986
g13
(g14
g15
NtRp987
(dp988
g18
I1
sg19
I0
sg20
I42
sg21
I0
sg22
I0
sg23
I0
sg24
I0
sbssg355
S'\xe3*\xba\x94d#\xcd\t\xc9\xb8\x05w\nz\xb8\xc0'
p989
ssS'learn_models_daily_quests___init__'
p990
(dp991
g55
(dp992
S'html_filename'
p993
S'learn_models_daily_quests___init__.html'
p994
sS'name'
p995
S'learn/models/daily_quests/__init__'
p996
sS'nums'
p997
g13
(g14
g15
NtRp998
(dp999
g18
I1
sg19
I0
sg20
I2
sg21
I0
sg22
I0
sg23
I0
sg24
I0
sbssg64
S's\x11\xbfV}\xab\xfcdH\xcf4Q\xc5\x86\xa3\xb4'
p1000
ssS'create_models_daily_quest_templates_tests___init__'
p1001
(dp1002
g242
(dp1003
g244
S'create_models_daily_quest_templates_tests___init__.html'
p1004
sg246
S'create/models/daily_quest_templates/tests/__init__'
p1005
sg248
g13
(g14
g15
NtRp1006
(dp1007
g18
I1
sg19
I0
sg20
I0
sg21
I0
sg22
I0
sg23
I0
sg24
I0
sbssg251
S'\x19g\xdfM\x1a\x019\xaf\x1baIeR\xe5u\xa7'
p1008
ssS'create_models_tags_tag_model'
p1009
(dp1010
g383
(dp1011
g93
S'create_models_tags_tag_model.html'
p1012
sg95
S'create/models/tags/tag_model'
p1013
sg97
g13
(g14
g15
NtRp1014
(dp1015
g18
I1
sg19
I0
sg20
I37
sg21
I0
sg22
I0
sg23
I0
sg24
I0
sbssg389
S'rJ0\x91]\xe5\xfc\xa8\x8c\x00}RI\x18\xf0\x07'
p1016
ssS'create_views_tags___init__'
p1017
(dp1018
g424
(dp1019
g426
S'create_views_tags___init__.html'
p1020
sg428
S'create/views/tags/__init__'
p1021
sg430
g13
(g14
g15
NtRp1022
(dp1023
g18
I1
sg19
I0
sg20
I1
sg21
I0
sg22
I0
sg23
I0
sg24
I0
sbssg433
S'|r<\xaap\x01\xb1\xbc"\xe5\xbb\xd8\x87\xa5\xd2H'
p1024
ssS'create_serializers_tags_skill_serializer'
p1025
(dp1026
g349
(dp1027
g774
S'create_serializers_tags_skill_serializer.html'
p1028
sg776
S'create/serializers/tags/skill_serializer'
p1029
sg778
g13
(g14
g15
NtRp1030
(dp1031
g18
I1
sg19
I0
sg20
I6
sg21
I0
sg22
I0
sg23
I0
sg24
I0
sbssg355
S'\x1b\x10O\xca\xd5i\\\x06C\x00q}\xf43\xcb\xa6'
p1032
ssS'create_views_questions_question_history_remark_view'
p1033
(dp1034
g586
(dp1035
g588
S'create_views_questions_question_history_remark_view.html'
p1036
sg590
S'create/views/questions/question_history_remark_view'
p1037
sg592
g13
(g14
g15
NtRp1038
(dp1039
g18
I1
sg19
I0
sg20
I14
sg21
I0
sg22
I0
sg23
I0
sg24
I0
sbssg595
S'{4O\x0e\xb3\xad\xc8\xb72\x8f\x1f\x11\xc0\x9e\xa0\xd6'
p1040
ssS'create_serializers_tags_tag_type_serializer'
p1041
(dp1042
g349
(dp1043
g774
S'create_serializers_tags_tag_type_serializer.html'
p1044
sg776
S'create/serializers/tags/tag_type_serializer'
p1045
sg778
g13
(g14
g15
NtRp1046
(dp1047
g18
I1
sg19
I0
sg20
I6
sg21
I0
sg22
I0
sg23
I0
sg24
I0
sbssg355
S'\xc3\xfd\x81\x18{\x97,\xb1\xb6\x9f\xee\xf2kZ\x1e\x02'
p1048
ssS'learn_models_points_tests_test_point_history_model'
p1049
(dp1050
g297
(dp1051
g177
S'learn_models_points_tests_test_point_history_model.html'
p1052
sg179
S'learn/models/points/tests/test_point_history_model'
p1053
sg181
g13
(g14
g15
NtRp1054
(dp1055
g18
I1
sg19
I0
sg20
I22
sg21
I0
sg22
I0
sg23
I0
sg24
I0
sbssg303
S"\x8d\xd7\x96\xe4\x1b\xf6\xc4\xed:B\x13\xa9MA'\x99"
p1056
ssS'learn_serializers_daily_quests_daily_quest_serializer'
p1057
(dp1058
g55
(dp1059
g177
S'learn_serializers_daily_quests_daily_quest_serializer.html'
p1060
sg179
S'learn/serializers/daily_quests/daily_quest_serializer'
p1061
sg181
g13
(g14
g15
NtRp1062
(dp1063
g18
I1
sg19
I2
sg20
I61
sg21
I0
sg22
I0
sg23
I27
sg24
I2
sbssg64
S'\x00\xdc)#U\xf8\x03\xc2\xa7T\x0b\xa9\x13\xa3ds'
p1064
ssS'user_system_models_users_tests_test_user_profile_picture_model'
p1065
(dp1066
g116
(dp1067
g31
S'user_system_models_users_tests_test_user_profile_picture_model.html'
p1068
sg33
S'user_system/models/users/tests/test_user_profile_picture_model'
p1069
sg35
g13
(g14
g15
NtRp1070
(dp1071
g18
I1
sg19
I0
sg20
I21
sg21
I0
sg22
I0
sg23
I0
sg24
I0
sbssg122
S'\xbc/\x93\xf6\x8a\x1eC\x99t\xd0\xdc\x96\xf8\x970\xc9'
p1072
ssS'teach_views_teacher_news_feed_teacher_news_feed_view'
p1073
(dp1074
g297
(dp1075
g177
S'teach_views_teacher_news_feed_teacher_news_feed_view.html'
p1076
sg179
S'teach/views/teacher_news_feed/teacher_news_feed_view'
p1077
sg181
g13
(g14
g15
NtRp1078
(dp1079
g18
I1
sg19
I2
sg20
I40
sg21
I0
sg22
I0
sg23
I20
sg24
I2
sbssg303
S'\xb5\x1f\xeb\x1ec\xf1\x9e\x91\xdap\xb3%\xa2\xeb\x9a\xd8'
p1080
ssS'user_system_serializers_schools_organization_serializer'
p1081
(dp1082
g55
(dp1083
g57
S'user_system_serializers_schools_organization_serializer.html'
p1084
sg59
S'user_system/serializers/schools/organization_serializer'
p1085
sg61
g13
(g14
g15
NtRp1086
(dp1087
g18
I1
sg19
I0
sg20
I7
sg21
I0
sg22
I0
sg23
I0
sg24
I0
sbssg64
S'90~\xe3\x8f\x8e\xd9m\xb4\nInn\x03(\xdb'
p1088
ssS'create_models_books_book_subchapter_model'
p1089
(dp1090
g349
(dp1091
S'html_filename'
p1092
S'create_models_books_book_subchapter_model.html'
p1093
sS'name'
p1094
S'create/models/books/book_subchapter_model'
p1095
sS'nums'
p1096
g13
(g14
g15
NtRp1097
(dp1098
g18
I1
sg19
I2
sg20
I45
sg21
I0
sg22
I0
sg23
I0
sg24
I0
sbssg355
S'\xbc\xee\x91\x7f;\xa9\x15\xeaau\xef\x82\x07"\x02\xd3'
p1099
ssS'teach_views_summaries_leaderboard_view'
p1100
(dp1101
g297
(dp1102
g955
S'teach_views_summaries_leaderboard_view.html'
p1103
sg957
S'teach/views/summaries/leaderboard_view'
p1104
sg959
g13
(g14
g15
NtRp1105
(dp1106
g18
I1
sg19
I62
sg20
I155
sg21
I0
sg22
I0
sg23
I125
sg24
I62
sbssg303
S'\x049\xb52\x89\x16\xd6\xf9\xed\xa4\\vzz7\x90'
p1107
ssS'api_logging_serializers_modal_loggings_modal_user_history_serializer'
p1108
(dp1109
g297
(dp1110
g177
S'api_logging_serializers_modal_loggings_modal_user_history_serializer.html'
p1111
sg179
S'api_logging/serializers/modal_loggings/modal_user_history_serializer'
p1112
sg181
g13
(g14
g15
NtRp1113
(dp1114
g18
I1
sg19
I0
sg20
I7
sg21
I0
sg22
I0
sg23
I0
sg24
I0
sbssg303
S'\xc2\x8f\x89\xe8$\x9c~\x81\xa9\xca\xf8h\x80\xb7hp'
p1115
ssS'learn_models_points___init__'
p1116
(dp1117
g297
(dp1118
g177
S'learn_models_points___init__.html'
p1119
sg179
S'learn/models/points/__init__'
p1120
sg181
g13
(g14
g15
NtRp1121
(dp1122
g18
I1
sg19
I0
sg20
I2
sg21
I0
sg22
I0
sg23
I0
sg24
I0
sbssg303
S'\x1d_\xe1\xcei\x14zD\xd7\x8e\xa1\xf55\x1f\xd1\xd5'
p1123
ssS'api_logging_models___init__'
p1124
(dp1125
g297
(dp1126
g177
S'api_logging_models___init__.html'
p1127
sg179
S'api_logging/models/__init__'
p1128
sg181
g13
(g14
g15
NtRp1129
(dp1130
g18
I1
sg19
I0
sg20
I3
sg21
I0
sg22
I0
sg23
I0
sg24
I0
sbssg303
S'\x9d\r\xed\xba\xe8h@\xa4\xfa(\xf2\xdf\xf5IZ\x9c'
p1131
ssS'teach_serializers___init__'
p1132
(dp1133
g55
(dp1134
g57
S'teach_serializers___init__.html'
p1135
sg59
S'teach/serializers/__init__'
p1136
sg61
g13
(g14
g15
NtRp1137
(dp1138
g18
I1
sg19
I0
sg20
I3
sg21
I0
sg22
I0
sg23
I0
sg24
I0
sbssg64
S'3\x13\x12&\xcb\xecC\xee\xa8lR\x1a\x1d\xb9M\xba'
p1139
ssS'user_system_views_signups_tests___init__'
p1140
(dp1141
g42
(dp1142
g446
S'user_system_views_signups_tests___init__.html'
p1143
sg448
S'user_system/views/signups/tests/__init__'
p1144
sg450
g13
(g14
g15
NtRp1145
(dp1146
g18
I1
sg19
I0
sg20
I1
sg21
I0
sg22
I0
sg23
I0
sg24
I0
sbssg51
S'\xbc\xd6\xeb\xb3\xba\xcaz\xf7{\xd4B\xb5}l\xdf\x96'
p1147
ssS'create_models_daily_quests_tests___init__'
p1148
(dp1149
g752
(dp1150
g754
S'create_models_daily_quests_tests___init__.html'
p1151
sg756
S'create/models/daily_quests/tests/__init__'
p1152
sg758
g13
(g14
g15
NtRp1153
(dp1154
g18
I1
sg19
I0
sg20
I1
sg21
I0
sg22
I0
sg23
I0
sg24
I0
sbssg761
S'\xbc\xd6\xeb\xb3\xba\xcaz\xf7{\xd4B\xb5}l\xdf\x96'
p1155
ssS'api_logging_models_api_logging___init__'
p1156
(dp1157
g297
(dp1158
g177
S'api_logging_models_api_logging___init__.html'
p1159
sg179
S'api_logging/models/api_logging/__init__'
p1160
sg181
g13
(g14
g15
NtRp1161
(dp1162
g18
I1
sg19
I0
sg20
I1
sg21
I0
sg22
I0
sg23
I0
sg24
I0
sbssg303
S'C\xe8\xcf\x97-\xc6\xd3j\xcb\x90*\xea\xd3w\x83\xe0'
p1163
ssS'create_serializers_daily_quests_daily_quest_serializer'
p1164
(dp1165
g242
(dp1166
S'html_filename'
p1167
S'create_serializers_daily_quests_daily_quest_serializer.html'
p1168
sS'name'
p1169
S'create/serializers/daily_quests/daily_quest_serializer'
p1170
sS'nums'
p1171
g13
(g14
g15
NtRp1172
(dp1173
g18
I1
sg19
I0
sg20
I12
sg21
I0
sg22
I0
sg23
I3
sg24
I0
sbssg251
S' $!\xf6\xe6\x92\x9f\x9f\xafy\xe9\x8b\x1c\xf4\xb6\x01'
p1174
ssS'user_system_views_signups_email_signup_view'
p1175
(dp1176
g42
(dp1177
g44
S'user_system_views_signups_email_signup_view.html'
p1178
sg46
S'user_system/views/signups/email_signup_view'
p1179
sg48
g13
(g14
g15
NtRp1180
(dp1181
g18
I1
sg19
I8
sg20
I44
sg21
I0
sg22
I0
sg23
I0
sg24
I0
sbssg51
S'&G\xd1\xc4{\x9b\xbf\x14\x92F\xbe\x13\xeer\x84\x1b'
p1182
ssS'teach_views_teacher_tags___init__'
p1183
(dp1184
g55
(dp1185
g57
S'teach_views_teacher_tags___init__.html'
p1186
sg59
S'teach/views/teacher_tags/__init__'
p1187
sg61
g13
(g14
g15
NtRp1188
(dp1189
g18
I1
sg19
I0
sg20
I1
sg21
I0
sg22
I0
sg23
I0
sg24
I0
sbssg64
S'cp\x00\xdc\x00\xe5M\x9f\x1f\xaa\xb2Y\xd9%\x1d"'
p1190
ssS'flipped_helpers_success_response_helper'
p1191
(dp1192
g42
(dp1193
g44
S'flipped_helpers_success_response_helper.html'
p1194
sg46
S'flipped/helpers/success_response_helper'
p1195
sg48
g13
(g14
g15
NtRp1196
(dp1197
g18
I1
sg19
I2
sg20
I4
sg21
I0
sg22
I0
sg23
I0
sg24
I0
sbssg51
S"'Bp\xbe\xd9\xfa\x92\xa4;\xb6\t\xa8\xfe<\x9d\xa5"
p1198
ssS'create_models_questions_question_model'
p1199
(dp1200
g42
(dp1201
S'html_filename'
p1202
S'create_models_questions_question_model.html'
p1203
sS'name'
p1204
S'create/models/questions/question_model'
p1205
sS'nums'
p1206
g13
(g14
g15
NtRp1207
(dp1208
g18
I1
sg19
I0
sg20
I48
sg21
I0
sg22
I0
sg23
I0
sg24
I0
sbssg51
S'\tGy\xb6\x10\x17dQ\xd7\xd8N>\xd5\x96R\x82'
p1209
ssS'user_system_models_roles___init__'
p1210
(dp1211
g42
(dp1212
g446
S'user_system_models_roles___init__.html'
p1213
sg448
S'user_system/models/roles/__init__'
p1214
sg450
g13
(g14
g15
NtRp1215
(dp1216
g18
I1
sg19
I0
sg20
I2
sg21
I0
sg22
I0
sg23
I0
sg24
I0
sbssg51
S'\xa3\xc2\r\x1b\x1bC\x85\xa5\xads\x7fl\xab`*1'
p1217
ssS'create_models_questions_question_history_model'
p1218
(dp1219
g42
(dp1220
g93
S'create_models_questions_question_history_model.html'
p1221
sg95
S'create/models/questions/question_history_model'
p1222
sg97
g13
(g14
g15
NtRp1223
(dp1224
g18
I1
sg19
I8
sg20
I68
sg21
I0
sg22
I2
sg23
I2
sg24
I2
sbssg51
S'\xd0\xe9\x0bm$j\x15\x9b@\x93\xe5C\xa7\x97\xfd\xf4'
p1225
ssS'user_system_views_signups_tests_test_facebook_signup_view'
p1226
(dp1227
g42
(dp1228
g44
S'user_system_views_signups_tests_test_facebook_signup_view.html'
p1229
sg46
S'user_system/views/signups/tests/test_facebook_signup_view'
p1230
sg48
g13
(g14
g15
NtRp1231
(dp1232
g18
I1
sg19
I0
sg20
I60
sg21
I0
sg22
I0
sg23
I0
sg24
I0
sbssg51
S'\x93<\xc8]\x14\t\xa8/\xdd\xd1\xa4]\xfbp!\xbd'
p1233
ssS'user_system_models_users_tests_test_teacher_mapping_model'
p1234
(dp1235
g29
(dp1236
S'html_filename'
p1237
S'user_system_models_users_tests_test_teacher_mapping_model.html'
p1238
sS'name'
p1239
S'user_system/models/users/tests/test_teacher_mapping_model'
p1240
sS'nums'
p1241
g13
(g14
g15
NtRp1242
(dp1243
g18
I1
sg19
I4
sg20
I35
sg21
I0
sg22
I0
sg23
I0
sg24
I0
sbssg38
S'\x96\x93\xca\x00>\xf7\xc8\xe6:\xb8\x7f\xf5q:\xb6\xaa'
p1244
ssS'learn_views_daily_quests_daily_quest_view'
p1245
(dp1246
g55
(dp1247
g177
S'learn_views_daily_quests_daily_quest_view.html'
p1248
sg179
S'learn/views/daily_quests/daily_quest_view'
p1249
sg181
g13
(g14
g15
NtRp1250
(dp1251
g18
I1
sg19
I16
sg20
I61
sg21
I0
sg22
I0
sg23
I40
sg24
I16
sbssg64
S'\xceiA\x93\xcd>Y\x85L\x07Oz\x9aw\xae;'
p1252
ssS'teach_views_summaries_class_ranking_view'
p1253
(dp1254
g297
(dp1255
g955
S'teach_views_summaries_class_ranking_view.html'
p1256
sg957
S'teach/views/summaries/class_ranking_view'
p1257
sg959
g13
(g14
g15
NtRp1258
(dp1259
g18
I1
sg19
I26
sg20
I84
sg21
I0
sg22
I0
sg23
I61
sg24
I26
sbssg303
S'\xc1\xb3\x83\xe8\x85\xc5\xa4\x88\t\xd0(\xe7\xda\xea\x18\x82'
p1260
ssS'privilege_models_privileges_tests___init__'
p1261
(dp1262
g287
(dp1263
g93
S'privilege_models_privileges_tests___init__.html'
p1264
sg95
S'privilege/models/privileges/tests/__init__'
p1265
sg97
g13
(g14
g15
NtRp1266
(dp1267
g18
I1
sg19
I0
sg20
I0
sg21
I0
sg22
I0
sg23
I0
sg24
I0
sbssg293
S'\x19g\xdfM\x1a\x019\xaf\x1baIeR\xe5u\xa7'
p1268
ssS'teach_serializers_teacher_chapters___init__'
p1269
(dp1270
g55
(dp1271
g57
S'teach_serializers_teacher_chapters___init__.html'
p1272
sg59
S'teach/serializers/teacher_chapters/__init__'
p1273
sg61
g13
(g14
g15
NtRp1274
(dp1275
g18
I1
sg19
I0
sg20
I1
sg21
I0
sg22
I0
sg23
I0
sg24
I0
sbssg64
S'\xfe\x88\xda\x10\xec!\x99\xb7-\x8d\x90E\xe18K\xb1'
p1276
ssS'api_logging_admin'
p1277
(dp1278
g560
(dp1279
g177
S'api_logging_admin.html'
p1280
sg179
S'api_logging/admin'
p1281
sg181
g13
(g14
g15
NtRp1282
(dp1283
g18
I1
sg19
I0
sg20
I10
sg21
I0
sg22
I0
sg23
I0
sg24
I0
sbssg566
S'T\x93\x03\xbcO>\xd1\xd6\xf4\xd3\x15r{\xad0B'
p1284
ssS'user_system_models_users_user_streak_history_model'
p1285
(dp1286
g297
(dp1287
g1237
S'user_system_models_users_user_streak_history_model.html'
p1288
sg1239
S'user_system/models/users/user_streak_history_model'
p1289
sg1241
g13
(g14
g15
NtRp1290
(dp1291
g18
I1
sg19
I0
sg20
I28
sg21
I0
sg22
I0
sg23
I0
sg24
I0
sbssg303
S'w\x85uw\r5\x1a\xa5\xea>\xdaqki`p'
p1292
ssS'create_models_tags_tests_test_concept_model'
p1293
(dp1294
g383
(dp1295
g44
S'create_models_tags_tests_test_concept_model.html'
p1296
sg46
S'create/models/tags/tests/test_concept_model'
p1297
sg48
g13
(g14
g15
NtRp1298
(dp1299
g18
I1
sg19
I0
sg20
I12
sg21
I0
sg22
I0
sg23
I0
sg24
I0
sbssg389
S'@\x95\xd9\xf7\xa5\xc4\x0c\xb1\xad\xa4\xf5p\x95\x06!N'
p1300
ssS'privilege_models_privileges_privilege_model'
p1301
(dp1302
g287
(dp1303
g1237
S'privilege_models_privileges_privilege_model.html'
p1304
sg1239
S'privilege/models/privileges/privilege_model'
p1305
sg1241
g13
(g14
g15
NtRp1306
(dp1307
g18
I1
sg19
I0
sg20
I29
sg21
I0
sg22
I0
sg23
I0
sg24
I0
sbssg293
S'\xa3\xbf\x7fn\x8c\xe8#\xf8\xa9\x95#\xc7\xdb\xf0Y\xe6'
p1308
ssS'create_models_questions_tests_test_question_choice_model'
p1309
(dp1310
g42
(dp1311
S'html_filename'
p1312
S'create_models_questions_tests_test_question_choice_model.html'
p1313
sS'name'
p1314
S'create/models/questions/tests/test_question_choice_model'
p1315
sS'nums'
p1316
g13
(g14
g15
NtRp1317
(dp1318
g18
I1
sg19
I0
sg20
I46
sg21
I0
sg22
I0
sg23
I0
sg24
I0
sbssg51
S'$\x08N\xfb\nW\n\xecG\x9a[\xb7\xe2\xc1\xbd\x06'
p1319
ssS'user_system_views_users_tests_test_get_user_by_id_view'
p1320
(dp1321
g42
(dp1322
g93
S'user_system_views_users_tests_test_get_user_by_id_view.html'
p1323
sg95
S'user_system/views/users/tests/test_get_user_by_id_view'
p1324
sg97
g13
(g14
g15
NtRp1325
(dp1326
g18
I1
sg19
I0
sg20
I27
sg21
I0
sg22
I0
sg23
I0
sg24
I0
sbssg51
S'\xd7\x7f\x0c\xb9\xda.\xf1\x82\xb4\xdf*z\x10(o)'
p1327
ssS'create_models___init__'
p1328
(dp1329
g42
(dp1330
g57
S'create_models___init__.html'
p1331
sg59
S'create/models/__init__'
p1332
sg61
g13
(g14
g15
NtRp1333
(dp1334
g18
I1
sg19
I0
sg20
I6
sg21
I0
sg22
I0
sg23
I0
sg24
I0
sbssg51
S'\x1a\xde\xff\xb8/\x08R\x8e\xff\x13\x8b\xeb`\xfd\x98\xf8'
p1335
ssS'create_serializers_tags_tag_history_serializer'
p1336
(dp1337
S'index'
p1338
(dp1339
g105
S'create_serializers_tags_tag_history_serializer.html'
p1340
sg107
S'create/serializers/tags/tag_history_serializer'
p1341
sg109
g13
(g14
g15
NtRp1342
(dp1343
g18
I1
sg19
I0
sg20
I14
sg21
I0
sg22
I0
sg23
I0
sg24
I0
sbssS'hash'
p1344
S'\xc1"\xf9l4\xe66\x8a\xd0)r!\x05Y+\xd2'
p1345
ssS'create_serializers_daily_quest_templates___init__'
p1346
(dp1347
g242
(dp1348
g244
S'create_serializers_daily_quest_templates___init__.html'
p1349
sg246
S'create/serializers/daily_quest_templates/__init__'
p1350
sg248
g13
(g14
g15
NtRp1351
(dp1352
g18
I1
sg19
I0
sg20
I1
sg21
I0
sg22
I0
sg23
I0
sg24
I0
sbssg251
S'\xa2\xd34\x1b\xe2+\x16\xa9un\x8f\xa5\xe6\xc4\\p'
p1353
ssS'user_system_views_roles_tests___init__'
p1354
(dp1355
g42
(dp1356
g446
S'user_system_views_roles_tests___init__.html'
p1357
sg448
S'user_system/views/roles/tests/__init__'
p1358
sg450
g13
(g14
g15
NtRp1359
(dp1360
g18
I1
sg19
I0
sg20
I0
sg21
I0
sg22
I0
sg23
I0
sg24
I0
sbssg51
S'\x19g\xdfM\x1a\x019\xaf\x1baIeR\xe5u\xa7'
p1361
ssS'api_logging_models_modal_logging___init__'
p1362
(dp1363
g297
(dp1364
g177
S'api_logging_models_modal_logging___init__.html'
p1365
sg179
S'api_logging/models/modal_logging/__init__'
p1366
sg181
g13
(g14
g15
NtRp1367
(dp1368
g18
I1
sg19
I0
sg20
I2
sg21
I0
sg22
I0
sg23
I0
sg24
I0
sbssg303
S"+\x16\xa4\xd1\xf5m\xa9\x9e*\xd0\xa23O'}-"
p1369
ssS'user_system_serializers___init__'
p1370
(dp1371
g42
(dp1372
g57
S'user_system_serializers___init__.html'
p1373
sg59
S'user_system/serializers/__init__'
p1374
sg61
g13
(g14
g15
NtRp1375
(dp1376
g18
I1
sg19
I0
sg20
I3
sg21
I0
sg22
I0
sg23
I0
sg24
I0
sbssg51
S'\x85\x12\xbd.\x85L4\xea\t4\x9c\xcf\xb5 \x81\xb4'
p1377
ssS'teach_models_daily_quest_templates_tests___init__'
p1378
(dp1379
g55
(dp1380
g57
S'teach_models_daily_quest_templates_tests___init__.html'
p1381
sg59
S'teach/models/daily_quest_templates/tests/__init__'
p1382
sg61
g13
(g14
g15
NtRp1383
(dp1384
g18
I1
sg19
I0
sg20
I0
sg21
I0
sg22
I0
sg23
I0
sg24
I0
sbssg64
S'\x19g\xdfM\x1a\x019\xaf\x1baIeR\xe5u\xa7'
p1385
ssS'user_system_serializers_schools_grade_serializer'
p1386
(dp1387
g116
(dp1388
g31
S'user_system_serializers_schools_grade_serializer.html'
p1389
sg33
S'user_system/serializers/schools/grade_serializer'
p1390
sg35
g13
(g14
g15
NtRp1391
(dp1392
g18
I1
sg19
I0
sg20
I9
sg21
I0
sg22
I0
sg23
I0
sg24
I0
sbssg122
S"()\x18t._h'\x1c\x9bV\x14KS\xf6,"
p1393
ssS'create_models_questions_tests___init__'
p1394
(dp1395
g42
(dp1396
g446
S'create_models_questions_tests___init__.html'
p1397
sg448
S'create/models/questions/tests/__init__'
p1398
sg450
g13
(g14
g15
NtRp1399
(dp1400
g18
I1
sg19
I0
sg20
I0
sg21
I0
sg22
I0
sg23
I0
sg24
I0
sbssg51
S'\x19g\xdfM\x1a\x019\xaf\x1baIeR\xe5u\xa7'
p1401
ssS'teach_views___init__'
p1402
(dp1403
g55
(dp1404
g177
S'teach_views___init__.html'
p1405
sg179
S'teach/views/__init__'
p1406
sg181
g13
(g14
g15
NtRp1407
(dp1408
g18
I1
sg19
I0
sg20
I3
sg21
I0
sg22
I0
sg23
I0
sg24
I0
sbssg64
S'\xddN\x8bL\xe7O\xba\x93\x86:\xc2\x15\x13gc6'
p1409
ssS'privilege_admin'
p1410
(dp1411
g287
(dp1412
g93
S'privilege_admin.html'
p1413
sg95
S'privilege/admin'
p1414
sg97
g13
(g14
g15
NtRp1415
(dp1416
g18
I1
sg19
I0
sg20
I4
sg21
I0
sg22
I0
sg23
I0
sg24
I0
sbssg293
S'\xa1\x9fb^\xc7l\x00\x1f\x0e\x9c\x06\x08\x99Kx\x94'
p1417
ssS'teach_models_teacher_tags_tests_test_teacher_tag_model'
p1418
(dp1419
g55
(dp1420
g57
S'teach_models_teacher_tags_tests_test_teacher_tag_model.html'
p1421
sg59
S'teach/models/teacher_tags/tests/test_teacher_tag_model'
p1422
sg61
g13
(g14
g15
NtRp1423
(dp1424
g18
I1
sg19
I0
sg20
I30
sg21
I0
sg22
I0
sg23
I0
sg24
I0
sbssg64
S'\xf3\x06\xd8\xd6\x93V\xab\xdc\x87\x05\xf6vJ\xa9`\xe6'
p1425
ssS'user_system_models_schools_academic_year_model'
p1426
(dp1427
g206
(dp1428
S'html_filename'
p1429
S'user_system_models_schools_academic_year_model.html'
p1430
sS'name'
p1431
S'user_system/models/schools/academic_year_model'
p1432
sS'nums'
p1433
g13
(g14
g15
NtRp1434
(dp1435
g18
I1
sg19
I0
sg20
I23
sg21
I0
sg22
I0
sg23
I0
sg24
I0
sbssg215
S'\xf1Zl\xd3\xdd4\xdcX&\xdf\xf0<.\x11FY'
p1436
ssS'learn_models___init__'
p1437
(dp1438
g55
(dp1439
g177
S'learn_models___init__.html'
p1440
sg179
S'learn/models/__init__'
p1441
sg181
g13
(g14
g15
NtRp1442
(dp1443
g18
I1
sg19
I0
sg20
I2
sg21
I0
sg22
I0
sg23
I0
sg24
I0
sbssg64
S'J\x07\xbfU\xe2\xd2\xed\xadY\xe2o$\x84\x86bd'
p1444
ssS'user_system_models_users_student_profile_model'
p1445
(dp1446
g232
(dp1447
g177
S'user_system_models_users_student_profile_model.html'
p1448
sg179
S'user_system/models/users/student_profile_model'
p1449
sg181
g13
(g14
g15
NtRp1450
(dp1451
g18
I1
sg19
I2
sg20
I41
sg21
I0
sg22
I0
sg23
I0
sg24
I0
sbssg238
S'q\x83gLh\x1e\xeb\xb5+w&@\xe2"=\xb8'
p1452
ssS'user_system_models_schools_organization_model'
p1453
(dp1454
g206
(dp1455
g627
S'user_system_models_schools_organization_model.html'
p1456
sg629
S'user_system/models/schools/organization_model'
p1457
sg631
g13
(g14
g15
NtRp1458
(dp1459
g18
I1
sg19
I0
sg20
I28
sg21
I0
sg22
I0
sg23
I0
sg24
I0
sbssg215
S']\xd3\xfd\x922s\xeb0\xfd\x8a\x88\xfe"\xbd<h'
p1460
ssS'create_views_books_tests_test_hide_book_view'
p1461
(dp1462
g936
(dp1463
g44
S'create_views_books_tests_test_hide_book_view.html'
p1464
sg46
S'create/views/books/tests/test_hide_book_view'
p1465
sg48
g13
(g14
g15
NtRp1466
(dp1467
g18
I1
sg19
I0
sg20
I25
sg21
I0
sg22
I0
sg23
I0
sg24
I0
sbssg942
S'\xe1\x17\x16\xca\x8a\xc5c\x1b\xce\xab\xb8\xf9G\x03\x9dQ'
p1468
ssS'teach_serializers_teacher_tags_teacher_tag_serializer'
p1469
(dp1470
g55
(dp1471
g31
S'teach_serializers_teacher_tags_teacher_tag_serializer.html'
p1472
sg33
S'teach/serializers/teacher_tags/teacher_tag_serializer'
p1473
sg35
g13
(g14
g15
NtRp1474
(dp1475
g18
I1
sg19
I2
sg20
I26
sg21
I0
sg22
I0
sg23
I9
sg24
I2
sbssg64
S'\x07C\xdf\xcd\x92\x1eS\x1a#\x8e\x9d\x88Dj\n\x12'
p1476
ssS'create_models_daily_quests_tests_test_daily_quest_model'
p1477
(dp1478
g752
(dp1479
g244
S'create_models_daily_quests_tests_test_daily_quest_model.html'
p1480
sg246
S'create/models/daily_quests/tests/test_daily_quest_model'
p1481
sg248
g13
(g14
g15
NtRp1482
(dp1483
g18
I1
sg19
I2
sg20
I51
sg21
I0
sg22
I0
sg23
I0
sg24
I0
sbssg761
S'\x16\x87\xb8\xd4K\xb4\x87\xf9\x84\xc4V\x94\x17\xf6\x1a\xf0'
p1484
ssS'create_admin'
p1485
(dp1486
g42
(dp1487
g57
S'create_admin.html'
p1488
sg59
S'create/admin'
p1489
sg61
g13
(g14
g15
NtRp1490
(dp1491
g18
I1
sg19
I0
sg20
I20
sg21
I0
sg22
I0
sg23
I0
sg24
I0
sbssg51
S'\x03\xe6\xc2\xd5\xa8\xb1\x92\xa5/8\x0fZCN\r\x08'
p1492
ssS'create_views_questions_tests_test_get_question_list_view'
p1493
(dp1494
g42
(dp1495
g93
S'create_views_questions_tests_test_get_question_list_view.html'
p1496
sg95
S'create/views/questions/tests/test_get_question_list_view'
p1497
sg97
g13
(g14
g15
NtRp1498
(dp1499
g18
I1
sg19
I0
sg20
I32
sg21
I0
sg22
I0
sg23
I0
sg24
I0
sbssg51
S'\xa2&\x88;1\\\xa2 \xb4&ejB\xd1%\x06'
p1500
ssS'user_system_views_logins___init__'
p1501
(dp1502
g42
(dp1503
g446
S'user_system_views_logins___init__.html'
p1504
sg448
S'user_system/views/logins/__init__'
p1505
sg450
g13
(g14
g15
NtRp1506
(dp1507
g18
I1
sg19
I0
sg20
I2
sg21
I0
sg22
I0
sg23
I0
sg24
I0
sbssg51
S'\xa0\xd3\xaas\xc2\xb93+ED.\xe5\xfe\xf2\xad\x87'
p1508
ssS'create_views_daily_quest_copies___init__'
p1509
(dp1510
g411
(dp1511
S'html_filename'
p1512
S'create_views_daily_quest_copies___init__.html'
p1513
sS'name'
p1514
S'create/views/daily_quest_copies/__init__'
p1515
sS'nums'
p1516
g13
(g14
g15
NtRp1517
(dp1518
g18
I1
sg19
I0
sg20
I1
sg21
I0
sg22
I0
sg23
I0
sg24
I0
sbssg420
S"'\xb6_z\x90s\x92\xdd\xc7\xb2\x87d\xba\xe24X"
p1519
ssS'create_views_quests_tests_test_hide_quest_view'
p1520
(dp1521
g6
(dp1522
g8
S'create_views_quests_tests_test_hide_quest_view.html'
p1523
sg10
S'create/views/quests/tests/test_hide_quest_view'
p1524
sg12
g13
(g14
g15
NtRp1525
(dp1526
g18
I1
sg19
I0
sg20
I26
sg21
I0
sg22
I0
sg23
I0
sg24
I0
sbssg25
S'G\xcb\xcf\xbb~*\xa2i\xd2\xff\x81\x81\xf0)G\xda'
p1527
ssS'create_views_books_tests_test_add_tag_to_subchapter_view'
p1528
(dp1529
S'index'
p1530
(dp1531
g44
S'create_views_books_tests_test_add_tag_to_subchapter_view.html'
p1532
sg46
S'create/views/books/tests/test_add_tag_to_subchapter_view'
p1533
sg48
g13
(g14
g15
NtRp1534
(dp1535
g18
I1
sg19
I0
sg20
I40
sg21
I0
sg22
I0
sg23
I0
sg24
I0
sbssS'hash'
p1536
S'\xb78\xf4p\xcd\xec\xca\xaa\x93\xb9\xda\xa8Yo37'
p1537
ssS'api_logging_models_modal_logging_modal_user_history_model'
p1538
(dp1539
g297
(dp1540
g177
S'api_logging_models_modal_logging_modal_user_history_model.html'
p1541
sg179
S'api_logging/models/modal_logging/modal_user_history_model'
p1542
sg181
g13
(g14
g15
NtRp1543
(dp1544
g18
I1
sg19
I0
sg20
I15
sg21
I0
sg22
I0
sg23
I3
sg24
I0
sbssg303
S'\xabX\xd42<$9z\xc1]\xc12\xe9\xd8\xbf\xd2'
p1545
ssS'create_views_daily_quests_daily_quest_view'
p1546
(dp1547
g242
(dp1548
g244
S'create_views_daily_quests_daily_quest_view.html'
p1549
sg246
S'create/views/daily_quests/daily_quest_view'
p1550
sg248
g13
(g14
g15
NtRp1551
(dp1552
g18
I1
sg19
I8
sg20
I34
sg21
I0
sg22
I0
sg23
I17
sg24
I8
sbssg251
S'\x9b\xbe99\x1cP\x1d\xd8iT&I;\xb4\xbbf'
p1553
ssS'user_system_managers_user_manager'
p1554
(dp1555
g297
(dp1556
g177
S'user_system_managers_user_manager.html'
p1557
sg179
S'user_system/managers/user_manager'
p1558
sg181
g13
(g14
g15
NtRp1559
(dp1560
g18
I1
sg19
I18
sg20
I46
sg21
I0
sg22
I0
sg23
I37
sg24
I18
sbssg303
S'\xac\xa0\xe1\xde\xdcl\x13`\xfe\xfc\xff\xb5\x18=(\xf4'
p1561
ssS'create_models_quests_tests___init__'
p1562
(dp1563
g103
(dp1564
g616
S'create_models_quests_tests___init__.html'
p1565
sg618
S'create/models/quests/tests/__init__'
p1566
sg620
g13
(g14
g15
NtRp1567
(dp1568
g18
I1
sg19
I0
sg20
I1
sg21
I0
sg22
I0
sg23
I0
sg24
I0
sbssg112
S'\xbc\xd6\xeb\xb3\xba\xcaz\xf7{\xd4B\xb5}l\xdf\x96'
p1569
ssS'create_views_questions___init__'
p1570
(dp1571
g42
(dp1572
g588
S'create_views_questions___init__.html'
p1573
sg590
S'create/views/questions/__init__'
p1574
sg592
g13
(g14
g15
NtRp1575
(dp1576
g18
I1
sg19
I0
sg20
I3
sg21
I0
sg22
I0
sg23
I0
sg24
I0
sbssg51
S'h\x154\xc5\xe58\xa8\xc8\xa9\xa6\xbea?\xcf?i'
p1577
ssS'user_system_views_users_create_teacher_view'
p1578
(dp1579
g297
(dp1580
g177
S'user_system_views_users_create_teacher_view.html'
p1581
sg179
S'user_system/views/users/create_teacher_view'
p1582
sg181
g13
(g14
g15
NtRp1583
(dp1584
g18
I1
sg19
I2
sg20
I34
sg21
I0
sg22
I0
sg23
I21
sg24
I2
sbssg303
S'=\xee\xed^jo\xc1\xebz\xedP\xf9\x91n\xec\x8d'
p1585
ssS'user_system_models_apps_tests___init__'
p1586
(dp1587
g42
(dp1588
g446
S'user_system_models_apps_tests___init__.html'
p1589
sg448
S'user_system/models/apps/tests/__init__'
p1590
sg450
g13
(g14
g15
NtRp1591
(dp1592
g18
I1
sg19
I0
sg20
I0
sg21
I0
sg22
I0
sg23
I0
sg24
I0
sbssg51
S'\x19g\xdfM\x1a\x019\xaf\x1baIeR\xe5u\xa7'
p1593
ssS'privilege_serializers_privileges_user_privilege_serializer'
p1594
(dp1595
g287
(dp1596
g93
S'privilege_serializers_privileges_user_privilege_serializer.html'
p1597
sg95
S'privilege/serializers/privileges/user_privilege_serializer'
p1598
sg97
g13
(g14
g15
NtRp1599
(dp1600
g18
I1
sg19
I0
sg20
I9
sg21
I0
sg22
I0
sg23
I0
sg24
I0
sbssg293
S'#\xe5\xcc\x9as5y,\xa1HiQ\xa2c\xdb2'
p1601
ssS'create_models_quests_tests_test_quest_history_model'
p1602
(dp1603
g103
(dp1604
g1202
S'create_models_quests_tests_test_quest_history_model.html'
p1605
sg1204
S'create/models/quests/tests/test_quest_history_model'
p1606
sg1206
g13
(g14
g15
NtRp1607
(dp1608
g18
I1
sg19
I8
sg20
I79
sg21
I0
sg22
I0
sg23
I0
sg24
I0
sbssg112
S'##\xeax]g;Ka\xb3\xc0Py,oE'
p1609
ssS'create_views_summary___init__'
p1610
(dp1611
S'index'
p1612
(dp1613
g1092
S'create_views_summary___init__.html'
p1614
sg1094
S'create/views/summary/__init__'
p1615
sg1096
g13
(g14
g15
NtRp1616
(dp1617
g18
I1
sg19
I0
sg20
I1
sg21
I0
sg22
I0
sg23
I0
sg24
I0
sbssS'hash'
p1618
S'#\xb7\xbd\xa1M\xe4\xa0\x05\xf5x\x057hU[\xca'
p1619
ssS'create_models_daily_quest_templates___init__'
p1620
(dp1621
g242
(dp1622
g244
S'create_models_daily_quest_templates___init__.html'
p1623
sg246
S'create/models/daily_quest_templates/__init__'
p1624
sg248
g13
(g14
g15
NtRp1625
(dp1626
g18
I1
sg19
I0
sg20
I1
sg21
I0
sg22
I0
sg23
I0
sg24
I0
sbssg251
S'\x12\x89x\xb9F\xfb=b\x04\xddy\xb4\xccZb\xb8'
p1627
ssS'create_views_tags_tests_test_get_tag_by_id_view'
p1628
(dp1629
g424
(dp1630
g93
S'create_views_tags_tests_test_get_tag_by_id_view.html'
p1631
sg95
S'create/views/tags/tests/test_get_tag_by_id_view'
p1632
sg97
g13
(g14
g15
NtRp1633
(dp1634
g18
I1
sg19
I0
sg20
I20
sg21
I0
sg22
I0
sg23
I0
sg24
I0
sbssg433
S'T\xd5\xd7\xd9\xb8\x12\x81xj\xca\x90\xa41\xcf\x02]'
p1635
ssS'api_logging_models_user_activities___init__'
p1636
(dp1637
g297
(dp1638
g177
S'api_logging_models_user_activities___init__.html'
p1639
sg179
S'api_logging/models/user_activities/__init__'
p1640
sg181
g13
(g14
g15
NtRp1641
(dp1642
g18
I1
sg19
I0
sg20
I1
sg21
I0
sg22
I0
sg23
I0
sg24
I0
sbssg303
S'\xd9\xe2\xb9\xa8[\x85h\x8ep\xd5\x12TW1\x9d\x1b'
p1643
ssS'user_system_models_users_tests_test_user_profile_model'
p1644
(dp1645
g42
(dp1646
g158
S'user_system_models_users_tests_test_user_profile_model.html'
p1647
sg160
S'user_system/models/users/tests/test_user_profile_model'
p1648
sg162
g13
(g14
g15
NtRp1649
(dp1650
g18
I1
sg19
I0
sg20
I142
sg21
I0
sg22
I0
sg23
I0
sg24
I0
sbssg51
S'\x00\xb8\xc5\xc0\xcb\xb1\xcaP@!\x086\x84\x1d\xd5\xed'
p1651
ssS'user_system_views_roles_tests_test_user_role_view'
p1652
(dp1653
g42
(dp1654
g44
S'user_system_views_roles_tests_test_user_role_view.html'
p1655
sg46
S'user_system/views/roles/tests/test_user_role_view'
p1656
sg48
g13
(g14
g15
NtRp1657
(dp1658
g18
I1
sg19
I0
sg20
I41
sg21
I0
sg22
I0
sg23
I0
sg24
I0
sbssg51
S'\xaf \x02-\xd3\xa9\xee\x1e7\x87\xa8[\xd9\xd8V\xd8'
p1659
ssS'user_system_views_apps_tests_test_get_apps_list_view'
p1660
(dp1661
g42
(dp1662
g44
S'user_system_views_apps_tests_test_get_apps_list_view.html'
p1663
sg46
S'user_system/views/apps/tests/test_get_apps_list_view'
p1664
sg48
g13
(g14
g15
NtRp1665
(dp1666
g18
I1
sg19
I0
sg20
I18
sg21
I0
sg22
I0
sg23
I0
sg24
I0
sbssg51
S'\x87\xab;"\x01p\xf9\xe5\xa6\xb1\xaej\x8egl\x99'
p1667
ssS'api_logging_models_user_activities_user_activity_model'
p1668
(dp1669
g297
(dp1670
g177
S'api_logging_models_user_activities_user_activity_model.html'
p1671
sg179
S'api_logging/models/user_activities/user_activity_model'
p1672
sg181
g13
(g14
g15
NtRp1673
(dp1674
g18
I1
sg19
I0
sg20
I11
sg21
I0
sg22
I0
sg23
I0
sg24
I0
sbssg303
S'f\xe2(\xd3\xddS\xfd\x1e\xf0d\xb2,\xb2\x8f\x8c\x18'
p1675
ssS'create_views_books_tests_test_create_new_book'
p1676
(dp1677
S'index'
p1678
(dp1679
g44
S'create_views_books_tests_test_create_new_book.html'
p1680
sg46
S'create/views/books/tests/test_create_new_book'
p1681
sg48
g13
(g14
g15
NtRp1682
(dp1683
g18
I1
sg19
I0
sg20
I18
sg21
I0
sg22
I0
sg23
I0
sg24
I0
sbssS'hash'
p1684
S'\xe3\xaew\xf8\xd7\x8f\xc5 \x85\xc1\xb6I\x82X(-'
p1685
ssS'create_serializers_questions_question_type_serializer'
p1686
(dp1687
g42
(dp1688
g446
S'create_serializers_questions_question_type_serializer.html'
p1689
sg448
S'create/serializers/questions/question_type_serializer'
p1690
sg450
g13
(g14
g15
NtRp1691
(dp1692
g18
I1
sg19
I0
sg20
I6
sg21
I0
sg22
I0
sg23
I0
sg24
I0
sbssg51
S'!\x8a\x91KA:\x92\x13/\xdd\xd9\xc2?\x8b\xe1\xc6'
p1693
ssS'create_models_books_tests_test_book_model'
p1694
(dp1695
g349
(dp1696
S'html_filename'
p1697
S'create_models_books_tests_test_book_model.html'
p1698
sS'name'
p1699
S'create/models/books/tests/test_book_model'
p1700
sS'nums'
p1701
g13
(g14
g15
NtRp1702
(dp1703
g18
I1
sg19
I6
sg20
I44
sg21
I0
sg22
I0
sg23
I0
sg24
I0
sbssg355
S'\xff\x88\xcd\xb0\x80\xb2\x9d\xf7\xf9G\xb1.\xaf\xdd\x07\xd7'
p1704
ssS'user_system_serializers_users_teacher_mapping_serializer'
p1705
(dp1706
g297
(dp1707
g177
S'user_system_serializers_users_teacher_mapping_serializer.html'
p1708
sg179
S'user_system/serializers/users/teacher_mapping_serializer'
p1709
sg181
g13
(g14
g15
NtRp1710
(dp1711
g18
I1
sg19
I0
sg20
I7
sg21
I0
sg22
I0
sg23
I0
sg24
I0
sbssg303
S'\x13\xf7\x06\xcfN\x17?&3\xc5\xf6]6uj\xc1'
p1712
ssS'create_models_questions_question_choice_model'
p1713
(dp1714
g42
(dp1715
g1312
S'create_models_questions_question_choice_model.html'
p1716
sg1314
S'create/models/questions/question_choice_model'
p1717
sg1316
g13
(g14
g15
NtRp1718
(dp1719
g18
I1
sg19
I0
sg20
I42
sg21
I0
sg22
I0
sg23
I0
sg24
I0
sbssg51
S'\xd7\xd8\x1f\xbf<\xee\xdd?}\xfe>\x82\\\x97\x15)'
p1720
ssS'flipped_helpers_tests___init__'
p1721
(dp1722
g42
(dp1723
g446
S'flipped_helpers_tests___init__.html'
p1724
sg448
S'flipped/helpers/tests/__init__'
p1725
sg450
g13
(g14
g15
NtRp1726
(dp1727
g18
I1
sg19
I0
sg20
I0
sg21
I0
sg22
I0
sg23
I0
sg24
I0
sbssg51
S'\x19g\xdfM\x1a\x019\xaf\x1baIeR\xe5u\xa7'
p1728
ssS'user_system_models_roles_role_app_model'
p1729
(dp1730
g42
(dp1731
g44
S'user_system_models_roles_role_app_model.html'
p1732
sg46
S'user_system/models/roles/role_app_model'
p1733
sg48
g13
(g14
g15
NtRp1734
(dp1735
g18
I1
sg19
I0
sg20
I18
sg21
I0
sg22
I0
sg23
I0
sg24
I0
sbssg51
S'\x8d\xa3&\x03\x9d\x1cO|\xces.\x11/\x8f`\xcc'
p1736
ssS'create_models_tags_tests_test_tag_model'
p1737
(dp1738
g383
(dp1739
S'html_filename'
p1740
S'create_models_tags_tests_test_tag_model.html'
p1741
sS'name'
p1742
S'create/models/tags/tests/test_tag_model'
p1743
sS'nums'
p1744
g13
(g14
g15
NtRp1745
(dp1746
g18
I1
sg19
I6
sg20
I52
sg21
I0
sg22
I0
sg23
I0
sg24
I0
sbssg389
S'1\x992\xc0\xbb\xb6d *5\xfa\xd2\xdc1\xb2\x92'
p1747
ssS'create_views_tags_tests_test_remove_prerequisite_view'
p1748
(dp1749
g307
(dp1750
g44
S'create_views_tags_tests_test_remove_prerequisite_view.html'
p1751
sg46
S'create/views/tags/tests/test_remove_prerequisite_view'
p1752
sg48
g13
(g14
g15
NtRp1753
(dp1754
g18
I1
sg19
I0
sg20
I31
sg21
I0
sg22
I0
sg23
I0
sg24
I0
sbssg313
S'\x8e\x8c~\xff\x85\x94\x8c~T\x7f\x80\x82W\x96\x19\x9c'
p1755
ssS'learn_models_points_tests_test_point_type_model'
p1756
(dp1757
g297
(dp1758
g627
S'learn_models_points_tests_test_point_type_model.html'
p1759
sg629
S'learn/models/points/tests/test_point_type_model'
p1760
sg631
g13
(g14
g15
NtRp1761
(dp1762
g18
I1
sg19
I0
sg20
I20
sg21
I0
sg22
I0
sg23
I0
sg24
I0
sbssg303
S'\x8a\x938\x82k\xa7\x10\xf1\x95\x07\xc4\xb2\x9d\n\xc6\x1f'
p1763
ssS'teach_serializers_teacher_chapters_teacher_chapter_serializer'
p1764
(dp1765
g55
(dp1766
g57
S'teach_serializers_teacher_chapters_teacher_chapter_serializer.html'
p1767
sg59
S'teach/serializers/teacher_chapters/teacher_chapter_serializer'
p1768
sg61
g13
(g14
g15
NtRp1769
(dp1770
g18
I1
sg19
I0
sg20
I12
sg21
I0
sg22
I0
sg23
I0
sg24
I0
sbssg64
S'\xac\x9b\xf1Q\x91\xf4J\x03y\xc4\xa7\x9c\x996\x13a'
p1771
ssS'user_system_serializers_app_serializer'
p1772
(dp1773
g42
(dp1774
g446
S'user_system_serializers_app_serializer.html'
p1775
sg448
S'user_system/serializers/app_serializer'
p1776
sg450
g13
(g14
g15
NtRp1777
(dp1778
g18
I1
sg19
I0
sg20
I7
sg21
I0
sg22
I0
sg23
I0
sg24
I0
sbssg51
S'\xc1\x87\xd6\x1b\xbe\x8f\xfb\xdd\x1a\xa9\x92A\xe2\xc3\xe2\xf1'
p1779
ssS'user_system_views_logins_tests_test_facebook_login_view'
p1780
(dp1781
g42
(dp1782
g44
S'user_system_views_logins_tests_test_facebook_login_view.html'
p1783
sg46
S'user_system/views/logins/tests/test_facebook_login_view'
p1784
sg48
g13
(g14
g15
NtRp1785
(dp1786
g18
I1
sg19
I0
sg20
I51
sg21
I0
sg22
I0
sg23
I0
sg24
I0
sbssg51
S'\x8eg\xfbA\xbdf+\x81\xe9\x8a\x16\x82\xe9\xe3\xc0\xf4'
p1787
ssS'create_models_books_book_history_model'
p1788
(dp1789
g349
(dp1790
g93
S'create_models_books_book_history_model.html'
p1791
sg95
S'create/models/books/book_history_model'
p1792
sg97
g13
(g14
g15
NtRp1793
(dp1794
g18
I1
sg19
I4
sg20
I43
sg21
I0
sg22
I1
sg23
I0
sg24
I1
sbssg355
S'\xd71\x9e\xd0\x9bqR\xb9(!\x9f2\x10O|\xeb'
p1795
ssS'teach_models_teacher_chapters_tests___init__'
p1796
(dp1797
g55
(dp1798
g57
S'teach_models_teacher_chapters_tests___init__.html'
p1799
sg59
S'teach/models/teacher_chapters/tests/__init__'
p1800
sg61
g13
(g14
g15
NtRp1801
(dp1802
g18
I1
sg19
I0
sg20
I0
sg21
I0
sg22
I0
sg23
I0
sg24
I0
sbssg64
S'\x19g\xdfM\x1a\x019\xaf\x1baIeR\xe5u\xa7'
p1803
ssS'create_views_quests_tests_test_remove_tag_view'
p1804
(dp1805
g6
(dp1806
g8
S'create_views_quests_tests_test_remove_tag_view.html'
p1807
sg10
S'create/views/quests/tests/test_remove_tag_view'
p1808
sg12
g13
(g14
g15
NtRp1809
(dp1810
g18
I1
sg19
I0
sg20
I0
sg21
I0
sg22
I0
sg23
I0
sg24
I0
sbssg25
S'\x19g\xdfM\x1a\x019\xaf\x1baIeR\xe5u\xa7'
p1811
ssS'create_models_books_book_model'
p1812
(dp1813
g349
(dp1814
S'html_filename'
p1815
S'create_models_books_book_model.html'
p1816
sS'name'
p1817
S'create/models/books/book_model'
p1818
sS'nums'
p1819
g13
(g14
g15
NtRp1820
(dp1821
g18
I1
sg19
I4
sg20
I37
sg21
I0
sg22
I0
sg23
I0
sg24
I0
sbssg355
S'Z\x88%\xfa\x8c7\x1e\xf9\x06qW\x80O\xe1\x85.'
p1822
ssS'create_views_books_tests_test_remove_chapter_view'
p1823
(dp1824
g126
(dp1825
g44
S'create_views_books_tests_test_remove_chapter_view.html'
p1826
sg46
S'create/views/books/tests/test_remove_chapter_view'
p1827
sg48
g13
(g14
g15
NtRp1828
(dp1829
g18
I1
sg19
I0
sg20
I39
sg21
I0
sg22
I0
sg23
I0
sg24
I0
sbssg132
S'lJ\xdc\xbe\xe2>\x9d\xde\xb5+ia5;\x042'
p1830
ssS'privilege_models_privileges_tests_test_user_privilege_model'
p1831
(dp1832
g287
(dp1833
g93
S'privilege_models_privileges_tests_test_user_privilege_model.html'
p1834
sg95
S'privilege/models/privileges/tests/test_user_privilege_model'
p1835
sg97
g13
(g14
g15
NtRp1836
(dp1837
g18
I1
sg19
I0
sg20
I19
sg21
I0
sg22
I0
sg23
I0
sg24
I0
sbssg293
S'\xcd\xf2\x96G\xfe\xbc/\xb5\x15\xceNf\x0f\x0b5\xd4'
p1838
ssS'privilege_views___init__'
p1839
(dp1840
g287
(dp1841
g93
S'privilege_views___init__.html'
p1842
sg95
S'privilege/views/__init__'
p1843
sg97
g13
(g14
g15
NtRp1844
(dp1845
g18
I1
sg19
I0
sg20
I0
sg21
I0
sg22
I0
sg23
I0
sg24
I0
sbssg293
S'\x19g\xdfM\x1a\x019\xaf\x1baIeR\xe5u\xa7'
p1846
ssS'user_system_views_users_tests___init__'
p1847
(dp1848
g42
(dp1849
g446
S'user_system_views_users_tests___init__.html'
p1850
sg448
S'user_system/views/users/tests/__init__'
p1851
sg450
g13
(g14
g15
NtRp1852
(dp1853
g18
I1
sg19
I0
sg20
I0
sg21
I0
sg22
I0
sg23
I0
sg24
I0
sbssg51
S'\x19g\xdfM\x1a\x019\xaf\x1baIeR\xe5u\xa7'
p1854
ssS'create_models_tags_tests_test_skill_model'
p1855
(dp1856
g383
(dp1857
g44
S'create_models_tags_tests_test_skill_model.html'
p1858
sg46
S'create/models/tags/tests/test_skill_model'
p1859
sg48
g13
(g14
g15
NtRp1860
(dp1861
g18
I1
sg19
I0
sg20
I12
sg21
I0
sg22
I0
sg23
I0
sg24
I0
sbssg389
S'\x08\x9e\x87e#\x02\x06O\x02l!\x0e\xe8\xeb\xc0.'
p1862
ssS'user_system_views_signups_hardcoded___init__'
p1863
(dp1864
g42
(dp1865
g446
S'user_system_views_signups_hardcoded___init__.html'
p1866
sg448
S'user_system/views/signups/hardcoded/__init__'
p1867
sg450
g13
(g14
g15
NtRp1868
(dp1869
g18
I1
sg19
I0
sg20
I1
sg21
I0
sg22
I0
sg23
I0
sg24
I0
sbssg51
S'?\xfac\x0c\x91\xa4\xd6\xd4\x1d\xe4\x99\xc2[\x83\xfc\xdf'
p1870
ssS'create_models_daily_quest_templates_daily_quest_template_model'
p1871
(dp1872
g242
(dp1873
g244
S'create_models_daily_quest_templates_daily_quest_template_model.html'
p1874
sg246
S'create/models/daily_quest_templates/daily_quest_template_model'
p1875
sg248
g13
(g14
g15
NtRp1876
(dp1877
g18
I1
sg19
I0
sg20
I29
sg21
I0
sg22
I0
sg23
I0
sg24
I0
sbssg251
S'm:\xfa\nsk\x85\xa8p\x96\xc3\xca\xa1c\xb0+'
p1878
ssS'create_models_books_tests_test_book_chapter_model'
p1879
(dp1880
g349
(dp1881
g1697
S'create_models_books_tests_test_book_chapter_model.html'
p1882
sg1699
S'create/models/books/tests/test_book_chapter_model'
p1883
sg1701
g13
(g14
g15
NtRp1884
(dp1885
g18
I1
sg19
I8
sg20
I55
sg21
I0
sg22
I0
sg23
I0
sg24
I0
sbssg355
S'\xc4\x1a\xd7\x12s\xd3V\xef\xac\xa7%\x0c\xdc\x17\x05c'
p1886
ssS'user_system_views_signups_tests_test_verify_email_view'
p1887
(dp1888
g42
(dp1889
g44
S'user_system_views_signups_tests_test_verify_email_view.html'
p1890
sg46
S'user_system/views/signups/tests/test_verify_email_view'
p1891
sg48
g13
(g14
g15
NtRp1892
(dp1893
g18
I1
sg19
I0
sg20
I51
sg21
I0
sg22
I0
sg23
I0
sg24
I0
sbssg51
S'\x81\xacj\x9d\x1f\xa9o\xcc\x1e\xa3\xe59^YT\x9e'
p1894
ssS'teach_models_daily_quest_templates___init__'
p1895
(dp1896
g55
(dp1897
g57
S'teach_models_daily_quest_templates___init__.html'
p1898
sg59
S'teach/models/daily_quest_templates/__init__'
p1899
sg61
g13
(g14
g15
NtRp1900
(dp1901
g18
I1
sg19
I0
sg20
I1
sg21
I0
sg22
I0
sg23
I0
sg24
I0
sbssg64
S'\x12\x89x\xb9F\xfb=b\x04\xddy\xb4\xccZb\xb8'
p1902
ssS'teach_serializers_daily_quest_templates_daily_quest_template_serializer'
p1903
(dp1904
g55
(dp1905
g177
S'teach_serializers_daily_quest_templates_daily_quest_template_serializer.html'
p1906
sg179
S'teach/serializers/daily_quest_templates/daily_quest_template_serializer'
p1907
sg181
g13
(g14
g15
NtRp1908
(dp1909
g18
I1
sg19
I0
sg20
I12
sg21
I0
sg22
I0
sg23
I0
sg24
I0
sbssg64
S"\xd9\x0bcm\x95?'mB\xf9\xdd\xa1\xfc>:="
p1910
ssS'create_views_questions_tests_test_add_tag_view'
p1911
(dp1912
g219
(dp1913
g221
S'create_views_questions_tests_test_add_tag_view.html'
p1914
sg223
S'create/views/questions/tests/test_add_tag_view'
p1915
sg225
g13
(g14
g15
NtRp1916
(dp1917
g18
I1
sg19
I0
sg20
I35
sg21
I0
sg22
I0
sg23
I0
sg24
I0
sbssg228
S'\x8e\x13\xdd\xbd\xba\r&,-|&W-a`\x7f'
p1918
ssS'create_views_quests_quest_view'
p1919
(dp1920
g103
(dp1921
g993
S'create_views_quests_quest_view.html'
p1922
sg995
S'create/views/quests/quest_view'
p1923
sg997
g13
(g14
g15
NtRp1924
(dp1925
g18
I1
sg19
I84
sg20
I249
sg21
I0
sg22
I0
sg23
I178
sg24
I78
sbssg112
S'(\xa2UK\xe2}\xa8\xe0\xc9 3#\xec\x01\xfd\x16'
p1926
ssS'privilege_models_privileges_tests_test_privilege_model'
p1927
(dp1928
g287
(dp1929
g1237
S'privilege_models_privileges_tests_test_privilege_model.html'
p1930
sg1239
S'privilege/models/privileges/tests/test_privilege_model'
p1931
sg1241
g13
(g14
g15
NtRp1932
(dp1933
g18
I1
sg19
I0
sg20
I30
sg21
I0
sg22
I0
sg23
I0
sg24
I0
sbssg293
S'\xe0^\x80\xd5+a\xd9\xc4\xeabB\xc5\x142;\xc9'
p1934
ssS'api_logging_models'
p1935
(dp1936
g560
(dp1937
g726
S'api_logging_models.html'
p1938
sg728
S'api_logging/models'
p1939
sg730
g13
(g14
g15
NtRp1940
(dp1941
g18
I1
sg19
I0
sg20
I21
sg21
I0
sg22
I0
sg23
I0
sg24
I0
sbssg566
S'\x0c\x96WFX%\xe9\xcf+\xcf\xc2s\xa7a1\xbd'
p1942
ssS'user_system_models_schools_tests_test_grade_model'
p1943
(dp1944
g232
(dp1945
g31
S'user_system_models_schools_tests_test_grade_model.html'
p1946
sg33
S'user_system/models/schools/tests/test_grade_model'
p1947
sg35
g13
(g14
g15
NtRp1948
(dp1949
g18
I1
sg19
I0
sg20
I24
sg21
I0
sg22
I0
sg23
I0
sg24
I0
sbssg238
S'\x1e|\xb0\x10\x05\x9c\xb5\xe9\xbc\xff\x8a\xaan\xdf\xd4\xb2'
p1950
ssS'user_system_models_apps_tests_test_app_model'
p1951
(dp1952
g42
(dp1953
g44
S'user_system_models_apps_tests_test_app_model.html'
p1954
sg46
S'user_system/models/apps/tests/test_app_model'
p1955
sg48
g13
(g14
g15
NtRp1956
(dp1957
g18
I1
sg19
I0
sg20
I18
sg21
I0
sg22
I0
sg23
I0
sg24
I0
sbssg51
S'\xfb\xfc\xe0#\xe2\n\x8e\x9e\x94\xa8\x83\xc5\xb1U\xa3a'
p1958
ssS'create_models_daily_quests_daily_quest_model'
p1959
(dp1960
g752
(dp1961
g1512
S'create_models_daily_quests_daily_quest_model.html'
p1962
sg1514
S'create/models/daily_quests/daily_quest_model'
p1963
sg1516
g13
(g14
g15
NtRp1964
(dp1965
g18
I1
sg19
I2
sg20
I48
sg21
I0
sg22
I0
sg23
I6
sg24
I2
sbssg761
S'\xae\'/"f\x1014\xdd\x0e\x85\xf4\x91\x02\\`'
p1966
ssS'user_system_views_signups_tests_test_email_signup_view'
p1967
(dp1968
g42
(dp1969
g44
S'user_system_views_signups_tests_test_email_signup_view.html'
p1970
sg46
S'user_system/views/signups/tests/test_email_signup_view'
p1971
sg48
g13
(g14
g15
NtRp1972
(dp1973
g18
I1
sg19
I0
sg20
I51
sg21
I0
sg22
I0
sg23
I0
sg24
I0
sbssg51
S'\xa3\xb2\xaf-\x99\xe3]\xcc\xe6\x8b\xeb\xf63=I\xb4'
p1974
ssS'user_system_models_schools_tests_test_organization_model'
p1975
(dp1976
g206
(dp1977
g627
S'user_system_models_schools_tests_test_organization_model.html'
p1978
sg629
S'user_system/models/schools/tests/test_organization_model'
p1979
sg631
g13
(g14
g15
NtRp1980
(dp1981
g18
I1
sg19
I0
sg20
I27
sg21
I0
sg22
I0
sg23
I0
sg24
I0
sbssg215
S"\xa3'h\xadZ,\x82G\xbc\x08wON /j"
p1982
ssS'learn_admin'
p1983
(dp1984
g55
(dp1985
g177
S'learn_admin.html'
p1986
sg179
S'learn/admin'
p1987
sg181
g13
(g14
g15
NtRp1988
(dp1989
g18
I1
sg19
I0
sg20
I6
sg21
I0
sg22
I0
sg23
I0
sg24
I0
sbssg64
S'\x01\xff=[_\x13,\xf8ES\x17G)\x1e\xfb\x10'
p1990
ssS'create_views_books_book_subchapter_view'
p1991
(dp1992
g1530
(dp1993
g44
S'create_views_books_book_subchapter_view.html'
p1994
sg46
S'create/views/books/book_subchapter_view'
p1995
sg48
g13
(g14
g15
NtRp1996
(dp1997
g18
I1
sg19
I8
sg20
I46
sg21
I0
sg22
I0
sg23
I0
sg24
I0
sbssg1536
S'\x0e\xa6\x19V\xf0\xf3;\xa2\x8d \xd8i\xb7*D\x87'
p1998
ssS'user_system_models_roles_tests_test_role_model'
p1999
(dp2000
g42
(dp2001
g44
S'user_system_models_roles_tests_test_role_model.html'
p2002
sg46
S'user_system/models/roles/tests/test_role_model'
p2003
sg48
g13
(g14
g15
NtRp2004
(dp2005
g18
I1
sg19
I0
sg20
I20
sg21
I0
sg22
I0
sg23
I0
sg24
I0
sbssg51
S'\xef\xba\x956\x96\xbc:\xa0\x0f\x00\x84\x80\x0elh\xed'
p2006
ssS'user_system_models_schools_classroom_model'
p2007
(dp2008
g232
(dp2009
g177
S'user_system_models_schools_classroom_model.html'
p2010
sg179
S'user_system/models/schools/classroom_model'
p2011
sg181
g13
(g14
g15
NtRp2012
(dp2013
g18
I1
sg19
I2
sg20
I24
sg21
I0
sg22
I0
sg23
I0
sg24
I0
sbssg238
S'\xb4}\xd2\xf3\xe4P\x96mC/hd\x0c\x17\x97m'
p2014
ssS'user_system_views_logins_email_login_view'
p2015
(dp2016
g42
(dp2017
g177
S'user_system_views_logins_email_login_view.html'
p2018
sg179
S'user_system/views/logins/email_login_view'
p2019
sg181
g13
(g14
g15
NtRp2020
(dp2021
g18
I1
sg19
I8
sg20
I35
sg21
I0
sg22
I0
sg23
I0
sg24
I0
sbssg51
S'\x9e\xe3\x8e\xf9o\x8aYC\xa2\xcb\xe7\xbd\x94\xe1O\x1a'
p2022
ssS'user_system_serializers_users_list_user_serializer'
p2023
(dp2024
g42
(dp2025
g44
S'user_system_serializers_users_list_user_serializer.html'
p2026
sg46
S'user_system/serializers/users/list_user_serializer'
p2027
sg48
g13
(g14
g15
NtRp2028
(dp2029
g18
I1
sg19
I0
sg20
I18
sg21
I0
sg22
I0
sg23
I0
sg24
I0
sbssg51
S'\xdfK>6\xe0\x8d\xcd\xd4/O\xef\xaa\xd0\x9efX'
p2030
ssS'user_system_models_users_tests_test_teacher_profile_model'
p2031
(dp2032
g29
(dp2033
g1429
S'user_system_models_users_tests_test_teacher_profile_model.html'
p2034
sg1431
S'user_system/models/users/tests/test_teacher_profile_model'
p2035
sg1433
g13
(g14
g15
NtRp2036
(dp2037
g18
I1
sg19
I0
sg20
I32
sg21
I0
sg22
I0
sg23
I0
sg24
I0
sbssg38
S'\xe7n\x9a\x17\x9d0\x01\xa6\x0f\x18\x10l\x8ckmy'
p2038
ssS'create_views_quests_tests_test_remove_question_template_view'
p2039
(dp2040
g6
(dp2041
g8
S'create_views_quests_tests_test_remove_question_template_view.html'
p2042
sg10
S'create/views/quests/tests/test_remove_question_template_view'
p2043
sg12
g13
(g14
g15
NtRp2044
(dp2045
g18
I1
sg19
I0
sg20
I0
sg21
I0
sg22
I0
sg23
I0
sg24
I0
sbssg25
S'\x19g\xdfM\x1a\x019\xaf\x1baIeR\xe5u\xa7'
p2046
ssS'user_system_serializers_users_user_profile_update_request_serializer'
p2047
(dp2048
g116
(dp2049
S'html_filename'
p2050
S'user_system_serializers_users_user_profile_update_request_serializer.html'
p2051
sS'name'
p2052
S'user_system/serializers/users/user_profile_update_request_serializer'
p2053
sS'nums'
p2054
g13
(g14
g15
NtRp2055
(dp2056
g18
I1
sg19
I0
sg20
I20
sg21
I0
sg22
I0
sg23
I2
sg24
I0
sbssg122
S'\x19EO\xe6\xb5\xdbWY\xb8\xd9\x1cP&\xe3\xc4\xca'
p2057
ssS'create_views_books_tests_test_get_books_list_view'
p2058
(dp2059
g936
(dp2060
g93
S'create_views_books_tests_test_get_books_list_view.html'
p2061
sg95
S'create/views/books/tests/test_get_books_list_view'
p2062
sg97
g13
(g14
g15
NtRp2063
(dp2064
g18
I1
sg19
I0
sg20
I21
sg21
I0
sg22
I0
sg23
I0
sg24
I0
sbssg942
S'\x16\x8f\xf1\x81>\x0f\xb4S\x19\xff\xcd\xc1Y\xe9;\x98'
p2065
ssS'user_system_serializers_schools_classroom_serializer'
p2066
(dp2067
g116
(dp2068
g31
S'user_system_serializers_schools_classroom_serializer.html'
p2069
sg33
S'user_system/serializers/schools/classroom_serializer'
p2070
sg35
g13
(g14
g15
NtRp2071
(dp2072
g18
I1
sg19
I0
sg20
I13
sg21
I0
sg22
I0
sg23
I2
sg24
I0
sbssg122
S'\\\x02 #\xfc|[\xb1g\x7f\x83+\xb6\xaa\x13\x01'
p2073
ssS'create_models_daily_quest_copies_tests___init__'
p2074
(dp2075
g411
(dp2076
g1512
S'create_models_daily_quest_copies_tests___init__.html'
p2077
sg1514
S'create/models/daily_quest_copies/tests/__init__'
p2078
sg1516
g13
(g14
g15
NtRp2079
(dp2080
g18
I1
sg19
I0
sg20
I0
sg21
I0
sg22
I0
sg23
I0
sg24
I0
sbssg420
S'\x19g\xdfM\x1a\x019\xaf\x1baIeR\xe5u\xa7'
p2081
ssS'api_logging_views_summary_user_activity_summary_view'
p2082
(dp2083
g297
(dp2084
g177
S'api_logging_views_summary_user_activity_summary_view.html'
p2085
sg179
S'api_logging/views/summary/user_activity_summary_view'
p2086
sg181
g13
(g14
g15
NtRp2087
(dp2088
g18
I1
sg19
I8
sg20
I27
sg21
I0
sg22
I0
sg23
I13
sg24
I8
sbssg303
S'\x99\xfc\\\x0e\x10\x840(\x94\xd3(k\x9f\xb4\xd9M'
p2089
ssS'create_urls'
p2090
(dp2091
g42
(dp2092
g57
S'create_urls.html'
p2093
sg59
S'create/urls'
p2094
sg61
g13
(g14
g15
NtRp2095
(dp2096
g18
I1
sg19
I0
sg20
I22
sg21
I0
sg22
I0
sg23
I0
sg24
I0
sbssg51
S"k/4\x8e_h\xf3)p'\x8e\x80v\x1e\xbdg"
p2097
ssS'create_views_tags_tests_test_get_tags_list_view'
p2098
(dp2099
g424
(dp2100
g93
S'create_views_tags_tests_test_get_tags_list_view.html'
p2101
sg95
S'create/views/tags/tests/test_get_tags_list_view'
p2102
sg97
g13
(g14
g15
NtRp2103
(dp2104
g18
I1
sg19
I0
sg20
I21
sg21
I0
sg22
I0
sg23
I0
sg24
I0
sbssg433
S'F\xf6yk?\xb2\xc12\x93\x8b\xe6Bx\xa09\x89'
p2105
ssS'create_serializers_tags_tag_serializer'
p2106
(dp2107
g349
(dp2108
g93
S'create_serializers_tags_tag_serializer.html'
p2109
sg95
S'create/serializers/tags/tag_serializer'
p2110
sg97
g13
(g14
g15
NtRp2111
(dp2112
g18
I1
sg19
I0
sg20
I38
sg21
I0
sg22
I0
sg23
I0
sg24
I0
sbssg355
S'\xf7\xa8n\xd6\xf1\xe1\xf8\xaedX\x8e\xfe\ry\xd4\xc3'
p2113
ssS'user_system_models_users_teacher_mapping_model'
p2114
(dp2115
g29
(dp2116
g1237
S'user_system_models_users_teacher_mapping_model.html'
p2117
sg1239
S'user_system/models/users/teacher_mapping_model'
p2118
sg1241
g13
(g14
g15
NtRp2119
(dp2120
g18
I1
sg19
I4
sg20
I25
sg21
I0
sg22
I0
sg23
I0
sg24
I0
sbssg38
S'\xf8\xaf0\xe2\xc1q\x88\xa4\\\xde\x81@\xa4\xe3\xef\x12'
p2121
ssS'create_models_questions___init__'
p2122
(dp2123
g42
(dp2124
g588
S'create_models_questions___init__.html'
p2125
sg590
S'create/models/questions/__init__'
p2126
sg592
g13
(g14
g15
NtRp2127
(dp2128
g18
I1
sg19
I0
sg20
I6
sg21
I0
sg22
I0
sg23
I0
sg24
I0
sbssg51
S'\xd4\xfd\xae\xf0N\xdd-\x07$U\xac\xf1\xc2\x0f\xa5H'
p2129
ssS'create_models_tags_tag_type_model'
p2130
(dp2131
g383
(dp2132
g44
S'create_models_tags_tag_type_model.html'
p2133
sg46
S'create/models/tags/tag_type_model'
p2134
sg48
g13
(g14
g15
NtRp2135
(dp2136
g18
I1
sg19
I0
sg20
I15
sg21
I0
sg22
I0
sg23
I0
sg24
I0
sbssg389
S'\x89\x07\x8e\xc7^0\x96Do\xbf\xa5\xca5\xe4\x92\xeb'
p2137
ssS'create_serializers___init__'
p2138
(dp2139
g42
(dp2140
g57
S'create_serializers___init__.html'
p2141
sg59
S'create/serializers/__init__'
p2142
sg61
g13
(g14
g15
NtRp2143
(dp2144
g18
I1
sg19
I0
sg20
I6
sg21
I0
sg22
I0
sg23
I0
sg24
I0
sbssg51
S'\x97\xc3"\xfe\x83V\xc1w\xa6r\x02s qES'
p2145
ssS'create_serializers_books_book_history_serializer'
p2146
(dp2147
g936
(dp2148
g93
S'create_serializers_books_book_history_serializer.html'
p2149
sg95
S'create/serializers/books/book_history_serializer'
p2150
sg97
g13
(g14
g15
NtRp2151
(dp2152
g18
I1
sg19
I0
sg20
I14
sg21
I0
sg22
I0
sg23
I0
sg24
I0
sbssg942
S'|g\x1e1\xcdq*ob~B\xca\xd92\x8b\x01'
p2153
ssS'teach_views_daily_quest_templates___init__'
p2154
(dp2155
g55
(dp2156
g57
S'teach_views_daily_quest_templates___init__.html'
p2157
sg59
S'teach/views/daily_quest_templates/__init__'
p2158
sg61
g13
(g14
g15
NtRp2159
(dp2160
g18
I1
sg19
I0
sg20
I1
sg21
I0
sg22
I0
sg23
I0
sg24
I0
sbssg64
S'\xc1b\x1f\x95\xabR`C\xe80\xb9tNC\r3'
p2161
ssS'teach___init__'
p2162
(dp2163
g55
(dp2164
g57
S'teach___init__.html'
p2165
sg59
S'teach/__init__'
p2166
sg61
g13
(g14
g15
NtRp2167
(dp2168
g18
I1
sg19
I0
sg20
I0
sg21
I0
sg22
I0
sg23
I0
sg24
I0
sbssg64
S'\x19g\xdfM\x1a\x019\xaf\x1baIeR\xe5u\xa7'
p2169
ssS'user_system_views_users___init__'
p2170
(dp2171
g42
(dp2172
g177
S'user_system_views_users___init__.html'
p2173
sg179
S'user_system/views/users/__init__'
p2174
sg181
g13
(g14
g15
NtRp2175
(dp2176
g18
I1
sg19
I0
sg20
I6
sg21
I0
sg22
I0
sg23
I0
sg24
I0
sbssg51
S'YNj\xa9zR_\xf0?\x10V\x89y\x81\xbb\xeb'
p2177
ssS'flipped_helpers_tests_test_email_helper'
p2178
(dp2179
g42
(dp2180
g44
S'flipped_helpers_tests_test_email_helper.html'
p2181
sg46
S'flipped/helpers/tests/test_email_helper'
p2182
sg48
g13
(g14
g15
NtRp2183
(dp2184
g18
I1
sg19
I0
sg20
I13
sg21
I0
sg22
I0
sg23
I0
sg24
I0
sbssg51
S'\x13\xee\xcb^E:3A\xff)v\x7f\xd3\xa7\xa2\xaa'
p2185
ssS'user_system_serializers_users___init__'
p2186
(dp2187
g42
(dp2188
g177
S'user_system_serializers_users___init__.html'
p2189
sg179
S'user_system/serializers/users/__init__'
p2190
sg181
g13
(g14
g15
NtRp2191
(dp2192
g18
I1
sg19
I0
sg20
I7
sg21
I0
sg22
I0
sg23
I0
sg24
I0
sbssg51
S'8\xb4\xd8m\x9aA\xf2,\xb1\xe4\xb3\xe2#\xab\xd0#'
p2193
ssS'user_system_models_schools_tests_test_semester_model'
p2194
(dp2195
g206
(dp2196
g1429
S'user_system_models_schools_tests_test_semester_model.html'
p2197
sg1431
S'user_system/models/schools/tests/test_semester_model'
p2198
sg1433
g13
(g14
g15
NtRp2199
(dp2200
g18
I1
sg19
I0
sg20
I29
sg21
I0
sg22
I0
sg23
I0
sg24
I0
sbssg215
S'\xe9\xd9\xdc\\\xb9\x93\xb1\x93Q\x02\xe9\xb7Y,\xa6w'
p2201
ssS'create_views_quests_tests___init__'
p2202
(dp2203
g6
(dp2204
g8
S'create_views_quests_tests___init__.html'
p2205
sg10
S'create/views/quests/tests/__init__'
p2206
sg12
g13
(g14
g15
NtRp2207
(dp2208
g18
I1
sg19
I0
sg20
I0
sg21
I0
sg22
I0
sg23
I0
sg24
I0
sbssg25
S'\x19g\xdfM\x1a\x019\xaf\x1baIeR\xe5u\xa7'
p2209
ssS'user_system_serializers_schools_course_serializer'
p2210
(dp2211
g116
(dp2212
g31
S'user_system_serializers_schools_course_serializer.html'
p2213
sg33
S'user_system/serializers/schools/course_serializer'
p2214
sg35
g13
(g14
g15
NtRp2215
(dp2216
g18
I1
sg19
I0
sg20
I16
sg21
I0
sg22
I0
sg23
I2
sg24
I0
sbssg122
S'\xb0\xa8O3\x01\xce\xfe3\x12\x94\xc0\xc4\xe0@\xafJ'
p2217
ssS'user_system_views_users_tests_test_delete_user_view'
p2218
(dp2219
g42
(dp2220
g44
S'user_system_views_users_tests_test_delete_user_view.html'
p2221
sg46
S'user_system/views/users/tests/test_delete_user_view'
p2222
sg48
g13
(g14
g15
NtRp2223
(dp2224
g18
I1
sg19
I0
sg20
I22
sg21
I0
sg22
I0
sg23
I0
sg24
I0
sbssg51
S'\xe4S$\xa1t\xc6\xbe\xc7\xb9^Y\x05{\x92KQ'
p2225
ssS'learn_models_daily_quests_daily_quest_question_history_model'
p2226
(dp2227
S'index'
p2228
(dp2229
g955
S'learn_models_daily_quests_daily_quest_question_history_model.html'
p2230
sg957
S'learn/models/daily_quests/daily_quest_question_history_model'
p2231
sg959
g13
(g14
g15
NtRp2232
(dp2233
g18
I1
sg19
I6
sg20
I67
sg21
I0
sg22
I0
sg23
I24
sg24
I6
sbssS'hash'
p2234
S'\x86f\xc3x\xac\x9dH\xea\x88\xe5\xc6Z\x8f\x83\xca\x05'
p2235
ssS'user_system_models_users_user_profile_update_request_model'
p2236
(dp2237
g116
(dp2238
g627
S'user_system_models_users_user_profile_update_request_model.html'
p2239
sg629
S'user_system/models/users/user_profile_update_request_model'
p2240
sg631
g13
(g14
g15
NtRp2241
(dp2242
g18
I1
sg19
I0
sg20
I58
sg21
I0
sg22
I0
sg23
I0
sg24
I0
sbssg122
S'\xc8t\x16>\xb9"\xff\x93\xe3\x00\xa5z0[\xacM'
p2243
ssS'create_models_tags_tag_history_model'
p2244
(dp2245
g560
(dp2246
g221
S'create_models_tags_tag_history_model.html'
p2247
sg223
S'create/models/tags/tag_history_model'
p2248
sg225
g13
(g14
g15
NtRp2249
(dp2250
g18
I1
sg19
I0
sg20
I37
sg21
I0
sg22
I0
sg23
I0
sg24
I0
sbssg566
S'\xae\xc8g\xc1\xf5l<\x1f\x9c\xaf\x17\xf98\r\xa1\xe2'
p2251
ssS'create_serializers_daily_quest_copies___init__'
p2252
(dp2253
g411
(dp2254
g1512
S'create_serializers_daily_quest_copies___init__.html'
p2255
sg1514
S'create/serializers/daily_quest_copies/__init__'
p2256
sg1516
g13
(g14
g15
NtRp2257
(dp2258
g18
I1
sg19
I0
sg20
I1
sg21
I0
sg22
I0
sg23
I0
sg24
I0
sbssg420
S'\nX]\x85Nc\xb8\xc0\xe1\xaf\xa0\xda_\x9e\xb9u'
p2259
ssS'user_system_models_schools_course_model'
p2260
(dp2261
g232
(dp2262
g627
S'user_system_models_schools_course_model.html'
p2263
sg629
S'user_system/models/schools/course_model'
p2264
sg631
g13
(g14
g15
NtRp2265
(dp2266
g18
I1
sg19
I6
sg20
I37
sg21
I0
sg22
I0
sg23
I0
sg24
I0
sbssg238
S']\xfb\xca\\\xbf\x86n\xc3fj\xc2\x1ej\\q\x14'
p2267
ssS'create_models_daily_quest_copies_tests_test_daily_quest_copy_model'
p2268
(dp2269
g411
(dp2270
g542
S'create_models_daily_quest_copies_tests_test_daily_quest_copy_model.html'
p2271
sg544
S'create/models/daily_quest_copies/tests/test_daily_quest_copy_model'
p2272
sg546
g13
(g14
g15
NtRp2273
(dp2274
g18
I1
sg19
I4
sg20
I45
sg21
I0
sg22
I0
sg23
I0
sg24
I0
sbssg420
S'\xcd\xeeU\x8a\xd7\x95\x9e5E\xd0\xaf\xd07\x80\x85\xe0'
p2275
ssS'privilege_views_privileges___init__'
p2276
(dp2277
g287
(dp2278
g93
S'privilege_views_privileges___init__.html'
p2279
sg95
S'privilege/views/privileges/__init__'
p2280
sg97
g13
(g14
g15
NtRp2281
(dp2282
g18
I1
sg19
I0
sg20
I1
sg21
I0
sg22
I0
sg23
I0
sg24
I0
sbssg293
S']\x14S\xdf\xb4:Tx\xb9\x98\x89\xe7\x01%DZ'
p2283
ssS'teach_models_teacher_chapters_teacher_chapter_model'
p2284
(dp2285
g55
(dp2286
S'html_filename'
p2287
S'teach_models_teacher_chapters_teacher_chapter_model.html'
p2288
sS'name'
p2289
S'teach/models/teacher_chapters/teacher_chapter_model'
p2290
sS'nums'
p2291
g13
(g14
g15
NtRp2292
(dp2293
g18
I1
sg19
I0
sg20
I23
sg21
I0
sg22
I0
sg23
I0
sg24
I0
sbssg64
S'\x97T&\xd0\x81q\xc2M\xc3\x03\x01U\xf5S!h'
p2294
ssS'create_models_questions_question_template_model'
p2295
(dp2296
g103
(dp2297
S'html_filename'
p2298
S'create_models_questions_question_template_model.html'
p2299
sS'name'
p2300
S'create/models/questions/question_template_model'
p2301
sS'nums'
p2302
g13
(g14
g15
NtRp2303
(dp2304
g18
I1
sg19
I0
sg20
I40
sg21
I0
sg22
I0
sg23
I0
sg24
I0
sbssg112
S'\x845gz\x1d\x17\x1dv\x81\n\x96G\x99pE\\'
p2305
ssS'create_views_questions_tests_test_get_question_by_id_view'
p2306
(dp2307
g42
(dp2308
g93
S'create_views_questions_tests_test_get_question_by_id_view.html'
p2309
sg95
S'create/views/questions/tests/test_get_question_by_id_view'
p2310
sg97
g13
(g14
g15
NtRp2311
(dp2312
g18
I1
sg19
I0
sg20
I24
sg21
I0
sg22
I0
sg23
I0
sg24
I0
sbssg51
S'\xa7[\x91\xa9\xa6\xb4\xbd&n$O^O\xec\xf2X'
p2313
ssS'teach_models_teacher_tags_tests___init__'
p2314
(dp2315
g55
(dp2316
g57
S'teach_models_teacher_tags_tests___init__.html'
p2317
sg59
S'teach/models/teacher_tags/tests/__init__'
p2318
sg61
g13
(g14
g15
NtRp2319
(dp2320
g18
I1
sg19
I0
sg20
I0
sg21
I0
sg22
I0
sg23
I0
sg24
I0
sbssg64
S'\x19g\xdfM\x1a\x019\xaf\x1baIeR\xe5u\xa7'
p2321
ssS'api_logging_urls'
p2322
(dp2323
g297
(dp2324
g177
S'api_logging_urls.html'
p2325
sg179
S'api_logging/urls'
p2326
sg181
g13
(g14
g15
NtRp2327
(dp2328
g18
I1
sg19
I0
sg20
I13
sg21
I0
sg22
I0
sg23
I0
sg24
I0
sbssg303
S'`K\xc5_\x82\xb4\x1c^\xd6\x98+\xe6\xf0/\x97\x06'
p2329
ssS'api_logging_serializers_LoggingSerializer'
p2330
(dp2331
g297
(dp2332
g177
S'api_logging_serializers_LoggingSerializer.html'
p2333
sg179
S'api_logging/serializers/LoggingSerializer'
p2334
sg181
g13
(g14
g15
NtRp2335
(dp2336
g18
I1
sg19
I0
sg20
I12
sg21
I0
sg22
I0
sg23
I0
sg24
I0
sbssg303
S'1\xdb}\x8eJ\x1a\xe6@D\xcc}\xf4\x11(\x11\xb0'
p2337
ssS'create_views_books_tests_test_remove_subchapter_view'
p2338
(dp2339
S'index'
p2340
(dp2341
g44
S'create_views_books_tests_test_remove_subchapter_view.html'
p2342
sg46
S'create/views/books/tests/test_remove_subchapter_view'
p2343
sg48
g13
(g14
g15
NtRp2344
(dp2345
g18
I1
sg19
I0
sg20
I44
sg21
I0
sg22
I0
sg23
I0
sg24
I0
sbssS'hash'
p2346
S'\x0b\xddi\xaa_d\x8c\xf3b\xa2\x12\xbc\xce\xa5\xbf\x8b'
p2347
ssS'teach_views_summaries_daily_quest_daily_summary_view'
p2348
(dp2349
g297
(dp2350
g955
S'teach_views_summaries_daily_quest_daily_summary_view.html'
p2351
sg957
S'teach/views/summaries/daily_quest_daily_summary_view'
p2352
sg959
g13
(g14
g15
NtRp2353
(dp2354
g18
I1
sg19
I14
sg20
I63
sg21
I0
sg22
I0
sg23
I41
sg24
I14
sbssg303
S'B\x1d&|\xd4\xaf\xbb\xc5=\x90,y\xe4"\xf5]'
p2355
ssS'learn_models_points_point_history_model'
p2356
(dp2357
g297
(dp2358
g177
S'learn_models_points_point_history_model.html'
p2359
sg179
S'learn/models/points/point_history_model'
p2360
sg181
g13
(g14
g15
NtRp2361
(dp2362
g18
I1
sg19
I0
sg20
I16
sg21
I0
sg22
I0
sg23
I0
sg24
I0
sbssg303
S'\xa8\xbaH\x19\x11\xbeT\xe2N=\xfe\xed\x9d\xd4\x83\x1e'
p2363
ssS'user_system___init__'
p2364
(dp2365
g42
(dp2366
g446
S'user_system___init__.html'
p2367
sg448
S'user_system/__init__'
p2368
sg450
g13
(g14
g15
NtRp2369
(dp2370
g18
I1
sg19
I0
sg20
I0
sg21
I0
sg22
I0
sg23
I0
sg24
I0
sbssg51
S'\x19g\xdfM\x1a\x019\xaf\x1baIeR\xe5u\xa7'
p2371
ssS'create_models_question_datasets_question_dataset_model'
p2372
(dp2373
g144
(dp2374
g146
S'create_models_question_datasets_question_dataset_model.html'
p2375
sg148
S'create/models/question_datasets/question_dataset_model'
p2376
sg150
g13
(g14
g15
NtRp2377
(dp2378
g18
I1
sg19
I0
sg20
I25
sg21
I0
sg22
I0
sg23
I0
sg24
I0
sbssg153
S'\x9e\x8d\xc6\xe6\xe4\x9f#\xfdc\xc9q\r\x17Y\x8e\xb1'
p2379
ssS'create_views_question_datasets___init__'
p2380
(dp2381
g144
(dp2382
g146
S'create_views_question_datasets___init__.html'
p2383
sg148
S'create/views/question_datasets/__init__'
p2384
sg150
g13
(g14
g15
NtRp2385
(dp2386
g18
I1
sg19
I0
sg20
I1
sg21
I0
sg22
I0
sg23
I0
sg24
I0
sbssg153
S'\x87x\xd1\xbe\x15\xd3\xbc\x99\x86\x08\xf8\x06S\xcf\x00\x87'
p2387
ssS'teach_serializers_daily_quest_templates___init__'
p2388
(dp2389
g55
(dp2390
g57
S'teach_serializers_daily_quest_templates___init__.html'
p2391
sg59
S'teach/serializers/daily_quest_templates/__init__'
p2392
sg61
g13
(g14
g15
NtRp2393
(dp2394
g18
I1
sg19
I0
sg20
I1
sg21
I0
sg22
I0
sg23
I0
sg24
I0
sbssg64
S'\xa2\xd34\x1b\xe2+\x16\xa9un\x8f\xa5\xe6\xc4\\p'
p2395
ssS'create_views_books_tests_test_remove_tag_from_subchapter_view'
p2396
(dp2397
g1530
(dp2398
g44
S'create_views_books_tests_test_remove_tag_from_subchapter_view.html'
p2399
sg46
S'create/views/books/tests/test_remove_tag_from_subchapter_view'
p2400
sg48
g13
(g14
g15
NtRp2401
(dp2402
g18
I1
sg19
I0
sg20
I40
sg21
I0
sg22
I0
sg23
I0
sg24
I0
sbssg1536
S"(Vo#\xdd\x9a\xbc\x11\xff\xd6'\xd7\xeb\xca\x1aM"
p2403
ssS'create_views_daily_quests___init__'
p2404
(dp2405
g242
(dp2406
g244
S'create_views_daily_quests___init__.html'
p2407
sg246
S'create/views/daily_quests/__init__'
p2408
sg248
g13
(g14
g15
NtRp2409
(dp2410
g18
I1
sg19
I0
sg20
I1
sg21
I0
sg22
I0
sg23
I0
sg24
I0
sbssg251
S'\xa3\x08\xf3\xbaF\xd5u\x88\x12\xa3V\x05K\xe5\xd0\xa9'
p2411
ssS'flipped_helpers_email_helper'
p2412
(dp2413
g42
(dp2414
g44
S'flipped_helpers_email_helper.html'
p2415
sg46
S'flipped/helpers/email_helper'
p2416
sg48
g13
(g14
g15
NtRp2417
(dp2418
g18
I1
sg19
I2
sg20
I9
sg21
I0
sg22
I0
sg23
I0
sg24
I0
sbssg51
S"\xeal\t\x03)\xcc\xc4\x0b\r\xe2&\x83a'I\xad"
p2419
ssS'flipped_urls'
p2420
(dp2421
g42
(dp2422
g93
S'flipped_urls.html'
p2423
sg95
S'flipped/urls'
p2424
sg97
g13
(g14
g15
NtRp2425
(dp2426
g18
I1
sg19
I0
sg20
I9
sg21
I0
sg22
I0
sg23
I0
sg24
I0
sbssg51
S'\xcbN{\xd0A\x0b\xa0\xc3\xd4\x8cr\xe3\x1e\x12\x1e\xb0'
p2427
ssS'teach_views_summaries_daily_quest_summary_view'
p2428
(dp2429
g297
(dp2430
g955
S'teach_views_summaries_daily_quest_summary_view.html'
p2431
sg957
S'teach/views/summaries/daily_quest_summary_view'
p2432
sg959
g13
(g14
g15
NtRp2433
(dp2434
g18
I1
sg19
I24
sg20
I72
sg21
I0
sg22
I0
sg23
I52
sg24
I24
sbssg303
S'\xef\xc3D\xecT\x12\xea\x03Zt\xda\x00e\x98\xb0\x8f'
p2435
ssS'user_system_views_users_student_profile_request_view'
p2436
(dp2437
g116
(dp2438
g31
S'user_system_views_users_student_profile_request_view.html'
p2439
sg33
S'user_system/views/users/student_profile_request_view'
p2440
sg35
g13
(g14
g15
NtRp2441
(dp2442
g18
I1
sg19
I0
sg20
I14
sg21
I0
sg22
I0
sg23
I0
sg24
I0
sbssg122
S'\x87:\xd0\xef\x04\xf3-q\r\xe7\xec \xceS\xee<'
p2443
ssS'user_system_views_logins_tests___init__'
p2444
(dp2445
g42
(dp2446
g446
S'user_system_views_logins_tests___init__.html'
p2447
sg448
S'user_system/views/logins/tests/__init__'
p2448
sg450
g13
(g14
g15
NtRp2449
(dp2450
g18
I1
sg19
I0
sg20
I1
sg21
I0
sg22
I0
sg23
I0
sg24
I0
sbssg51
S'\xbc\xd6\xeb\xb3\xba\xcaz\xf7{\xd4B\xb5}l\xdf\x96'
p2451
ssS'api_logging_views_modal_loggings___init__'
p2452
(dp2453
g297
(dp2454
g177
S'api_logging_views_modal_loggings___init__.html'
p2455
sg179
S'api_logging/views/modal_loggings/__init__'
p2456
sg181
g13
(g14
g15
NtRp2457
(dp2458
g18
I1
sg19
I0
sg20
I1
sg21
I0
sg22
I0
sg23
I0
sg24
I0
sbssg303
S'\xf1\x0fWK\x0c\x9eD\xe8\x12\xaf\x93\xfa\xd7q\xa8\x91'
p2459
ssS'user_system_views_users_tests_test_get_users_by_signup_type_view'
p2460
(dp2461
g42
(dp2462
g93
S'user_system_views_users_tests_test_get_users_by_signup_type_view.html'
p2463
sg95
S'user_system/views/users/tests/test_get_users_by_signup_type_view'
p2464
sg97
g13
(g14
g15
NtRp2465
(dp2466
g18
I1
sg19
I0
sg20
I44
sg21
I0
sg22
I0
sg23
I0
sg24
I0
sbssg51
S'T/\xf9\xf8\x94\xd6Lm\x89o\xb6\x99/Z\xc1]'
p2467
ssS'user_system_serializers_users_user_serializer'
p2468
(dp2469
g42
(dp2470
g93
S'user_system_serializers_users_user_serializer.html'
p2471
sg95
S'user_system/serializers/users/user_serializer'
p2472
sg97
g13
(g14
g15
NtRp2473
(dp2474
g18
I1
sg19
I8
sg20
I46
sg21
I0
sg22
I2
sg23
I8
sg24
I6
sbssg51
S'\xb2\xee\xa4\xa6\x8b\xe1\xe1\xce\xaa\xe6\xdd\xbd\xb3\xf2\x81/'
p2475
ssS'create_serializers_daily_quest_copies_daily_quest_copy_serializer'
p2476
(dp2477
g411
(dp2478
g1512
S'create_serializers_daily_quest_copies_daily_quest_copy_serializer.html'
p2479
sg1514
S'create/serializers/daily_quest_copies/daily_quest_copy_serializer'
p2480
sg1516
g13
(g14
g15
NtRp2481
(dp2482
g18
I1
sg19
I0
sg20
I18
sg21
I0
sg22
I0
sg23
I3
sg24
I0
sbssg420
S'\xb6\xc6tAeANu\xae\n4T\xc1.\xe2\xfd'
p2483
ssS'create_models_books_tests_test_book_history_model'
p2484
(dp2485
g349
(dp2486
g627
S'create_models_books_tests_test_book_history_model.html'
p2487
sg629
S'create/models/books/tests/test_book_history_model'
p2488
sg631
g13
(g14
g15
NtRp2489
(dp2490
g18
I1
sg19
I0
sg20
I65
sg21
I0
sg22
I0
sg23
I0
sg24
I0
sbssg355
S'\xedQI\xf5\x17. 8I\x938\xca4\x05=\xf3'
p2491
ssS'create_views_quests_tests_test_remove_question_view'
p2492
(dp2493
g6
(dp2494
g8
S'create_views_quests_tests_test_remove_question_view.html'
p2495
sg10
S'create/views/quests/tests/test_remove_question_view'
p2496
sg12
g13
(g14
g15
NtRp2497
(dp2498
g18
I1
sg19
I0
sg20
I0
sg21
I0
sg22
I0
sg23
I0
sg24
I0
sbssg25
S'\x19g\xdfM\x1a\x019\xaf\x1baIeR\xe5u\xa7'
p2499
ssS'create_serializers_daily_quest_templates_daily_quest_template_serializer'
p2500
(dp2501
g242
(dp2502
g244
S'create_serializers_daily_quest_templates_daily_quest_template_serializer.html'
p2503
sg246
S'create/serializers/daily_quest_templates/daily_quest_template_serializer'
p2504
sg248
g13
(g14
g15
NtRp2505
(dp2506
g18
I1
sg19
I0
sg20
I8
sg21
I0
sg22
I0
sg23
I0
sg24
I0
sbssg251
S'-b,\x8cFu\xd2b\x8b\rw5\xa4\xf7\xc3\xf2'
p2507
ssS'user_system_managers___init__'
p2508
(dp2509
g297
(dp2510
g177
S'user_system_managers___init__.html'
p2511
sg179
S'user_system/managers/__init__'
p2512
sg181
g13
(g14
g15
NtRp2513
(dp2514
g18
I1
sg19
I0
sg20
I2
sg21
I0
sg22
I0
sg23
I0
sg24
I0
sbssg303
S'\xf1\xb0\xc3\xd3B\x8d\xdf\x12\x1bW\x06\xa4\xe7\x13A '
p2515
ssS'teach_models_campaigns_tests_test_campaign_model'
p2516
(dp2517
g116
(dp2518
g31
S'teach_models_campaigns_tests_test_campaign_model.html'
p2519
sg33
S'teach/models/campaigns/tests/test_campaign_model'
p2520
sg35
g13
(g14
g15
NtRp2521
(dp2522
g18
I1
sg19
I0
sg20
I43
sg21
I0
sg22
I0
sg23
I0
sg24
I0
sbssg122
S"\x1b\xbbi{\xe8\xa9o\xd3w\xfb'\x1e\xca\x1b\xd9\xc7"
p2523
ssS'api_logging_views_modal_loggings_modal_user_history_view'
p2524
(dp2525
g297
(dp2526
g177
S'api_logging_views_modal_loggings_modal_user_history_view.html'
p2527
sg179
S'api_logging/views/modal_loggings/modal_user_history_view'
p2528
sg181
g13
(g14
g15
NtRp2529
(dp2530
g18
I1
sg19
I0
sg20
I12
sg21
I0
sg22
I0
sg23
I0
sg24
I0
sbssg303
S'\xb4\xa3\xa1!\x95\x8a\x06\xf5\x19\x1c=\xe2B\xa3b\t'
p2531
ssS'user_system_views_logins_tests_test_email_login_view'
p2532
(dp2533
g42
(dp2534
g44
S'user_system_views_logins_tests_test_email_login_view.html'
p2535
sg46
S'user_system/views/logins/tests/test_email_login_view'
p2536
sg48
g13
(g14
g15
NtRp2537
(dp2538
g18
I1
sg19
I0
sg20
I61
sg21
I0
sg22
I0
sg23
I0
sg24
I0
sbssg51
S'\x926\xe8\xcdL\xf3U\xc1C\x1b\x0f\xaf\xf0c\x9b\xd0'
p2539
ssS'create_views_books_book_chapter_view'
p2540
(dp2541
g560
(dp2542
g177
S'create_views_books_book_chapter_view.html'
p2543
sg179
S'create/views/books/book_chapter_view'
p2544
sg181
g13
(g14
g15
NtRp2545
(dp2546
g18
I1
sg19
I12
sg20
I44
sg21
I0
sg22
I0
sg23
I22
sg24
I12
sbssg566
S'\x0b3\xd8 \xe1\x08#79\x0c\x7f\x1f6\xad0\xe9'
p2547
ssS'create_views___init__'
p2548
(dp2549
g42
(dp2550
g57
S'create_views___init__.html'
p2551
sg59
S'create/views/__init__'
p2552
sg61
g13
(g14
g15
NtRp2553
(dp2554
g18
I1
sg19
I0
sg20
I7
sg21
I0
sg22
I0
sg23
I0
sg24
I0
sbssg51
S'\x8f\x98\x9b$~\xde\xc2\xfc\x97/\x14^\xe8\xf8\x10M'
p2555
ssS'user_system_serializers_users_student_profile_serializer'
p2556
(dp2557
g116
(dp2558
g413
S'user_system_serializers_users_student_profile_serializer.html'
p2559
sg415
S'user_system/serializers/users/student_profile_serializer'
p2560
sg417
g13
(g14
g15
NtRp2561
(dp2562
g18
I1
sg19
I0
sg20
I10
sg21
I0
sg22
I0
sg23
I0
sg24
I0
sbssg122
S'\xb4\n*\x1b\x86\xd1\\\xa2k\xeb\xd8\xeaW\x0c\xd8x'
p2563
ssS'flipped_helpers_errors_helper'
p2564
(dp2565
g42
(dp2566
g44
S'flipped_helpers_errors_helper.html'
p2567
sg46
S'flipped/helpers/errors_helper'
p2568
sg48
g13
(g14
g15
NtRp2569
(dp2570
g18
I1
sg19
I0
sg20
I5
sg21
I0
sg22
I0
sg23
I0
sg24
I0
sbssg51
S'\x91\x04\x1c\xf86c\xad\xf7\xe3\xf13\xf5n8eP'
p2571
ssS'teach_views_teacher_tags_teacher_tag_view'
p2572
(dp2573
g55
(dp2574
g177
S'teach_views_teacher_tags_teacher_tag_view.html'
p2575
sg179
S'teach/views/teacher_tags/teacher_tag_view'
p2576
sg181
g13
(g14
g15
NtRp2577
(dp2578
g18
I1
sg19
I20
sg20
I55
sg21
I0
sg22
I2
sg23
I30
sg24
I18
sbssg64
S'\xec\x1aQ\x839\x80#\xe5\xca\x98\xf6\xec\x84\x17\xa3\xeb'
p2579
ssS'create_models_questions_tests_test_question_history_model'
p2580
(dp2581
g42
(dp2582
g993
S'create_models_questions_tests_test_question_history_model.html'
p2583
sg995
S'create/models/questions/tests/test_question_history_model'
p2584
sg997
g13
(g14
g15
NtRp2585
(dp2586
g18
I1
sg19
I2
sg20
I73
sg21
I0
sg22
I0
sg23
I0
sg24
I0
sbssg51
S'i\xd4 \xdcI\x9f\xbc\x0c|\x95\x15wW\xb4\xa9\x15'
p2587
ssS'create_views_tags_tests_test_create_tag_view'
p2588
(dp2589
g424
(dp2590
g44
S'create_views_tags_tests_test_create_tag_view.html'
p2591
sg46
S'create/views/tags/tests/test_create_tag_view'
p2592
sg48
g13
(g14
g15
NtRp2593
(dp2594
g18
I1
sg19
I0
sg20
I33
sg21
I0
sg22
I0
sg23
I0
sg24
I0
sbssg433
S'\\\x91{\x1a ;Qg\xbd\x81\xe2\xaf\xa41\xac\x1b'
p2595
ssS'create_views_questions_tests___init__'
p2596
(dp2597
g42
(dp2598
g446
S'create_views_questions_tests___init__.html'
p2599
sg448
S'create/views/questions/tests/__init__'
p2600
sg450
g13
(g14
g15
NtRp2601
(dp2602
g18
I1
sg19
I0
sg20
I0
sg21
I0
sg22
I0
sg23
I0
sg24
I0
sbssg51
S'\x19g\xdfM\x1a\x019\xaf\x1baIeR\xe5u\xa7'
p2603
ssS'flipped___init__'
p2604
(dp2605
g42
(dp2606
g446
S'flipped___init__.html'
p2607
sg448
S'flipped/__init__'
p2608
sg450
g13
(g14
g15
NtRp2609
(dp2610
g18
I1
sg19
I0
sg20
I0
sg21
I0
sg22
I0
sg23
I0
sg24
I0
sbssg51
S'\x19g\xdfM\x1a\x019\xaf\x1baIeR\xe5u\xa7'
p2611
ssS'user_system_views_roles___init__'
p2612
(dp2613
g42
(dp2614
g446
S'user_system_views_roles___init__.html'
p2615
sg448
S'user_system/views/roles/__init__'
p2616
sg450
g13
(g14
g15
NtRp2617
(dp2618
g18
I1
sg19
I0
sg20
I1
sg21
I0
sg22
I0
sg23
I0
sg24
I0
sbssg51
S'\xeb\x15\r\x85I\x9e<\xbc\x15\xd1P\xef\x16\x8c\xe0l'
p2619
ssS'create_models_daily_quest_templates_tests_test_daily_quest_template_model'
p2620
(dp2621
g242
(dp2622
g244
S'create_models_daily_quest_templates_tests_test_daily_quest_template_model.html'
p2623
sg246
S'create/models/daily_quest_templates/tests/test_daily_quest_template_model'
p2624
sg248
g13
(g14
g15
NtRp2625
(dp2626
g18
I1
sg19
I0
sg20
I37
sg21
I0
sg22
I0
sg23
I0
sg24
I0
sbssg251
S'\x01\x04)\xffw\x13\x9aqx\xb2\x9f\x02\xb0\x90\xf3\xa5'
p2627
ssS'teach_views_summaries___init__'
p2628
(dp2629
g297
(dp2630
g188
S'teach_views_summaries___init__.html'
p2631
sg190
S'teach/views/summaries/__init__'
p2632
sg192
g13
(g14
g15
NtRp2633
(dp2634
g18
I1
sg19
I0
sg20
I6
sg21
I0
sg22
I0
sg23
I0
sg24
I0
sbssg303
S'\xf1\xa7@\xae\xc1+T\x8d\tr\xacb\x91s,\xbf'
p2635
ssS'user_system_models_users_user_profile_history_model'
p2636
(dp2637
g116
(dp2638
g31
S'user_system_models_users_user_profile_history_model.html'
p2639
sg33
S'user_system/models/users/user_profile_history_model'
p2640
sg35
g13
(g14
g15
NtRp2641
(dp2642
g18
I1
sg19
I4
sg20
I72
sg21
I0
sg22
I2
sg23
I12
sg24
I2
sbssg122
S'\x9a\x0c\xe2p\x8b\xee\x01\x87\xfd\x81\xb4\x9bzp\x90\xb6'
p2643
ssS'user_system_models_roles_role_model'
p2644
(dp2645
g42
(dp2646
g44
S'user_system_models_roles_role_model.html'
p2647
sg46
S'user_system/models/roles/role_model'
p2648
sg48
g13
(g14
g15
NtRp2649
(dp2650
g18
I1
sg19
I0
sg20
I16
sg21
I0
sg22
I0
sg23
I0
sg24
I0
sbssg51
S'\x180j\xc8\x05 \xa05\xa7\xffj\x1dJ\x8a6\xcb'
p2651
ssS'user_system_views_users_user_view'
p2652
(dp2653
g42
(dp2654
g177
S'user_system_views_users_user_view.html'
p2655
sg179
S'user_system/views/users/user_view'
p2656
sg181
g13
(g14
g15
NtRp2657
(dp2658
g18
I1
sg19
I66
sg20
I186
sg21
I0
sg22
I0
sg23
I108
sg24
I44
sbssg51
S'S`\xa9\xa5\xad\x9d\x84\x8fOl!#\x8a<\x9c\xed'
p2659
ssS'teach_models_daily_quest_templates_tests_test_daily_quest_template_model'
p2660
(dp2661
g55
(dp2662
g57
S'teach_models_daily_quest_templates_tests_test_daily_quest_template_model.html'
p2663
sg59
S'teach/models/daily_quest_templates/tests/test_daily_quest_template_model'
p2664
sg61
g13
(g14
g15
NtRp2665
(dp2666
g18
I1
sg19
I0
sg20
I37
sg21
I0
sg22
I0
sg23
I0
sg24
I0
sbssg64
S'\x01\x04)\xffw\x13\x9aqx\xb2\x9f\x02\xb0\x90\xf3\xa5'
p2667
ssS'user_system_views_apps___init__'
p2668
(dp2669
g42
(dp2670
g446
S'user_system_views_apps___init__.html'
p2671
sg448
S'user_system/views/apps/__init__'
p2672
sg450
g13
(g14
g15
NtRp2673
(dp2674
g18
I1
sg19
I0
sg20
I1
sg21
I0
sg22
I0
sg23
I0
sg24
I0
sbssg51
S'?:\xf2A\xfa^]\xc5NR\xc9\x13\xb0\xe4\xfa\x9e'
p2675
ssS'user_system_views_users_tests_test_get_users_list_view'
p2676
(dp2677
g42
(dp2678
g93
S'user_system_views_users_tests_test_get_users_list_view.html'
p2679
sg95
S'user_system/views/users/tests/test_get_users_list_view'
p2680
sg97
g13
(g14
g15
NtRp2681
(dp2682
g18
I1
sg19
I0
sg20
I34
sg21
I0
sg22
I0
sg23
I0
sg24
I0
sbssg51
S'\xf5\xe3\x1a\x14e\xf8\xc2\xf0\xa8^$\xf7\x9dv\xb8f'
p2683
ssS'create_models_questions_question_type_model'
p2684
(dp2685
g42
(dp2686
g44
S'create_models_questions_question_type_model.html'
p2687
sg46
S'create/models/questions/question_type_model'
p2688
sg48
g13
(g14
g15
NtRp2689
(dp2690
g18
I1
sg19
I0
sg20
I19
sg21
I0
sg22
I0
sg23
I0
sg24
I0
sbssg51
S'\xb9\xe7I\x93\x8b\xa8\xa8H\x80\x02_\xf9\x87\xa2\xe7\xa5'
p2691
ssS'user_system_views_apps_app_view'
p2692
(dp2693
g42
(dp2694
S'html_filename'
p2695
S'user_system_views_apps_app_view.html'
p2696
sS'name'
p2697
S'user_system/views/apps/app_view'
p2698
sS'nums'
p2699
g13
(g14
g15
NtRp2700
(dp2701
g18
I1
sg19
I0
sg20
I13
sg21
I0
sg22
I0
sg23
I0
sg24
I0
sbssg51
S'\xf7n\xffX\xe7\xd2\xb6\xa5\xc5\xe5\x96\x13\xf4\x9c\xac\x1e'
p2702
ssS'teach_views_summaries_student_list_summary'
p2703
(dp2704
g297
(dp2705
g955
S'teach_views_summaries_student_list_summary.html'
p2706
sg957
S'teach/views/summaries/student_list_summary'
p2707
sg959
g13
(g14
g15
NtRp2708
(dp2709
g18
I1
sg19
I26
sg20
I82
sg21
I0
sg22
I0
sg23
I64
sg24
I26
sbssg303
S'\xcc\x1a\n\xd4k-rB\xe4{\x16\x1fG\xf1\x16C'
p2710
ssS'user_system_models_schools_tests_test_classroom_model'
p2711
(dp2712
g232
(dp2713
g177
S'user_system_models_schools_tests_test_classroom_model.html'
p2714
sg179
S'user_system/models/schools/tests/test_classroom_model'
p2715
sg181
g13
(g14
g15
NtRp2716
(dp2717
g18
I1
sg19
I0
sg20
I31
sg21
I0
sg22
I0
sg23
I0
sg24
I0
sbssg238
S'\xfd\xfd\xa2\x92;\xc3\xaa\x06D\x93\xddbD\xda\xa2\x1e'
p2718
ssS'user_system_views_schools_school_view'
p2719
(dp2720
g116
(dp2721
g31
S'user_system_views_schools_school_view.html'
p2722
sg33
S'user_system/views/schools/school_view'
p2723
sg35
g13
(g14
g15
NtRp2724
(dp2725
g18
I1
sg19
I0
sg20
I16
sg21
I0
sg22
I0
sg23
I0
sg24
I0
sbssg122
S'\xc8\x0b\xef\x9e86\xe5\x19\xaa\x9e\x93+\x03\xfb\x98\x99'
p2726
ssS'learn_models_points_point_type_model'
p2727
(dp2728
g297
(dp2729
g627
S'learn_models_points_point_type_model.html'
p2730
sg629
S'learn/models/points/point_type_model'
p2731
sg631
g13
(g14
g15
NtRp2732
(dp2733
g18
I1
sg19
I0
sg20
I20
sg21
I0
sg22
I0
sg23
I0
sg24
I0
sbssg303
S'\x84\x1b\x18\n\xa9\xae\xe5\xd57\xa7}h\xdaD\x19+'
p2734
ssS'user_system_models_roles_tests_test_role_app_model'
p2735
(dp2736
g42
(dp2737
g44
S'user_system_models_roles_tests_test_role_app_model.html'
p2738
sg46
S'user_system/models/roles/tests/test_role_app_model'
p2739
sg48
g13
(g14
g15
NtRp2740
(dp2741
g18
I1
sg19
I0
sg20
I21
sg21
I0
sg22
I0
sg23
I0
sg24
I0
sbssg51
S"\x80\xd7v\xbb\xe5d.\xeb\xfd\xc4\x04\xb2\x04'\xc6V"
p2742
ssS'user_system_views_schools_grade_view'
p2743
(dp2744
g116
(dp2745
g31
S'user_system_views_schools_grade_view.html'
p2746
sg33
S'user_system/views/schools/grade_view'
p2747
sg35
g13
(g14
g15
NtRp2748
(dp2749
g18
I1
sg19
I0
sg20
I16
sg21
I0
sg22
I0
sg23
I0
sg24
I0
sbssg122
S'_i&b\x01\x08$\xe7\xbe\nW\x92\x80\x97\xf1Q'
p2750
ssS'create_serializers_question_datasets_question_dataset_serializer'
p2751
(dp2752
g144
(dp2753
g146
S'create_serializers_question_datasets_question_dataset_serializer.html'
p2754
sg148
S'create/serializers/question_datasets/question_dataset_serializer'
p2755
sg150
g13
(g14
g15
NtRp2756
(dp2757
g18
I1
sg19
I0
sg20
I6
sg21
I0
sg22
I0
sg23
I0
sg24
I0
sbssg153
S'\x1e}6\x82\x0c\x96\xdb\x00{jK\xdb\xc0\x8c\x97\xcd'
p2758
ssS'privilege_models_privileges_user_privilege_model'
p2759
(dp2760
g287
(dp2761
g93
S'privilege_models_privileges_user_privilege_model.html'
p2762
sg95
S'privilege/models/privileges/user_privilege_model'
p2763
sg97
g13
(g14
g15
NtRp2764
(dp2765
g18
I1
sg19
I0
sg20
I17
sg21
I0
sg22
I0
sg23
I1
sg24
I0
sbssg293
S'\xe4\xbfo\xb6Sy\xef\x85\xf2\xf3=\xf3\xc3\xc0\xc9\xc6'
p2766
ssS'create_views_questions_question_template_view'
p2767
(dp2768
g103
(dp2769
g105
S'create_views_questions_question_template_view.html'
p2770
sg107
S'create/views/questions/question_template_view'
p2771
sg109
g13
(g14
g15
NtRp2772
(dp2773
g18
I1
sg19
I40
sg20
I115
sg21
I0
sg22
I0
sg23
I86
sg24
I40
sbssg112
S'\x15\xd2EN\xe9c\xe5\x17\xc5Fh\x02\x1a\xd3\xc4*'
p2774
ssS'create_serializers_quests_quest_serializer'
p2775
(dp2776
g103
(dp2777
g31
S'create_serializers_quests_quest_serializer.html'
p2778
sg33
S'create/serializers/quests/quest_serializer'
p2779
sg35
g13
(g14
g15
NtRp2780
(dp2781
g18
I1
sg19
I0
sg20
I50
sg21
I0
sg22
I0
sg23
I15
sg24
I0
sbssg112
S'\x96:\xdf\x9a\x02\xee\xf5\x97F[z\x16p\x8f\x08\xb2'
p2782
ssS'create_views_summary_create_summary_view'
p2783
(dp2784
g1612
(dp2785
g1092
S'create_views_summary_create_summary_view.html'
p2786
sg1094
S'create/views/summary/create_summary_view'
p2787
sg1096
g13
(g14
g15
NtRp2788
(dp2789
g18
I1
sg19
I0
sg20
I59
sg21
I0
sg22
I0
sg23
I48
sg24
I0
sbssg1618
S"'\xfe\xf4\x8c\xed2\xc3\x18\xf6\x85\x1f\xb0\xf0G\xb7\x8f"
p2790
ssS'create_serializers_books_book_serializer'
p2791
(dp2792
g349
(dp2793
g93
S'create_serializers_books_book_serializer.html'
p2794
sg95
S'create/serializers/books/book_serializer'
p2795
sg97
g13
(g14
g15
NtRp2796
(dp2797
g18
I1
sg19
I0
sg20
I25
sg21
I0
sg22
I0
sg23
I0
sg24
I0
sbssg355
S"o\r\r\x1e8\xe6\xa9\xd1\x83X.\xcf1\x98\xa3'"
p2798
ssS'user_system_models_schools_tests___init__'
p2799
(dp2800
g206
(dp2801
S'html_filename'
p2802
S'user_system_models_schools_tests___init__.html'
p2803
sS'name'
p2804
S'user_system/models/schools/tests/__init__'
p2805
sS'nums'
p2806
g13
(g14
g15
NtRp2807
(dp2808
g18
I1
sg19
I0
sg20
I0
sg21
I0
sg22
I0
sg23
I0
sg24
I0
sbssg215
S'\x19g\xdfM\x1a\x019\xaf\x1baIeR\xe5u\xa7'
p2809
ssS'api_logging_mixins'
p2810
(dp2811
g424
(dp2812
g44
S'api_logging_mixins.html'
p2813
sg46
S'api_logging/mixins'
p2814
sg48
g13
(g14
g15
NtRp2815
(dp2816
g18
I1
sg19
I4
sg20
I26
sg21
I0
sg22
I2
sg23
I2
sg24
I2
sbssg433
S'w\xa7\xcf,\xf7\x87[\xb0\xc5\xb2\x1f\xa5+\x1dSF'
p2817
ssS'privilege_serializers_privileges___init__'
p2818
(dp2819
g287
(dp2820
g93
S'privilege_serializers_privileges___init__.html'
p2821
sg95
S'privilege/serializers/privileges/__init__'
p2822
sg97
g13
(g14
g15
NtRp2823
(dp2824
g18
I1
sg19
I0
sg20
I2
sg21
I0
sg22
I0
sg23
I0
sg24
I0
sbssg293
S'\x1f\xd4u<\xf4\x9bW\xb0\xa9\xd2\xc1\x06\x14`C\xc6'
p2825
ssS'create___init__'
p2826
(dp2827
g42
(dp2828
g446
S'create___init__.html'
p2829
sg448
S'create/__init__'
p2830
sg450
g13
(g14
g15
NtRp2831
(dp2832
g18
I1
sg19
I0
sg20
I0
sg21
I0
sg22
I0
sg23
I0
sg24
I0
sbssg51
S'\x19g\xdfM\x1a\x019\xaf\x1baIeR\xe5u\xa7'
p2833
ssS'user_system_serializers_schools_school_serializer'
p2834
(dp2835
g116
(dp2836
g31
S'user_system_serializers_schools_school_serializer.html'
p2837
sg33
S'user_system/serializers/schools/school_serializer'
p2838
sg35
g13
(g14
g15
NtRp2839
(dp2840
g18
I1
sg19
I0
sg20
I9
sg21
I0
sg22
I0
sg23
I0
sg24
I0
sbssg122
S'_\x0c\x17V\x00H\x8f\xc9x\xe5I\xcb\t\x08\xb9/'
p2841
ssS'user_system_models_users_tests_test_user_profile_update_request_model'
p2842
(dp2843
g116
(dp2844
g627
S'user_system_models_users_tests_test_user_profile_update_request_model.html'
p2845
sg629
S'user_system/models/users/tests/test_user_profile_update_request_model'
p2846
sg631
g13
(g14
g15
NtRp2847
(dp2848
g18
I1
sg19
I0
sg20
I56
sg21
I0
sg22
I0
sg23
I0
sg24
I0
sbssg122
S'U\ng\x0eY\xe2\xc0a\x07f\xb4\x9bFP\x14\x86'
p2849
ssS'user_system_views_users_tests_test_add_role_view'
p2850
(dp2851
g42
(dp2852
g44
S'user_system_views_users_tests_test_add_role_view.html'
p2853
sg46
S'user_system/views/users/tests/test_add_role_view'
p2854
sg48
g13
(g14
g15
NtRp2855
(dp2856
g18
I1
sg19
I0
sg20
I36
sg21
I0
sg22
I0
sg23
I0
sg24
I0
sbssg51
S'\x0eh\xf7\xba\x08_N\xdeM\xdf\x03\xbd\x8c\x8a\x89\xd0'
p2857
ssS'learn_urls'
p2858
(dp2859
g55
(dp2860
g177
S'learn_urls.html'
p2861
sg179
S'learn/urls'
p2862
sg181
g13
(g14
g15
NtRp2863
(dp2864
g18
I1
sg19
I0
sg20
I8
sg21
I0
sg22
I0
sg23
I0
sg24
I0
sbssg64
S'\x1a\xcd\x95\xa0\xd8s\xf6\xb3\x9e\xd7H\xe5*M\xbdG'
p2865
ssS'api_logging___init__'
p2866
(dp2867
g560
(dp2868
g726
S'api_logging___init__.html'
p2869
sg728
S'api_logging/__init__'
p2870
sg730
g13
(g14
g15
NtRp2871
(dp2872
g18
I1
sg19
I0
sg20
I0
sg21
I0
sg22
I0
sg23
I0
sg24
I0
sbssg566
S'\x19g\xdfM\x1a\x019\xaf\x1baIeR\xe5u\xa7'
p2873
ssS'create_views_questions_question_view'
p2874
(dp2875
g42
(dp2876
g754
S'create_views_questions_question_view.html'
p2877
sg756
S'create/views/questions/question_view'
p2878
sg758
g13
(g14
g15
NtRp2879
(dp2880
g18
I1
sg19
I34
sg20
I112
sg21
I0
sg22
I1
sg23
I40
sg24
I21
sbssg51
S"_'M\x9d\x0e\r\xae\x93=\xce\xd2\x1b>\x8eV\xe4"
p2881
ssS'create_views_quests_tests_test_add_question_view'
p2882
(dp2883
g6
(dp2884
g8
S'create_views_quests_tests_test_add_question_view.html'
p2885
sg10
S'create/views/quests/tests/test_add_question_view'
p2886
sg12
g13
(g14
g15
NtRp2887
(dp2888
g18
I1
sg19
I0
sg20
I0
sg21
I0
sg22
I0
sg23
I0
sg24
I0
sbssg25
S'\x19g\xdfM\x1a\x019\xaf\x1baIeR\xe5u\xa7'
p2889
ssS'create_models_daily_quest_copies___init__'
p2890
(dp2891
g411
(dp2892
g1512
S'create_models_daily_quest_copies___init__.html'
p2893
sg1514
S'create/models/daily_quest_copies/__init__'
p2894
sg1516
g13
(g14
g15
NtRp2895
(dp2896
g18
I1
sg19
I0
sg20
I1
sg21
I0
sg22
I0
sg23
I0
sg24
I0
sbssg420
S'\xee\xef\xb8!Z;\x9e_\xb5g4\xe9\xac@l\xe6'
p2897
ssS'create_models_books_tests___init__'
p2898
(dp2899
g349
(dp2900
g774
S'create_models_books_tests___init__.html'
p2901
sg776
S'create/models/books/tests/__init__'
p2902
sg778
g13
(g14
g15
NtRp2903
(dp2904
g18
I1
sg19
I0
sg20
I0
sg21
I0
sg22
I0
sg23
I0
sg24
I0
sbssg355
S'\x19g\xdfM\x1a\x019\xaf\x1baIeR\xe5u\xa7'
p2905
ssS'privilege_models_privileges___init__'
p2906
(dp2907
g287
(dp2908
g93
S'privilege_models_privileges___init__.html'
p2909
sg95
S'privilege/models/privileges/__init__'
p2910
sg97
g13
(g14
g15
NtRp2911
(dp2912
g18
I1
sg19
I0
sg20
I2
sg21
I0
sg22
I0
sg23
I0
sg24
I0
sbssg293
S'\x14\x97Z\xa7<\xbd\xe6Z\xa0jIA\xc0I\xfd"'
p2913
ssS'user_system_managers_streak_manager'
p2914
(dp2915
g297
(dp2916
g878
S'user_system_managers_streak_manager.html'
p2917
sg880
S'user_system/managers/streak_manager'
p2918
sg882
g13
(g14
g15
NtRp2919
(dp2920
g18
I1
sg19
I30
sg20
I66
sg21
I0
sg22
I2
sg23
I48
sg24
I28
sbssg303
S'\x96\xca\x89\xcd\xff\xdaKx\xe9C\x8d\xbc!\xb4<\x8b'
p2921
ssS'learn_views_student_news_feed_student_news_feed_view'
p2922
(dp2923
g297
(dp2924
g177
S'learn_views_student_news_feed_student_news_feed_view.html'
p2925
sg179
S'learn/views/student_news_feed/student_news_feed_view'
p2926
sg181
g13
(g14
g15
NtRp2927
(dp2928
g18
I1
sg19
I10
sg20
I38
sg21
I0
sg22
I0
sg23
I22
sg24
I10
sbssg303
S'\x92\x80%\x91\x88\x85wF\xb9\\0B\xe5\xb6\x820'
p2929
ssS'user_system_models_schools_tests_test_academic_year_model'
p2930
(dp2931
g206
(dp2932
g1429
S'user_system_models_schools_tests_test_academic_year_model.html'
p2933
sg1431
S'user_system/models/schools/tests/test_academic_year_model'
p2934
sg1433
g13
(g14
g15
NtRp2935
(dp2936
g18
I1
sg19
I0
sg20
I28
sg21
I0
sg22
I0
sg23
I0
sg24
I0
sbssg215
S'{=\xee\xbc8\xbd\xa7\xdd\x0f!3\xf8\xf0os\xe2'
p2937
ssS'learn_serializers_daily_quests_daily_quest_question_history_serializer'
p2938
(dp2939
g297
(dp2940
g177
S'learn_serializers_daily_quests_daily_quest_question_history_serializer.html'
p2941
sg179
S'learn/serializers/daily_quests/daily_quest_question_history_serializer'
p2942
sg181
g13
(g14
g15
NtRp2943
(dp2944
g18
I1
sg19
I0
sg20
I8
sg21
I0
sg22
I0
sg23
I0
sg24
I0
sbssg303
S'q$\xc8~\x9a\xbb\x03\x1a\x12[aG\x9a\x87\xc6\x0c'
p2945
ssS'api_logging_serializers_modal_loggings___init__'
p2946
(dp2947
g297
(dp2948
g177
S'api_logging_serializers_modal_loggings___init__.html'
p2949
sg179
S'api_logging/serializers/modal_loggings/__init__'
p2950
sg181
g13
(g14
g15
NtRp2951
(dp2952
g18
I1
sg19
I0
sg20
I1
sg21
I0
sg22
I0
sg23
I0
sg24
I0
sbssg303
S'\xff)\x01pU0i\x848\xea\xfc\x08\x0b\x0bS\xa4'
p2953
ssS'user_system_models_schools_grade_model'
p2954
(dp2955
g232
(dp2956
g177
S'user_system_models_schools_grade_model.html'
p2957
sg179
S'user_system/models/schools/grade_model'
p2958
sg181
g13
(g14
g15
NtRp2959
(dp2960
g18
I1
sg19
I0
sg20
I29
sg21
I0
sg22
I0
sg23
I2
sg24
I0
sbssg238
S'\xfdv\xccR\xe0u\x91\x0f\x7f\x03\xcb\xc4y\xc19k'
p2961
ssS'user_system_serializers_schools___init__'
p2962
(dp2963
g55
(dp2964
g31
S'user_system_serializers_schools___init__.html'
p2965
sg33
S'user_system/serializers/schools/__init__'
p2966
sg35
g13
(g14
g15
NtRp2967
(dp2968
g18
I1
sg19
I0
sg20
I5
sg21
I0
sg22
I0
sg23
I0
sg24
I0
sbssg64
S'8yN\xa2\x98\xe3%\xd4\xe2\xfd\xf2@\xcc\xa7\x02\xdb'
p2969
ssS'create_serializers_questions_question_choice_serializer'
p2970
(dp2971
g42
(dp2972
g177
S'create_serializers_questions_question_choice_serializer.html'
p2973
sg179
S'create/serializers/questions/question_choice_serializer'
p2974
sg181
g13
(g14
g15
NtRp2975
(dp2976
g18
I1
sg19
I0
sg20
I10
sg21
I0
sg22
I0
sg23
I0
sg24
I0
sbssg51
S'\xe4\xc0O\xa2\x80M\x05Wf\xdeO=\xf7\xaaT\x95'
p2977
ssS'create_serializers_questions_question_template_serializer'
p2978
(dp2979
g103
(dp2980
g1167
S'create_serializers_questions_question_template_serializer.html'
p2981
sg1169
S'create/serializers/questions/question_template_serializer'
p2982
sg1171
g13
(g14
g15
NtRp2983
(dp2984
g18
I1
sg19
I0
sg20
I43
sg21
I0
sg22
I0
sg23
I9
sg24
I0
sbssg112
S'\x1a\x149\xdb\xb8\xc7\xfc\xb6\xbc\x8b\xfe\x8e~N\xb9J'
p2985
ssS'teach_views_summaries_top_answered_questions_summary_view'
p2986
(dp2987
g297
(dp2988
g955
S'teach_views_summaries_top_answered_questions_summary_view.html'
p2989
sg957
S'teach/views/summaries/top_answered_questions_summary_view'
p2990
sg959
g13
(g14
g15
NtRp2991
(dp2992
g18
I1
sg19
I34
sg20
I76
sg21
I0
sg22
I0
sg23
I53
sg24
I34
sbssg303
S'\xbc\x89\xf0k\xe5m.\xda\t/\xf7ZE\x07\xff\x00'
p2993
ssS'user_system_models_apps___init__'
p2994
(dp2995
g42
(dp2996
g446
S'user_system_models_apps___init__.html'
p2997
sg448
S'user_system/models/apps/__init__'
p2998
sg450
g13
(g14
g15
NtRp2999
(dp3000
g18
I1
sg19
I0
sg20
I1
sg21
I0
sg22
I0
sg23
I0
sg24
I0
sbssg51
S'\n\xe9\xce\x15)\x8d\xc6\xdd\xe0\x9b\x990[\xae\x8cl'
p3001
ssS'create_views_books_book_view'
p3002
(dp3003
g349
(dp3004
g8
S'create_views_books_book_view.html'
p3005
sg10
S'create/views/books/book_view'
p3006
sg12
g13
(g14
g15
NtRp3007
(dp3008
g18
I1
sg19
I34
sg20
I124
sg21
I0
sg22
I3
sg23
I8
sg24
I5
sbssg355
S'%\x96\xb2\x15\x98\xef\x0fL\xc0&\xf9\x18\x91-\xb28'
p3009
ssS'create_models_quests___init__'
p3010
(dp3011
g103
(dp3012
g616
S'create_models_quests___init__.html'
p3013
sg618
S'create/models/quests/__init__'
p3014
sg620
g13
(g14
g15
NtRp3015
(dp3016
g18
I1
sg19
I0
sg20
I2
sg21
I0
sg22
I0
sg23
I0
sg24
I0
sbssg112
S'\x1e\x87\x83\xe2\x04\x1d\xcd:`\x99V\x85#\xca\x12^'
p3017
ssS'privilege_serializers_privileges_privilege_serializer'
p3018
(dp3019
g287
(dp3020
g93
S'privilege_serializers_privileges_privilege_serializer.html'
p3021
sg95
S'privilege/serializers/privileges/privilege_serializer'
p3022
sg97
g13
(g14
g15
NtRp3023
(dp3024
g18
I1
sg19
I0
sg20
I7
sg21
I0
sg22
I0
sg23
I0
sg24
I0
sbssg293
S'?v\x87\xf3\x00\x8cw`\xd8\x0b\xeb\x98\x18\xbd\x1dR'
p3025
ssS'user_system_views_signups_hardcoded_tests_test_test_account_view'
p3026
(dp3027
g42
(dp3028
g44
S'user_system_views_signups_hardcoded_tests_test_test_account_view.html'
p3029
sg46
S'user_system/views/signups/hardcoded/tests/test_test_account_view'
p3030
sg48
g13
(g14
g15
NtRp3031
(dp3032
g18
I1
sg19
I0
sg20
I24
sg21
I0
sg22
I0
sg23
I0
sg24
I0
sbssg51
S'@\xc3::\xf8h\x1aT\x9f\x83\xee1\xb7\x9a\xe0\xf9'
p3033
ssS'create_models_tags_concept_model'
p3034
(dp3035
g383
(dp3036
g44
S'create_models_tags_concept_model.html'
p3037
sg46
S'create/models/tags/concept_model'
p3038
sg48
g13
(g14
g15
NtRp3039
(dp3040
g18
I1
sg19
I0
sg20
I10
sg21
I0
sg22
I0
sg23
I0
sg24
I0
sbssg389
S'@vb\xbd\xcay\xb1b\x9e\xaf\xc0v/\xd6\x13\xd3'
p3041
ssS'create_models_tags_tests___init__'
p3042
(dp3043
g383
(dp3044
S'html_filename'
p3045
S'create_models_tags_tests___init__.html'
p3046
sS'name'
p3047
S'create/models/tags/tests/__init__'
p3048
sS'nums'
p3049
g13
(g14
g15
NtRp3050
(dp3051
g18
I1
sg19
I0
sg20
I1
sg21
I0
sg22
I0
sg23
I0
sg24
I0
sbssg389
S'\xbc\xd6\xeb\xb3\xba\xcaz\xf7{\xd4B\xb5}l\xdf\x96'
p3052
ssS'create_serializers_books_book_subchapter_serializer'
p3053
(dp3054
g349
(dp3055
g1167
S'create_serializers_books_book_subchapter_serializer.html'
p3056
sg1169
S'create/serializers/books/book_subchapter_serializer'
p3057
sg1171
g13
(g14
g15
NtRp3058
(dp3059
g18
I1
sg19
I0
sg20
I18
sg21
I0
sg22
I0
sg23
I3
sg24
I0
sbssg355
S'89\x89\x89\xd8\x94\xd2l\x98G]\xad\xe1\xf7\x93\xfc'
p3060
ssS'user_system_views_signups_verify_email_view'
p3061
(dp3062
g42
(dp3063
g44
S'user_system_views_signups_verify_email_view.html'
p3064
sg46
S'user_system/views/signups/verify_email_view'
p3065
sg48
g13
(g14
g15
NtRp3066
(dp3067
g18
I1
sg19
I6
sg20
I26
sg21
I0
sg22
I0
sg23
I0
sg24
I0
sbssg51
S"B+;\xbf\xb1A\x1f\n\x94\x0e\xeb\xd0\xf1Y'l"
p3068
ssS'user_system_models_schools_semester_model'
p3069
(dp3070
g206
(dp3071
g1429
S'user_system_models_schools_semester_model.html'
p3072
sg1431
S'user_system/models/schools/semester_model'
p3073
sg1433
g13
(g14
g15
NtRp3074
(dp3075
g18
I1
sg19
I0
sg20
I23
sg21
I0
sg22
I0
sg23
I0
sg24
I0
sbssg215
S'\x9f&7d<%\x13 \xcaht\xc4\xd4N\xee&'
p3076
ssS'create_views_daily_quest_copies_daily_quest_copy_view'
p3077
(dp3078
g411
(dp3079
g1512
S'create_views_daily_quest_copies_daily_quest_copy_view.html'
p3080
sg1514
S'create/views/daily_quest_copies/daily_quest_copy_view'
p3081
sg1516
g13
(g14
g15
NtRp3082
(dp3083
g18
I1
sg19
I0
sg20
I14
sg21
I0
sg22
I0
sg23
I0
sg24
I0
sbssg420
S'?\x95&\\\xae\xf0@\xfc\x96\xc15\xc9\x13\xf6_R'
p3084
ssS'flipped_helpers_parameters_helper'
p3085
(dp3086
g42
(dp3087
g31
S'flipped_helpers_parameters_helper.html'
p3088
sg33
S'flipped/helpers/parameters_helper'
p3089
sg35
g13
(g14
g15
NtRp3090
(dp3091
g18
I1
sg19
I14
sg20
I22
sg21
I0
sg22
I1
sg23
I4
sg24
I3
sbssg51
S'v\xe1\xf5\xb3r\x1f\xae\xee\x872U\xa1I\xf8\xef\x00'
p3092
ssS'user_system_models___init__'
p3093
(dp3094
g42
(dp3095
g2802
S'user_system_models___init__.html'
p3096
sg2804
S'user_system/models/__init__'
p3097
sg2806
g13
(g14
g15
NtRp3098
(dp3099
g18
I1
sg19
I0
sg20
I4
sg21
I0
sg22
I0
sg23
I0
sg24
I0
sbssg51
S"\xe9'\xed1xn\xd7\xe4\x91\x8ei\xc0\x0f\x1b\x9eY"
p3100
ssS'create_models_questions_tests_test_question_model'
p3101
(dp3102
g42
(dp3103
g1202
S'create_models_questions_tests_test_question_model.html'
p3104
sg1204
S'create/models/questions/tests/test_question_model'
p3105
sg1206
g13
(g14
g15
NtRp3106
(dp3107
g18
I1
sg19
I8
sg20
I58
sg21
I0
sg22
I0
sg23
I0
sg24
I0
sbssg51
S'l\x9e\xee!<,L\xbf\xa0\xe6\r\xd7W\xc9tu'
p3108
ssS'user_system_models_users_tests_test_user_profile_history_model'
p3109
(dp3110
g116
(dp3111
g31
S'user_system_models_users_tests_test_user_profile_history_model.html'
p3112
sg33
S'user_system/models/users/tests/test_user_profile_history_model'
p3113
sg35
g13
(g14
g15
NtRp3114
(dp3115
g18
I1
sg19
I0
sg20
I54
sg21
I0
sg22
I0
sg23
I0
sg24
I0
sbssg122
S'<IT\xa7\x05\xe0ML\xb0gu{\xd2>\xc8$'
p3116
ssS'learn_views___init__'
p3117
(dp3118
g55
(dp3119
g177
S'learn_views___init__.html'
p3120
sg179
S'learn/views/__init__'
p3121
sg181
g13
(g14
g15
NtRp3122
(dp3123
g18
I1
sg19
I0
sg20
I2
sg21
I0
sg22
I0
sg23
I0
sg24
I0
sbssg64
S"?\xc0'\xcb\x1c\xf1\xaa\xf0\x9d\xc7\x0e\xf1\xda\x0eU\x17"
p3124
ssS'create_serializers_questions___init__'
p3125
(dp3126
g42
(dp3127
g177
S'create_serializers_questions___init__.html'
p3128
sg179
S'create/serializers/questions/__init__'
p3129
sg181
g13
(g14
g15
NtRp3130
(dp3131
g18
I1
sg19
I0
sg20
I5
sg21
I0
sg22
I0
sg23
I0
sg24
I0
sbssg51
S'\xe6(4O\xf6\xd4\xe4\x154\xe9\xa1;\x0cD\x90\t'
p3132
ssS'user_system_views_signups_hardcoded_tests___init__'
p3133
(dp3134
g42
(dp3135
g446
S'user_system_views_signups_hardcoded_tests___init__.html'
p3136
sg448
S'user_system/views/signups/hardcoded/tests/__init__'
p3137
sg450
g13
(g14
g15
NtRp3138
(dp3139
g18
I1
sg19
I0
sg20
I0
sg21
I0
sg22
I0
sg23
I0
sg24
I0
sbssg51
S'\x19g\xdfM\x1a\x019\xaf\x1baIeR\xe5u\xa7'
p3140
ssS'create_serializers_questions_question_serializer'
p3141
(dp3142
g42
(dp3143
g93
S'create_serializers_questions_question_serializer.html'
p3144
sg95
S'create/serializers/questions/question_serializer'
p3145
sg97
g13
(g14
g15
NtRp3146
(dp3147
g18
I1
sg19
I0
sg20
I59
sg21
I0
sg22
I0
sg23
I11
sg24
I0
sbssg51
S'\xd6f\xc4\xe6\x97\xe4~\xa4n\xcc+|\xcc\xdayh'
p3148
ssS'user_system_views___init__'
p3149
(dp3150
g42
(dp3151
g31
S'user_system_views___init__.html'
p3152
sg33
S'user_system/views/__init__'
p3153
sg35
g13
(g14
g15
NtRp3154
(dp3155
g18
I1
sg19
I0
sg20
I5
sg21
I0
sg22
I0
sg23
I0
sg24
I0
sbssg51
S'&v35\x98Nv\xc2>un\xb1\x9a\x93\xd2\xea'
p3156
ssS'user_system_views_users_user_profile_update_request_view'
p3157
(dp3158
g116
(dp3159
S'html_filename'
p3160
S'user_system_views_users_user_profile_update_request_view.html'
p3161
sS'name'
p3162
S'user_system/views/users/user_profile_update_request_view'
p3163
sS'nums'
p3164
g13
(g14
g15
NtRp3165
(dp3166
g18
I1
sg19
I24
sg20
I70
sg21
I0
sg22
I0
sg23
I51
sg24
I24
sbssg122
S"\x04\xfd\x81?\x1e<^\xb0%\xad\xa6'\xcf\xa1\xc3)"
p3167
ssS'teach_admin'
p3168
(dp3169
g55
(dp3170
g177
S'teach_admin.html'
p3171
sg179
S'teach/admin'
p3172
sg181
g13
(g14
g15
NtRp3173
(dp3174
g18
I1
sg19
I0
sg20
I6
sg21
I0
sg22
I0
sg23
I0
sg24
I0
sbssg64
S'\xa5$\xa3\xb8$\xe4Z\x9b\xcbO\x9f\xc1\x02b\x95N'
p3175
ssS'user_system_views_roles_user_role_view'
p3176
(dp3177
g42
(dp3178
g44
S'user_system_views_roles_user_role_view.html'
p3179
sg46
S'user_system/views/roles/user_role_view'
p3180
sg48
g13
(g14
g15
NtRp3181
(dp3182
g18
I1
sg19
I8
sg20
I31
sg21
I0
sg22
I0
sg23
I0
sg24
I0
sbssg51
S'S@\xea\xb7\xd6\xe1\x1b\x1dU\x18a\x9d\x80\xe3A\xb9'
p3183
ssS'create_models_questions_tests_test_question_history_remark_model'
p3184
(dp3185
g586
(dp3186
g588
S'create_models_questions_tests_test_question_history_remark_model.html'
p3187
sg590
S'create/models/questions/tests/test_question_history_remark_model'
p3188
sg592
g13
(g14
g15
NtRp3189
(dp3190
g18
I1
sg19
I0
sg20
I30
sg21
I0
sg22
I0
sg23
I0
sg24
I0
sbssg595
S'K>pG_\xbd\x15\x8b\xd8\x05\xd4\x15\xb3\x9b\xcaP'
p3191
ssS'api_logging_serializers___init__'
p3192
(dp3193
g297
(dp3194
g177
S'api_logging_serializers___init__.html'
p3195
sg179
S'api_logging/serializers/__init__'
p3196
sg181
g13
(g14
g15
NtRp3197
(dp3198
g18
I1
sg19
I0
sg20
I2
sg21
I0
sg22
I0
sg23
I0
sg24
I0
sbssg303
S'\x02\xac\xc4\x02\x172\x90\xf3=\xcb\x89>\x99\xbc\x19\xd9'
p3199
ssS'user_system_models_users_tests_test_user_facebook_model'
p3200
(dp3201
g42
(dp3202
g44
S'user_system_models_users_tests_test_user_facebook_model.html'
p3203
sg46
S'user_system/models/users/tests/test_user_facebook_model'
p3204
sg48
g13
(g14
g15
NtRp3205
(dp3206
g18
I1
sg19
I0
sg20
I29
sg21
I0
sg22
I0
sg23
I0
sg24
I0
sbssg51
S'B\xac\x06Z\x1f7\xba2\x81\xd7\xb4\x17\xaf\x84u+'
p3207
ssS'user_system_models_users_user_credentials_model'
p3208
(dp3209
S'index'
p3210
(dp3211
g2050
S'user_system_models_users_user_credentials_model.html'
p3212
sg2052
S'user_system/models/users/user_credentials_model'
p3213
sg2054
g13
(g14
g15
NtRp3214
(dp3215
g18
I1
sg19
I0
sg20
I7
sg21
I0
sg22
I0
sg23
I0
sg24
I0
sbssS'hash'
p3216
S'g\x10U/\x1f\x83\x0bO\x95o\x9c9\xefV\x81\x8e'
p3217
ssS'create_serializers_books___init__'
p3218
(dp3219
g349
(dp3220
g774
S'create_serializers_books___init__.html'
p3221
sg776
S'create/serializers/books/__init__'
p3222
sg778
g13
(g14
g15
NtRp3223
(dp3224
g18
I1
sg19
I0
sg20
I0
sg21
I0
sg22
I0
sg23
I0
sg24
I0
sbssg355
S'\x19g\xdfM\x1a\x019\xaf\x1baIeR\xe5u\xa7'
p3225
ssS'create_models_questions_tests_test_question_template_model'
p3226
(dp3227
g103
(dp3228
g993
S'create_models_questions_tests_test_question_template_model.html'
p3229
sg995
S'create/models/questions/tests/test_question_template_model'
p3230
sg997
g13
(g14
g15
NtRp3231
(dp3232
g18
I1
sg19
I8
sg20
I74
sg21
I0
sg22
I0
sg23
I0
sg24
I0
sbssg112
S"~\xca\x9c'\x89\x11\x82V\xb3v\x0c4]\x9c\xce4"
p3233
ssS'create_views_quests_tests_test_add_question_template_view'
p3234
(dp3235
g6
(dp3236
g8
S'create_views_quests_tests_test_add_question_template_view.html'
p3237
sg10
S'create/views/quests/tests/test_add_question_template_view'
p3238
sg12
g13
(g14
g15
NtRp3239
(dp3240
g18
I1
sg19
I0
sg20
I0
sg21
I0
sg22
I0
sg23
I0
sg24
I0
sbssg25
S'\x19g\xdfM\x1a\x019\xaf\x1baIeR\xe5u\xa7'
p3241
ssS'learn_models_points_tests___init__'
p3242
(dp3243
g297
(dp3244
g177
S'learn_models_points_tests___init__.html'
p3245
sg179
S'learn/models/points/tests/__init__'
p3246
sg181
g13
(g14
g15
NtRp3247
(dp3248
g18
I1
sg19
I0
sg20
I1
sg21
I0
sg22
I0
sg23
I0
sg24
I0
sbssg303
S'\xbc\xd6\xeb\xb3\xba\xcaz\xf7{\xd4B\xb5}l\xdf\x96'
p3249
ssS'create_views_tags_tests_test_hide_tag_view'
p3250
(dp3251
g424
(dp3252
g44
S'create_views_tags_tests_test_hide_tag_view.html'
p3253
sg46
S'create/views/tags/tests/test_hide_tag_view'
p3254
sg48
g13
(g14
g15
NtRp3255
(dp3256
g18
I1
sg19
I0
sg20
I25
sg21
I0
sg22
I0
sg23
I0
sg24
I0
sbssg433
S'\x8a\x07\xe0\xe1Q\x820\x05R\x14E\xd0\xdf\x8e\xc5\x8a'
p3257
ssS'learn_views_daily_quests___init__'
p3258
(dp3259
g55
(dp3260
g57
S'learn_views_daily_quests___init__.html'
p3261
sg59
S'learn/views/daily_quests/__init__'
p3262
sg61
g13
(g14
g15
NtRp3263
(dp3264
g18
I1
sg19
I0
sg20
I1
sg21
I0
sg22
I0
sg23
I0
sg24
I0
sbssg64
S'\xa3\x08\xf3\xbaF\xd5u\x88\x12\xa3V\x05K\xe5\xd0\xa9'
p3265
ssS'create_views_books_tests___init__'
p3266
(dp3267
g936
(dp3268
S'html_filename'
p3269
S'create_views_books_tests___init__.html'
p3270
sS'name'
p3271
S'create/views/books/tests/__init__'
p3272
sS'nums'
p3273
g13
(g14
g15
NtRp3274
(dp3275
g18
I1
sg19
I0
sg20
I0
sg21
I0
sg22
I0
sg23
I0
sg24
I0
sbssg942
S'\x19g\xdfM\x1a\x019\xaf\x1baIeR\xe5u\xa7'
p3276
ssS'user_system_models_users_tests_test_user_streak_history_model'
p3277
(dp3278
S'index'
p3279
(dp3280
g1237
S'user_system_models_users_tests_test_user_streak_history_model.html'
p3281
sg1239
S'user_system/models/users/tests/test_user_streak_history_model'
p3282
sg1241
g13
(g14
g15
NtRp3283
(dp3284
g18
I1
sg19
I0
sg20
I19
sg21
I0
sg22
I0
sg23
I0
sg24
I0
sbssS'hash'
p3285
S'\xc7I1\x11\xc9\xbf7\xee\x1c\x16@\x10JP\xaf\xfc'
p3286
sssS'version'
p3287
S'3.7.1'
p3288
sS'settings'
p3289
S'\x961E{\x0c29\xd1#\x83\xd3j9"\xd8\x10'
p3290
sS'format'
p3291
I1
s.