(dp1
S'files'
p2
(dp3
S'create_views_quests_tests_test_add_tag_view'
p4
(dp5
S'index'
p6
(dp7
S'html_filename'
p8
S'create_views_quests_tests_test_add_tag_view.html'
p9
sS'name'
p10
S'create/views/quests/tests/test_add_tag_view'
p11
sS'nums'
p12
ccopy_reg
_reconstructor
p13
(ccoverage.results
Numbers
p14
c__builtin__
object
p15
NtRp16
(dp17
S'n_files'
p18
I1
sS'n_branches'
p19
I0
sS'n_statements'
p20
I35
sS'n_excluded'
p21
I0
sS'n_partial_branches'
p22
I0
sS'n_missing'
p23
I0
sS'n_missing_branches'
p24
I0
sbssS'hash'
p25
S'o\xbe\xf1\xf9\x80\xe5|\xbab\xcc\xe2F=\x1e\xacp'
p26
ssS'user_system_models_users_teacher_profile_model'
p27
(dp28
S'index'
p29
(dp30
S'html_filename'
p31
S'user_system_models_users_teacher_profile_model.html'
p32
sS'name'
p33
S'user_system/models/users/teacher_profile_model'
p34
sS'nums'
p35
g13
(g14
g15
NtRp36
(dp37
g18
I1
sg19
I0
sg20
I27
sg21
I0
sg22
I0
sg23
I0
sg24
I0
sbssS'hash'
p38
S'x\x9e\x06\xe6\x8d\x87\xed\xaf\x91\x87\x16\xfc"\x96\xf2\xfc'
p39
ssS'user_system_views_signups_facebook_signup_view'
p40
(dp41
S'index'
p42
(dp43
S'html_filename'
p44
S'user_system_views_signups_facebook_signup_view.html'
p45
sS'name'
p46
S'user_system/views/signups/facebook_signup_view'
p47
sS'nums'
p48
g13
(g14
g15
NtRp49
(dp50
g18
I1
sg19
I8
sg20
I38
sg21
I0
sg22
I0
sg23
I0
sg24
I0
sbssS'hash'
p51
S'\x04E\'\x17r8\x14\xf6 \x98\xb5\xa0sx"@'
p52
ssS'teach_models_teacher_tags___init__'
p53
(dp54
S'index'
p55
(dp56
S'html_filename'
p57
S'teach_models_teacher_tags___init__.html'
p58
sS'name'
p59
S'teach/models/teacher_tags/__init__'
p60
sS'nums'
p61
g13
(g14
g15
NtRp62
(dp63
g18
I1
sg19
I0
sg20
I1
sg21
I0
sg22
I0
sg23
I0
sg24
I0
sbssS'hash'
p64
S"\x15#y\x16\x1a\x9d\xc6mE\xccg]\x07\xb9'\xe0"
p65
ssS'user_system_models_users_user_facebook_model'
p66
(dp67
g42
(dp68
g44
S'user_system_models_users_user_facebook_model.html'
p69
sg46
S'user_system/models/users/user_facebook_model'
p70
sg48
g13
(g14
g15
NtRp71
(dp72
g18
I1
sg19
I0
sg20
I22
sg21
I0
sg22
I0
sg23
I0
sg24
I0
sbssg51
S'!d\xff\xbcl0O(`\x1b1\xf7\xb3*{X'
p73
ssS'teach_models_teacher_chapters___init__'
p74
(dp75
g55
(dp76
g57
S'teach_models_teacher_chapters___init__.html'
p77
sg59
S'teach/models/teacher_chapters/__init__'
p78
sg61
g13
(g14
g15
NtRp79
(dp80
g18
I1
sg19
I0
sg20
I1
sg21
I0
sg22
I0
sg23
I0
sg24
I0
sbssg64
S'\xfa\xce(\x03\x8d\xd7\xc1h\xedT\xf9d\xae\x03w^'
p81
ssS'user_system_views_logins_facebook_login_view'
p82
(dp83
g42
(dp84
g44
S'user_system_views_logins_facebook_login_view.html'
p85
sg46
S'user_system/views/logins/facebook_login_view'
p86
sg48
g13
(g14
g15
NtRp87
(dp88
g18
I1
sg19
I4
sg20
I24
sg21
I0
sg22
I0
sg23
I0
sg24
I0
sbssg51
S',\xf8~\x8d\x9b\xfe\xa6wQ5\x92t\x15\xe5\x95\x8d'
p89
ssS'create_serializers_questions_question_history_serializer'
p90
(dp91
g42
(dp92
S'html_filename'
p93
S'create_serializers_questions_question_history_serializer.html'
p94
sS'name'
p95
S'create/serializers/questions/question_history_serializer'
p96
sS'nums'
p97
g13
(g14
g15
NtRp98
(dp99
g18
I1
sg19
I2
sg20
I30
sg21
I0
sg22
I1
sg23
I2
sg24
I1
sbssg51
S'C\x93,\xa4\xac3\xb6\xb8\xca\x076\xae\x14\x15\xc0J'
p100
ssS'create_serializers_quests_quest_history_serializer'
p101
(dp102
S'index'
p103
(dp104
S'html_filename'
p105
S'create_serializers_quests_quest_history_serializer.html'
p106
sS'name'
p107
S'create/serializers/quests/quest_history_serializer'
p108
sS'nums'
p109
g13
(g14
g15
NtRp110
(dp111
g18
I1
sg19
I0
sg20
I38
sg21
I0
sg22
I0
sg23
I15
sg24
I0
sbssS'hash'
p112
S'\x0c\x10\x81\x11\xc3\xff\x01\x8d<#\xe5~\x84\xec\x18\xfd'
p113
ssS'user_system_models_users_tests_test_student_profile_request_model'
p114
(dp115
S'index'
p116
(dp117
g31
S'user_system_models_users_tests_test_student_profile_request_model.html'
p118
sg33
S'user_system/models/users/tests/test_student_profile_request_model'
p119
sg35
g13
(g14
g15
NtRp120
(dp121
g18
I1
sg19
I0
sg20
I42
sg21
I0
sg22
I0
sg23
I0
sg24
I0
sbssS'hash'
p122
S'\x0c4FG\x9bD\x9e\xaa\xb9a\xd6\xee\xc6&0T'
p123
ssS'create_views_books_tests_test_add_chapter_view'
p124
(dp125
S'index'
p126
(dp127
g44
S'create_views_books_tests_test_add_chapter_view.html'
p128
sg46
S'create/views/books/tests/test_add_chapter_view'
p129
sg48
g13
(g14
g15
NtRp130
(dp131
g18
I1
sg19
I0
sg20
I69
sg21
I0
sg22
I0
sg23
I0
sg24
I0
sbssS'hash'
p132
S'\xea\xcd\x81\xff\xe6p74\xe3\xab\xc2R\x1aZ#Y'
p133
ssS'teach_models_teacher_chapters_tests_test_teacher_chapter_model'
p134
(dp135
g55
(dp136
g57
S'teach_models_teacher_chapters_tests_test_teacher_chapter_model.html'
p137
sg59
S'teach/models/teacher_chapters/tests/test_teacher_chapter_model'
p138
sg61
g13
(g14
g15
NtRp139
(dp140
g18
I1
sg19
I0
sg20
I28
sg21
I0
sg22
I0
sg23
I0
sg24
I0
sbssg64
S'm\xb2B\x1a\x04\xa5\x94N\xbe\xb6\xfa\xa9\x16J\x10\x92'
p141
ssS'create_serializers_question_datasets___init__'
p142
(dp143
S'index'
p144
(dp145
S'html_filename'
p146
S'create_serializers_question_datasets___init__.html'
p147
sS'name'
p148
S'create/serializers/question_datasets/__init__'
p149
sS'nums'
p150
g13
(g14
g15
NtRp151
(dp152
g18
I1
sg19
I0
sg20
I1
sg21
I0
sg22
I0
sg23
I0
sg24
I0
sbssS'hash'
p153
S'Z\xf8\x02Tc\xc1C;<_\x87\xc6\xc2H\xa6\xdc'
p154
ssS'user_system_models_users_user_profile_model'
p155
(dp156
g42
(dp157
S'html_filename'
p158
S'user_system_models_users_user_profile_model.html'
p159
sS'name'
p160
S'user_system/models/users/user_profile_model'
p161
sS'nums'
p162
g13
(g14
g15
NtRp163
(dp164
g18
I1
sg19
I48
sg20
I178
sg21
I0
sg22
I0
sg23
I24
sg24
I6
sbssg51
S'\xf2\xb8\xecp\xaf\xff\n\xe3b\x06\xe8\xc3p\xf9\xe4W'
p165
ssS'create_models_question_datasets_tests_test_question_dataset_model'
p166
(dp167
g144
(dp168
g146
S'create_models_question_datasets_tests_test_question_dataset_model.html'
p169
sg148
S'create/models/question_datasets/tests/test_question_dataset_model'
p170
sg150
g13
(g14
g15
NtRp171
(dp172
g18
I1
sg19
I2
sg20
I39
sg21
I0
sg22
I0
sg23
I0
sg24
I0
sbssg153
S'!\t\x88\xfc\x0f\xaa\x0c\x88\xe3\xf9\x04\xd1\\0w\xf1'
p173
ssS'user_system_models_users___init__'
p174
(dp175
g42
(dp176
S'html_filename'
p177
S'user_system_models_users___init__.html'
p178
sS'name'
p179
S'user_system/models/users/__init__'
p180
sS'nums'
p181
g13
(g14
g15
NtRp182
(dp183
g18
I1
sg19
I0
sg20
I11
sg21
I0
sg22
I0
sg23
I0
sg24
I0
sbssg51
S'\x81\xefKrW:\x98\xa0\xfbl\x17\xe1E\xb8..'
p184
ssS'teach_urls'
p185
(dp186
g55
(dp187
S'html_filename'
p188
S'teach_urls.html'
p189
sS'name'
p190
S'teach/urls'
p191
sS'nums'
p192
g13
(g14
g15
NtRp193
(dp194
g18
I1
sg19
I0
sg20
I13
sg21
I0
sg22
I0
sg23
I0
sg24
I0
sbssg64
S'1\xa6\x90\x84\xbf\x9b\x9at\x1f4\xf1\x1b\x92\x03\xff%'
p195
ssS'learn_serializers_daily_quests___init__'
p196
(dp197
g55
(dp198
g177
S'learn_serializers_daily_quests___init__.html'
p199
sg179
S'learn/serializers/daily_quests/__init__'
p200
sg181
g13
(g14
g15
NtRp201
(dp202
g18
I1
sg19
I0
sg20
I2
sg21
I0
sg22
I0
sg23
I0
sg24
I0
sbssg64
S'\x8e\x0b\xa4\xc1x\xdb]\xcc\xf6 \x7f\xbeO\x91\xca@'
p203
ssS'user_system_models_schools___init__'
p204
(dp205
S'index'
p206
(dp207
S'html_filename'
p208
S'user_system_models_schools___init__.html'
p209
sS'name'
p210
S'user_system/models/schools/__init__'
p211
sS'nums'
p212
g13
(g14
g15
NtRp213
(dp214
g18
I1
sg19
I0
sg20
I6
sg21
I0
sg22
I0
sg23
I0
sg24
I0
sbssS'hash'
p215
S'\xbe\xc9\xb2f\x05\x1f\xe6\xee\xef\x01#\xe8\x16\xc2\x83\xdb'
p216
ssS'create_views_questions_tests_test_remove_tag_view'
p217
(dp218
S'index'
p219
(dp220
S'html_filename'
p221
S'create_views_questions_tests_test_remove_tag_view.html'
p222
sS'name'
p223
S'create/views/questions/tests/test_remove_tag_view'
p224
sS'nums'
p225
g13
(g14
g15
NtRp226
(dp227
g18
I1
sg19
I0
sg20
I36
sg21
I0
sg22
I0
sg23
I0
sg24
I0
sbssS'hash'
p228
S'\xbdV1EN\xfe\x8e;\xe4\x92\x91r\xd6Q\x03\x80'
p229
ssS'user_system_models_users_tests_test_student_profile_model'
p230
(dp231
S'index'
p232
(dp233
g177
S'user_system_models_users_tests_test_student_profile_model.html'
p234
sg179
S'user_system/models/users/tests/test_student_profile_model'
p235
sg181
g13
(g14
g15
NtRp236
(dp237
g18
I1
sg19
I0
sg20
I48
sg21
I0
sg22
I0
sg23
I0
sg24
I0
sbssS'hash'
p238
S'\n_\xb5B0\x1dR\x0b\x16i\x1fy.Z\x14#'
p239
ssS'create_views_daily_quest_templates___init__'
p240
(dp241
S'index'
p242
(dp243
S'html_filename'
p244
S'create_views_daily_quest_templates___init__.html'
p245
sS'name'
p246
S'create/views/daily_quest_templates/__init__'
p247
sS'nums'
p248
g13
(g14
g15
NtRp249
(dp250
g18
I1
sg19
I0
sg20
I1
sg21
I0
sg22
I0
sg23
I0
sg24
I0
sbssS'hash'
p251
S'\xc1b\x1f\x95\xabR`C\xe80\xb9tNC\r3'
p252
ssS'learn___init__'
p253
(dp254
g55
(dp255
g57
S'learn___init__.html'
p256
sg59
S'learn/__init__'
p257
sg61
g13
(g14
g15
NtRp258
(dp259
g18
I1
sg19
I0
sg20
I0
sg21
I0
sg22
I0
sg23
I0
sg24
I0
sbssg64
S'\x19g\xdfM\x1a\x019\xaf\x1baIeR\xe5u\xa7'
p260
ssS'create_serializers_quests___init__'
p261
(dp262
g103
(dp263
g31
S'create_serializers_quests___init__.html'
p264
sg33
S'create/serializers/quests/__init__'
p265
sg35
g13
(g14
g15
NtRp266
(dp267
g18
I1
sg19
I0
sg20
I2
sg21
I0
sg22
I0
sg23
I0
sg24
I0
sbssg112
S'\xc0,Fh\xaf\xa0(\x8f\xde\x02{\x88!\x04\x7f\xb6'
p268
ssS'teach_views_teacher_chapters___init__'
p269
(dp270
g55
(dp271
g57
S'teach_views_teacher_chapters___init__.html'
p272
sg59
S'teach/views/teacher_chapters/__init__'
p273
sg61
g13
(g14
g15
NtRp274
(dp275
g18
I1
sg19
I0
sg20
I1
sg21
I0
sg22
I0
sg23
I0
sg24
I0
sbssg64
S'\x10AP\xc9\nC\xd2REz\xf6\xe5\xd2(\xee`'
p276
ssS'user_system_models_users_student_profile_request_model'
p277
(dp278
g116
(dp279
g31
S'user_system_models_users_student_profile_request_model.html'
p280
sg33
S'user_system/models/users/student_profile_request_model'
p281
sg35
g13
(g14
g15
NtRp282
(dp283
g18
I1
sg19
I0
sg20
I45
sg21
I0
sg22
I0
sg23
I0
sg24
I0
sbssg122
S'\xeeZA}\xa0\xf5\x88k0a2\x9fS\xf3}\x05'
p284
ssS'privilege_models___init__'
p285
(dp286
S'index'
p287
(dp288
g93
S'privilege_models___init__.html'
p289
sg95
S'privilege/models/__init__'
p290
sg97
g13
(g14
g15
NtRp291
(dp292
g18
I1
sg19
I0
sg20
I1
sg21
I0
sg22
I0
sg23
I0
sg24
I0
sbssS'hash'
p293
S'\x13V\xca}S\xd3\x98Rp?\xb0\xe1\x904>b'
p294
ssS'user_system_views_users_teacher_mapping_view'
p295
(dp296
S'index'
p297
(dp298
g177
S'user_system_views_users_teacher_mapping_view.html'
p299
sg179
S'user_system/views/users/teacher_mapping_view'
p300
sg181
g13
(g14
g15
NtRp301
(dp302
g18
I1
sg19
I0
sg20
I14
sg21
I0
sg22
I0
sg23
I0
sg24
I0
sbssS'hash'
p303
S'B\x04t\x93Z\x86Q.\x17\xf9\xa0*\xf6\x86\xcf\x10'
p304
ssS'create_views_tags_tests_test_search_tag_view'
p305
(dp306
S'index'
p307
(dp308
g93
S'create_views_tags_tests_test_search_tag_view.html'
p309
sg95
S'create/views/tags/tests/test_search_tag_view'
p310
sg97
g13
(g14
g15
NtRp311
(dp312
g18
I1
sg19
I0
sg20
I22
sg21
I0
sg22
I0
sg23
I0
sg24
I0
sbssS'hash'
p313
S'\rh\xcb\xb3g\x15\x9c\xe3hR\xc5r\xb9\x9c\xb2\x1f'
p314
ssS'create_views_questions_tests_test_hide_question_view'
p315
(dp316
g42
(dp317
g44
S'create_views_questions_tests_test_hide_question_view.html'
p318
sg46
S'create/views/questions/tests/test_hide_question_view'
p319
sg48
g13
(g14
g15
NtRp320
(dp321
g18
I1
sg19
I0
sg20
I30
sg21
I0
sg22
I0
sg23
I0
sg24
I0
sbssg51
S'\xb3\x10S\x8a\x9b\xecw\xaa\xd3\x81\x1b\xf2\xab\xb2QG'
p322
ssS'user_system_serializers_users_student_profile_request_serializer'
p323
(dp324
g116
(dp325
g31
S'user_system_serializers_users_student_profile_request_serializer.html'
p326
sg33
S'user_system/serializers/users/student_profile_request_serializer'
p327
sg35
g13
(g14
g15
NtRp328
(dp329
g18
I1
sg19
I0
sg20
I8
sg21
I0
sg22
I0
sg23
I0
sg24
I0
sbssg122
S'\xa9VJ\x07M\x02\xee$\t\xc8O\xc43$\x1a-'
p330
ssS'create_views_question_datasets_question_dataset_view'
p331
(dp332
g144
(dp333
g146
S'create_views_question_datasets_question_dataset_view.html'
p334
sg148
S'create/views/question_datasets/question_dataset_view'
p335
sg150
g13
(g14
g15
NtRp336
(dp337
g18
I1
sg19
I4
sg20
I20
sg21
I0
sg22
I0
sg23
I5
sg24
I4
sbssg153
S'\x01\xfb\xf2\x86m\xd4\xf9\xc3\xe6\xb6\x11\x96u;\x1ez'
p338
ssS'teach_models_campaigns___init__'
p339
(dp340
g116
(dp341
g31
S'teach_models_campaigns___init__.html'
p342
sg33
S'teach/models/campaigns/__init__'
p343
sg35
g13
(g14
g15
NtRp344
(dp345
g18
I1
sg19
I0
sg20
I1
sg21
I0
sg22
I0
sg23
I0
sg24
I0
sbssg122
S'\xba\x82\x818\x88\xe0\xf2#\xe9\x89\xffso\xdc\xe6\xd4'
p346
ssS'create_serializers_books_book_chapter_serializer'
p347
(dp348
S'index'
p349
(dp350
g57
S'create_serializers_books_book_chapter_serializer.html'
p351
sg59
S'create/serializers/books/book_chapter_serializer'
p352
sg61
g13
(g14
g15
NtRp353
(dp354
g18
I1
sg19
I0
sg20
I23
sg21
I0
sg22
I0
sg23
I3
sg24
I0
sbssS'hash'
p355
S'\xf1~, f\x89\xad\xc8p\xcc\xd4E_\x0b3\x06'
p356
ssS'api_logging_models_api_logging_api_logging_model'
p357
(dp358
g297
(dp359
g177
S'api_logging_models_api_logging_api_logging_model.html'
p360
sg179
S'api_logging/models/api_logging/api_logging_model'
p361
sg181
g13
(g14
g15
NtRp362
(dp363
g18
I1
sg19
I0
sg20
I21
sg21
I0
sg22
I0
sg23
I0
sg24
I0
sbssg303
S'\x0c\x96WFX%\xe9\xcf+\xcf\xc2s\xa7a1\xbd'
p364
ssS'create_models_question_datasets___init__'
p365
(dp366
g144
(dp367
g146
S'create_models_question_datasets___init__.html'
p368
sg148
S'create/models/question_datasets/__init__'
p369
sg150
g13
(g14
g15
NtRp370
(dp371
g18
I1
sg19
I0
sg20
I1
sg21
I0
sg22
I0
sg23
I0
sg24
I0
sbssg153
S'\xeb\xb7>&t\x02-\xeaaJ,\x8a\xae\xc3\x1a]'
p372
ssS'user_system_urls'
p373
(dp374
g42
(dp375
g177
S'user_system_urls.html'
p376
sg179
S'user_system/urls'
p377
sg181
g13
(g14
g15
NtRp378
(dp379
g18
I1
sg19
I0
sg20
I17
sg21
I0
sg22
I0
sg23
I0
sg24
I0
sbssg51
S'SKXe\xb2\x8f\xd8\xdc\xf3\x99\xa6\x9e.\x82\x96\xe9'
p380
ssS'create_models_tags_tests_test_tag_type_model'
p381
(dp382
S'index'
p383
(dp384
g44
S'create_models_tags_tests_test_tag_type_model.html'
p385
sg46
S'create/models/tags/tests/test_tag_type_model'
p386
sg48
g13
(g14
g15
NtRp387
(dp388
g18
I1
sg19
I0
sg20
I17
sg21
I0
sg22
I0
sg23
I0
sg24
I0
sbssS'hash'
p389
S'?6\xfcg\xce\x11\x1a7E\xaf\xb2\x02\t"\xddA'
p390
ssS'create_models_quests_quest_history_model'
p391
(dp392
g103
(dp393
g8
S'create_models_quests_quest_history_model.html'
p394
sg10
S'create/models/quests/quest_history_model'
p395
sg12
g13
(g14
g15
NtRp396
(dp397
g18
I1
sg19
I8
sg20
I75
sg21
I0
sg22
I3
sg23
I4
sg24
I3
sbssg112
S'@\xe7\xfa\x02?w\xe7\x93\xa3\x85\x0f\x0fz\xf0\xdbR'
p398
ssS'learn_models_daily_quests_tests_test_daily_quest_question_history_model'
p399
(dp400
S'index'
p401
(dp402
g158
S'learn_models_daily_quests_tests_test_daily_quest_question_history_model.html'
p403
sg160
S'learn/models/daily_quests/tests/test_daily_quest_question_history_model'
p404
sg162
g13
(g14
g15
NtRp405
(dp406
g18
I1
sg19
I0
sg20
I47
sg21
I0
sg22
I0
sg23
I0
sg24
I0
sbssS'hash'
p407
S'\x04\x1c\xfax\x9bA\x05\xc4\x07\xb1\x96F\x8aI\x13\xa6'
p408
ssS'create_models_daily_quest_copies_daily_quest_copy_model'
p409
(dp410
S'index'
p411
(dp412
S'html_filename'
p413
S'create_models_daily_quest_copies_daily_quest_copy_model.html'
p414
sS'name'
p415
S'create/models/daily_quest_copies/daily_quest_copy_model'
p416
sS'nums'
p417
g13
(g14
g15
NtRp418
(dp419
g18
I1
sg19
I6
sg20
I47
sg21
I0
sg22
I0
sg23
I14
sg24
I6
sbssS'hash'
p420
S'\x90\xa7\xba\xee\x88\xf84\xf7\xd1B\x9b9@\\\x80P'
p421
ssS'create_views_tags_tests___init__'
p422
(dp423
S'index'
p424
(dp425
S'html_filename'
p426
S'create_views_tags_tests___init__.html'
p427
sS'name'
p428
S'create/views/tags/tests/__init__'
p429
sS'nums'
p430
g13
(g14
g15
NtRp431
(dp432
g18
I1
sg19
I0
sg20
I0
sg21
I0
sg22
I0
sg23
I0
sg24
I0
sbssS'hash'
p433
S'\x19g\xdfM\x1a\x019\xaf\x1baIeR\xe5u\xa7'
p434
ssS'user_system_models_apps_app_model'
p435
(dp436
g42
(dp437
g44
S'user_system_models_apps_app_model.html'
p438
sg46
S'user_system/models/apps/app_model'
p439
sg48
g13
(g14
g15
NtRp440
(dp441
g18
I1
sg19
I0
sg20
I16
sg21
I0
sg22
I0
sg23
I0
sg24
I0
sbssg51
S',\x89\x9d;<\xa3\xdc\x92@\xa5\x9c\x7fcg\x05?'
p442
ssS'user_system_views_apps_tests___init__'
p443
(dp444
g42
(dp445
S'html_filename'
p446
S'user_system_views_apps_tests___init__.html'
p447
sS'name'
p448
S'user_system/views/apps/tests/__init__'
p449
sS'nums'
p450
g13
(g14
g15
NtRp451
(dp452
g18
I1
sg19
I0
sg20
I0
sg21
I0
sg22
I0
sg23
I0
sg24
I0
sbssg51
S'\x19g\xdfM\x1a\x019\xaf\x1baIeR\xe5u\xa7'
p453
ssS'privilege___init__'
p454
(dp455
g287
(dp456
g93
S'privilege___init__.html'
p457
sg95
S'privilege/__init__'
p458
sg97
g13
(g14
g15
NtRp459
(dp460
g18
I1
sg19
I0
sg20
I0
sg21
I0
sg22
I0
sg23
I0
sg24
I0
sbssg293
S'\x19g\xdfM\x1a\x019\xaf\x1baIeR\xe5u\xa7'
p461
ssS'create_views_books___init__'
p462
(dp463
g349
(dp464
S'html_filename'
p465
S'create_views_books___init__.html'
p466
sS'name'
p467
S'create/views/books/__init__'
p468
sS'nums'
p469
g13
(g14
g15
NtRp470
(dp471
g18
I1
sg19
I0
sg20
I3
sg21
I0
sg22
I0
sg23
I0
sg24
I0
sbssg355
S'\xce\x13\xc8S|wF\xe3\x148\xa0?ez,\xc4'
p472
ssS'create_models_books_book_chapter_model'
p473
(dp474
g349
(dp475
g31
S'create_models_books_book_chapter_model.html'
p476
sg33
S'create/models/books/book_chapter_model'
p477
sg35
g13
(g14
g15
NtRp478
(dp479
g18
I1
sg19
I8
sg20
I58
sg21
I0
sg22
I1
sg23
I3
sg24
I3
sbssg355
S'5h\xa3E\x99\xf4H\x97\xbf\x08?=+K\xe7\xad'
p480
ssS'user_system_admin'
p481
(dp482
g42
(dp483
g177
S'user_system_admin.html'
p484
sg179
S'user_system/admin'
p485
sg181
g13
(g14
g15
NtRp486
(dp487
g18
I1
sg19
I0
sg20
I25
sg21
I0
sg22
I0
sg23
I0
sg24
I0
sbssg51
S',\xc1@k;\x98\x80\xb5\xbc\xab\x11\xf3\xdc\x0b\xd1U'
p488
ssS'user_system_serializers_users_teacher_profile_serializer'
p489
(dp490
g116
(dp491
g31
S'user_system_serializers_users_teacher_profile_serializer.html'
p492
sg33
S'user_system/serializers/users/teacher_profile_serializer'
p493
sg35
g13
(g14
g15
NtRp494
(dp495
g18
I1
sg19
I4
sg20
I20
sg21
I0
sg22
I0
sg23
I9
sg24
I4
sbssg122
S'\xe2\xa5\xba\xd6e\xc2\x88\xab\xaes\x15\x08\xa9ta\xd6'
p496
ssS'user_system_models_users_tests___init__'
p497
(dp498
g42
(dp499
g446
S'user_system_models_users_tests___init__.html'
p500
sg448
S'user_system/models/users/tests/__init__'
p501
sg450
g13
(g14
g15
NtRp502
(dp503
g18
I1
sg19
I0
sg20
I0
sg21
I0
sg22
I0
sg23
I0
sg24
I0
sbssg51
S'\x19g\xdfM\x1a\x019\xaf\x1baIeR\xe5u\xa7'
p504
ssS'user_system_models_users_user_profile_picture_model'
p505
(dp506
g116
(dp507
g31
S'user_system_models_users_user_profile_picture_model.html'
p508
sg33
S'user_system/models/users/user_profile_picture_model'
p509
sg35
g13
(g14
g15
NtRp510
(dp511
g18
I1
sg19
I0
sg20
I18
sg21
I0
sg22
I0
sg23
I0
sg24
I0
sbssg122
S'$E\xff\xf5f,\xb2\xc7\xb4\x9b*\x0es|s\xcc'
p512
ssS'teach_models_teacher_tags_teacher_tag_model'
p513
(dp514
g55
(dp515
g57
S'teach_models_teacher_tags_teacher_tag_model.html'
p516
sg59
S'teach/models/teacher_tags/teacher_tag_model'
p517
sg61
g13
(g14
g15
NtRp518
(dp519
g18
I1
sg19
I0
sg20
I30
sg21
I0
sg22
I0
sg23
I0
sg24
I0
sbssg64
S'\\\xb6A\xa8\xa7\x93\x16K\xceQ>\xe8t\xdb<#'
p520
ssS'teach_models_daily_quest_templates_daily_quest_template_model'
p521
(dp522
g55
(dp523
g177
S'teach_models_daily_quest_templates_daily_quest_template_model.html'
p524
sg179
S'teach/models/daily_quest_templates/daily_quest_template_model'
p525
sg181
g13
(g14
g15
NtRp526
(dp527
g18
I1
sg19
I0
sg20
I32
sg21
I0
sg22
I0
sg23
I1
sg24
I0
sbssg64
S"\xf8\xcd\xe9T\xea\x98\xb1\xcb\xd1\xfe\xdca\xa4b'`"
p528
ssS'create_views_books_tests_test_add_subchapter_view'
p529
(dp530
S'index'
p531
(dp532
g44
S'create_views_books_tests_test_add_subchapter_view.html'
p533
sg46
S'create/views/books/tests/test_add_subchapter_view'
p534
sg48
g13
(g14
g15
NtRp535
(dp536
g18
I1
sg19
I0
sg20
I60
sg21
I0
sg22
I0
sg23
I0
sg24
I0
sbssS'hash'
p537
S"\xcc^2\xc4\xf2\xb1\xdc\xe8\xf0t\xb6\xcc\x1f\xce\xf1'"
p538
ssS'create_models_quests_quest_model'
p539
(dp540
g103
(dp541
S'html_filename'
p542
S'create_models_quests_quest_model.html'
p543
sS'name'
p544
S'create/models/quests/quest_model'
p545
sS'nums'
p546
g13
(g14
g15
NtRp547
(dp548
g18
I1
sg19
I4
sg20
I59
sg21
I0
sg22
I0
sg23
I13
sg24
I4
sbssg112
S'^g\x1e\x82\xee1[\xc0\xbe\x04\xca\xb1`M\xe7\xe9'
p549
ssS'user_system_views_users_tests_test_remove_role_view'
p550
(dp551
g42
(dp552
g44
S'user_system_views_users_tests_test_remove_role_view.html'
p553
sg46
S'user_system/views/users/tests/test_remove_role_view'
p554
sg48
g13
(g14
g15
NtRp555
(dp556
g18
I1
sg19
I0
sg20
I42
sg21
I0
sg22
I0
sg23
I0
sg24
I0
sbssg51
S'\xfb\x9b\xa3\xe5\x90\xe7q99\x19\x10"<@L\x8c'
p557
ssS'create_models_tags_tests_test_tag_history_model'
p558
(dp559
S'index'
p560
(dp561
g57
S'create_models_tags_tests_test_tag_history_model.html'
p562
sg59
S'create/models/tags/tests/test_tag_history_model'
p563
sg61
g13
(g14
g15
NtRp564
(dp565
g18
I1
sg19
I0
sg20
I58
sg21
I0
sg22
I0
sg23
I0
sg24
I0
sbssS'hash'
p566
S"\x05Y\xa9\xba\xf0\xa8\xd2*7_\xcb]\xfb*#'"
p567
ssS'teach_views_teacher_news_feed___init__'
p568
(dp569
g297
(dp570
g177
S'teach_views_teacher_news_feed___init__.html'
p571
sg179
S'teach/views/teacher_news_feed/__init__'
p572
sg181
g13
(g14
g15
NtRp573
(dp574
g18
I1
sg19
I0
sg20
I1
sg21
I0
sg22
I0
sg23
I0
sg24
I0
sbssg303
S'\xe8\xcd\xf3\x9f\xa3=;`\xf0oZ\xcb!\x98\xac\x1c'
p575
ssS'create_views_daily_quest_templates_daily_quest_template_view'
p576
(dp577
g242
(dp578
g244
S'create_views_daily_quest_templates_daily_quest_template_view.html'
p579
sg246
S'create/views/daily_quest_templates/daily_quest_template_view'
p580
sg248
g13
(g14
g15
NtRp581
(dp582
g18
I1
sg19
I4
sg20
I20
sg21
I0
sg22
I0
sg23
I5
sg24
I4
sbssg251
S'*(w\xa3\x82\x06\xe8D\x8c\xaa+3\xbc\xe3\xa5\x1d'
p583
ssS'create_models_questions_question_history_remark_model'
p584
(dp585
S'index'
p586
(dp587
S'html_filename'
p588
S'create_models_questions_question_history_remark_model.html'
p589
sS'name'
p590
S'create/models/questions/question_history_remark_model'
p591
sS'nums'
p592
g13
(g14
g15
NtRp593
(dp594
g18
I1
sg19
I0
sg20
I27
sg21
I0
sg22
I0
sg23
I0
sg24
I0
sbssS'hash'
p595
S'\xac"G5\x1c\xf2\xef\xa9\x1dUd\xce4.\xac\xa4'
p596
ssS'learn_serializers___init__'
p597
(dp598
g55
(dp599
g57
S'learn_serializers___init__.html'
p600
sg59
S'learn/serializers/__init__'
p601
sg61
g13
(g14
g15
NtRp602
(dp603
g18
I1
sg19
I0
sg20
I1
sg21
I0
sg22
I0
sg23
I0
sg24
I0
sbssg64
S'cLP\xd9\xc0\x91mD\xa3\xd2\xbczr\xdak\xf4'
p604
ssS'user_system_views_schools___init__'
p605
(dp606
g116
(dp607
g31
S'user_system_views_schools___init__.html'
p608
sg33
S'user_system/views/schools/__init__'
p609
sg35
g13
(g14
g15
NtRp610
(dp611
g18
I1
sg19
I0
sg20
I2
sg21
I0
sg22
I0
sg23
I0
sg24
I0
sbssg122
S'\x85\xe2\x7f\xa7\xac\x16HY\x8b\x10\x9b\xc0r\x17|\x8c'
p612
ssS'create_views_quests___init__'
p613
(dp614
g103
(dp615
S'html_filename'
p616
S'create_views_quests___init__.html'
p617
sS'name'
p618
S'create/views/quests/__init__'
p619
sS'nums'
p620
g13
(g14
g15
NtRp621
(dp622
g18
I1
sg19
I0
sg20
I1
sg21
I0
sg22
I0
sg23
I0
sg24
I0
sbssg112
S'\x8d\x97\x8c^6\xf0o\xc3_\x8dRQ}\xd2]a'
p623
ssS'user_system_models_schools_tests_test_course_model'
p624
(dp625
g232
(dp626
S'html_filename'
p627
S'user_system_models_schools_tests_test_course_model.html'
p628
sS'name'
p629
S'user_system/models/schools/tests/test_course_model'
p630
sS'nums'
p631
g13
(g14
g15
NtRp632
(dp633
g18
I1
sg19
I8
sg20
I50
sg21
I0
sg22
I0
sg23
I0
sg24
I0
sbssg238
S'\xd7va\xe6uR6*v\xca\x885\xf3]$1'
p634
ssS'create_models_question_datasets_tests___init__'
p635
(dp636
g144
(dp637
g146
S'create_models_question_datasets_tests___init__.html'
p638
sg148
S'create/models/question_datasets/tests/__init__'
p639
sg150
g13
(g14
g15
NtRp640
(dp641
g18
I1
sg19
I0
sg20
I0
sg21
I0
sg22
I0
sg23
I0
sg24
I0
sbssg153
S'\x19g\xdfM\x1a\x019\xaf\x1baIeR\xe5u\xa7'
p642
ssS'api_logging_models_modal_logging_modal_model'
p643
(dp644
g297
(dp645
g177
S'api_logging_models_modal_logging_modal_model.html'
p646
sg179
S'api_logging/models/modal_logging/modal_model'
p647
sg181
g13
(g14
g15
NtRp648
(dp649
g18
I1
sg19
I0
sg20
I19
sg21
I0
sg22
I0
sg23
I5
sg24
I0
sbssg303
S'\x0f\x1e\xac\x00_hQ\xcb\xa2\xa8\xf4@\xb9\x97\x9c\x1e'
p650
ssS'user_system_views_signups_hardcoded_test_account_view'
p651
(dp652
g42
(dp653
g44
S'user_system_views_signups_hardcoded_test_account_view.html'
p654
sg46
S'user_system/views/signups/hardcoded/test_account_view'
p655
sg48
g13
(g14
g15
NtRp656
(dp657
g18
I1
sg19
I2
sg20
I18
sg21
I0
sg22
I0
sg23
I0
sg24
I0
sbssg51
S"\xb4\xf1\xfdH\x8f\xf1QX7'\\\xd3\xab.\xbc\x80"
p658
ssS'user_system_views_users_create_student_view'
p659
(dp660
g297
(dp661
g177
S'user_system_views_users_create_student_view.html'
p662
sg179
S'user_system/views/users/create_student_view'
p663
sg181
g13
(g14
g15
NtRp664
(dp665
g18
I1
sg19
I2
sg20
I37
sg21
I0
sg22
I0
sg23
I24
sg24
I2
sbssg303
S'\x8e\xce\xac\xe9\xe3J4\xbb\x88$\xefFS\x06Ow'
p666
ssS'teach_serializers_teacher_tags___init__'
p667
(dp668
g55
(dp669
g57
S'teach_serializers_teacher_tags___init__.html'
p670
sg59
S'teach/serializers/teacher_tags/__init__'
p671
sg61
g13
(g14
g15
NtRp672
(dp673
g18
I1
sg19
I0
sg20
I1
sg21
I0
sg22
I0
sg23
I0
sg24
I0
sbssg64
S'Q\xc1\xe2\xf5*\x8fJ\xddv\xe7\x91\xd1S\xf5\xa9\xa3'
p674
ssS'learn_models_daily_quests_tests___init__'
p675
(dp676
g55
(dp677
g57
S'learn_models_daily_quests_tests___init__.html'
p678
sg59
S'learn/models/daily_quests/tests/__init__'
p679
sg61
g13
(g14
g15
NtRp680
(dp681
g18
I1
sg19
I0
sg20
I1
sg21
I0
sg22
I0
sg23
I0
sg24
I0
sbssg64
S'\xbc\xd6\xeb\xb3\xba\xcaz\xf7{\xd4B\xb5}l\xdf\x96'
p682
ssS'user_system_views_signups___init__'
p683
(dp684
g42
(dp685
g446
S'user_system_views_signups___init__.html'
p686
sg448
S'user_system/views/signups/__init__'
p687
sg450
g13
(g14
g15
NtRp688
(dp689
g18
I1
sg19
I0
sg20
I4
sg21
I0
sg22
I0
sg23
I0
sg24
I0
sbssg51
S'\x02\x1d\x90mQ#+\xc5\x93\xdb\xa4Hs\xcf\xa8\x97'
p690
ssS'create_views_tags_tag_view'
p691
(dp692
g424
(dp693
g105
S'create_views_tags_tag_view.html'
p694
sg107
S'create/views/tags/tag_view'
p695
sg109
g13
(g14
g15
NtRp696
(dp697
g18
I1
sg19
I32
sg20
I92
sg21
I0
sg22
I8
sg23
I13
sg24
I16
sbssg433
S'\xd5\xd6\xf9\xa6U<\xf82\xe0xx\x06}\xa5\xeb\xe7'
p698
ssS'api_logging_managers'
p699
(dp700
g560
(dp701
g44
S'api_logging_managers.html'
p702
sg46
S'api_logging/managers'
p703
sg48
g13
(g14
g15
NtRp704
(dp705
g18
I1
sg19
I0
sg20
I4
sg21
I0
sg22
I0
sg23
I0
sg24
I0
sbssg566
S'\xef\xaf\x98\xcd63\x10\x1c\xc1\xfcP\x12\xc1\xe7\xa5\xc7'
p706
ssS'teach_models_campaigns_campaign_model'
p707
(dp708
g116
(dp709
g177
S'teach_models_campaigns_campaign_model.html'
p710
sg179
S'teach/models/campaigns/campaign_model'
p711
sg181
g13
(g14
g15
NtRp712
(dp713
g18
I1
sg19
I0
sg20
I40
sg21
I0
sg22
I0
sg23
I0
sg24
I0
sbssg122
S'>\xc8\xe2\xfb\xdd\xc1"@\xea/\xe1\xbb\xf1\xa4\x80\x0f'
p714
ssS'create_views_tags_tests_test_add_prerequisite_view'
p715
(dp716
g307
(dp717
g44
S'create_views_tags_tests_test_add_prerequisite_view.html'
p718
sg46
S'create/views/tags/tests/test_add_prerequisite_view'
p719
sg48
g13
(g14
g15
NtRp720
(dp721
g18
I1
sg19
I0
sg20
I26
sg21
I0
sg22
I0
sg23
I0
sg24
I0
sbssg313
S'\xd2\xef\x02\xe1{\xbc\x9b\xf3\x8b\xbd\xf0\xd2\xe7\xcc\xb5\xa4'
p722
ssS'create_models_tags___init__'
p723
(dp724
g383
(dp725
S'html_filename'
p726
S'create_models_tags___init__.html'
p727
sS'name'
p728
S'create/models/tags/__init__'
p729
sS'nums'
p730
g13
(g14
g15
NtRp731
(dp732
g18
I1
sg19
I0
sg20
I5
sg21
I0
sg22
I0
sg23
I0
sg24
I0
sbssg389
S'\xcck\xb0R5)\xa8c\xdb\xa6\xfb\xec\x18 \xde}'
p733
ssS'teach_models_campaigns_tests___init__'
p734
(dp735
g116
(dp736
g31
S'teach_models_campaigns_tests___init__.html'
p737
sg33
S'teach/models/campaigns/tests/__init__'
p738
sg35
g13
(g14
g15
NtRp739
(dp740
g18
I1
sg19
I0
sg20
I0
sg21
I0
sg22
I0
sg23
I0
sg24
I0
sbssg122
S'\x19g\xdfM\x1a\x019\xaf\x1baIeR\xe5u\xa7'
p741
ssS'learn_views_student_news_feed___init__'
p742
(dp743
g297
(dp744
g177
S'learn_views_student_news_feed___init__.html'
p745
sg179
S'learn/views/student_news_feed/__init__'
p746
sg181
g13
(g14
g15
NtRp747
(dp748
g18
I1
sg19
I0
sg20
I1
sg21
I0
sg22
I0
sg23
I0
sg24
I0
sbssg303
S'\xc5\x87\xccQ|\xa2\xee\x11p\x84\xfe\xed\xe3W\xfa\x07'
p749
ssS'create_models_daily_quests___init__'
p750
(dp751
S'index'
p752
(dp753
S'html_filename'
p754
S'create_models_daily_quests___init__.html'
p755
sS'name'
p756
S'create/models/daily_quests/__init__'
p757
sS'nums'
p758
g13
(g14
g15
NtRp759
(dp760
g18
I1
sg19
I0
sg20
I1
sg21
I0
sg22
I0
sg23
I0
sg24
I0
sbssS'hash'
p761
S'\x94\x0eB\xb3\x8e\xc6\x81\xc0\x16\x84P.\x11:\x8e\xc9'
p762
ssS'teach_views_teacher_chapters_teacher_chapter_view'
p763
(dp764
g55
(dp765
g31
S'teach_views_teacher_chapters_teacher_chapter_view.html'
p766
sg33
S'teach/views/teacher_chapters/teacher_chapter_view'
p767
sg35
g13
(g14
g15
NtRp768
(dp769
g18
I1
sg19
I12
sg20
I44
sg21
I0
sg22
I0
sg23
I25
sg24
I12
sbssg64
S'Z\xc5\n\xdb\xe5!2~7\xe3i\xa7j\xd4\x10\x8c'
p770
ssS'create_serializers_tags_concept_serializer'
p771
(dp772
g349
(dp773
S'html_filename'
p774
S'create_serializers_tags_concept_serializer.html'
p775
sS'name'
p776
S'create/serializers/tags/concept_serializer'
p777
sS'nums'
p778
g13
(g14
g15
NtRp779
(dp780
g18
I1
sg19
I0
sg20
I6
sg21
I0
sg22
I0
sg23
I0
sg24
I0
sbssg355
S'\xf1\xe0\xc7%%\xbd\xfc@\x12\x02\x96\xbb\x0c\xbf\x9fq'
p781
ssS'create_serializers_questions_question_history_remark_serializer'
p782
(dp783
g586
(dp784
g588
S'create_serializers_questions_question_history_remark_serializer.html'
p785
sg590
S'create/serializers/questions/question_history_remark_serializer'
p786
sg592
g13
(g14
g15
NtRp787
(dp788
g18
I1
sg19
I0
sg20
I6
sg21
I0
sg22
I0
sg23
I0
sg24
I0
sbssg595
S'\xb53\t\x11\xa6\x1b\xf7!D"\xc8\xa3\xcb41\x9d'
p789
ssS'user_system_models_roles_tests___init__'
p790
(dp791
g42
(dp792
g446
S'user_system_models_roles_tests___init__.html'
p793
sg448
S'user_system/models/roles/tests/__init__'
p794
sg450
g13
(g14
g15
NtRp795
(dp796
g18
I1
sg19
I0
sg20
I0
sg21
I0
sg22
I0
sg23
I0
sg24
I0
sbssg51
S'\x19g\xdfM\x1a\x019\xaf\x1baIeR\xe5u\xa7'
p797
ssS'create_serializers_tags___init__'
p798
(dp799
S'index'
p800
(dp801
S'html_filename'
p802
S'create_serializers_tags___init__.html'
p803
sS'name'
p804
S'create/serializers/tags/__init__'
p805
sS'nums'
p806
g13
(g14
g15
NtRp807
(dp808
g18
I1
sg19
I0
sg20
I0
sg21
I0
sg22
I0
sg23
I0
sg24
I0
sbssS'hash'
p809
S'\x19g\xdfM\x1a\x019\xaf\x1baIeR\xe5u\xa7'
p810
ssS'privilege_urls'
p811
(dp812
g287
(dp813
g93
S'privilege_urls.html'
p814
sg95
S'privilege/urls'
p815
sg97
g13
(g14
g15
NtRp816
(dp817
g18
I1
sg19
I0
sg20
I7
sg21
I0
sg22
I0
sg23
I0
sg24
I0
sbssg293
S'\x86\xbf\xcdE\x8fy\xc9\xd5\x13I\x11#-J.\xe8'
p818
ssS'flipped_helpers_time_helper'
p819
(dp820
g116
(dp821
g177
S'flipped_helpers_time_helper.html'
p822
sg179
S'flipped/helpers/time_helper'
p823
sg181
g13
(g14
g15
NtRp824
(dp825
g18
I1
sg19
I2
sg20
I26
sg21
I0
sg22
I0
sg23
I17
sg24
I2
sbssg122
S'\xc4\x9dt\xafh9\xf1\xa5\xbe\xbd\xe6\xb9G\xd0\xcf\xad'
p826
ssS'create_serializers_daily_quests___init__'
p827
(dp828
g752
(dp829
g244
S'create_serializers_daily_quests___init__.html'
p830
sg246
S'create/serializers/daily_quests/__init__'
p831
sg248
g13
(g14
g15
NtRp832
(dp833
g18
I1
sg19
I0
sg20
I1
sg21
I0
sg22
I0
sg23
I0
sg24
I0
sbssg761
S'N\xb8\x18\x1c\x0c\xc7\xca\x91\xa0|\xe1\x02L\xeeC\xbe'
p834
ssS'api_logging_views_LoggingView'
p835
(dp836
g297
(dp837
g177
S'api_logging_views_LoggingView.html'
p838
sg179
S'api_logging/views/LoggingView'
p839
sg181
g13
(g14
g15
NtRp840
(dp841
g18
I1
sg19
I8
sg20
I41
sg21
I0
sg22
I0
sg23
I27
sg24
I8
sbssg303
S'\xe3\xefQ\x1e\x9e\xec\xea\xa7\xc5\x05\xb9\x90\xf6\xf3\x88\x9b'
p842
ssS'create_models_questions_tests_test_question_type_model'
p843
(dp844
g42
(dp845
g44
S'create_models_questions_tests_test_question_type_model.html'
p846
sg46
S'create/models/questions/tests/test_question_type_model'
p847
sg48
g13
(g14
g15
NtRp848
(dp849
g18
I1
sg19
I0
sg20
I17
sg21
I0
sg22
I0
sg23
I0
sg24
I0
sbssg51
S'e\x1b\x19\xbb)\x89\xff\xfa\xe5\xca\xde\x08\x08CUL'
p850
ssS'teach_models___init__'
p851
(dp852
g55
(dp853
g31
S'teach_models___init__.html'
p854
sg33
S'teach/models/__init__'
p855
sg35
g13
(g14
g15
NtRp856
(dp857
g18
I1
sg19
I0
sg20
I4
sg21
I0
sg22
I0
sg23
I0
sg24
I0
sbssg64
S'\x18\xb4\x9a\xf6\x89\xe4oR\x81\xdbb\xf7E\xf9\x92\xb7'
p858
ssS'create_models_tags_skill_model'
p859
(dp860
g383
(dp861
g44
S'create_models_tags_skill_model.html'
p862
sg46
S'create/models/tags/skill_model'
p863
sg48
g13
(g14
g15
NtRp864
(dp865
g18
I1
sg19
I0
sg20
I10
sg21
I0
sg22
I0
sg23
I0
sg24
I0
sbssg389
S'B&\x06S\xb6\x85A\xdbx\xd4\xc7#]\x13\xe1\xca'
p866
ssS'learn_tests'
p867
(dp868
g55
(dp869
g57
S'learn_tests.html'
p870
sg59
S'learn/tests'
p871
sg61
g13
(g14
g15
NtRp872
(dp873
g18
I1
sg19
I0
sg20
I1
sg21
I0
sg22
I0
sg23
I0
sg24
I0
sbssg64
S'\xe3\x7f\x86\xaa\x99\xac\xc8\x80\xdblE4\x0f\xe7\x1d\xfc'
p874
ssS'learn_models_daily_quests_daily_quest_model'
p875
(dp876
g55
(dp877
S'html_filename'
p878
S'learn_models_daily_quests_daily_quest_model.html'
p879
sS'name'
p880
S'learn/models/daily_quests/daily_quest_model'
p881
sS'nums'
p882
g13
(g14
g15
NtRp883
(dp884
g18
I1
sg19
I20
sg20
I115
sg21
I0
sg22
I0
sg23
I49
sg24
I20
sbssg64
S'\x0b\x0e\x89\xb2>L\xf7D1_\xa8\xaf\xaf\x8f\xbc\x8a'
p885
ssS'api_logging_views___init__'
p886
(dp887
g297
(dp888
g177
S'api_logging_views___init__.html'
p889
sg179
S'api_logging/views/__init__'
p890
sg181
g13
(g14
g15
NtRp891
(dp892
g18
I1
sg19
I0
sg20
I3
sg21
I0
sg22
I0
sg23
I0
sg24
I0
sbssg303
S'_Q\x0f\x0cLb\xd8Cm\xa7\x81g\xaa\x95\xbdd'
p893
ssS'create_models_books___init__'
p894
(dp895
g349
(dp896
g774
S'create_models_books___init__.html'
p897
sg776
S'create/models/books/__init__'
p898
sg778
g13
(g14
g15
NtRp899
(dp900
g18
I1
sg19
I0
sg20
I4
sg21
I0
sg22
I0
sg23
I0
sg24
I0
sbssg355
S'\xba\x14\x87u\xc0\x80\x96\x82s\x8d\x8bU)\x1c\xc3\x91'
p901
ssS'flipped_helpers___init__'
p902
(dp903
g42
(dp904
g177
S'flipped_helpers___init__.html'
p905
sg179
S'flipped/helpers/__init__'
p906
sg181
g13
(g14
g15
NtRp907
(dp908
g18
I1
sg19
I0
sg20
I5
sg21
I0
sg22
I0
sg23
I0
sg24
I0
sbssg51
S'\x95\xcd\x9a\xf9\xe3\xd8\xff\x94\x81\xae\x9c\x14\xc0P\x95~'
p909
ssS'create_models_quests_tests_test_quest_model'
p910
(dp911
g103
(dp912
g542
S'create_models_quests_tests_test_quest_model.html'
p913
sg544
S'create/models/quests/tests/test_quest_model'
p914
sg546
g13
(g14
g15
NtRp915
(dp916
g18
I1
sg19
I4
sg20
I48
sg21
I0
sg22
I0
sg23
I0
sg24
I0
sbssg112
S'\xcdF\x98\xd0k\x14\x9e\xe4\x90\x96\x03\xddNdiH'
p917
ssS'privilege_views_privileges_user_privilege_view'
p918
(dp919
g287
(dp920
g93
S'privilege_views_privileges_user_privilege_view.html'
p921
sg95
S'privilege/views/privileges/user_privilege_view'
p922
sg97
g13
(g14
g15
NtRp923
(dp924
g18
I1
sg19
I10
sg20
I38
sg21
I0
sg22
I0
sg23
I22
sg24
I10
sbssg293
S'\xf699\xa5A\xca\x9e\x91,l\xf8\x8dI[PR'
p925
ssS'learn_models_daily_quests_tests_test_daily_quest_model'
p926
(dp927
g55
(dp928
g177
S'learn_models_daily_quests_tests_test_daily_quest_model.html'
p929
sg179
S'learn/models/daily_quests/tests/test_daily_quest_model'
p930
sg181
g13
(g14
g15
NtRp931
(dp932
g18
I1
sg19
I2
sg20
I59
sg21
I0
sg22
I0
sg23
I0
sg24
I0
sbssg64
S'\xf0jj\xb6D\xd2\xa2\x84\xdcX\x98H!\xb1=\x1b'
p933
ssS'create_views_books_tests_test_get_book_by_id_view'
p934
(dp935
S'index'
p936
(dp937
g93
S'create_views_books_tests_test_get_book_by_id_view.html'
p938
sg95
S'create/views/books/tests/test_get_book_by_id_view'
p939
sg97
g13
(g14
g15
NtRp940
(dp941
g18
I1
sg19
I0
sg20
I20
sg21
I0
sg22
I0
sg23
I0
sg24
I0
sbssS'hash'
p942
S'\xc88x\xaf\x84e\xaa6\x17\xdf\x0e\x8c`\xcaAO'
p943
ssS'user_system_views_apps_tests_test_get_app_by_id_view'
p944
(dp945
g42
(dp946
g44
S'user_system_views_apps_tests_test_get_app_by_id_view.html'
p947
sg46
S'user_system/views/apps/tests/test_get_app_by_id_view'
p948
sg48
g13
(g14
g15
NtRp949
(dp950
g18
I1
sg19
I0
sg20
I17
sg21
I0
sg22
I0
sg23
I0
sg24
I0
sbssg51
S"\xa2\x1eG%r{-~\xc5=\x8aj\x99X!'"
p951
ssS'teach_views_daily_quest_templates_daily_quest_template_view'
p952
(dp953
g55
(dp954
g177
S'teach_views_daily_quest_templates_daily_quest_template_view.html'
p955
sg179
S'teach/views/daily_quest_templates/daily_quest_template_view'
p956
sg181
g13
(g14
g15
NtRp957
(dp958
g18
I1
sg19
I18
sg20
I54
sg21
I0
sg22
I0
sg23
I33
sg24
I18
sbssg64
S'\x06\x9c2z\x06\xb6\xc0\xbf\x8b\xe2\x9b_E\xe0P\x1a'
p959
ssS'api_logging_views_summary___init__'
p960
(dp961
g297
(dp962
g177
S'api_logging_views_summary___init__.html'
p963
sg179
S'api_logging/views/summary/__init__'
p964
sg181
g13
(g14
g15
NtRp965
(dp966
g18
I1
sg19
I0
sg20
I1
sg21
I0
sg22
I0
sg23
I0
sg24
I0
sbssg303
S'\x04\x12bh\x96\xc5j\x88dm\x0e\xd7\xe1\x94Lq'
p967
ssS'privilege_serializers___init__'
p968
(dp969
g287
(dp970
g93
S'privilege_serializers___init__.html'
p971
sg95
S'privilege/serializers/__init__'
p972
sg97
g13
(g14
g15
NtRp973
(dp974
g18
I1
sg19
I0
sg20
I1
sg21
I0
sg22
I0
sg23
I0
sg24
I0
sbssg293
S'\x13V\xca}S\xd3\x98Rp?\xb0\xe1\x904>b'
p975
ssS'create_models_books_tests_test_book_subchapter_model'
p976
(dp977
g349
(dp978
S'html_filename'
p979
S'create_models_books_tests_test_book_subchapter_model.html'
p980
sS'name'
p981
S'create/models/books/tests/test_book_subchapter_model'
p982
sS'nums'
p983
g13
(g14
g15
NtRp984
(dp985
g18
I1
sg19
I0
sg20
I42
sg21
I0
sg22
I0
sg23
I0
sg24
I0
sbssg355
S'\xe3*\xba\x94d#\xcd\t\xc9\xb8\x05w\nz\xb8\xc0'
p986
ssS'learn_models_daily_quests___init__'
p987
(dp988
g55
(dp989
S'html_filename'
p990
S'learn_models_daily_quests___init__.html'
p991
sS'name'
p992
S'learn/models/daily_quests/__init__'
p993
sS'nums'
p994
g13
(g14
g15
NtRp995
(dp996
g18
I1
sg19
I0
sg20
I2
sg21
I0
sg22
I0
sg23
I0
sg24
I0
sbssg64
S's\x11\xbfV}\xab\xfcdH\xcf4Q\xc5\x86\xa3\xb4'
p997
ssS'create_models_daily_quest_templates_tests___init__'
p998
(dp999
g242
(dp1000
g244
S'create_models_daily_quest_templates_tests___init__.html'
p1001
sg246
S'create/models/daily_quest_templates/tests/__init__'
p1002
sg248
g13
(g14
g15
NtRp1003
(dp1004
g18
I1
sg19
I0
sg20
I0
sg21
I0
sg22
I0
sg23
I0
sg24
I0
sbssg251
S'\x19g\xdfM\x1a\x019\xaf\x1baIeR\xe5u\xa7'
p1005
ssS'create_models_tags_tag_model'
p1006
(dp1007
g383
(dp1008
g93
S'create_models_tags_tag_model.html'
p1009
sg95
S'create/models/tags/tag_model'
p1010
sg97
g13
(g14
g15
NtRp1011
(dp1012
g18
I1
sg19
I0
sg20
I37
sg21
I0
sg22
I0
sg23
I0
sg24
I0
sbssg389
S'rJ0\x91]\xe5\xfc\xa8\x8c\x00}RI\x18\xf0\x07'
p1013
ssS'create_views_tags___init__'
p1014
(dp1015
g424
(dp1016
g426
S'create_views_tags___init__.html'
p1017
sg428
S'create/views/tags/__init__'
p1018
sg430
g13
(g14
g15
NtRp1019
(dp1020
g18
I1
sg19
I0
sg20
I1
sg21
I0
sg22
I0
sg23
I0
sg24
I0
sbssg433
S'|r<\xaap\x01\xb1\xbc"\xe5\xbb\xd8\x87\xa5\xd2H'
p1021
ssS'create_serializers_tags_skill_serializer'
p1022
(dp1023
g349
(dp1024
g774
S'create_serializers_tags_skill_serializer.html'
p1025
sg776
S'create/serializers/tags/skill_serializer'
p1026
sg778
g13
(g14
g15
NtRp1027
(dp1028
g18
I1
sg19
I0
sg20
I6
sg21
I0
sg22
I0
sg23
I0
sg24
I0
sbssg355
S'\x1b\x10O\xca\xd5i\\\x06C\x00q}\xf43\xcb\xa6'
p1029
ssS'create_views_questions_question_history_remark_view'
p1030
(dp1031
g586
(dp1032
g588
S'create_views_questions_question_history_remark_view.html'
p1033
sg590
S'create/views/questions/question_history_remark_view'
p1034
sg592
g13
(g14
g15
NtRp1035
(dp1036
g18
I1
sg19
I0
sg20
I14
sg21
I0
sg22
I0
sg23
I0
sg24
I0
sbssg595
S'{4O\x0e\xb3\xad\xc8\xb72\x8f\x1f\x11\xc0\x9e\xa0\xd6'
p1037
ssS'create_serializers_tags_tag_type_serializer'
p1038
(dp1039
g349
(dp1040
g774
S'create_serializers_tags_tag_type_serializer.html'
p1041
sg776
S'create/serializers/tags/tag_type_serializer'
p1042
sg778
g13
(g14
g15
NtRp1043
(dp1044
g18
I1
sg19
I0
sg20
I6
sg21
I0
sg22
I0
sg23
I0
sg24
I0
sbssg355
S'\xc3\xfd\x81\x18{\x97,\xb1\xb6\x9f\xee\xf2kZ\x1e\x02'
p1045
ssS'learn_models_points_tests_test_point_history_model'
p1046
(dp1047
g297
(dp1048
g177
S'learn_models_points_tests_test_point_history_model.html'
p1049
sg179
S'learn/models/points/tests/test_point_history_model'
p1050
sg181
g13
(g14
g15
NtRp1051
(dp1052
g18
I1
sg19
I0
sg20
I22
sg21
I0
sg22
I0
sg23
I0
sg24
I0
sbssg303
S"\x8d\xd7\x96\xe4\x1b\xf6\xc4\xed:B\x13\xa9MA'\x99"
p1053
ssS'learn_serializers_daily_quests_daily_quest_serializer'
p1054
(dp1055
g55
(dp1056
g177
S'learn_serializers_daily_quests_daily_quest_serializer.html'
p1057
sg179
S'learn/serializers/daily_quests/daily_quest_serializer'
p1058
sg181
g13
(g14
g15
NtRp1059
(dp1060
g18
I1
sg19
I2
sg20
I61
sg21
I0
sg22
I0
sg23
I27
sg24
I2
sbssg64
S'\x00\xdc)#U\xf8\x03\xc2\xa7T\x0b\xa9\x13\xa3ds'
p1061
ssS'user_system_models_users_tests_test_user_profile_picture_model'
p1062
(dp1063
g116
(dp1064
g31
S'user_system_models_users_tests_test_user_profile_picture_model.html'
p1065
sg33
S'user_system/models/users/tests/test_user_profile_picture_model'
p1066
sg35
g13
(g14
g15
NtRp1067
(dp1068
g18
I1
sg19
I0
sg20
I21
sg21
I0
sg22
I0
sg23
I0
sg24
I0
sbssg122
S'\xbc/\x93\xf6\x8a\x1eC\x99t\xd0\xdc\x96\xf8\x970\xc9'
p1069
ssS'teach_views_teacher_news_feed_teacher_news_feed_view'
p1070
(dp1071
g297
(dp1072
g177
S'teach_views_teacher_news_feed_teacher_news_feed_view.html'
p1073
sg179
S'teach/views/teacher_news_feed/teacher_news_feed_view'
p1074
sg181
g13
(g14
g15
NtRp1075
(dp1076
g18
I1
sg19
I2
sg20
I40
sg21
I0
sg22
I0
sg23
I20
sg24
I2
sbssg303
S'\xb5\x1f\xeb\x1ec\xf1\x9e\x91\xdap\xb3%\xa2\xeb\x9a\xd8'
p1077
ssS'user_system_serializers_schools_organization_serializer'
p1078
(dp1079
g55
(dp1080
g57
S'user_system_serializers_schools_organization_serializer.html'
p1081
sg59
S'user_system/serializers/schools/organization_serializer'
p1082
sg61
g13
(g14
g15
NtRp1083
(dp1084
g18
I1
sg19
I0
sg20
I7
sg21
I0
sg22
I0
sg23
I0
sg24
I0
sbssg64
S'90~\xe3\x8f\x8e\xd9m\xb4\nInn\x03(\xdb'
p1085
ssS'create_models_books_book_subchapter_model'
p1086
(dp1087
g349
(dp1088
S'html_filename'
p1089
S'create_models_books_book_subchapter_model.html'
p1090
sS'name'
p1091
S'create/models/books/book_subchapter_model'
p1092
sS'nums'
p1093
g13
(g14
g15
NtRp1094
(dp1095
g18
I1
sg19
I2
sg20
I45
sg21
I0
sg22
I0
sg23
I0
sg24
I0
sbssg355
S'\xbc\xee\x91\x7f;\xa9\x15\xeaau\xef\x82\x07"\x02\xd3'
p1096
ssS'teach_views_summaries_leaderboard_view'
p1097
(dp1098
g297
(dp1099
g188
S'teach_views_summaries_leaderboard_view.html'
p1100
sg190
S'teach/views/summaries/leaderboard_view'
p1101
sg192
g13
(g14
g15
NtRp1102
(dp1103
g18
I1
sg19
I60
sg20
I149
sg21
I0
sg22
I0
sg23
I120
sg24
I60
sbssg303
S'\xac\xc4\x8a\xc1U8}\x03\xf9\x02\x91\xb0\xa8\x05{\x8f'
p1104
ssS'api_logging_serializers_modal_loggings_modal_user_history_serializer'
p1105
(dp1106
g297
(dp1107
g177
S'api_logging_serializers_modal_loggings_modal_user_history_serializer.html'
p1108
sg179
S'api_logging/serializers/modal_loggings/modal_user_history_serializer'
p1109
sg181
g13
(g14
g15
NtRp1110
(dp1111
g18
I1
sg19
I0
sg20
I7
sg21
I0
sg22
I0
sg23
I0
sg24
I0
sbssg303
S'\xc2\x8f\x89\xe8$\x9c~\x81\xa9\xca\xf8h\x80\xb7hp'
p1112
ssS'learn_models_points___init__'
p1113
(dp1114
g297
(dp1115
g177
S'learn_models_points___init__.html'
p1116
sg179
S'learn/models/points/__init__'
p1117
sg181
g13
(g14
g15
NtRp1118
(dp1119
g18
I1
sg19
I0
sg20
I2
sg21
I0
sg22
I0
sg23
I0
sg24
I0
sbssg303
S'\x1d_\xe1\xcei\x14zD\xd7\x8e\xa1\xf55\x1f\xd1\xd5'
p1120
ssS'api_logging_models___init__'
p1121
(dp1122
g297
(dp1123
g177
S'api_logging_models___init__.html'
p1124
sg179
S'api_logging/models/__init__'
p1125
sg181
g13
(g14
g15
NtRp1126
(dp1127
g18
I1
sg19
I0
sg20
I3
sg21
I0
sg22
I0
sg23
I0
sg24
I0
sbssg303
S'\x9d\r\xed\xba\xe8h@\xa4\xfa(\xf2\xdf\xf5IZ\x9c'
p1128
ssS'teach_serializers___init__'
p1129
(dp1130
g55
(dp1131
g57
S'teach_serializers___init__.html'
p1132
sg59
S'teach/serializers/__init__'
p1133
sg61
g13
(g14
g15
NtRp1134
(dp1135
g18
I1
sg19
I0
sg20
I3
sg21
I0
sg22
I0
sg23
I0
sg24
I0
sbssg64
S'3\x13\x12&\xcb\xecC\xee\xa8lR\x1a\x1d\xb9M\xba'
p1136
ssS'user_system_views_signups_tests___init__'
p1137
(dp1138
g42
(dp1139
g446
S'user_system_views_signups_tests___init__.html'
p1140
sg448
S'user_system/views/signups/tests/__init__'
p1141
sg450
g13
(g14
g15
NtRp1142
(dp1143
g18
I1
sg19
I0
sg20
I1
sg21
I0
sg22
I0
sg23
I0
sg24
I0
sbssg51
S'\xbc\xd6\xeb\xb3\xba\xcaz\xf7{\xd4B\xb5}l\xdf\x96'
p1144
ssS'create_models_daily_quests_tests___init__'
p1145
(dp1146
g752
(dp1147
g754
S'create_models_daily_quests_tests___init__.html'
p1148
sg756
S'create/models/daily_quests/tests/__init__'
p1149
sg758
g13
(g14
g15
NtRp1150
(dp1151
g18
I1
sg19
I0
sg20
I1
sg21
I0
sg22
I0
sg23
I0
sg24
I0
sbssg761
S'\xbc\xd6\xeb\xb3\xba\xcaz\xf7{\xd4B\xb5}l\xdf\x96'
p1152
ssS'api_logging_models_api_logging___init__'
p1153
(dp1154
g297
(dp1155
g177
S'api_logging_models_api_logging___init__.html'
p1156
sg179
S'api_logging/models/api_logging/__init__'
p1157
sg181
g13
(g14
g15
NtRp1158
(dp1159
g18
I1
sg19
I0
sg20
I1
sg21
I0
sg22
I0
sg23
I0
sg24
I0
sbssg303
S'C\xe8\xcf\x97-\xc6\xd3j\xcb\x90*\xea\xd3w\x83\xe0'
p1160
ssS'create_serializers_daily_quests_daily_quest_serializer'
p1161
(dp1162
g242
(dp1163
S'html_filename'
p1164
S'create_serializers_daily_quests_daily_quest_serializer.html'
p1165
sS'name'
p1166
S'create/serializers/daily_quests/daily_quest_serializer'
p1167
sS'nums'
p1168
g13
(g14
g15
NtRp1169
(dp1170
g18
I1
sg19
I0
sg20
I12
sg21
I0
sg22
I0
sg23
I3
sg24
I0
sbssg251
S' $!\xf6\xe6\x92\x9f\x9f\xafy\xe9\x8b\x1c\xf4\xb6\x01'
p1171
ssS'user_system_views_signups_email_signup_view'
p1172
(dp1173
g42
(dp1174
g44
S'user_system_views_signups_email_signup_view.html'
p1175
sg46
S'user_system/views/signups/email_signup_view'
p1176
sg48
g13
(g14
g15
NtRp1177
(dp1178
g18
I1
sg19
I8
sg20
I44
sg21
I0
sg22
I0
sg23
I0
sg24
I0
sbssg51
S'&G\xd1\xc4{\x9b\xbf\x14\x92F\xbe\x13\xeer\x84\x1b'
p1179
ssS'teach_views_teacher_tags___init__'
p1180
(dp1181
g55
(dp1182
g57
S'teach_views_teacher_tags___init__.html'
p1183
sg59
S'teach/views/teacher_tags/__init__'
p1184
sg61
g13
(g14
g15
NtRp1185
(dp1186
g18
I1
sg19
I0
sg20
I1
sg21
I0
sg22
I0
sg23
I0
sg24
I0
sbssg64
S'cp\x00\xdc\x00\xe5M\x9f\x1f\xaa\xb2Y\xd9%\x1d"'
p1187
ssS'flipped_helpers_success_response_helper'
p1188
(dp1189
g42
(dp1190
g44
S'flipped_helpers_success_response_helper.html'
p1191
sg46
S'flipped/helpers/success_response_helper'
p1192
sg48
g13
(g14
g15
NtRp1193
(dp1194
g18
I1
sg19
I2
sg20
I4
sg21
I0
sg22
I0
sg23
I0
sg24
I0
sbssg51
S"'Bp\xbe\xd9\xfa\x92\xa4;\xb6\t\xa8\xfe<\x9d\xa5"
p1195
ssS'create_models_questions_question_model'
p1196
(dp1197
g42
(dp1198
S'html_filename'
p1199
S'create_models_questions_question_model.html'
p1200
sS'name'
p1201
S'create/models/questions/question_model'
p1202
sS'nums'
p1203
g13
(g14
g15
NtRp1204
(dp1205
g18
I1
sg19
I0
sg20
I48
sg21
I0
sg22
I0
sg23
I0
sg24
I0
sbssg51
S'\tGy\xb6\x10\x17dQ\xd7\xd8N>\xd5\x96R\x82'
p1206
ssS'user_system_models_roles___init__'
p1207
(dp1208
g42
(dp1209
g446
S'user_system_models_roles___init__.html'
p1210
sg448
S'user_system/models/roles/__init__'
p1211
sg450
g13
(g14
g15
NtRp1212
(dp1213
g18
I1
sg19
I0
sg20
I2
sg21
I0
sg22
I0
sg23
I0
sg24
I0
sbssg51
S'\xa3\xc2\r\x1b\x1bC\x85\xa5\xads\x7fl\xab`*1'
p1214
ssS'create_models_questions_question_history_model'
p1215
(dp1216
g42
(dp1217
g93
S'create_models_questions_question_history_model.html'
p1218
sg95
S'create/models/questions/question_history_model'
p1219
sg97
g13
(g14
g15
NtRp1220
(dp1221
g18
I1
sg19
I8
sg20
I68
sg21
I0
sg22
I2
sg23
I2
sg24
I2
sbssg51
S'\xd0\xe9\x0bm$j\x15\x9b@\x93\xe5C\xa7\x97\xfd\xf4'
p1222
ssS'user_system_views_signups_tests_test_facebook_signup_view'
p1223
(dp1224
g42
(dp1225
g44
S'user_system_views_signups_tests_test_facebook_signup_view.html'
p1226
sg46
S'user_system/views/signups/tests/test_facebook_signup_view'
p1227
sg48
g13
(g14
g15
NtRp1228
(dp1229
g18
I1
sg19
I0
sg20
I60
sg21
I0
sg22
I0
sg23
I0
sg24
I0
sbssg51
S'\x93<\xc8]\x14\t\xa8/\xdd\xd1\xa4]\xfbp!\xbd'
p1230
ssS'user_system_models_users_tests_test_teacher_mapping_model'
p1231
(dp1232
g29
(dp1233
S'html_filename'
p1234
S'user_system_models_users_tests_test_teacher_mapping_model.html'
p1235
sS'name'
p1236
S'user_system/models/users/tests/test_teacher_mapping_model'
p1237
sS'nums'
p1238
g13
(g14
g15
NtRp1239
(dp1240
g18
I1
sg19
I4
sg20
I35
sg21
I0
sg22
I0
sg23
I0
sg24
I0
sbssg38
S'\x96\x93\xca\x00>\xf7\xc8\xe6:\xb8\x7f\xf5q:\xb6\xaa'
p1241
ssS'learn_views_daily_quests_daily_quest_view'
p1242
(dp1243
g55
(dp1244
g177
S'learn_views_daily_quests_daily_quest_view.html'
p1245
sg179
S'learn/views/daily_quests/daily_quest_view'
p1246
sg181
g13
(g14
g15
NtRp1247
(dp1248
g18
I1
sg19
I16
sg20
I61
sg21
I0
sg22
I0
sg23
I40
sg24
I16
sbssg64
S'\xceiA\x93\xcd>Y\x85L\x07Oz\x9aw\xae;'
p1249
ssS'teach_views_summaries_class_ranking_view'
p1250
(dp1251
g297
(dp1252
g188
S'teach_views_summaries_class_ranking_view.html'
p1253
sg190
S'teach/views/summaries/class_ranking_view'
p1254
sg192
g13
(g14
g15
NtRp1255
(dp1256
g18
I1
sg19
I26
sg20
I84
sg21
I0
sg22
I0
sg23
I61
sg24
I26
sbssg303
S'\xc1\x17}V\x95%y\xe0\xe2\xdc<\x85\x02\x96\xb9\x1a'
p1257
ssS'privilege_models_privileges_tests___init__'
p1258
(dp1259
g287
(dp1260
g93
S'privilege_models_privileges_tests___init__.html'
p1261
sg95
S'privilege/models/privileges/tests/__init__'
p1262
sg97
g13
(g14
g15
NtRp1263
(dp1264
g18
I1
sg19
I0
sg20
I0
sg21
I0
sg22
I0
sg23
I0
sg24
I0
sbssg293
S'\x19g\xdfM\x1a\x019\xaf\x1baIeR\xe5u\xa7'
p1265
ssS'teach_serializers_teacher_chapters___init__'
p1266
(dp1267
g55
(dp1268
g57
S'teach_serializers_teacher_chapters___init__.html'
p1269
sg59
S'teach/serializers/teacher_chapters/__init__'
p1270
sg61
g13
(g14
g15
NtRp1271
(dp1272
g18
I1
sg19
I0
sg20
I1
sg21
I0
sg22
I0
sg23
I0
sg24
I0
sbssg64
S'\xfe\x88\xda\x10\xec!\x99\xb7-\x8d\x90E\xe18K\xb1'
p1273
ssS'api_logging_admin'
p1274
(dp1275
g560
(dp1276
g177
S'api_logging_admin.html'
p1277
sg179
S'api_logging/admin'
p1278
sg181
g13
(g14
g15
NtRp1279
(dp1280
g18
I1
sg19
I0
sg20
I10
sg21
I0
sg22
I0
sg23
I0
sg24
I0
sbssg566
S'T\x93\x03\xbcO>\xd1\xd6\xf4\xd3\x15r{\xad0B'
p1281
ssS'user_system_models_users_user_streak_history_model'
p1282
(dp1283
g297
(dp1284
g1234
S'user_system_models_users_user_streak_history_model.html'
p1285
sg1236
S'user_system/models/users/user_streak_history_model'
p1286
sg1238
g13
(g14
g15
NtRp1287
(dp1288
g18
I1
sg19
I0
sg20
I28
sg21
I0
sg22
I0
sg23
I0
sg24
I0
sbssg303
S'w\x85uw\r5\x1a\xa5\xea>\xdaqki`p'
p1289
ssS'create_models_tags_tests_test_concept_model'
p1290
(dp1291
g383
(dp1292
g44
S'create_models_tags_tests_test_concept_model.html'
p1293
sg46
S'create/models/tags/tests/test_concept_model'
p1294
sg48
g13
(g14
g15
NtRp1295
(dp1296
g18
I1
sg19
I0
sg20
I12
sg21
I0
sg22
I0
sg23
I0
sg24
I0
sbssg389
S'@\x95\xd9\xf7\xa5\xc4\x0c\xb1\xad\xa4\xf5p\x95\x06!N'
p1297
ssS'privilege_models_privileges_privilege_model'
p1298
(dp1299
g287
(dp1300
g1234
S'privilege_models_privileges_privilege_model.html'
p1301
sg1236
S'privilege/models/privileges/privilege_model'
p1302
sg1238
g13
(g14
g15
NtRp1303
(dp1304
g18
I1
sg19
I0
sg20
I29
sg21
I0
sg22
I0
sg23
I0
sg24
I0
sbssg293
S'\xa3\xbf\x7fn\x8c\xe8#\xf8\xa9\x95#\xc7\xdb\xf0Y\xe6'
p1305
ssS'create_models_questions_tests_test_question_choice_model'
p1306
(dp1307
g42
(dp1308
S'html_filename'
p1309
S'create_models_questions_tests_test_question_choice_model.html'
p1310
sS'name'
p1311
S'create/models/questions/tests/test_question_choice_model'
p1312
sS'nums'
p1313
g13
(g14
g15
NtRp1314
(dp1315
g18
I1
sg19
I0
sg20
I46
sg21
I0
sg22
I0
sg23
I0
sg24
I0
sbssg51
S'$\x08N\xfb\nW\n\xecG\x9a[\xb7\xe2\xc1\xbd\x06'
p1316
ssS'user_system_views_users_tests_test_get_user_by_id_view'
p1317
(dp1318
g42
(dp1319
g93
S'user_system_views_users_tests_test_get_user_by_id_view.html'
p1320
sg95
S'user_system/views/users/tests/test_get_user_by_id_view'
p1321
sg97
g13
(g14
g15
NtRp1322
(dp1323
g18
I1
sg19
I0
sg20
I27
sg21
I0
sg22
I0
sg23
I0
sg24
I0
sbssg51
S'\xd7\x7f\x0c\xb9\xda.\xf1\x82\xb4\xdf*z\x10(o)'
p1324
ssS'create_models___init__'
p1325
(dp1326
g42
(dp1327
g57
S'create_models___init__.html'
p1328
sg59
S'create/models/__init__'
p1329
sg61
g13
(g14
g15
NtRp1330
(dp1331
g18
I1
sg19
I0
sg20
I6
sg21
I0
sg22
I0
sg23
I0
sg24
I0
sbssg51
S'\x1a\xde\xff\xb8/\x08R\x8e\xff\x13\x8b\xeb`\xfd\x98\xf8'
p1332
ssS'create_serializers_tags_tag_history_serializer'
p1333
(dp1334
S'index'
p1335
(dp1336
g105
S'create_serializers_tags_tag_history_serializer.html'
p1337
sg107
S'create/serializers/tags/tag_history_serializer'
p1338
sg109
g13
(g14
g15
NtRp1339
(dp1340
g18
I1
sg19
I0
sg20
I14
sg21
I0
sg22
I0
sg23
I0
sg24
I0
sbssS'hash'
p1341
S'\xc1"\xf9l4\xe66\x8a\xd0)r!\x05Y+\xd2'
p1342
ssS'create_serializers_daily_quest_templates___init__'
p1343
(dp1344
g242
(dp1345
g244
S'create_serializers_daily_quest_templates___init__.html'
p1346
sg246
S'create/serializers/daily_quest_templates/__init__'
p1347
sg248
g13
(g14
g15
NtRp1348
(dp1349
g18
I1
sg19
I0
sg20
I1
sg21
I0
sg22
I0
sg23
I0
sg24
I0
sbssg251
S'\xa2\xd34\x1b\xe2+\x16\xa9un\x8f\xa5\xe6\xc4\\p'
p1350
ssS'user_system_views_roles_tests___init__'
p1351
(dp1352
g42
(dp1353
g446
S'user_system_views_roles_tests___init__.html'
p1354
sg448
S'user_system/views/roles/tests/__init__'
p1355
sg450
g13
(g14
g15
NtRp1356
(dp1357
g18
I1
sg19
I0
sg20
I0
sg21
I0
sg22
I0
sg23
I0
sg24
I0
sbssg51
S'\x19g\xdfM\x1a\x019\xaf\x1baIeR\xe5u\xa7'
p1358
ssS'api_logging_models_modal_logging___init__'
p1359
(dp1360
g297
(dp1361
g177
S'api_logging_models_modal_logging___init__.html'
p1362
sg179
S'api_logging/models/modal_logging/__init__'
p1363
sg181
g13
(g14
g15
NtRp1364
(dp1365
g18
I1
sg19
I0
sg20
I2
sg21
I0
sg22
I0
sg23
I0
sg24
I0
sbssg303
S"+\x16\xa4\xd1\xf5m\xa9\x9e*\xd0\xa23O'}-"
p1366
ssS'user_system_serializers___init__'
p1367
(dp1368
g42
(dp1369
g57
S'user_system_serializers___init__.html'
p1370
sg59
S'user_system/serializers/__init__'
p1371
sg61
g13
(g14
g15
NtRp1372
(dp1373
g18
I1
sg19
I0
sg20
I3
sg21
I0
sg22
I0
sg23
I0
sg24
I0
sbssg51
S'\x85\x12\xbd.\x85L4\xea\t4\x9c\xcf\xb5 \x81\xb4'
p1374
ssS'teach_models_daily_quest_templates_tests___init__'
p1375
(dp1376
g55
(dp1377
g57
S'teach_models_daily_quest_templates_tests___init__.html'
p1378
sg59
S'teach/models/daily_quest_templates/tests/__init__'
p1379
sg61
g13
(g14
g15
NtRp1380
(dp1381
g18
I1
sg19
I0
sg20
I0
sg21
I0
sg22
I0
sg23
I0
sg24
I0
sbssg64
S'\x19g\xdfM\x1a\x019\xaf\x1baIeR\xe5u\xa7'
p1382
ssS'user_system_serializers_schools_grade_serializer'
p1383
(dp1384
g116
(dp1385
g31
S'user_system_serializers_schools_grade_serializer.html'
p1386
sg33
S'user_system/serializers/schools/grade_serializer'
p1387
sg35
g13
(g14
g15
NtRp1388
(dp1389
g18
I1
sg19
I0
sg20
I9
sg21
I0
sg22
I0
sg23
I0
sg24
I0
sbssg122
S"()\x18t._h'\x1c\x9bV\x14KS\xf6,"
p1390
ssS'create_models_questions_tests___init__'
p1391
(dp1392
g42
(dp1393
g446
S'create_models_questions_tests___init__.html'
p1394
sg448
S'create/models/questions/tests/__init__'
p1395
sg450
g13
(g14
g15
NtRp1396
(dp1397
g18
I1
sg19
I0
sg20
I0
sg21
I0
sg22
I0
sg23
I0
sg24
I0
sbssg51
S'\x19g\xdfM\x1a\x019\xaf\x1baIeR\xe5u\xa7'
p1398
ssS'teach_views___init__'
p1399
(dp1400
g55
(dp1401
g177
S'teach_views___init__.html'
p1402
sg179
S'teach/views/__init__'
p1403
sg181
g13
(g14
g15
NtRp1404
(dp1405
g18
I1
sg19
I0
sg20
I3
sg21
I0
sg22
I0
sg23
I0
sg24
I0
sbssg64
S'\xddN\x8bL\xe7O\xba\x93\x86:\xc2\x15\x13gc6'
p1406
ssS'privilege_admin'
p1407
(dp1408
g287
(dp1409
g93
S'privilege_admin.html'
p1410
sg95
S'privilege/admin'
p1411
sg97
g13
(g14
g15
NtRp1412
(dp1413
g18
I1
sg19
I0
sg20
I4
sg21
I0
sg22
I0
sg23
I0
sg24
I0
sbssg293
S'\xa1\x9fb^\xc7l\x00\x1f\x0e\x9c\x06\x08\x99Kx\x94'
p1414
ssS'teach_models_teacher_tags_tests_test_teacher_tag_model'
p1415
(dp1416
g55
(dp1417
g57
S'teach_models_teacher_tags_tests_test_teacher_tag_model.html'
p1418
sg59
S'teach/models/teacher_tags/tests/test_teacher_tag_model'
p1419
sg61
g13
(g14
g15
NtRp1420
(dp1421
g18
I1
sg19
I0
sg20
I30
sg21
I0
sg22
I0
sg23
I0
sg24
I0
sbssg64
S'\xf3\x06\xd8\xd6\x93V\xab\xdc\x87\x05\xf6vJ\xa9`\xe6'
p1422
ssS'user_system_models_schools_academic_year_model'
p1423
(dp1424
g206
(dp1425
S'html_filename'
p1426
S'user_system_models_schools_academic_year_model.html'
p1427
sS'name'
p1428
S'user_system/models/schools/academic_year_model'
p1429
sS'nums'
p1430
g13
(g14
g15
NtRp1431
(dp1432
g18
I1
sg19
I0
sg20
I23
sg21
I0
sg22
I0
sg23
I0
sg24
I0
sbssg215
S'\xf1Zl\xd3\xdd4\xdcX&\xdf\xf0<.\x11FY'
p1433
ssS'learn_models___init__'
p1434
(dp1435
g55
(dp1436
g177
S'learn_models___init__.html'
p1437
sg179
S'learn/models/__init__'
p1438
sg181
g13
(g14
g15
NtRp1439
(dp1440
g18
I1
sg19
I0
sg20
I2
sg21
I0
sg22
I0
sg23
I0
sg24
I0
sbssg64
S'J\x07\xbfU\xe2\xd2\xed\xadY\xe2o$\x84\x86bd'
p1441
ssS'user_system_models_users_student_profile_model'
p1442
(dp1443
g232
(dp1444
g177
S'user_system_models_users_student_profile_model.html'
p1445
sg179
S'user_system/models/users/student_profile_model'
p1446
sg181
g13
(g14
g15
NtRp1447
(dp1448
g18
I1
sg19
I2
sg20
I41
sg21
I0
sg22
I0
sg23
I0
sg24
I0
sbssg238
S'q\x83gLh\x1e\xeb\xb5+w&@\xe2"=\xb8'
p1449
ssS'user_system_models_schools_organization_model'
p1450
(dp1451
g206
(dp1452
g627
S'user_system_models_schools_organization_model.html'
p1453
sg629
S'user_system/models/schools/organization_model'
p1454
sg631
g13
(g14
g15
NtRp1455
(dp1456
g18
I1
sg19
I0
sg20
I28
sg21
I0
sg22
I0
sg23
I0
sg24
I0
sbssg215
S']\xd3\xfd\x922s\xeb0\xfd\x8a\x88\xfe"\xbd<h'
p1457
ssS'create_views_books_tests_test_hide_book_view'
p1458
(dp1459
g936
(dp1460
g44
S'create_views_books_tests_test_hide_book_view.html'
p1461
sg46
S'create/views/books/tests/test_hide_book_view'
p1462
sg48
g13
(g14
g15
NtRp1463
(dp1464
g18
I1
sg19
I0
sg20
I25
sg21
I0
sg22
I0
sg23
I0
sg24
I0
sbssg942
S'\xe1\x17\x16\xca\x8a\xc5c\x1b\xce\xab\xb8\xf9G\x03\x9dQ'
p1465
ssS'teach_serializers_teacher_tags_teacher_tag_serializer'
p1466
(dp1467
g55
(dp1468
g31
S'teach_serializers_teacher_tags_teacher_tag_serializer.html'
p1469
sg33
S'teach/serializers/teacher_tags/teacher_tag_serializer'
p1470
sg35
g13
(g14
g15
NtRp1471
(dp1472
g18
I1
sg19
I2
sg20
I26
sg21
I0
sg22
I0
sg23
I9
sg24
I2
sbssg64
S'\x07C\xdf\xcd\x92\x1eS\x1a#\x8e\x9d\x88Dj\n\x12'
p1473
ssS'create_models_daily_quests_tests_test_daily_quest_model'
p1474
(dp1475
g752
(dp1476
g244
S'create_models_daily_quests_tests_test_daily_quest_model.html'
p1477
sg246
S'create/models/daily_quests/tests/test_daily_quest_model'
p1478
sg248
g13
(g14
g15
NtRp1479
(dp1480
g18
I1
sg19
I2
sg20
I51
sg21
I0
sg22
I0
sg23
I0
sg24
I0
sbssg761
S'\x16\x87\xb8\xd4K\xb4\x87\xf9\x84\xc4V\x94\x17\xf6\x1a\xf0'
p1481
ssS'create_admin'
p1482
(dp1483
g42
(dp1484
g57
S'create_admin.html'
p1485
sg59
S'create/admin'
p1486
sg61
g13
(g14
g15
NtRp1487
(dp1488
g18
I1
sg19
I0
sg20
I20
sg21
I0
sg22
I0
sg23
I0
sg24
I0
sbssg51
S'\x03\xe6\xc2\xd5\xa8\xb1\x92\xa5/8\x0fZCN\r\x08'
p1489
ssS'create_views_questions_tests_test_get_question_list_view'
p1490
(dp1491
g42
(dp1492
g93
S'create_views_questions_tests_test_get_question_list_view.html'
p1493
sg95
S'create/views/questions/tests/test_get_question_list_view'
p1494
sg97
g13
(g14
g15
NtRp1495
(dp1496
g18
I1
sg19
I0
sg20
I32
sg21
I0
sg22
I0
sg23
I0
sg24
I0
sbssg51
S'\xa2&\x88;1\\\xa2 \xb4&ejB\xd1%\x06'
p1497
ssS'user_system_views_logins___init__'
p1498
(dp1499
g42
(dp1500
g446
S'user_system_views_logins___init__.html'
p1501
sg448
S'user_system/views/logins/__init__'
p1502
sg450
g13
(g14
g15
NtRp1503
(dp1504
g18
I1
sg19
I0
sg20
I2
sg21
I0
sg22
I0
sg23
I0
sg24
I0
sbssg51
S'\xa0\xd3\xaas\xc2\xb93+ED.\xe5\xfe\xf2\xad\x87'
p1505
ssS'create_views_daily_quest_copies___init__'
p1506
(dp1507
g411
(dp1508
S'html_filename'
p1509
S'create_views_daily_quest_copies___init__.html'
p1510
sS'name'
p1511
S'create/views/daily_quest_copies/__init__'
p1512
sS'nums'
p1513
g13
(g14
g15
NtRp1514
(dp1515
g18
I1
sg19
I0
sg20
I1
sg21
I0
sg22
I0
sg23
I0
sg24
I0
sbssg420
S"'\xb6_z\x90s\x92\xdd\xc7\xb2\x87d\xba\xe24X"
p1516
ssS'create_views_quests_tests_test_hide_quest_view'
p1517
(dp1518
g6
(dp1519
g8
S'create_views_quests_tests_test_hide_quest_view.html'
p1520
sg10
S'create/views/quests/tests/test_hide_quest_view'
p1521
sg12
g13
(g14
g15
NtRp1522
(dp1523
g18
I1
sg19
I0
sg20
I26
sg21
I0
sg22
I0
sg23
I0
sg24
I0
sbssg25
S'G\xcb\xcf\xbb~*\xa2i\xd2\xff\x81\x81\xf0)G\xda'
p1524
ssS'create_views_books_tests_test_add_tag_to_subchapter_view'
p1525
(dp1526
S'index'
p1527
(dp1528
g44
S'create_views_books_tests_test_add_tag_to_subchapter_view.html'
p1529
sg46
S'create/views/books/tests/test_add_tag_to_subchapter_view'
p1530
sg48
g13
(g14
g15
NtRp1531
(dp1532
g18
I1
sg19
I0
sg20
I40
sg21
I0
sg22
I0
sg23
I0
sg24
I0
sbssS'hash'
p1533
S'\xb78\xf4p\xcd\xec\xca\xaa\x93\xb9\xda\xa8Yo37'
p1534
ssS'api_logging_models_modal_logging_modal_user_history_model'
p1535
(dp1536
g297
(dp1537
g177
S'api_logging_models_modal_logging_modal_user_history_model.html'
p1538
sg179
S'api_logging/models/modal_logging/modal_user_history_model'
p1539
sg181
g13
(g14
g15
NtRp1540
(dp1541
g18
I1
sg19
I0
sg20
I15
sg21
I0
sg22
I0
sg23
I3
sg24
I0
sbssg303
S'\xabX\xd42<$9z\xc1]\xc12\xe9\xd8\xbf\xd2'
p1542
ssS'create_views_daily_quests_daily_quest_view'
p1543
(dp1544
g242
(dp1545
g244
S'create_views_daily_quests_daily_quest_view.html'
p1546
sg246
S'create/views/daily_quests/daily_quest_view'
p1547
sg248
g13
(g14
g15
NtRp1548
(dp1549
g18
I1
sg19
I8
sg20
I34
sg21
I0
sg22
I0
sg23
I17
sg24
I8
sbssg251
S'\x9b\xbe99\x1cP\x1d\xd8iT&I;\xb4\xbbf'
p1550
ssS'user_system_managers_user_manager'
p1551
(dp1552
g297
(dp1553
g177
S'user_system_managers_user_manager.html'
p1554
sg179
S'user_system/managers/user_manager'
p1555
sg181
g13
(g14
g15
NtRp1556
(dp1557
g18
I1
sg19
I18
sg20
I46
sg21
I0
sg22
I0
sg23
I37
sg24
I18
sbssg303
S'\xac\xa0\xe1\xde\xdcl\x13`\xfe\xfc\xff\xb5\x18=(\xf4'
p1558
ssS'create_models_quests_tests___init__'
p1559
(dp1560
g103
(dp1561
g616
S'create_models_quests_tests___init__.html'
p1562
sg618
S'create/models/quests/tests/__init__'
p1563
sg620
g13
(g14
g15
NtRp1564
(dp1565
g18
I1
sg19
I0
sg20
I1
sg21
I0
sg22
I0
sg23
I0
sg24
I0
sbssg112
S'\xbc\xd6\xeb\xb3\xba\xcaz\xf7{\xd4B\xb5}l\xdf\x96'
p1566
ssS'create_views_questions___init__'
p1567
(dp1568
g42
(dp1569
g588
S'create_views_questions___init__.html'
p1570
sg590
S'create/views/questions/__init__'
p1571
sg592
g13
(g14
g15
NtRp1572
(dp1573
g18
I1
sg19
I0
sg20
I3
sg21
I0
sg22
I0
sg23
I0
sg24
I0
sbssg51
S'h\x154\xc5\xe58\xa8\xc8\xa9\xa6\xbea?\xcf?i'
p1574
ssS'user_system_views_users_create_teacher_view'
p1575
(dp1576
g297
(dp1577
g177
S'user_system_views_users_create_teacher_view.html'
p1578
sg179
S'user_system/views/users/create_teacher_view'
p1579
sg181
g13
(g14
g15
NtRp1580
(dp1581
g18
I1
sg19
I2
sg20
I34
sg21
I0
sg22
I0
sg23
I21
sg24
I2
sbssg303
S'=\xee\xed^jo\xc1\xebz\xedP\xf9\x91n\xec\x8d'
p1582
ssS'user_system_models_apps_tests___init__'
p1583
(dp1584
g42
(dp1585
g446
S'user_system_models_apps_tests___init__.html'
p1586
sg448
S'user_system/models/apps/tests/__init__'
p1587
sg450
g13
(g14
g15
NtRp1588
(dp1589
g18
I1
sg19
I0
sg20
I0
sg21
I0
sg22
I0
sg23
I0
sg24
I0
sbssg51
S'\x19g\xdfM\x1a\x019\xaf\x1baIeR\xe5u\xa7'
p1590
ssS'privilege_serializers_privileges_user_privilege_serializer'
p1591
(dp1592
g287
(dp1593
g93
S'privilege_serializers_privileges_user_privilege_serializer.html'
p1594
sg95
S'privilege/serializers/privileges/user_privilege_serializer'
p1595
sg97
g13
(g14
g15
NtRp1596
(dp1597
g18
I1
sg19
I0
sg20
I9
sg21
I0
sg22
I0
sg23
I0
sg24
I0
sbssg293
S'#\xe5\xcc\x9as5y,\xa1HiQ\xa2c\xdb2'
p1598
ssS'create_models_quests_tests_test_quest_history_model'
p1599
(dp1600
g103
(dp1601
g1199
S'create_models_quests_tests_test_quest_history_model.html'
p1602
sg1201
S'create/models/quests/tests/test_quest_history_model'
p1603
sg1203
g13
(g14
g15
NtRp1604
(dp1605
g18
I1
sg19
I8
sg20
I79
sg21
I0
sg22
I0
sg23
I0
sg24
I0
sbssg112
S'##\xeax]g;Ka\xb3\xc0Py,oE'
p1606
ssS'create_views_summary___init__'
p1607
(dp1608
S'index'
p1609
(dp1610
g1089
S'create_views_summary___init__.html'
p1611
sg1091
S'create/views/summary/__init__'
p1612
sg1093
g13
(g14
g15
NtRp1613
(dp1614
g18
I1
sg19
I0
sg20
I1
sg21
I0
sg22
I0
sg23
I0
sg24
I0
sbssS'hash'
p1615
S'#\xb7\xbd\xa1M\xe4\xa0\x05\xf5x\x057hU[\xca'
p1616
ssS'create_models_daily_quest_templates___init__'
p1617
(dp1618
g242
(dp1619
g244
S'create_models_daily_quest_templates___init__.html'
p1620
sg246
S'create/models/daily_quest_templates/__init__'
p1621
sg248
g13
(g14
g15
NtRp1622
(dp1623
g18
I1
sg19
I0
sg20
I1
sg21
I0
sg22
I0
sg23
I0
sg24
I0
sbssg251
S'\x12\x89x\xb9F\xfb=b\x04\xddy\xb4\xccZb\xb8'
p1624
ssS'create_views_tags_tests_test_get_tag_by_id_view'
p1625
(dp1626
g424
(dp1627
g93
S'create_views_tags_tests_test_get_tag_by_id_view.html'
p1628
sg95
S'create/views/tags/tests/test_get_tag_by_id_view'
p1629
sg97
g13
(g14
g15
NtRp1630
(dp1631
g18
I1
sg19
I0
sg20
I20
sg21
I0
sg22
I0
sg23
I0
sg24
I0
sbssg433
S'T\xd5\xd7\xd9\xb8\x12\x81xj\xca\x90\xa41\xcf\x02]'
p1632
ssS'api_logging_models_user_activities___init__'
p1633
(dp1634
g297
(dp1635
g177
S'api_logging_models_user_activities___init__.html'
p1636
sg179
S'api_logging/models/user_activities/__init__'
p1637
sg181
g13
(g14
g15
NtRp1638
(dp1639
g18
I1
sg19
I0
sg20
I1
sg21
I0
sg22
I0
sg23
I0
sg24
I0
sbssg303
S'\xd9\xe2\xb9\xa8[\x85h\x8ep\xd5\x12TW1\x9d\x1b'
p1640
ssS'user_system_models_users_tests_test_user_profile_model'
p1641
(dp1642
g42
(dp1643
g158
S'user_system_models_users_tests_test_user_profile_model.html'
p1644
sg160
S'user_system/models/users/tests/test_user_profile_model'
p1645
sg162
g13
(g14
g15
NtRp1646
(dp1647
g18
I1
sg19
I0
sg20
I142
sg21
I0
sg22
I0
sg23
I0
sg24
I0
sbssg51
S'\x00\xb8\xc5\xc0\xcb\xb1\xcaP@!\x086\x84\x1d\xd5\xed'
p1648
ssS'user_system_views_roles_tests_test_user_role_view'
p1649
(dp1650
g42
(dp1651
g44
S'user_system_views_roles_tests_test_user_role_view.html'
p1652
sg46
S'user_system/views/roles/tests/test_user_role_view'
p1653
sg48
g13
(g14
g15
NtRp1654
(dp1655
g18
I1
sg19
I0
sg20
I41
sg21
I0
sg22
I0
sg23
I0
sg24
I0
sbssg51
S'\xaf \x02-\xd3\xa9\xee\x1e7\x87\xa8[\xd9\xd8V\xd8'
p1656
ssS'user_system_views_apps_tests_test_get_apps_list_view'
p1657
(dp1658
g42
(dp1659
g44
S'user_system_views_apps_tests_test_get_apps_list_view.html'
p1660
sg46
S'user_system/views/apps/tests/test_get_apps_list_view'
p1661
sg48
g13
(g14
g15
NtRp1662
(dp1663
g18
I1
sg19
I0
sg20
I18
sg21
I0
sg22
I0
sg23
I0
sg24
I0
sbssg51
S'\x87\xab;"\x01p\xf9\xe5\xa6\xb1\xaej\x8egl\x99'
p1664
ssS'api_logging_models_user_activities_user_activity_model'
p1665
(dp1666
g297
(dp1667
g177
S'api_logging_models_user_activities_user_activity_model.html'
p1668
sg179
S'api_logging/models/user_activities/user_activity_model'
p1669
sg181
g13
(g14
g15
NtRp1670
(dp1671
g18
I1
sg19
I0
sg20
I11
sg21
I0
sg22
I0
sg23
I0
sg24
I0
sbssg303
S'f\xe2(\xd3\xddS\xfd\x1e\xf0d\xb2,\xb2\x8f\x8c\x18'
p1672
ssS'create_views_books_tests_test_create_new_book'
p1673
(dp1674
S'index'
p1675
(dp1676
g44
S'create_views_books_tests_test_create_new_book.html'
p1677
sg46
S'create/views/books/tests/test_create_new_book'
p1678
sg48
g13
(g14
g15
NtRp1679
(dp1680
g18
I1
sg19
I0
sg20
I18
sg21
I0
sg22
I0
sg23
I0
sg24
I0
sbssS'hash'
p1681
S'\xe3\xaew\xf8\xd7\x8f\xc5 \x85\xc1\xb6I\x82X(-'
p1682
ssS'create_serializers_questions_question_type_serializer'
p1683
(dp1684
g42
(dp1685
g446
S'create_serializers_questions_question_type_serializer.html'
p1686
sg448
S'create/serializers/questions/question_type_serializer'
p1687
sg450
g13
(g14
g15
NtRp1688
(dp1689
g18
I1
sg19
I0
sg20
I6
sg21
I0
sg22
I0
sg23
I0
sg24
I0
sbssg51
S'!\x8a\x91KA:\x92\x13/\xdd\xd9\xc2?\x8b\xe1\xc6'
p1690
ssS'create_models_books_tests_test_book_model'
p1691
(dp1692
g349
(dp1693
S'html_filename'
p1694
S'create_models_books_tests_test_book_model.html'
p1695
sS'name'
p1696
S'create/models/books/tests/test_book_model'
p1697
sS'nums'
p1698
g13
(g14
g15
NtRp1699
(dp1700
g18
I1
sg19
I6
sg20
I44
sg21
I0
sg22
I0
sg23
I0
sg24
I0
sbssg355
S'\xff\x88\xcd\xb0\x80\xb2\x9d\xf7\xf9G\xb1.\xaf\xdd\x07\xd7'
p1701
ssS'user_system_serializers_users_teacher_mapping_serializer'
p1702
(dp1703
g297
(dp1704
g177
S'user_system_serializers_users_teacher_mapping_serializer.html'
p1705
sg179
S'user_system/serializers/users/teacher_mapping_serializer'
p1706
sg181
g13
(g14
g15
NtRp1707
(dp1708
g18
I1
sg19
I0
sg20
I7
sg21
I0
sg22
I0
sg23
I0
sg24
I0
sbssg303
S'\x13\xf7\x06\xcfN\x17?&3\xc5\xf6]6uj\xc1'
p1709
ssS'create_models_questions_question_choice_model'
p1710
(dp1711
g42
(dp1712
g1309
S'create_models_questions_question_choice_model.html'
p1713
sg1311
S'create/models/questions/question_choice_model'
p1714
sg1313
g13
(g14
g15
NtRp1715
(dp1716
g18
I1
sg19
I0
sg20
I42
sg21
I0
sg22
I0
sg23
I0
sg24
I0
sbssg51
S'\xd7\xd8\x1f\xbf<\xee\xdd?}\xfe>\x82\\\x97\x15)'
p1717
ssS'flipped_helpers_tests___init__'
p1718
(dp1719
g42
(dp1720
g446
S'flipped_helpers_tests___init__.html'
p1721
sg448
S'flipped/helpers/tests/__init__'
p1722
sg450
g13
(g14
g15
NtRp1723
(dp1724
g18
I1
sg19
I0
sg20
I0
sg21
I0
sg22
I0
sg23
I0
sg24
I0
sbssg51
S'\x19g\xdfM\x1a\x019\xaf\x1baIeR\xe5u\xa7'
p1725
ssS'user_system_models_roles_role_app_model'
p1726
(dp1727
g42
(dp1728
g44
S'user_system_models_roles_role_app_model.html'
p1729
sg46
S'user_system/models/roles/role_app_model'
p1730
sg48
g13
(g14
g15
NtRp1731
(dp1732
g18
I1
sg19
I0
sg20
I18
sg21
I0
sg22
I0
sg23
I0
sg24
I0
sbssg51
S'\x8d\xa3&\x03\x9d\x1cO|\xces.\x11/\x8f`\xcc'
p1733
ssS'create_models_tags_tests_test_tag_model'
p1734
(dp1735
g383
(dp1736
S'html_filename'
p1737
S'create_models_tags_tests_test_tag_model.html'
p1738
sS'name'
p1739
S'create/models/tags/tests/test_tag_model'
p1740
sS'nums'
p1741
g13
(g14
g15
NtRp1742
(dp1743
g18
I1
sg19
I6
sg20
I52
sg21
I0
sg22
I0
sg23
I0
sg24
I0
sbssg389
S'1\x992\xc0\xbb\xb6d *5\xfa\xd2\xdc1\xb2\x92'
p1744
ssS'create_views_tags_tests_test_remove_prerequisite_view'
p1745
(dp1746
g307
(dp1747
g44
S'create_views_tags_tests_test_remove_prerequisite_view.html'
p1748
sg46
S'create/views/tags/tests/test_remove_prerequisite_view'
p1749
sg48
g13
(g14
g15
NtRp1750
(dp1751
g18
I1
sg19
I0
sg20
I31
sg21
I0
sg22
I0
sg23
I0
sg24
I0
sbssg313
S'\x8e\x8c~\xff\x85\x94\x8c~T\x7f\x80\x82W\x96\x19\x9c'
p1752
ssS'learn_models_points_tests_test_point_type_model'
p1753
(dp1754
g297
(dp1755
g627
S'learn_models_points_tests_test_point_type_model.html'
p1756
sg629
S'learn/models/points/tests/test_point_type_model'
p1757
sg631
g13
(g14
g15
NtRp1758
(dp1759
g18
I1
sg19
I0
sg20
I20
sg21
I0
sg22
I0
sg23
I0
sg24
I0
sbssg303
S'\x8a\x938\x82k\xa7\x10\xf1\x95\x07\xc4\xb2\x9d\n\xc6\x1f'
p1760
ssS'teach_serializers_teacher_chapters_teacher_chapter_serializer'
p1761
(dp1762
g55
(dp1763
g57
S'teach_serializers_teacher_chapters_teacher_chapter_serializer.html'
p1764
sg59
S'teach/serializers/teacher_chapters/teacher_chapter_serializer'
p1765
sg61
g13
(g14
g15
NtRp1766
(dp1767
g18
I1
sg19
I0
sg20
I12
sg21
I0
sg22
I0
sg23
I0
sg24
I0
sbssg64
S'\xac\x9b\xf1Q\x91\xf4J\x03y\xc4\xa7\x9c\x996\x13a'
p1768
ssS'user_system_serializers_app_serializer'
p1769
(dp1770
g42
(dp1771
g446
S'user_system_serializers_app_serializer.html'
p1772
sg448
S'user_system/serializers/app_serializer'
p1773
sg450
g13
(g14
g15
NtRp1774
(dp1775
g18
I1
sg19
I0
sg20
I7
sg21
I0
sg22
I0
sg23
I0
sg24
I0
sbssg51
S'\xc1\x87\xd6\x1b\xbe\x8f\xfb\xdd\x1a\xa9\x92A\xe2\xc3\xe2\xf1'
p1776
ssS'user_system_views_logins_tests_test_facebook_login_view'
p1777
(dp1778
g42
(dp1779
g44
S'user_system_views_logins_tests_test_facebook_login_view.html'
p1780
sg46
S'user_system/views/logins/tests/test_facebook_login_view'
p1781
sg48
g13
(g14
g15
NtRp1782
(dp1783
g18
I1
sg19
I0
sg20
I51
sg21
I0
sg22
I0
sg23
I0
sg24
I0
sbssg51
S'\x8eg\xfbA\xbdf+\x81\xe9\x8a\x16\x82\xe9\xe3\xc0\xf4'
p1784
ssS'create_models_books_book_history_model'
p1785
(dp1786
g349
(dp1787
g93
S'create_models_books_book_history_model.html'
p1788
sg95
S'create/models/books/book_history_model'
p1789
sg97
g13
(g14
g15
NtRp1790
(dp1791
g18
I1
sg19
I4
sg20
I43
sg21
I0
sg22
I1
sg23
I0
sg24
I1
sbssg355
S'\xd71\x9e\xd0\x9bqR\xb9(!\x9f2\x10O|\xeb'
p1792
ssS'teach_models_teacher_chapters_tests___init__'
p1793
(dp1794
g55
(dp1795
g57
S'teach_models_teacher_chapters_tests___init__.html'
p1796
sg59
S'teach/models/teacher_chapters/tests/__init__'
p1797
sg61
g13
(g14
g15
NtRp1798
(dp1799
g18
I1
sg19
I0
sg20
I0
sg21
I0
sg22
I0
sg23
I0
sg24
I0
sbssg64
S'\x19g\xdfM\x1a\x019\xaf\x1baIeR\xe5u\xa7'
p1800
ssS'create_views_quests_tests_test_remove_tag_view'
p1801
(dp1802
g6
(dp1803
g8
S'create_views_quests_tests_test_remove_tag_view.html'
p1804
sg10
S'create/views/quests/tests/test_remove_tag_view'
p1805
sg12
g13
(g14
g15
NtRp1806
(dp1807
g18
I1
sg19
I0
sg20
I0
sg21
I0
sg22
I0
sg23
I0
sg24
I0
sbssg25
S'\x19g\xdfM\x1a\x019\xaf\x1baIeR\xe5u\xa7'
p1808
ssS'create_models_books_book_model'
p1809
(dp1810
g349
(dp1811
S'html_filename'
p1812
S'create_models_books_book_model.html'
p1813
sS'name'
p1814
S'create/models/books/book_model'
p1815
sS'nums'
p1816
g13
(g14
g15
NtRp1817
(dp1818
g18
I1
sg19
I4
sg20
I37
sg21
I0
sg22
I0
sg23
I0
sg24
I0
sbssg355
S'Z\x88%\xfa\x8c7\x1e\xf9\x06qW\x80O\xe1\x85.'
p1819
ssS'create_views_books_tests_test_remove_chapter_view'
p1820
(dp1821
g126
(dp1822
g44
S'create_views_books_tests_test_remove_chapter_view.html'
p1823
sg46
S'create/views/books/tests/test_remove_chapter_view'
p1824
sg48
g13
(g14
g15
NtRp1825
(dp1826
g18
I1
sg19
I0
sg20
I39
sg21
I0
sg22
I0
sg23
I0
sg24
I0
sbssg132
S'lJ\xdc\xbe\xe2>\x9d\xde\xb5+ia5;\x042'
p1827
ssS'privilege_models_privileges_tests_test_user_privilege_model'
p1828
(dp1829
g287
(dp1830
g93
S'privilege_models_privileges_tests_test_user_privilege_model.html'
p1831
sg95
S'privilege/models/privileges/tests/test_user_privilege_model'
p1832
sg97
g13
(g14
g15
NtRp1833
(dp1834
g18
I1
sg19
I0
sg20
I19
sg21
I0
sg22
I0
sg23
I0
sg24
I0
sbssg293
S'\xcd\xf2\x96G\xfe\xbc/\xb5\x15\xceNf\x0f\x0b5\xd4'
p1835
ssS'privilege_views___init__'
p1836
(dp1837
g287
(dp1838
g93
S'privilege_views___init__.html'
p1839
sg95
S'privilege/views/__init__'
p1840
sg97
g13
(g14
g15
NtRp1841
(dp1842
g18
I1
sg19
I0
sg20
I0
sg21
I0
sg22
I0
sg23
I0
sg24
I0
sbssg293
S'\x19g\xdfM\x1a\x019\xaf\x1baIeR\xe5u\xa7'
p1843
ssS'user_system_views_users_tests___init__'
p1844
(dp1845
g42
(dp1846
g446
S'user_system_views_users_tests___init__.html'
p1847
sg448
S'user_system/views/users/tests/__init__'
p1848
sg450
g13
(g14
g15
NtRp1849
(dp1850
g18
I1
sg19
I0
sg20
I0
sg21
I0
sg22
I0
sg23
I0
sg24
I0
sbssg51
S'\x19g\xdfM\x1a\x019\xaf\x1baIeR\xe5u\xa7'
p1851
ssS'create_models_tags_tests_test_skill_model'
p1852
(dp1853
g383
(dp1854
g44
S'create_models_tags_tests_test_skill_model.html'
p1855
sg46
S'create/models/tags/tests/test_skill_model'
p1856
sg48
g13
(g14
g15
NtRp1857
(dp1858
g18
I1
sg19
I0
sg20
I12
sg21
I0
sg22
I0
sg23
I0
sg24
I0
sbssg389
S'\x08\x9e\x87e#\x02\x06O\x02l!\x0e\xe8\xeb\xc0.'
p1859
ssS'user_system_views_signups_hardcoded___init__'
p1860
(dp1861
g42
(dp1862
g446
S'user_system_views_signups_hardcoded___init__.html'
p1863
sg448
S'user_system/views/signups/hardcoded/__init__'
p1864
sg450
g13
(g14
g15
NtRp1865
(dp1866
g18
I1
sg19
I0
sg20
I1
sg21
I0
sg22
I0
sg23
I0
sg24
I0
sbssg51
S'?\xfac\x0c\x91\xa4\xd6\xd4\x1d\xe4\x99\xc2[\x83\xfc\xdf'
p1867
ssS'create_models_daily_quest_templates_daily_quest_template_model'
p1868
(dp1869
g242
(dp1870
g244
S'create_models_daily_quest_templates_daily_quest_template_model.html'
p1871
sg246
S'create/models/daily_quest_templates/daily_quest_template_model'
p1872
sg248
g13
(g14
g15
NtRp1873
(dp1874
g18
I1
sg19
I0
sg20
I29
sg21
I0
sg22
I0
sg23
I0
sg24
I0
sbssg251
S'm:\xfa\nsk\x85\xa8p\x96\xc3\xca\xa1c\xb0+'
p1875
ssS'create_models_books_tests_test_book_chapter_model'
p1876
(dp1877
g349
(dp1878
g1694
S'create_models_books_tests_test_book_chapter_model.html'
p1879
sg1696
S'create/models/books/tests/test_book_chapter_model'
p1880
sg1698
g13
(g14
g15
NtRp1881
(dp1882
g18
I1
sg19
I8
sg20
I55
sg21
I0
sg22
I0
sg23
I0
sg24
I0
sbssg355
S'\xc4\x1a\xd7\x12s\xd3V\xef\xac\xa7%\x0c\xdc\x17\x05c'
p1883
ssS'user_system_views_signups_tests_test_verify_email_view'
p1884
(dp1885
g42
(dp1886
g44
S'user_system_views_signups_tests_test_verify_email_view.html'
p1887
sg46
S'user_system/views/signups/tests/test_verify_email_view'
p1888
sg48
g13
(g14
g15
NtRp1889
(dp1890
g18
I1
sg19
I0
sg20
I51
sg21
I0
sg22
I0
sg23
I0
sg24
I0
sbssg51
S'\x81\xacj\x9d\x1f\xa9o\xcc\x1e\xa3\xe59^YT\x9e'
p1891
ssS'teach_models_daily_quest_templates___init__'
p1892
(dp1893
g55
(dp1894
g57
S'teach_models_daily_quest_templates___init__.html'
p1895
sg59
S'teach/models/daily_quest_templates/__init__'
p1896
sg61
g13
(g14
g15
NtRp1897
(dp1898
g18
I1
sg19
I0
sg20
I1
sg21
I0
sg22
I0
sg23
I0
sg24
I0
sbssg64
S'\x12\x89x\xb9F\xfb=b\x04\xddy\xb4\xccZb\xb8'
p1899
ssS'teach_serializers_daily_quest_templates_daily_quest_template_serializer'
p1900
(dp1901
g55
(dp1902
g177
S'teach_serializers_daily_quest_templates_daily_quest_template_serializer.html'
p1903
sg179
S'teach/serializers/daily_quest_templates/daily_quest_template_serializer'
p1904
sg181
g13
(g14
g15
NtRp1905
(dp1906
g18
I1
sg19
I0
sg20
I12
sg21
I0
sg22
I0
sg23
I0
sg24
I0
sbssg64
S"\xd9\x0bcm\x95?'mB\xf9\xdd\xa1\xfc>:="
p1907
ssS'create_views_questions_tests_test_add_tag_view'
p1908
(dp1909
g219
(dp1910
g221
S'create_views_questions_tests_test_add_tag_view.html'
p1911
sg223
S'create/views/questions/tests/test_add_tag_view'
p1912
sg225
g13
(g14
g15
NtRp1913
(dp1914
g18
I1
sg19
I0
sg20
I35
sg21
I0
sg22
I0
sg23
I0
sg24
I0
sbssg228
S'\x8e\x13\xdd\xbd\xba\r&,-|&W-a`\x7f'
p1915
ssS'create_views_quests_quest_view'
p1916
(dp1917
g103
(dp1918
g990
S'create_views_quests_quest_view.html'
p1919
sg992
S'create/views/quests/quest_view'
p1920
sg994
g13
(g14
g15
NtRp1921
(dp1922
g18
I1
sg19
I84
sg20
I249
sg21
I0
sg22
I0
sg23
I178
sg24
I78
sbssg112
S'(\xa2UK\xe2}\xa8\xe0\xc9 3#\xec\x01\xfd\x16'
p1923
ssS'privilege_models_privileges_tests_test_privilege_model'
p1924
(dp1925
g287
(dp1926
g1234
S'privilege_models_privileges_tests_test_privilege_model.html'
p1927
sg1236
S'privilege/models/privileges/tests/test_privilege_model'
p1928
sg1238
g13
(g14
g15
NtRp1929
(dp1930
g18
I1
sg19
I0
sg20
I30
sg21
I0
sg22
I0
sg23
I0
sg24
I0
sbssg293
S'\xe0^\x80\xd5+a\xd9\xc4\xeabB\xc5\x142;\xc9'
p1931
ssS'api_logging_models'
p1932
(dp1933
g560
(dp1934
g726
S'api_logging_models.html'
p1935
sg728
S'api_logging/models'
p1936
sg730
g13
(g14
g15
NtRp1937
(dp1938
g18
I1
sg19
I0
sg20
I21
sg21
I0
sg22
I0
sg23
I0
sg24
I0
sbssg566
S'\x0c\x96WFX%\xe9\xcf+\xcf\xc2s\xa7a1\xbd'
p1939
ssS'user_system_models_schools_tests_test_grade_model'
p1940
(dp1941
g232
(dp1942
g31
S'user_system_models_schools_tests_test_grade_model.html'
p1943
sg33
S'user_system/models/schools/tests/test_grade_model'
p1944
sg35
g13
(g14
g15
NtRp1945
(dp1946
g18
I1
sg19
I0
sg20
I24
sg21
I0
sg22
I0
sg23
I0
sg24
I0
sbssg238
S'\x1e|\xb0\x10\x05\x9c\xb5\xe9\xbc\xff\x8a\xaan\xdf\xd4\xb2'
p1947
ssS'user_system_models_apps_tests_test_app_model'
p1948
(dp1949
g42
(dp1950
g44
S'user_system_models_apps_tests_test_app_model.html'
p1951
sg46
S'user_system/models/apps/tests/test_app_model'
p1952
sg48
g13
(g14
g15
NtRp1953
(dp1954
g18
I1
sg19
I0
sg20
I18
sg21
I0
sg22
I0
sg23
I0
sg24
I0
sbssg51
S'\xfb\xfc\xe0#\xe2\n\x8e\x9e\x94\xa8\x83\xc5\xb1U\xa3a'
p1955
ssS'create_models_daily_quests_daily_quest_model'
p1956
(dp1957
g752
(dp1958
g1509
S'create_models_daily_quests_daily_quest_model.html'
p1959
sg1511
S'create/models/daily_quests/daily_quest_model'
p1960
sg1513
g13
(g14
g15
NtRp1961
(dp1962
g18
I1
sg19
I2
sg20
I48
sg21
I0
sg22
I0
sg23
I6
sg24
I2
sbssg761
S'\xae\'/"f\x1014\xdd\x0e\x85\xf4\x91\x02\\`'
p1963
ssS'user_system_views_signups_tests_test_email_signup_view'
p1964
(dp1965
g42
(dp1966
g44
S'user_system_views_signups_tests_test_email_signup_view.html'
p1967
sg46
S'user_system/views/signups/tests/test_email_signup_view'
p1968
sg48
g13
(g14
g15
NtRp1969
(dp1970
g18
I1
sg19
I0
sg20
I51
sg21
I0
sg22
I0
sg23
I0
sg24
I0
sbssg51
S'\xa3\xb2\xaf-\x99\xe3]\xcc\xe6\x8b\xeb\xf63=I\xb4'
p1971
ssS'user_system_models_schools_tests_test_organization_model'
p1972
(dp1973
g206
(dp1974
g627
S'user_system_models_schools_tests_test_organization_model.html'
p1975
sg629
S'user_system/models/schools/tests/test_organization_model'
p1976
sg631
g13
(g14
g15
NtRp1977
(dp1978
g18
I1
sg19
I0
sg20
I27
sg21
I0
sg22
I0
sg23
I0
sg24
I0
sbssg215
S"\xa3'h\xadZ,\x82G\xbc\x08wON /j"
p1979
ssS'learn_admin'
p1980
(dp1981
g55
(dp1982
g177
S'learn_admin.html'
p1983
sg179
S'learn/admin'
p1984
sg181
g13
(g14
g15
NtRp1985
(dp1986
g18
I1
sg19
I0
sg20
I6
sg21
I0
sg22
I0
sg23
I0
sg24
I0
sbssg64
S'\x01\xff=[_\x13,\xf8ES\x17G)\x1e\xfb\x10'
p1987
ssS'create_views_books_book_subchapter_view'
p1988
(dp1989
g1527
(dp1990
g44
S'create_views_books_book_subchapter_view.html'
p1991
sg46
S'create/views/books/book_subchapter_view'
p1992
sg48
g13
(g14
g15
NtRp1993
(dp1994
g18
I1
sg19
I8
sg20
I46
sg21
I0
sg22
I0
sg23
I0
sg24
I0
sbssg1533
S'\x0e\xa6\x19V\xf0\xf3;\xa2\x8d \xd8i\xb7*D\x87'
p1995
ssS'user_system_models_roles_tests_test_role_model'
p1996
(dp1997
g42
(dp1998
g44
S'user_system_models_roles_tests_test_role_model.html'
p1999
sg46
S'user_system/models/roles/tests/test_role_model'
p2000
sg48
g13
(g14
g15
NtRp2001
(dp2002
g18
I1
sg19
I0
sg20
I20
sg21
I0
sg22
I0
sg23
I0
sg24
I0
sbssg51
S'\xef\xba\x956\x96\xbc:\xa0\x0f\x00\x84\x80\x0elh\xed'
p2003
ssS'user_system_models_schools_classroom_model'
p2004
(dp2005
g232
(dp2006
g177
S'user_system_models_schools_classroom_model.html'
p2007
sg179
S'user_system/models/schools/classroom_model'
p2008
sg181
g13
(g14
g15
NtRp2009
(dp2010
g18
I1
sg19
I2
sg20
I24
sg21
I0
sg22
I0
sg23
I0
sg24
I0
sbssg238
S'\xb4}\xd2\xf3\xe4P\x96mC/hd\x0c\x17\x97m'
p2011
ssS'user_system_views_logins_email_login_view'
p2012
(dp2013
g42
(dp2014
g177
S'user_system_views_logins_email_login_view.html'
p2015
sg179
S'user_system/views/logins/email_login_view'
p2016
sg181
g13
(g14
g15
NtRp2017
(dp2018
g18
I1
sg19
I8
sg20
I35
sg21
I0
sg22
I0
sg23
I0
sg24
I0
sbssg51
S'\x9e\xe3\x8e\xf9o\x8aYC\xa2\xcb\xe7\xbd\x94\xe1O\x1a'
p2019
ssS'user_system_serializers_users_list_user_serializer'
p2020
(dp2021
g42
(dp2022
g44
S'user_system_serializers_users_list_user_serializer.html'
p2023
sg46
S'user_system/serializers/users/list_user_serializer'
p2024
sg48
g13
(g14
g15
NtRp2025
(dp2026
g18
I1
sg19
I0
sg20
I18
sg21
I0
sg22
I0
sg23
I0
sg24
I0
sbssg51
S'\xdfK>6\xe0\x8d\xcd\xd4/O\xef\xaa\xd0\x9efX'
p2027
ssS'user_system_models_users_tests_test_teacher_profile_model'
p2028
(dp2029
g29
(dp2030
g1426
S'user_system_models_users_tests_test_teacher_profile_model.html'
p2031
sg1428
S'user_system/models/users/tests/test_teacher_profile_model'
p2032
sg1430
g13
(g14
g15
NtRp2033
(dp2034
g18
I1
sg19
I0
sg20
I32
sg21
I0
sg22
I0
sg23
I0
sg24
I0
sbssg38
S'\xe7n\x9a\x17\x9d0\x01\xa6\x0f\x18\x10l\x8ckmy'
p2035
ssS'create_views_quests_tests_test_remove_question_template_view'
p2036
(dp2037
g6
(dp2038
g8
S'create_views_quests_tests_test_remove_question_template_view.html'
p2039
sg10
S'create/views/quests/tests/test_remove_question_template_view'
p2040
sg12
g13
(g14
g15
NtRp2041
(dp2042
g18
I1
sg19
I0
sg20
I0
sg21
I0
sg22
I0
sg23
I0
sg24
I0
sbssg25
S'\x19g\xdfM\x1a\x019\xaf\x1baIeR\xe5u\xa7'
p2043
ssS'user_system_serializers_users_user_profile_update_request_serializer'
p2044
(dp2045
g116
(dp2046
S'html_filename'
p2047
S'user_system_serializers_users_user_profile_update_request_serializer.html'
p2048
sS'name'
p2049
S'user_system/serializers/users/user_profile_update_request_serializer'
p2050
sS'nums'
p2051
g13
(g14
g15
NtRp2052
(dp2053
g18
I1
sg19
I0
sg20
I20
sg21
I0
sg22
I0
sg23
I2
sg24
I0
sbssg122
S'\x19EO\xe6\xb5\xdbWY\xb8\xd9\x1cP&\xe3\xc4\xca'
p2054
ssS'create_views_books_tests_test_get_books_list_view'
p2055
(dp2056
g936
(dp2057
g93
S'create_views_books_tests_test_get_books_list_view.html'
p2058
sg95
S'create/views/books/tests/test_get_books_list_view'
p2059
sg97
g13
(g14
g15
NtRp2060
(dp2061
g18
I1
sg19
I0
sg20
I21
sg21
I0
sg22
I0
sg23
I0
sg24
I0
sbssg942
S'\x16\x8f\xf1\x81>\x0f\xb4S\x19\xff\xcd\xc1Y\xe9;\x98'
p2062
ssS'user_system_serializers_schools_classroom_serializer'
p2063
(dp2064
g116
(dp2065
g31
S'user_system_serializers_schools_classroom_serializer.html'
p2066
sg33
S'user_system/serializers/schools/classroom_serializer'
p2067
sg35
g13
(g14
g15
NtRp2068
(dp2069
g18
I1
sg19
I0
sg20
I13
sg21
I0
sg22
I0
sg23
I2
sg24
I0
sbssg122
S'\\\x02 #\xfc|[\xb1g\x7f\x83+\xb6\xaa\x13\x01'
p2070
ssS'create_models_daily_quest_copies_tests___init__'
p2071
(dp2072
g411
(dp2073
g1509
S'create_models_daily_quest_copies_tests___init__.html'
p2074
sg1511
S'create/models/daily_quest_copies/tests/__init__'
p2075
sg1513
g13
(g14
g15
NtRp2076
(dp2077
g18
I1
sg19
I0
sg20
I0
sg21
I0
sg22
I0
sg23
I0
sg24
I0
sbssg420
S'\x19g\xdfM\x1a\x019\xaf\x1baIeR\xe5u\xa7'
p2078
ssS'api_logging_views_summary_user_activity_summary_view'
p2079
(dp2080
g297
(dp2081
g177
S'api_logging_views_summary_user_activity_summary_view.html'
p2082
sg179
S'api_logging/views/summary/user_activity_summary_view'
p2083
sg181
g13
(g14
g15
NtRp2084
(dp2085
g18
I1
sg19
I8
sg20
I27
sg21
I0
sg22
I0
sg23
I13
sg24
I8
sbssg303
S'\x99\xfc\\\x0e\x10\x840(\x94\xd3(k\x9f\xb4\xd9M'
p2086
ssS'create_urls'
p2087
(dp2088
g42
(dp2089
g57
S'create_urls.html'
p2090
sg59
S'create/urls'
p2091
sg61
g13
(g14
g15
NtRp2092
(dp2093
g18
I1
sg19
I0
sg20
I22
sg21
I0
sg22
I0
sg23
I0
sg24
I0
sbssg51
S"k/4\x8e_h\xf3)p'\x8e\x80v\x1e\xbdg"
p2094
ssS'create_views_tags_tests_test_get_tags_list_view'
p2095
(dp2096
g424
(dp2097
g93
S'create_views_tags_tests_test_get_tags_list_view.html'
p2098
sg95
S'create/views/tags/tests/test_get_tags_list_view'
p2099
sg97
g13
(g14
g15
NtRp2100
(dp2101
g18
I1
sg19
I0
sg20
I21
sg21
I0
sg22
I0
sg23
I0
sg24
I0
sbssg433
S'F\xf6yk?\xb2\xc12\x93\x8b\xe6Bx\xa09\x89'
p2102
ssS'create_serializers_tags_tag_serializer'
p2103
(dp2104
g349
(dp2105
g93
S'create_serializers_tags_tag_serializer.html'
p2106
sg95
S'create/serializers/tags/tag_serializer'
p2107
sg97
g13
(g14
g15
NtRp2108
(dp2109
g18
I1
sg19
I0
sg20
I38
sg21
I0
sg22
I0
sg23
I0
sg24
I0
sbssg355
S'\xf7\xa8n\xd6\xf1\xe1\xf8\xaedX\x8e\xfe\ry\xd4\xc3'
p2110
ssS'user_system_models_users_teacher_mapping_model'
p2111
(dp2112
g29
(dp2113
g1234
S'user_system_models_users_teacher_mapping_model.html'
p2114
sg1236
S'user_system/models/users/teacher_mapping_model'
p2115
sg1238
g13
(g14
g15
NtRp2116
(dp2117
g18
I1
sg19
I4
sg20
I25
sg21
I0
sg22
I0
sg23
I0
sg24
I0
sbssg38
S'\xf8\xaf0\xe2\xc1q\x88\xa4\\\xde\x81@\xa4\xe3\xef\x12'
p2118
ssS'create_models_questions___init__'
p2119
(dp2120
g42
(dp2121
g588
S'create_models_questions___init__.html'
p2122
sg590
S'create/models/questions/__init__'
p2123
sg592
g13
(g14
g15
NtRp2124
(dp2125
g18
I1
sg19
I0
sg20
I6
sg21
I0
sg22
I0
sg23
I0
sg24
I0
sbssg51
S'\xd4\xfd\xae\xf0N\xdd-\x07$U\xac\xf1\xc2\x0f\xa5H'
p2126
ssS'create_models_tags_tag_type_model'
p2127
(dp2128
g383
(dp2129
g44
S'create_models_tags_tag_type_model.html'
p2130
sg46
S'create/models/tags/tag_type_model'
p2131
sg48
g13
(g14
g15
NtRp2132
(dp2133
g18
I1
sg19
I0
sg20
I15
sg21
I0
sg22
I0
sg23
I0
sg24
I0
sbssg389
S'\x89\x07\x8e\xc7^0\x96Do\xbf\xa5\xca5\xe4\x92\xeb'
p2134
ssS'create_serializers___init__'
p2135
(dp2136
g42
(dp2137
g57
S'create_serializers___init__.html'
p2138
sg59
S'create/serializers/__init__'
p2139
sg61
g13
(g14
g15
NtRp2140
(dp2141
g18
I1
sg19
I0
sg20
I6
sg21
I0
sg22
I0
sg23
I0
sg24
I0
sbssg51
S'\x97\xc3"\xfe\x83V\xc1w\xa6r\x02s qES'
p2142
ssS'create_serializers_books_book_history_serializer'
p2143
(dp2144
g936
(dp2145
g93
S'create_serializers_books_book_history_serializer.html'
p2146
sg95
S'create/serializers/books/book_history_serializer'
p2147
sg97
g13
(g14
g15
NtRp2148
(dp2149
g18
I1
sg19
I0
sg20
I14
sg21
I0
sg22
I0
sg23
I0
sg24
I0
sbssg942
S'|g\x1e1\xcdq*ob~B\xca\xd92\x8b\x01'
p2150
ssS'teach_views_daily_quest_templates___init__'
p2151
(dp2152
g55
(dp2153
g57
S'teach_views_daily_quest_templates___init__.html'
p2154
sg59
S'teach/views/daily_quest_templates/__init__'
p2155
sg61
g13
(g14
g15
NtRp2156
(dp2157
g18
I1
sg19
I0
sg20
I1
sg21
I0
sg22
I0
sg23
I0
sg24
I0
sbssg64
S'\xc1b\x1f\x95\xabR`C\xe80\xb9tNC\r3'
p2158
ssS'teach___init__'
p2159
(dp2160
g55
(dp2161
g57
S'teach___init__.html'
p2162
sg59
S'teach/__init__'
p2163
sg61
g13
(g14
g15
NtRp2164
(dp2165
g18
I1
sg19
I0
sg20
I0
sg21
I0
sg22
I0
sg23
I0
sg24
I0
sbssg64
S'\x19g\xdfM\x1a\x019\xaf\x1baIeR\xe5u\xa7'
p2166
ssS'user_system_views_users___init__'
p2167
(dp2168
g42
(dp2169
g177
S'user_system_views_users___init__.html'
p2170
sg179
S'user_system/views/users/__init__'
p2171
sg181
g13
(g14
g15
NtRp2172
(dp2173
g18
I1
sg19
I0
sg20
I6
sg21
I0
sg22
I0
sg23
I0
sg24
I0
sbssg51
S'YNj\xa9zR_\xf0?\x10V\x89y\x81\xbb\xeb'
p2174
ssS'flipped_helpers_tests_test_email_helper'
p2175
(dp2176
g42
(dp2177
g44
S'flipped_helpers_tests_test_email_helper.html'
p2178
sg46
S'flipped/helpers/tests/test_email_helper'
p2179
sg48
g13
(g14
g15
NtRp2180
(dp2181
g18
I1
sg19
I0
sg20
I13
sg21
I0
sg22
I0
sg23
I0
sg24
I0
sbssg51
S'\x13\xee\xcb^E:3A\xff)v\x7f\xd3\xa7\xa2\xaa'
p2182
ssS'user_system_serializers_users___init__'
p2183
(dp2184
g42
(dp2185
g177
S'user_system_serializers_users___init__.html'
p2186
sg179
S'user_system/serializers/users/__init__'
p2187
sg181
g13
(g14
g15
NtRp2188
(dp2189
g18
I1
sg19
I0
sg20
I7
sg21
I0
sg22
I0
sg23
I0
sg24
I0
sbssg51
S'8\xb4\xd8m\x9aA\xf2,\xb1\xe4\xb3\xe2#\xab\xd0#'
p2190
ssS'user_system_models_schools_tests_test_semester_model'
p2191
(dp2192
g206
(dp2193
g1426
S'user_system_models_schools_tests_test_semester_model.html'
p2194
sg1428
S'user_system/models/schools/tests/test_semester_model'
p2195
sg1430
g13
(g14
g15
NtRp2196
(dp2197
g18
I1
sg19
I0
sg20
I29
sg21
I0
sg22
I0
sg23
I0
sg24
I0
sbssg215
S'\xe9\xd9\xdc\\\xb9\x93\xb1\x93Q\x02\xe9\xb7Y,\xa6w'
p2198
ssS'create_views_quests_tests___init__'
p2199
(dp2200
g6
(dp2201
g8
S'create_views_quests_tests___init__.html'
p2202
sg10
S'create/views/quests/tests/__init__'
p2203
sg12
g13
(g14
g15
NtRp2204
(dp2205
g18
I1
sg19
I0
sg20
I0
sg21
I0
sg22
I0
sg23
I0
sg24
I0
sbssg25
S'\x19g\xdfM\x1a\x019\xaf\x1baIeR\xe5u\xa7'
p2206
ssS'user_system_serializers_schools_course_serializer'
p2207
(dp2208
g116
(dp2209
g31
S'user_system_serializers_schools_course_serializer.html'
p2210
sg33
S'user_system/serializers/schools/course_serializer'
p2211
sg35
g13
(g14
g15
NtRp2212
(dp2213
g18
I1
sg19
I0
sg20
I16
sg21
I0
sg22
I0
sg23
I2
sg24
I0
sbssg122
S'\xb0\xa8O3\x01\xce\xfe3\x12\x94\xc0\xc4\xe0@\xafJ'
p2214
ssS'user_system_views_users_tests_test_delete_user_view'
p2215
(dp2216
g42
(dp2217
g44
S'user_system_views_users_tests_test_delete_user_view.html'
p2218
sg46
S'user_system/views/users/tests/test_delete_user_view'
p2219
sg48
g13
(g14
g15
NtRp2220
(dp2221
g18
I1
sg19
I0
sg20
I22
sg21
I0
sg22
I0
sg23
I0
sg24
I0
sbssg51
S'\xe4S$\xa1t\xc6\xbe\xc7\xb9^Y\x05{\x92KQ'
p2222
ssS'learn_models_daily_quests_daily_quest_question_history_model'
p2223
(dp2224
S'index'
p2225
(dp2226
g158
S'learn_models_daily_quests_daily_quest_question_history_model.html'
p2227
sg160
S'learn/models/daily_quests/daily_quest_question_history_model'
p2228
sg162
g13
(g14
g15
NtRp2229
(dp2230
g18
I1
sg19
I6
sg20
I65
sg21
I0
sg22
I0
sg23
I22
sg24
I6
sbssS'hash'
p2231
S'\x05\xdc\x87\xb4\xe2\x8f\xeb(\x15\xe9\xbd2GzK\xcf'
p2232
ssS'user_system_models_users_user_profile_update_request_model'
p2233
(dp2234
g116
(dp2235
g627
S'user_system_models_users_user_profile_update_request_model.html'
p2236
sg629
S'user_system/models/users/user_profile_update_request_model'
p2237
sg631
g13
(g14
g15
NtRp2238
(dp2239
g18
I1
sg19
I0
sg20
I58
sg21
I0
sg22
I0
sg23
I0
sg24
I0
sbssg122
S'\xc8t\x16>\xb9"\xff\x93\xe3\x00\xa5z0[\xacM'
p2240
ssS'create_models_tags_tag_history_model'
p2241
(dp2242
g560
(dp2243
g221
S'create_models_tags_tag_history_model.html'
p2244
sg223
S'create/models/tags/tag_history_model'
p2245
sg225
g13
(g14
g15
NtRp2246
(dp2247
g18
I1
sg19
I0
sg20
I37
sg21
I0
sg22
I0
sg23
I0
sg24
I0
sbssg566
S'\xae\xc8g\xc1\xf5l<\x1f\x9c\xaf\x17\xf98\r\xa1\xe2'
p2248
ssS'create_serializers_daily_quest_copies___init__'
p2249
(dp2250
g411
(dp2251
g1509
S'create_serializers_daily_quest_copies___init__.html'
p2252
sg1511
S'create/serializers/daily_quest_copies/__init__'
p2253
sg1513
g13
(g14
g15
NtRp2254
(dp2255
g18
I1
sg19
I0
sg20
I1
sg21
I0
sg22
I0
sg23
I0
sg24
I0
sbssg420
S'\nX]\x85Nc\xb8\xc0\xe1\xaf\xa0\xda_\x9e\xb9u'
p2256
ssS'user_system_models_schools_course_model'
p2257
(dp2258
g232
(dp2259
g627
S'user_system_models_schools_course_model.html'
p2260
sg629
S'user_system/models/schools/course_model'
p2261
sg631
g13
(g14
g15
NtRp2262
(dp2263
g18
I1
sg19
I6
sg20
I37
sg21
I0
sg22
I0
sg23
I0
sg24
I0
sbssg238
S']\xfb\xca\\\xbf\x86n\xc3fj\xc2\x1ej\\q\x14'
p2264
ssS'create_models_daily_quest_copies_tests_test_daily_quest_copy_model'
p2265
(dp2266
g411
(dp2267
g542
S'create_models_daily_quest_copies_tests_test_daily_quest_copy_model.html'
p2268
sg544
S'create/models/daily_quest_copies/tests/test_daily_quest_copy_model'
p2269
sg546
g13
(g14
g15
NtRp2270
(dp2271
g18
I1
sg19
I4
sg20
I45
sg21
I0
sg22
I0
sg23
I0
sg24
I0
sbssg420
S'\xcd\xeeU\x8a\xd7\x95\x9e5E\xd0\xaf\xd07\x80\x85\xe0'
p2272
ssS'privilege_views_privileges___init__'
p2273
(dp2274
g287
(dp2275
g93
S'privilege_views_privileges___init__.html'
p2276
sg95
S'privilege/views/privileges/__init__'
p2277
sg97
g13
(g14
g15
NtRp2278
(dp2279
g18
I1
sg19
I0
sg20
I1
sg21
I0
sg22
I0
sg23
I0
sg24
I0
sbssg293
S']\x14S\xdf\xb4:Tx\xb9\x98\x89\xe7\x01%DZ'
p2280
ssS'teach_models_teacher_chapters_teacher_chapter_model'
p2281
(dp2282
g55
(dp2283
S'html_filename'
p2284
S'teach_models_teacher_chapters_teacher_chapter_model.html'
p2285
sS'name'
p2286
S'teach/models/teacher_chapters/teacher_chapter_model'
p2287
sS'nums'
p2288
g13
(g14
g15
NtRp2289
(dp2290
g18
I1
sg19
I0
sg20
I23
sg21
I0
sg22
I0
sg23
I0
sg24
I0
sbssg64
S'\x97T&\xd0\x81q\xc2M\xc3\x03\x01U\xf5S!h'
p2291
ssS'create_models_questions_question_template_model'
p2292
(dp2293
g103
(dp2294
S'html_filename'
p2295
S'create_models_questions_question_template_model.html'
p2296
sS'name'
p2297
S'create/models/questions/question_template_model'
p2298
sS'nums'
p2299
g13
(g14
g15
NtRp2300
(dp2301
g18
I1
sg19
I0
sg20
I40
sg21
I0
sg22
I0
sg23
I0
sg24
I0
sbssg112
S'\x845gz\x1d\x17\x1dv\x81\n\x96G\x99pE\\'
p2302
ssS'create_views_questions_tests_test_get_question_by_id_view'
p2303
(dp2304
g42
(dp2305
g93
S'create_views_questions_tests_test_get_question_by_id_view.html'
p2306
sg95
S'create/views/questions/tests/test_get_question_by_id_view'
p2307
sg97
g13
(g14
g15
NtRp2308
(dp2309
g18
I1
sg19
I0
sg20
I24
sg21
I0
sg22
I0
sg23
I0
sg24
I0
sbssg51
S'\xa7[\x91\xa9\xa6\xb4\xbd&n$O^O\xec\xf2X'
p2310
ssS'teach_models_teacher_tags_tests___init__'
p2311
(dp2312
g55
(dp2313
g57
S'teach_models_teacher_tags_tests___init__.html'
p2314
sg59
S'teach/models/teacher_tags/tests/__init__'
p2315
sg61
g13
(g14
g15
NtRp2316
(dp2317
g18
I1
sg19
I0
sg20
I0
sg21
I0
sg22
I0
sg23
I0
sg24
I0
sbssg64
S'\x19g\xdfM\x1a\x019\xaf\x1baIeR\xe5u\xa7'
p2318
ssS'api_logging_urls'
p2319
(dp2320
g297
(dp2321
g177
S'api_logging_urls.html'
p2322
sg179
S'api_logging/urls'
p2323
sg181
g13
(g14
g15
NtRp2324
(dp2325
g18
I1
sg19
I0
sg20
I13
sg21
I0
sg22
I0
sg23
I0
sg24
I0
sbssg303
S'`K\xc5_\x82\xb4\x1c^\xd6\x98+\xe6\xf0/\x97\x06'
p2326
ssS'api_logging_serializers_LoggingSerializer'
p2327
(dp2328
g297
(dp2329
g177
S'api_logging_serializers_LoggingSerializer.html'
p2330
sg179
S'api_logging/serializers/LoggingSerializer'
p2331
sg181
g13
(g14
g15
NtRp2332
(dp2333
g18
I1
sg19
I0
sg20
I12
sg21
I0
sg22
I0
sg23
I0
sg24
I0
sbssg303
S'1\xdb}\x8eJ\x1a\xe6@D\xcc}\xf4\x11(\x11\xb0'
p2334
ssS'create_views_books_tests_test_remove_subchapter_view'
p2335
(dp2336
S'index'
p2337
(dp2338
g44
S'create_views_books_tests_test_remove_subchapter_view.html'
p2339
sg46
S'create/views/books/tests/test_remove_subchapter_view'
p2340
sg48
g13
(g14
g15
NtRp2341
(dp2342
g18
I1
sg19
I0
sg20
I44
sg21
I0
sg22
I0
sg23
I0
sg24
I0
sbssS'hash'
p2343
S'\x0b\xddi\xaa_d\x8c\xf3b\xa2\x12\xbc\xce\xa5\xbf\x8b'
p2344
ssS'teach_views_summaries_daily_quest_daily_summary_view'
p2345
(dp2346
g297
(dp2347
g177
S'teach_views_summaries_daily_quest_daily_summary_view.html'
p2348
sg179
S'teach/views/summaries/daily_quest_daily_summary_view'
p2349
sg181
g13
(g14
g15
NtRp2350
(dp2351
g18
I1
sg19
I12
sg20
I61
sg21
I0
sg22
I0
sg23
I39
sg24
I12
sbssg303
S'\x06\\F.\x8c\xd3M\x8e\xc5\xc9\xd5<\x13V\xd6C'
p2352
ssS'learn_models_points_point_history_model'
p2353
(dp2354
g297
(dp2355
g177
S'learn_models_points_point_history_model.html'
p2356
sg179
S'learn/models/points/point_history_model'
p2357
sg181
g13
(g14
g15
NtRp2358
(dp2359
g18
I1
sg19
I0
sg20
I16
sg21
I0
sg22
I0
sg23
I0
sg24
I0
sbssg303
S'\xa8\xbaH\x19\x11\xbeT\xe2N=\xfe\xed\x9d\xd4\x83\x1e'
p2360
ssS'user_system___init__'
p2361
(dp2362
g42
(dp2363
g446
S'user_system___init__.html'
p2364
sg448
S'user_system/__init__'
p2365
sg450
g13
(g14
g15
NtRp2366
(dp2367
g18
I1
sg19
I0
sg20
I0
sg21
I0
sg22
I0
sg23
I0
sg24
I0
sbssg51
S'\x19g\xdfM\x1a\x019\xaf\x1baIeR\xe5u\xa7'
p2368
ssS'create_models_question_datasets_question_dataset_model'
p2369
(dp2370
g144
(dp2371
g146
S'create_models_question_datasets_question_dataset_model.html'
p2372
sg148
S'create/models/question_datasets/question_dataset_model'
p2373
sg150
g13
(g14
g15
NtRp2374
(dp2375
g18
I1
sg19
I0
sg20
I25
sg21
I0
sg22
I0
sg23
I0
sg24
I0
sbssg153
S'\x9e\x8d\xc6\xe6\xe4\x9f#\xfdc\xc9q\r\x17Y\x8e\xb1'
p2376
ssS'create_views_question_datasets___init__'
p2377
(dp2378
g144
(dp2379
g146
S'create_views_question_datasets___init__.html'
p2380
sg148
S'create/views/question_datasets/__init__'
p2381
sg150
g13
(g14
g15
NtRp2382
(dp2383
g18
I1
sg19
I0
sg20
I1
sg21
I0
sg22
I0
sg23
I0
sg24
I0
sbssg153
S'\x87x\xd1\xbe\x15\xd3\xbc\x99\x86\x08\xf8\x06S\xcf\x00\x87'
p2384
ssS'teach_serializers_daily_quest_templates___init__'
p2385
(dp2386
g55
(dp2387
g57
S'teach_serializers_daily_quest_templates___init__.html'
p2388
sg59
S'teach/serializers/daily_quest_templates/__init__'
p2389
sg61
g13
(g14
g15
NtRp2390
(dp2391
g18
I1
sg19
I0
sg20
I1
sg21
I0
sg22
I0
sg23
I0
sg24
I0
sbssg64
S'\xa2\xd34\x1b\xe2+\x16\xa9un\x8f\xa5\xe6\xc4\\p'
p2392
ssS'create_views_books_tests_test_remove_tag_from_subchapter_view'
p2393
(dp2394
g1527
(dp2395
g44
S'create_views_books_tests_test_remove_tag_from_subchapter_view.html'
p2396
sg46
S'create/views/books/tests/test_remove_tag_from_subchapter_view'
p2397
sg48
g13
(g14
g15
NtRp2398
(dp2399
g18
I1
sg19
I0
sg20
I40
sg21
I0
sg22
I0
sg23
I0
sg24
I0
sbssg1533
S"(Vo#\xdd\x9a\xbc\x11\xff\xd6'\xd7\xeb\xca\x1aM"
p2400
ssS'create_views_daily_quests___init__'
p2401
(dp2402
g242
(dp2403
g244
S'create_views_daily_quests___init__.html'
p2404
sg246
S'create/views/daily_quests/__init__'
p2405
sg248
g13
(g14
g15
NtRp2406
(dp2407
g18
I1
sg19
I0
sg20
I1
sg21
I0
sg22
I0
sg23
I0
sg24
I0
sbssg251
S'\xa3\x08\xf3\xbaF\xd5u\x88\x12\xa3V\x05K\xe5\xd0\xa9'
p2408
ssS'flipped_helpers_email_helper'
p2409
(dp2410
g42
(dp2411
g44
S'flipped_helpers_email_helper.html'
p2412
sg46
S'flipped/helpers/email_helper'
p2413
sg48
g13
(g14
g15
NtRp2414
(dp2415
g18
I1
sg19
I2
sg20
I9
sg21
I0
sg22
I0
sg23
I0
sg24
I0
sbssg51
S"\xeal\t\x03)\xcc\xc4\x0b\r\xe2&\x83a'I\xad"
p2416
ssS'flipped_urls'
p2417
(dp2418
g42
(dp2419
g93
S'flipped_urls.html'
p2420
sg95
S'flipped/urls'
p2421
sg97
g13
(g14
g15
NtRp2422
(dp2423
g18
I1
sg19
I0
sg20
I9
sg21
I0
sg22
I0
sg23
I0
sg24
I0
sbssg51
S'\xcbN{\xd0A\x0b\xa0\xc3\xd4\x8cr\xe3\x1e\x12\x1e\xb0'
p2424
ssS'teach_views_summaries_daily_quest_summary_view'
p2425
(dp2426
g297
(dp2427
g177
S'teach_views_summaries_daily_quest_summary_view.html'
p2428
sg179
S'teach/views/summaries/daily_quest_summary_view'
p2429
sg181
g13
(g14
g15
NtRp2430
(dp2431
g18
I1
sg19
I24
sg20
I72
sg21
I0
sg22
I0
sg23
I52
sg24
I24
sbssg303
S'\xdf\xb6.EW\xea\xa0\x93\x8c\xc2f\x1cAG8\xa4'
p2432
ssS'user_system_views_users_student_profile_request_view'
p2433
(dp2434
g116
(dp2435
g31
S'user_system_views_users_student_profile_request_view.html'
p2436
sg33
S'user_system/views/users/student_profile_request_view'
p2437
sg35
g13
(g14
g15
NtRp2438
(dp2439
g18
I1
sg19
I0
sg20
I14
sg21
I0
sg22
I0
sg23
I0
sg24
I0
sbssg122
S'\x87:\xd0\xef\x04\xf3-q\r\xe7\xec \xceS\xee<'
p2440
ssS'user_system_views_logins_tests___init__'
p2441
(dp2442
g42
(dp2443
g446
S'user_system_views_logins_tests___init__.html'
p2444
sg448
S'user_system/views/logins/tests/__init__'
p2445
sg450
g13
(g14
g15
NtRp2446
(dp2447
g18
I1
sg19
I0
sg20
I1
sg21
I0
sg22
I0
sg23
I0
sg24
I0
sbssg51
S'\xbc\xd6\xeb\xb3\xba\xcaz\xf7{\xd4B\xb5}l\xdf\x96'
p2448
ssS'api_logging_views_modal_loggings___init__'
p2449
(dp2450
g297
(dp2451
g177
S'api_logging_views_modal_loggings___init__.html'
p2452
sg179
S'api_logging/views/modal_loggings/__init__'
p2453
sg181
g13
(g14
g15
NtRp2454
(dp2455
g18
I1
sg19
I0
sg20
I1
sg21
I0
sg22
I0
sg23
I0
sg24
I0
sbssg303
S'\xf1\x0fWK\x0c\x9eD\xe8\x12\xaf\x93\xfa\xd7q\xa8\x91'
p2456
ssS'user_system_views_users_tests_test_get_users_by_signup_type_view'
p2457
(dp2458
g42
(dp2459
g93
S'user_system_views_users_tests_test_get_users_by_signup_type_view.html'
p2460
sg95
S'user_system/views/users/tests/test_get_users_by_signup_type_view'
p2461
sg97
g13
(g14
g15
NtRp2462
(dp2463
g18
I1
sg19
I0
sg20
I44
sg21
I0
sg22
I0
sg23
I0
sg24
I0
sbssg51
S'T/\xf9\xf8\x94\xd6Lm\x89o\xb6\x99/Z\xc1]'
p2464
ssS'user_system_serializers_users_user_serializer'
p2465
(dp2466
g42
(dp2467
g93
S'user_system_serializers_users_user_serializer.html'
p2468
sg95
S'user_system/serializers/users/user_serializer'
p2469
sg97
g13
(g14
g15
NtRp2470
(dp2471
g18
I1
sg19
I8
sg20
I46
sg21
I0
sg22
I2
sg23
I8
sg24
I6
sbssg51
S'\xb2\xee\xa4\xa6\x8b\xe1\xe1\xce\xaa\xe6\xdd\xbd\xb3\xf2\x81/'
p2472
ssS'create_serializers_daily_quest_copies_daily_quest_copy_serializer'
p2473
(dp2474
g411
(dp2475
g1509
S'create_serializers_daily_quest_copies_daily_quest_copy_serializer.html'
p2476
sg1511
S'create/serializers/daily_quest_copies/daily_quest_copy_serializer'
p2477
sg1513
g13
(g14
g15
NtRp2478
(dp2479
g18
I1
sg19
I0
sg20
I18
sg21
I0
sg22
I0
sg23
I3
sg24
I0
sbssg420
S'\xb6\xc6tAeANu\xae\n4T\xc1.\xe2\xfd'
p2480
ssS'create_models_books_tests_test_book_history_model'
p2481
(dp2482
g349
(dp2483
g627
S'create_models_books_tests_test_book_history_model.html'
p2484
sg629
S'create/models/books/tests/test_book_history_model'
p2485
sg631
g13
(g14
g15
NtRp2486
(dp2487
g18
I1
sg19
I0
sg20
I65
sg21
I0
sg22
I0
sg23
I0
sg24
I0
sbssg355
S'\xedQI\xf5\x17. 8I\x938\xca4\x05=\xf3'
p2488
ssS'create_views_quests_tests_test_remove_question_view'
p2489
(dp2490
g6
(dp2491
g8
S'create_views_quests_tests_test_remove_question_view.html'
p2492
sg10
S'create/views/quests/tests/test_remove_question_view'
p2493
sg12
g13
(g14
g15
NtRp2494
(dp2495
g18
I1
sg19
I0
sg20
I0
sg21
I0
sg22
I0
sg23
I0
sg24
I0
sbssg25
S'\x19g\xdfM\x1a\x019\xaf\x1baIeR\xe5u\xa7'
p2496
ssS'create_serializers_daily_quest_templates_daily_quest_template_serializer'
p2497
(dp2498
g242
(dp2499
g244
S'create_serializers_daily_quest_templates_daily_quest_template_serializer.html'
p2500
sg246
S'create/serializers/daily_quest_templates/daily_quest_template_serializer'
p2501
sg248
g13
(g14
g15
NtRp2502
(dp2503
g18
I1
sg19
I0
sg20
I8
sg21
I0
sg22
I0
sg23
I0
sg24
I0
sbssg251
S'-b,\x8cFu\xd2b\x8b\rw5\xa4\xf7\xc3\xf2'
p2504
ssS'user_system_managers___init__'
p2505
(dp2506
g297
(dp2507
g177
S'user_system_managers___init__.html'
p2508
sg179
S'user_system/managers/__init__'
p2509
sg181
g13
(g14
g15
NtRp2510
(dp2511
g18
I1
sg19
I0
sg20
I2
sg21
I0
sg22
I0
sg23
I0
sg24
I0
sbssg303
S'\xf1\xb0\xc3\xd3B\x8d\xdf\x12\x1bW\x06\xa4\xe7\x13A '
p2512
ssS'teach_models_campaigns_tests_test_campaign_model'
p2513
(dp2514
g116
(dp2515
g31
S'teach_models_campaigns_tests_test_campaign_model.html'
p2516
sg33
S'teach/models/campaigns/tests/test_campaign_model'
p2517
sg35
g13
(g14
g15
NtRp2518
(dp2519
g18
I1
sg19
I0
sg20
I43
sg21
I0
sg22
I0
sg23
I0
sg24
I0
sbssg122
S"\x1b\xbbi{\xe8\xa9o\xd3w\xfb'\x1e\xca\x1b\xd9\xc7"
p2520
ssS'api_logging_views_modal_loggings_modal_user_history_view'
p2521
(dp2522
g297
(dp2523
g177
S'api_logging_views_modal_loggings_modal_user_history_view.html'
p2524
sg179
S'api_logging/views/modal_loggings/modal_user_history_view'
p2525
sg181
g13
(g14
g15
NtRp2526
(dp2527
g18
I1
sg19
I0
sg20
I12
sg21
I0
sg22
I0
sg23
I0
sg24
I0
sbssg303
S'\xb4\xa3\xa1!\x95\x8a\x06\xf5\x19\x1c=\xe2B\xa3b\t'
p2528
ssS'user_system_views_logins_tests_test_email_login_view'
p2529
(dp2530
g42
(dp2531
g44
S'user_system_views_logins_tests_test_email_login_view.html'
p2532
sg46
S'user_system/views/logins/tests/test_email_login_view'
p2533
sg48
g13
(g14
g15
NtRp2534
(dp2535
g18
I1
sg19
I0
sg20
I61
sg21
I0
sg22
I0
sg23
I0
sg24
I0
sbssg51
S'\x926\xe8\xcdL\xf3U\xc1C\x1b\x0f\xaf\xf0c\x9b\xd0'
p2536
ssS'create_views_books_book_chapter_view'
p2537
(dp2538
g560
(dp2539
g177
S'create_views_books_book_chapter_view.html'
p2540
sg179
S'create/views/books/book_chapter_view'
p2541
sg181
g13
(g14
g15
NtRp2542
(dp2543
g18
I1
sg19
I12
sg20
I44
sg21
I0
sg22
I0
sg23
I22
sg24
I12
sbssg566
S'\x0b3\xd8 \xe1\x08#79\x0c\x7f\x1f6\xad0\xe9'
p2544
ssS'create_views___init__'
p2545
(dp2546
g42
(dp2547
g57
S'create_views___init__.html'
p2548
sg59
S'create/views/__init__'
p2549
sg61
g13
(g14
g15
NtRp2550
(dp2551
g18
I1
sg19
I0
sg20
I7
sg21
I0
sg22
I0
sg23
I0
sg24
I0
sbssg51
S'\x8f\x98\x9b$~\xde\xc2\xfc\x97/\x14^\xe8\xf8\x10M'
p2552
ssS'user_system_serializers_users_student_profile_serializer'
p2553
(dp2554
g116
(dp2555
g413
S'user_system_serializers_users_student_profile_serializer.html'
p2556
sg415
S'user_system/serializers/users/student_profile_serializer'
p2557
sg417
g13
(g14
g15
NtRp2558
(dp2559
g18
I1
sg19
I0
sg20
I10
sg21
I0
sg22
I0
sg23
I0
sg24
I0
sbssg122
S'\xb4\n*\x1b\x86\xd1\\\xa2k\xeb\xd8\xeaW\x0c\xd8x'
p2560
ssS'flipped_helpers_errors_helper'
p2561
(dp2562
g42
(dp2563
g44
S'flipped_helpers_errors_helper.html'
p2564
sg46
S'flipped/helpers/errors_helper'
p2565
sg48
g13
(g14
g15
NtRp2566
(dp2567
g18
I1
sg19
I0
sg20
I5
sg21
I0
sg22
I0
sg23
I0
sg24
I0
sbssg51
S'\x91\x04\x1c\xf86c\xad\xf7\xe3\xf13\xf5n8eP'
p2568
ssS'teach_views_teacher_tags_teacher_tag_view'
p2569
(dp2570
g55
(dp2571
g177
S'teach_views_teacher_tags_teacher_tag_view.html'
p2572
sg179
S'teach/views/teacher_tags/teacher_tag_view'
p2573
sg181
g13
(g14
g15
NtRp2574
(dp2575
g18
I1
sg19
I20
sg20
I55
sg21
I0
sg22
I2
sg23
I30
sg24
I18
sbssg64
S'\xec\x1aQ\x839\x80#\xe5\xca\x98\xf6\xec\x84\x17\xa3\xeb'
p2576
ssS'create_models_questions_tests_test_question_history_model'
p2577
(dp2578
g42
(dp2579
g990
S'create_models_questions_tests_test_question_history_model.html'
p2580
sg992
S'create/models/questions/tests/test_question_history_model'
p2581
sg994
g13
(g14
g15
NtRp2582
(dp2583
g18
I1
sg19
I2
sg20
I73
sg21
I0
sg22
I0
sg23
I0
sg24
I0
sbssg51
S'i\xd4 \xdcI\x9f\xbc\x0c|\x95\x15wW\xb4\xa9\x15'
p2584
ssS'create_views_tags_tests_test_create_tag_view'
p2585
(dp2586
g424
(dp2587
g44
S'create_views_tags_tests_test_create_tag_view.html'
p2588
sg46
S'create/views/tags/tests/test_create_tag_view'
p2589
sg48
g13
(g14
g15
NtRp2590
(dp2591
g18
I1
sg19
I0
sg20
I33
sg21
I0
sg22
I0
sg23
I0
sg24
I0
sbssg433
S'\\\x91{\x1a ;Qg\xbd\x81\xe2\xaf\xa41\xac\x1b'
p2592
ssS'create_views_questions_tests___init__'
p2593
(dp2594
g42
(dp2595
g446
S'create_views_questions_tests___init__.html'
p2596
sg448
S'create/views/questions/tests/__init__'
p2597
sg450
g13
(g14
g15
NtRp2598
(dp2599
g18
I1
sg19
I0
sg20
I0
sg21
I0
sg22
I0
sg23
I0
sg24
I0
sbssg51
S'\x19g\xdfM\x1a\x019\xaf\x1baIeR\xe5u\xa7'
p2600
ssS'flipped___init__'
p2601
(dp2602
g42
(dp2603
g446
S'flipped___init__.html'
p2604
sg448
S'flipped/__init__'
p2605
sg450
g13
(g14
g15
NtRp2606
(dp2607
g18
I1
sg19
I0
sg20
I0
sg21
I0
sg22
I0
sg23
I0
sg24
I0
sbssg51
S'\x19g\xdfM\x1a\x019\xaf\x1baIeR\xe5u\xa7'
p2608
ssS'user_system_views_roles___init__'
p2609
(dp2610
g42
(dp2611
g446
S'user_system_views_roles___init__.html'
p2612
sg448
S'user_system/views/roles/__init__'
p2613
sg450
g13
(g14
g15
NtRp2614
(dp2615
g18
I1
sg19
I0
sg20
I1
sg21
I0
sg22
I0
sg23
I0
sg24
I0
sbssg51
S'\xeb\x15\r\x85I\x9e<\xbc\x15\xd1P\xef\x16\x8c\xe0l'
p2616
ssS'create_models_daily_quest_templates_tests_test_daily_quest_template_model'
p2617
(dp2618
g242
(dp2619
g244
S'create_models_daily_quest_templates_tests_test_daily_quest_template_model.html'
p2620
sg246
S'create/models/daily_quest_templates/tests/test_daily_quest_template_model'
p2621
sg248
g13
(g14
g15
NtRp2622
(dp2623
g18
I1
sg19
I0
sg20
I37
sg21
I0
sg22
I0
sg23
I0
sg24
I0
sbssg251
S'\x01\x04)\xffw\x13\x9aqx\xb2\x9f\x02\xb0\x90\xf3\xa5'
p2624
ssS'teach_views_summaries___init__'
p2625
(dp2626
g297
(dp2627
g188
S'teach_views_summaries___init__.html'
p2628
sg190
S'teach/views/summaries/__init__'
p2629
sg192
g13
(g14
g15
NtRp2630
(dp2631
g18
I1
sg19
I0
sg20
I6
sg21
I0
sg22
I0
sg23
I0
sg24
I0
sbssg303
S'\xf1\xa7@\xae\xc1+T\x8d\tr\xacb\x91s,\xbf'
p2632
ssS'user_system_models_users_user_profile_history_model'
p2633
(dp2634
g116
(dp2635
g31
S'user_system_models_users_user_profile_history_model.html'
p2636
sg33
S'user_system/models/users/user_profile_history_model'
p2637
sg35
g13
(g14
g15
NtRp2638
(dp2639
g18
I1
sg19
I4
sg20
I72
sg21
I0
sg22
I2
sg23
I12
sg24
I2
sbssg122
S'\x9a\x0c\xe2p\x8b\xee\x01\x87\xfd\x81\xb4\x9bzp\x90\xb6'
p2640
ssS'user_system_models_roles_role_model'
p2641
(dp2642
g42
(dp2643
g44
S'user_system_models_roles_role_model.html'
p2644
sg46
S'user_system/models/roles/role_model'
p2645
sg48
g13
(g14
g15
NtRp2646
(dp2647
g18
I1
sg19
I0
sg20
I16
sg21
I0
sg22
I0
sg23
I0
sg24
I0
sbssg51
S'\x180j\xc8\x05 \xa05\xa7\xffj\x1dJ\x8a6\xcb'
p2648
ssS'user_system_views_users_user_view'
p2649
(dp2650
g42
(dp2651
g177
S'user_system_views_users_user_view.html'
p2652
sg179
S'user_system/views/users/user_view'
p2653
sg181
g13
(g14
g15
NtRp2654
(dp2655
g18
I1
sg19
I66
sg20
I186
sg21
I0
sg22
I0
sg23
I108
sg24
I44
sbssg51
S'S`\xa9\xa5\xad\x9d\x84\x8fOl!#\x8a<\x9c\xed'
p2656
ssS'teach_models_daily_quest_templates_tests_test_daily_quest_template_model'
p2657
(dp2658
g55
(dp2659
g57
S'teach_models_daily_quest_templates_tests_test_daily_quest_template_model.html'
p2660
sg59
S'teach/models/daily_quest_templates/tests/test_daily_quest_template_model'
p2661
sg61
g13
(g14
g15
NtRp2662
(dp2663
g18
I1
sg19
I0
sg20
I37
sg21
I0
sg22
I0
sg23
I0
sg24
I0
sbssg64
S'\x01\x04)\xffw\x13\x9aqx\xb2\x9f\x02\xb0\x90\xf3\xa5'
p2664
ssS'user_system_views_apps___init__'
p2665
(dp2666
g42
(dp2667
g446
S'user_system_views_apps___init__.html'
p2668
sg448
S'user_system/views/apps/__init__'
p2669
sg450
g13
(g14
g15
NtRp2670
(dp2671
g18
I1
sg19
I0
sg20
I1
sg21
I0
sg22
I0
sg23
I0
sg24
I0
sbssg51
S'?:\xf2A\xfa^]\xc5NR\xc9\x13\xb0\xe4\xfa\x9e'
p2672
ssS'user_system_views_users_tests_test_get_users_list_view'
p2673
(dp2674
g42
(dp2675
g93
S'user_system_views_users_tests_test_get_users_list_view.html'
p2676
sg95
S'user_system/views/users/tests/test_get_users_list_view'
p2677
sg97
g13
(g14
g15
NtRp2678
(dp2679
g18
I1
sg19
I0
sg20
I34
sg21
I0
sg22
I0
sg23
I0
sg24
I0
sbssg51
S'\xf5\xe3\x1a\x14e\xf8\xc2\xf0\xa8^$\xf7\x9dv\xb8f'
p2680
ssS'create_models_questions_question_type_model'
p2681
(dp2682
g42
(dp2683
g44
S'create_models_questions_question_type_model.html'
p2684
sg46
S'create/models/questions/question_type_model'
p2685
sg48
g13
(g14
g15
NtRp2686
(dp2687
g18
I1
sg19
I0
sg20
I19
sg21
I0
sg22
I0
sg23
I0
sg24
I0
sbssg51
S'\xb9\xe7I\x93\x8b\xa8\xa8H\x80\x02_\xf9\x87\xa2\xe7\xa5'
p2688
ssS'user_system_views_apps_app_view'
p2689
(dp2690
g42
(dp2691
S'html_filename'
p2692
S'user_system_views_apps_app_view.html'
p2693
sS'name'
p2694
S'user_system/views/apps/app_view'
p2695
sS'nums'
p2696
g13
(g14
g15
NtRp2697
(dp2698
g18
I1
sg19
I0
sg20
I13
sg21
I0
sg22
I0
sg23
I0
sg24
I0
sbssg51
S'\xf7n\xffX\xe7\xd2\xb6\xa5\xc5\xe5\x96\x13\xf4\x9c\xac\x1e'
p2699
ssS'teach_views_summaries_student_list_summary'
p2700
(dp2701
g297
(dp2702
g177
S'teach_views_summaries_student_list_summary.html'
p2703
sg179
S'teach/views/summaries/student_list_summary'
p2704
sg181
g13
(g14
g15
NtRp2705
(dp2706
g18
I1
sg19
I26
sg20
I81
sg21
I0
sg22
I0
sg23
I63
sg24
I26
sbssg303
S'i\x1e\xd7\x9f\xceE"\x92\xc3\xfd\xd9\xdd\xac%\xe7\x10'
p2707
ssS'user_system_models_schools_tests_test_classroom_model'
p2708
(dp2709
g232
(dp2710
g177
S'user_system_models_schools_tests_test_classroom_model.html'
p2711
sg179
S'user_system/models/schools/tests/test_classroom_model'
p2712
sg181
g13
(g14
g15
NtRp2713
(dp2714
g18
I1
sg19
I0
sg20
I31
sg21
I0
sg22
I0
sg23
I0
sg24
I0
sbssg238
S'\xfd\xfd\xa2\x92;\xc3\xaa\x06D\x93\xddbD\xda\xa2\x1e'
p2715
ssS'user_system_views_schools_school_view'
p2716
(dp2717
g116
(dp2718
g31
S'user_system_views_schools_school_view.html'
p2719
sg33
S'user_system/views/schools/school_view'
p2720
sg35
g13
(g14
g15
NtRp2721
(dp2722
g18
I1
sg19
I0
sg20
I16
sg21
I0
sg22
I0
sg23
I0
sg24
I0
sbssg122
S'\xc8\x0b\xef\x9e86\xe5\x19\xaa\x9e\x93+\x03\xfb\x98\x99'
p2723
ssS'learn_models_points_point_type_model'
p2724
(dp2725
g297
(dp2726
g627
S'learn_models_points_point_type_model.html'
p2727
sg629
S'learn/models/points/point_type_model'
p2728
sg631
g13
(g14
g15
NtRp2729
(dp2730
g18
I1
sg19
I0
sg20
I20
sg21
I0
sg22
I0
sg23
I0
sg24
I0
sbssg303
S'\x84\x1b\x18\n\xa9\xae\xe5\xd57\xa7}h\xdaD\x19+'
p2731
ssS'user_system_models_roles_tests_test_role_app_model'
p2732
(dp2733
g42
(dp2734
g44
S'user_system_models_roles_tests_test_role_app_model.html'
p2735
sg46
S'user_system/models/roles/tests/test_role_app_model'
p2736
sg48
g13
(g14
g15
NtRp2737
(dp2738
g18
I1
sg19
I0
sg20
I21
sg21
I0
sg22
I0
sg23
I0
sg24
I0
sbssg51
S"\x80\xd7v\xbb\xe5d.\xeb\xfd\xc4\x04\xb2\x04'\xc6V"
p2739
ssS'user_system_views_schools_grade_view'
p2740
(dp2741
g116
(dp2742
g31
S'user_system_views_schools_grade_view.html'
p2743
sg33
S'user_system/views/schools/grade_view'
p2744
sg35
g13
(g14
g15
NtRp2745
(dp2746
g18
I1
sg19
I0
sg20
I16
sg21
I0
sg22
I0
sg23
I0
sg24
I0
sbssg122
S'_i&b\x01\x08$\xe7\xbe\nW\x92\x80\x97\xf1Q'
p2747
ssS'create_serializers_question_datasets_question_dataset_serializer'
p2748
(dp2749
g144
(dp2750
g146
S'create_serializers_question_datasets_question_dataset_serializer.html'
p2751
sg148
S'create/serializers/question_datasets/question_dataset_serializer'
p2752
sg150
g13
(g14
g15
NtRp2753
(dp2754
g18
I1
sg19
I0
sg20
I6
sg21
I0
sg22
I0
sg23
I0
sg24
I0
sbssg153
S'\x1e}6\x82\x0c\x96\xdb\x00{jK\xdb\xc0\x8c\x97\xcd'
p2755
ssS'privilege_models_privileges_user_privilege_model'
p2756
(dp2757
g287
(dp2758
g93
S'privilege_models_privileges_user_privilege_model.html'
p2759
sg95
S'privilege/models/privileges/user_privilege_model'
p2760
sg97
g13
(g14
g15
NtRp2761
(dp2762
g18
I1
sg19
I0
sg20
I17
sg21
I0
sg22
I0
sg23
I1
sg24
I0
sbssg293
S'\xe4\xbfo\xb6Sy\xef\x85\xf2\xf3=\xf3\xc3\xc0\xc9\xc6'
p2763
ssS'create_views_questions_question_template_view'
p2764
(dp2765
g103
(dp2766
g105
S'create_views_questions_question_template_view.html'
p2767
sg107
S'create/views/questions/question_template_view'
p2768
sg109
g13
(g14
g15
NtRp2769
(dp2770
g18
I1
sg19
I40
sg20
I115
sg21
I0
sg22
I0
sg23
I86
sg24
I40
sbssg112
S'\x15\xd2EN\xe9c\xe5\x17\xc5Fh\x02\x1a\xd3\xc4*'
p2771
ssS'create_serializers_quests_quest_serializer'
p2772
(dp2773
g103
(dp2774
g31
S'create_serializers_quests_quest_serializer.html'
p2775
sg33
S'create/serializers/quests/quest_serializer'
p2776
sg35
g13
(g14
g15
NtRp2777
(dp2778
g18
I1
sg19
I0
sg20
I50
sg21
I0
sg22
I0
sg23
I15
sg24
I0
sbssg112
S'\x96:\xdf\x9a\x02\xee\xf5\x97F[z\x16p\x8f\x08\xb2'
p2779
ssS'create_views_summary_create_summary_view'
p2780
(dp2781
g1609
(dp2782
g1089
S'create_views_summary_create_summary_view.html'
p2783
sg1091
S'create/views/summary/create_summary_view'
p2784
sg1093
g13
(g14
g15
NtRp2785
(dp2786
g18
I1
sg19
I0
sg20
I59
sg21
I0
sg22
I0
sg23
I48
sg24
I0
sbssg1615
S"'\xfe\xf4\x8c\xed2\xc3\x18\xf6\x85\x1f\xb0\xf0G\xb7\x8f"
p2787
ssS'create_serializers_books_book_serializer'
p2788
(dp2789
g349
(dp2790
g93
S'create_serializers_books_book_serializer.html'
p2791
sg95
S'create/serializers/books/book_serializer'
p2792
sg97
g13
(g14
g15
NtRp2793
(dp2794
g18
I1
sg19
I0
sg20
I25
sg21
I0
sg22
I0
sg23
I0
sg24
I0
sbssg355
S"o\r\r\x1e8\xe6\xa9\xd1\x83X.\xcf1\x98\xa3'"
p2795
ssS'user_system_models_schools_tests___init__'
p2796
(dp2797
g206
(dp2798
S'html_filename'
p2799
S'user_system_models_schools_tests___init__.html'
p2800
sS'name'
p2801
S'user_system/models/schools/tests/__init__'
p2802
sS'nums'
p2803
g13
(g14
g15
NtRp2804
(dp2805
g18
I1
sg19
I0
sg20
I0
sg21
I0
sg22
I0
sg23
I0
sg24
I0
sbssg215
S'\x19g\xdfM\x1a\x019\xaf\x1baIeR\xe5u\xa7'
p2806
ssS'api_logging_mixins'
p2807
(dp2808
g424
(dp2809
g44
S'api_logging_mixins.html'
p2810
sg46
S'api_logging/mixins'
p2811
sg48
g13
(g14
g15
NtRp2812
(dp2813
g18
I1
sg19
I4
sg20
I26
sg21
I0
sg22
I2
sg23
I2
sg24
I2
sbssg433
S'w\xa7\xcf,\xf7\x87[\xb0\xc5\xb2\x1f\xa5+\x1dSF'
p2814
ssS'privilege_serializers_privileges___init__'
p2815
(dp2816
g287
(dp2817
g93
S'privilege_serializers_privileges___init__.html'
p2818
sg95
S'privilege/serializers/privileges/__init__'
p2819
sg97
g13
(g14
g15
NtRp2820
(dp2821
g18
I1
sg19
I0
sg20
I2
sg21
I0
sg22
I0
sg23
I0
sg24
I0
sbssg293
S'\x1f\xd4u<\xf4\x9bW\xb0\xa9\xd2\xc1\x06\x14`C\xc6'
p2822
ssS'create___init__'
p2823
(dp2824
g42
(dp2825
g446
S'create___init__.html'
p2826
sg448
S'create/__init__'
p2827
sg450
g13
(g14
g15
NtRp2828
(dp2829
g18
I1
sg19
I0
sg20
I0
sg21
I0
sg22
I0
sg23
I0
sg24
I0
sbssg51
S'\x19g\xdfM\x1a\x019\xaf\x1baIeR\xe5u\xa7'
p2830
ssS'user_system_serializers_schools_school_serializer'
p2831
(dp2832
g116
(dp2833
g31
S'user_system_serializers_schools_school_serializer.html'
p2834
sg33
S'user_system/serializers/schools/school_serializer'
p2835
sg35
g13
(g14
g15
NtRp2836
(dp2837
g18
I1
sg19
I0
sg20
I9
sg21
I0
sg22
I0
sg23
I0
sg24
I0
sbssg122
S'_\x0c\x17V\x00H\x8f\xc9x\xe5I\xcb\t\x08\xb9/'
p2838
ssS'user_system_models_users_tests_test_user_profile_update_request_model'
p2839
(dp2840
g116
(dp2841
g627
S'user_system_models_users_tests_test_user_profile_update_request_model.html'
p2842
sg629
S'user_system/models/users/tests/test_user_profile_update_request_model'
p2843
sg631
g13
(g14
g15
NtRp2844
(dp2845
g18
I1
sg19
I0
sg20
I56
sg21
I0
sg22
I0
sg23
I0
sg24
I0
sbssg122
S'U\ng\x0eY\xe2\xc0a\x07f\xb4\x9bFP\x14\x86'
p2846
ssS'user_system_views_users_tests_test_add_role_view'
p2847
(dp2848
g42
(dp2849
g44
S'user_system_views_users_tests_test_add_role_view.html'
p2850
sg46
S'user_system/views/users/tests/test_add_role_view'
p2851
sg48
g13
(g14
g15
NtRp2852
(dp2853
g18
I1
sg19
I0
sg20
I36
sg21
I0
sg22
I0
sg23
I0
sg24
I0
sbssg51
S'\x0eh\xf7\xba\x08_N\xdeM\xdf\x03\xbd\x8c\x8a\x89\xd0'
p2854
ssS'learn_urls'
p2855
(dp2856
g55
(dp2857
g177
S'learn_urls.html'
p2858
sg179
S'learn/urls'
p2859
sg181
g13
(g14
g15
NtRp2860
(dp2861
g18
I1
sg19
I0
sg20
I8
sg21
I0
sg22
I0
sg23
I0
sg24
I0
sbssg64
S'\x1a\xcd\x95\xa0\xd8s\xf6\xb3\x9e\xd7H\xe5*M\xbdG'
p2862
ssS'api_logging___init__'
p2863
(dp2864
g560
(dp2865
g726
S'api_logging___init__.html'
p2866
sg728
S'api_logging/__init__'
p2867
sg730
g13
(g14
g15
NtRp2868
(dp2869
g18
I1
sg19
I0
sg20
I0
sg21
I0
sg22
I0
sg23
I0
sg24
I0
sbssg566
S'\x19g\xdfM\x1a\x019\xaf\x1baIeR\xe5u\xa7'
p2870
ssS'create_views_questions_question_view'
p2871
(dp2872
g42
(dp2873
g754
S'create_views_questions_question_view.html'
p2874
sg756
S'create/views/questions/question_view'
p2875
sg758
g13
(g14
g15
NtRp2876
(dp2877
g18
I1
sg19
I34
sg20
I112
sg21
I0
sg22
I1
sg23
I40
sg24
I21
sbssg51
S"_'M\x9d\x0e\r\xae\x93=\xce\xd2\x1b>\x8eV\xe4"
p2878
ssS'create_views_quests_tests_test_add_question_view'
p2879
(dp2880
g6
(dp2881
g8
S'create_views_quests_tests_test_add_question_view.html'
p2882
sg10
S'create/views/quests/tests/test_add_question_view'
p2883
sg12
g13
(g14
g15
NtRp2884
(dp2885
g18
I1
sg19
I0
sg20
I0
sg21
I0
sg22
I0
sg23
I0
sg24
I0
sbssg25
S'\x19g\xdfM\x1a\x019\xaf\x1baIeR\xe5u\xa7'
p2886
ssS'create_models_daily_quest_copies___init__'
p2887
(dp2888
g411
(dp2889
g1509
S'create_models_daily_quest_copies___init__.html'
p2890
sg1511
S'create/models/daily_quest_copies/__init__'
p2891
sg1513
g13
(g14
g15
NtRp2892
(dp2893
g18
I1
sg19
I0
sg20
I1
sg21
I0
sg22
I0
sg23
I0
sg24
I0
sbssg420
S'\xee\xef\xb8!Z;\x9e_\xb5g4\xe9\xac@l\xe6'
p2894
ssS'create_models_books_tests___init__'
p2895
(dp2896
g349
(dp2897
g774
S'create_models_books_tests___init__.html'
p2898
sg776
S'create/models/books/tests/__init__'
p2899
sg778
g13
(g14
g15
NtRp2900
(dp2901
g18
I1
sg19
I0
sg20
I0
sg21
I0
sg22
I0
sg23
I0
sg24
I0
sbssg355
S'\x19g\xdfM\x1a\x019\xaf\x1baIeR\xe5u\xa7'
p2902
ssS'privilege_models_privileges___init__'
p2903
(dp2904
g287
(dp2905
g93
S'privilege_models_privileges___init__.html'
p2906
sg95
S'privilege/models/privileges/__init__'
p2907
sg97
g13
(g14
g15
NtRp2908
(dp2909
g18
I1
sg19
I0
sg20
I2
sg21
I0
sg22
I0
sg23
I0
sg24
I0
sbssg293
S'\x14\x97Z\xa7<\xbd\xe6Z\xa0jIA\xc0I\xfd"'
p2910
ssS'user_system_managers_streak_manager'
p2911
(dp2912
g297
(dp2913
g188
S'user_system_managers_streak_manager.html'
p2914
sg190
S'user_system/managers/streak_manager'
p2915
sg192
g13
(g14
g15
NtRp2916
(dp2917
g18
I1
sg19
I26
sg20
I63
sg21
I0
sg22
I2
sg23
I45
sg24
I24
sbssg303
S')\xc1\x80"\xfe<\x83\xd0\xef\xad}\xa7J\xe6\x87K'
p2918
ssS'learn_views_student_news_feed_student_news_feed_view'
p2919
(dp2920
g297
(dp2921
g177
S'learn_views_student_news_feed_student_news_feed_view.html'
p2922
sg179
S'learn/views/student_news_feed/student_news_feed_view'
p2923
sg181
g13
(g14
g15
NtRp2924
(dp2925
g18
I1
sg19
I10
sg20
I38
sg21
I0
sg22
I0
sg23
I22
sg24
I10
sbssg303
S'\x92\x80%\x91\x88\x85wF\xb9\\0B\xe5\xb6\x820'
p2926
ssS'user_system_models_schools_tests_test_academic_year_model'
p2927
(dp2928
g206
(dp2929
g1426
S'user_system_models_schools_tests_test_academic_year_model.html'
p2930
sg1428
S'user_system/models/schools/tests/test_academic_year_model'
p2931
sg1430
g13
(g14
g15
NtRp2932
(dp2933
g18
I1
sg19
I0
sg20
I28
sg21
I0
sg22
I0
sg23
I0
sg24
I0
sbssg215
S'{=\xee\xbc8\xbd\xa7\xdd\x0f!3\xf8\xf0os\xe2'
p2934
ssS'learn_serializers_daily_quests_daily_quest_question_history_serializer'
p2935
(dp2936
g297
(dp2937
g177
S'learn_serializers_daily_quests_daily_quest_question_history_serializer.html'
p2938
sg179
S'learn/serializers/daily_quests/daily_quest_question_history_serializer'
p2939
sg181
g13
(g14
g15
NtRp2940
(dp2941
g18
I1
sg19
I0
sg20
I8
sg21
I0
sg22
I0
sg23
I0
sg24
I0
sbssg303
S'q$\xc8~\x9a\xbb\x03\x1a\x12[aG\x9a\x87\xc6\x0c'
p2942
ssS'api_logging_serializers_modal_loggings___init__'
p2943
(dp2944
g297
(dp2945
g177
S'api_logging_serializers_modal_loggings___init__.html'
p2946
sg179
S'api_logging/serializers/modal_loggings/__init__'
p2947
sg181
g13
(g14
g15
NtRp2948
(dp2949
g18
I1
sg19
I0
sg20
I1
sg21
I0
sg22
I0
sg23
I0
sg24
I0
sbssg303
S'\xff)\x01pU0i\x848\xea\xfc\x08\x0b\x0bS\xa4'
p2950
ssS'user_system_models_schools_grade_model'
p2951
(dp2952
g232
(dp2953
g177
S'user_system_models_schools_grade_model.html'
p2954
sg179
S'user_system/models/schools/grade_model'
p2955
sg181
g13
(g14
g15
NtRp2956
(dp2957
g18
I1
sg19
I0
sg20
I29
sg21
I0
sg22
I0
sg23
I2
sg24
I0
sbssg238
S'\xfdv\xccR\xe0u\x91\x0f\x7f\x03\xcb\xc4y\xc19k'
p2958
ssS'user_system_serializers_schools___init__'
p2959
(dp2960
g55
(dp2961
g31
S'user_system_serializers_schools___init__.html'
p2962
sg33
S'user_system/serializers/schools/__init__'
p2963
sg35
g13
(g14
g15
NtRp2964
(dp2965
g18
I1
sg19
I0
sg20
I5
sg21
I0
sg22
I0
sg23
I0
sg24
I0
sbssg64
S'8yN\xa2\x98\xe3%\xd4\xe2\xfd\xf2@\xcc\xa7\x02\xdb'
p2966
ssS'create_serializers_questions_question_choice_serializer'
p2967
(dp2968
g42
(dp2969
g177
S'create_serializers_questions_question_choice_serializer.html'
p2970
sg179
S'create/serializers/questions/question_choice_serializer'
p2971
sg181
g13
(g14
g15
NtRp2972
(dp2973
g18
I1
sg19
I0
sg20
I10
sg21
I0
sg22
I0
sg23
I0
sg24
I0
sbssg51
S'\xe4\xc0O\xa2\x80M\x05Wf\xdeO=\xf7\xaaT\x95'
p2974
ssS'create_serializers_questions_question_template_serializer'
p2975
(dp2976
g103
(dp2977
g1164
S'create_serializers_questions_question_template_serializer.html'
p2978
sg1166
S'create/serializers/questions/question_template_serializer'
p2979
sg1168
g13
(g14
g15
NtRp2980
(dp2981
g18
I1
sg19
I0
sg20
I43
sg21
I0
sg22
I0
sg23
I9
sg24
I0
sbssg112
S'\x1a\x149\xdb\xb8\xc7\xfc\xb6\xbc\x8b\xfe\x8e~N\xb9J'
p2982
ssS'teach_views_summaries_top_answered_questions_summary_view'
p2983
(dp2984
g297
(dp2985
g188
S'teach_views_summaries_top_answered_questions_summary_view.html'
p2986
sg190
S'teach/views/summaries/top_answered_questions_summary_view'
p2987
sg192
g13
(g14
g15
NtRp2988
(dp2989
g18
I1
sg19
I34
sg20
I77
sg21
I0
sg22
I0
sg23
I54
sg24
I34
sbssg303
S'C\xff\\\x81\xb8&\xb6\x00?\xf9g\xbeJ9\xa5\xd4'
p2990
ssS'user_system_models_apps___init__'
p2991
(dp2992
g42
(dp2993
g446
S'user_system_models_apps___init__.html'
p2994
sg448
S'user_system/models/apps/__init__'
p2995
sg450
g13
(g14
g15
NtRp2996
(dp2997
g18
I1
sg19
I0
sg20
I1
sg21
I0
sg22
I0
sg23
I0
sg24
I0
sbssg51
S'\n\xe9\xce\x15)\x8d\xc6\xdd\xe0\x9b\x990[\xae\x8cl'
p2998
ssS'create_views_books_book_view'
p2999
(dp3000
g349
(dp3001
g8
S'create_views_books_book_view.html'
p3002
sg10
S'create/views/books/book_view'
p3003
sg12
g13
(g14
g15
NtRp3004
(dp3005
g18
I1
sg19
I34
sg20
I124
sg21
I0
sg22
I3
sg23
I8
sg24
I5
sbssg355
S'%\x96\xb2\x15\x98\xef\x0fL\xc0&\xf9\x18\x91-\xb28'
p3006
ssS'create_models_quests___init__'
p3007
(dp3008
g103
(dp3009
g616
S'create_models_quests___init__.html'
p3010
sg618
S'create/models/quests/__init__'
p3011
sg620
g13
(g14
g15
NtRp3012
(dp3013
g18
I1
sg19
I0
sg20
I2
sg21
I0
sg22
I0
sg23
I0
sg24
I0
sbssg112
S'\x1e\x87\x83\xe2\x04\x1d\xcd:`\x99V\x85#\xca\x12^'
p3014
ssS'privilege_serializers_privileges_privilege_serializer'
p3015
(dp3016
g287
(dp3017
g93
S'privilege_serializers_privileges_privilege_serializer.html'
p3018
sg95
S'privilege/serializers/privileges/privilege_serializer'
p3019
sg97
g13
(g14
g15
NtRp3020
(dp3021
g18
I1
sg19
I0
sg20
I7
sg21
I0
sg22
I0
sg23
I0
sg24
I0
sbssg293
S'?v\x87\xf3\x00\x8cw`\xd8\x0b\xeb\x98\x18\xbd\x1dR'
p3022
ssS'user_system_views_signups_hardcoded_tests_test_test_account_view'
p3023
(dp3024
g42
(dp3025
g44
S'user_system_views_signups_hardcoded_tests_test_test_account_view.html'
p3026
sg46
S'user_system/views/signups/hardcoded/tests/test_test_account_view'
p3027
sg48
g13
(g14
g15
NtRp3028
(dp3029
g18
I1
sg19
I0
sg20
I24
sg21
I0
sg22
I0
sg23
I0
sg24
I0
sbssg51
S'@\xc3::\xf8h\x1aT\x9f\x83\xee1\xb7\x9a\xe0\xf9'
p3030
ssS'create_models_tags_concept_model'
p3031
(dp3032
g383
(dp3033
g44
S'create_models_tags_concept_model.html'
p3034
sg46
S'create/models/tags/concept_model'
p3035
sg48
g13
(g14
g15
NtRp3036
(dp3037
g18
I1
sg19
I0
sg20
I10
sg21
I0
sg22
I0
sg23
I0
sg24
I0
sbssg389
S'@vb\xbd\xcay\xb1b\x9e\xaf\xc0v/\xd6\x13\xd3'
p3038
ssS'create_models_tags_tests___init__'
p3039
(dp3040
g383
(dp3041
S'html_filename'
p3042
S'create_models_tags_tests___init__.html'
p3043
sS'name'
p3044
S'create/models/tags/tests/__init__'
p3045
sS'nums'
p3046
g13
(g14
g15
NtRp3047
(dp3048
g18
I1
sg19
I0
sg20
I1
sg21
I0
sg22
I0
sg23
I0
sg24
I0
sbssg389
S'\xbc\xd6\xeb\xb3\xba\xcaz\xf7{\xd4B\xb5}l\xdf\x96'
p3049
ssS'create_serializers_books_book_subchapter_serializer'
p3050
(dp3051
g349
(dp3052
g1164
S'create_serializers_books_book_subchapter_serializer.html'
p3053
sg1166
S'create/serializers/books/book_subchapter_serializer'
p3054
sg1168
g13
(g14
g15
NtRp3055
(dp3056
g18
I1
sg19
I0
sg20
I18
sg21
I0
sg22
I0
sg23
I3
sg24
I0
sbssg355
S'89\x89\x89\xd8\x94\xd2l\x98G]\xad\xe1\xf7\x93\xfc'
p3057
ssS'user_system_views_signups_verify_email_view'
p3058
(dp3059
g42
(dp3060
g44
S'user_system_views_signups_verify_email_view.html'
p3061
sg46
S'user_system/views/signups/verify_email_view'
p3062
sg48
g13
(g14
g15
NtRp3063
(dp3064
g18
I1
sg19
I6
sg20
I26
sg21
I0
sg22
I0
sg23
I0
sg24
I0
sbssg51
S"B+;\xbf\xb1A\x1f\n\x94\x0e\xeb\xd0\xf1Y'l"
p3065
ssS'user_system_models_schools_semester_model'
p3066
(dp3067
g206
(dp3068
g1426
S'user_system_models_schools_semester_model.html'
p3069
sg1428
S'user_system/models/schools/semester_model'
p3070
sg1430
g13
(g14
g15
NtRp3071
(dp3072
g18
I1
sg19
I0
sg20
I23
sg21
I0
sg22
I0
sg23
I0
sg24
I0
sbssg215
S'\x9f&7d<%\x13 \xcaht\xc4\xd4N\xee&'
p3073
ssS'create_views_daily_quest_copies_daily_quest_copy_view'
p3074
(dp3075
g411
(dp3076
g1509
S'create_views_daily_quest_copies_daily_quest_copy_view.html'
p3077
sg1511
S'create/views/daily_quest_copies/daily_quest_copy_view'
p3078
sg1513
g13
(g14
g15
NtRp3079
(dp3080
g18
I1
sg19
I0
sg20
I14
sg21
I0
sg22
I0
sg23
I0
sg24
I0
sbssg420
S'?\x95&\\\xae\xf0@\xfc\x96\xc15\xc9\x13\xf6_R'
p3081
ssS'flipped_helpers_parameters_helper'
p3082
(dp3083
g42
(dp3084
g31
S'flipped_helpers_parameters_helper.html'
p3085
sg33
S'flipped/helpers/parameters_helper'
p3086
sg35
g13
(g14
g15
NtRp3087
(dp3088
g18
I1
sg19
I14
sg20
I22
sg21
I0
sg22
I1
sg23
I4
sg24
I3
sbssg51
S'v\xe1\xf5\xb3r\x1f\xae\xee\x872U\xa1I\xf8\xef\x00'
p3089
ssS'user_system_models___init__'
p3090
(dp3091
g42
(dp3092
g2799
S'user_system_models___init__.html'
p3093
sg2801
S'user_system/models/__init__'
p3094
sg2803
g13
(g14
g15
NtRp3095
(dp3096
g18
I1
sg19
I0
sg20
I4
sg21
I0
sg22
I0
sg23
I0
sg24
I0
sbssg51
S"\xe9'\xed1xn\xd7\xe4\x91\x8ei\xc0\x0f\x1b\x9eY"
p3097
ssS'create_models_questions_tests_test_question_model'
p3098
(dp3099
g42
(dp3100
g1199
S'create_models_questions_tests_test_question_model.html'
p3101
sg1201
S'create/models/questions/tests/test_question_model'
p3102
sg1203
g13
(g14
g15
NtRp3103
(dp3104
g18
I1
sg19
I8
sg20
I58
sg21
I0
sg22
I0
sg23
I0
sg24
I0
sbssg51
S'l\x9e\xee!<,L\xbf\xa0\xe6\r\xd7W\xc9tu'
p3105
ssS'user_system_models_users_tests_test_user_profile_history_model'
p3106
(dp3107
g116
(dp3108
g31
S'user_system_models_users_tests_test_user_profile_history_model.html'
p3109
sg33
S'user_system/models/users/tests/test_user_profile_history_model'
p3110
sg35
g13
(g14
g15
NtRp3111
(dp3112
g18
I1
sg19
I0
sg20
I54
sg21
I0
sg22
I0
sg23
I0
sg24
I0
sbssg122
S'<IT\xa7\x05\xe0ML\xb0gu{\xd2>\xc8$'
p3113
ssS'learn_views___init__'
p3114
(dp3115
g55
(dp3116
g177
S'learn_views___init__.html'
p3117
sg179
S'learn/views/__init__'
p3118
sg181
g13
(g14
g15
NtRp3119
(dp3120
g18
I1
sg19
I0
sg20
I2
sg21
I0
sg22
I0
sg23
I0
sg24
I0
sbssg64
S"?\xc0'\xcb\x1c\xf1\xaa\xf0\x9d\xc7\x0e\xf1\xda\x0eU\x17"
p3121
ssS'create_serializers_questions___init__'
p3122
(dp3123
g42
(dp3124
g177
S'create_serializers_questions___init__.html'
p3125
sg179
S'create/serializers/questions/__init__'
p3126
sg181
g13
(g14
g15
NtRp3127
(dp3128
g18
I1
sg19
I0
sg20
I5
sg21
I0
sg22
I0
sg23
I0
sg24
I0
sbssg51
S'\xe6(4O\xf6\xd4\xe4\x154\xe9\xa1;\x0cD\x90\t'
p3129
ssS'user_system_views_signups_hardcoded_tests___init__'
p3130
(dp3131
g42
(dp3132
g446
S'user_system_views_signups_hardcoded_tests___init__.html'
p3133
sg448
S'user_system/views/signups/hardcoded/tests/__init__'
p3134
sg450
g13
(g14
g15
NtRp3135
(dp3136
g18
I1
sg19
I0
sg20
I0
sg21
I0
sg22
I0
sg23
I0
sg24
I0
sbssg51
S'\x19g\xdfM\x1a\x019\xaf\x1baIeR\xe5u\xa7'
p3137
ssS'create_serializers_questions_question_serializer'
p3138
(dp3139
g42
(dp3140
g93
S'create_serializers_questions_question_serializer.html'
p3141
sg95
S'create/serializers/questions/question_serializer'
p3142
sg97
g13
(g14
g15
NtRp3143
(dp3144
g18
I1
sg19
I0
sg20
I59
sg21
I0
sg22
I0
sg23
I11
sg24
I0
sbssg51
S'\xd6f\xc4\xe6\x97\xe4~\xa4n\xcc+|\xcc\xdayh'
p3145
ssS'user_system_views___init__'
p3146
(dp3147
g42
(dp3148
g31
S'user_system_views___init__.html'
p3149
sg33
S'user_system/views/__init__'
p3150
sg35
g13
(g14
g15
NtRp3151
(dp3152
g18
I1
sg19
I0
sg20
I5
sg21
I0
sg22
I0
sg23
I0
sg24
I0
sbssg51
S'&v35\x98Nv\xc2>un\xb1\x9a\x93\xd2\xea'
p3153
ssS'user_system_views_users_user_profile_update_request_view'
p3154
(dp3155
g116
(dp3156
g878
S'user_system_views_users_user_profile_update_request_view.html'
p3157
sg880
S'user_system/views/users/user_profile_update_request_view'
p3158
sg882
g13
(g14
g15
NtRp3159
(dp3160
g18
I1
sg19
I24
sg20
I70
sg21
I0
sg22
I0
sg23
I51
sg24
I24
sbssg122
S"\x04\xfd\x81?\x1e<^\xb0%\xad\xa6'\xcf\xa1\xc3)"
p3161
ssS'teach_admin'
p3162
(dp3163
g55
(dp3164
g177
S'teach_admin.html'
p3165
sg179
S'teach/admin'
p3166
sg181
g13
(g14
g15
NtRp3167
(dp3168
g18
I1
sg19
I0
sg20
I6
sg21
I0
sg22
I0
sg23
I0
sg24
I0
sbssg64
S'\xa5$\xa3\xb8$\xe4Z\x9b\xcbO\x9f\xc1\x02b\x95N'
p3169
ssS'user_system_views_roles_user_role_view'
p3170
(dp3171
g42
(dp3172
g44
S'user_system_views_roles_user_role_view.html'
p3173
sg46
S'user_system/views/roles/user_role_view'
p3174
sg48
g13
(g14
g15
NtRp3175
(dp3176
g18
I1
sg19
I8
sg20
I31
sg21
I0
sg22
I0
sg23
I0
sg24
I0
sbssg51
S'S@\xea\xb7\xd6\xe1\x1b\x1dU\x18a\x9d\x80\xe3A\xb9'
p3177
ssS'create_models_questions_tests_test_question_history_remark_model'
p3178
(dp3179
g586
(dp3180
g588
S'create_models_questions_tests_test_question_history_remark_model.html'
p3181
sg590
S'create/models/questions/tests/test_question_history_remark_model'
p3182
sg592
g13
(g14
g15
NtRp3183
(dp3184
g18
I1
sg19
I0
sg20
I30
sg21
I0
sg22
I0
sg23
I0
sg24
I0
sbssg595
S'K>pG_\xbd\x15\x8b\xd8\x05\xd4\x15\xb3\x9b\xcaP'
p3185
ssS'api_logging_serializers___init__'
p3186
(dp3187
g297
(dp3188
g177
S'api_logging_serializers___init__.html'
p3189
sg179
S'api_logging/serializers/__init__'
p3190
sg181
g13
(g14
g15
NtRp3191
(dp3192
g18
I1
sg19
I0
sg20
I2
sg21
I0
sg22
I0
sg23
I0
sg24
I0
sbssg303
S'\x02\xac\xc4\x02\x172\x90\xf3=\xcb\x89>\x99\xbc\x19\xd9'
p3193
ssS'user_system_models_users_tests_test_user_facebook_model'
p3194
(dp3195
g42
(dp3196
g44
S'user_system_models_users_tests_test_user_facebook_model.html'
p3197
sg46
S'user_system/models/users/tests/test_user_facebook_model'
p3198
sg48
g13
(g14
g15
NtRp3199
(dp3200
g18
I1
sg19
I0
sg20
I29
sg21
I0
sg22
I0
sg23
I0
sg24
I0
sbssg51
S'B\xac\x06Z\x1f7\xba2\x81\xd7\xb4\x17\xaf\x84u+'
p3201
ssS'user_system_models_users_user_credentials_model'
p3202
(dp3203
S'index'
p3204
(dp3205
g2047
S'user_system_models_users_user_credentials_model.html'
p3206
sg2049
S'user_system/models/users/user_credentials_model'
p3207
sg2051
g13
(g14
g15
NtRp3208
(dp3209
g18
I1
sg19
I0
sg20
I7
sg21
I0
sg22
I0
sg23
I0
sg24
I0
sbssS'hash'
p3210
S'g\x10U/\x1f\x83\x0bO\x95o\x9c9\xefV\x81\x8e'
p3211
ssS'create_serializers_books___init__'
p3212
(dp3213
g349
(dp3214
g774
S'create_serializers_books___init__.html'
p3215
sg776
S'create/serializers/books/__init__'
p3216
sg778
g13
(g14
g15
NtRp3217
(dp3218
g18
I1
sg19
I0
sg20
I0
sg21
I0
sg22
I0
sg23
I0
sg24
I0
sbssg355
S'\x19g\xdfM\x1a\x019\xaf\x1baIeR\xe5u\xa7'
p3219
ssS'create_models_questions_tests_test_question_template_model'
p3220
(dp3221
g103
(dp3222
g990
S'create_models_questions_tests_test_question_template_model.html'
p3223
sg992
S'create/models/questions/tests/test_question_template_model'
p3224
sg994
g13
(g14
g15
NtRp3225
(dp3226
g18
I1
sg19
I8
sg20
I74
sg21
I0
sg22
I0
sg23
I0
sg24
I0
sbssg112
S"~\xca\x9c'\x89\x11\x82V\xb3v\x0c4]\x9c\xce4"
p3227
ssS'create_views_quests_tests_test_add_question_template_view'
p3228
(dp3229
g6
(dp3230
g8
S'create_views_quests_tests_test_add_question_template_view.html'
p3231
sg10
S'create/views/quests/tests/test_add_question_template_view'
p3232
sg12
g13
(g14
g15
NtRp3233
(dp3234
g18
I1
sg19
I0
sg20
I0
sg21
I0
sg22
I0
sg23
I0
sg24
I0
sbssg25
S'\x19g\xdfM\x1a\x019\xaf\x1baIeR\xe5u\xa7'
p3235
ssS'learn_models_points_tests___init__'
p3236
(dp3237
g297
(dp3238
g177
S'learn_models_points_tests___init__.html'
p3239
sg179
S'learn/models/points/tests/__init__'
p3240
sg181
g13
(g14
g15
NtRp3241
(dp3242
g18
I1
sg19
I0
sg20
I1
sg21
I0
sg22
I0
sg23
I0
sg24
I0
sbssg303
S'\xbc\xd6\xeb\xb3\xba\xcaz\xf7{\xd4B\xb5}l\xdf\x96'
p3243
ssS'create_views_tags_tests_test_hide_tag_view'
p3244
(dp3245
g424
(dp3246
g44
S'create_views_tags_tests_test_hide_tag_view.html'
p3247
sg46
S'create/views/tags/tests/test_hide_tag_view'
p3248
sg48
g13
(g14
g15
NtRp3249
(dp3250
g18
I1
sg19
I0
sg20
I25
sg21
I0
sg22
I0
sg23
I0
sg24
I0
sbssg433
S'\x8a\x07\xe0\xe1Q\x820\x05R\x14E\xd0\xdf\x8e\xc5\x8a'
p3251
ssS'learn_views_daily_quests___init__'
p3252
(dp3253
g55
(dp3254
g57
S'learn_views_daily_quests___init__.html'
p3255
sg59
S'learn/views/daily_quests/__init__'
p3256
sg61
g13
(g14
g15
NtRp3257
(dp3258
g18
I1
sg19
I0
sg20
I1
sg21
I0
sg22
I0
sg23
I0
sg24
I0
sbssg64
S'\xa3\x08\xf3\xbaF\xd5u\x88\x12\xa3V\x05K\xe5\xd0\xa9'
p3259
ssS'create_views_books_tests___init__'
p3260
(dp3261
g936
(dp3262
S'html_filename'
p3263
S'create_views_books_tests___init__.html'
p3264
sS'name'
p3265
S'create/views/books/tests/__init__'
p3266
sS'nums'
p3267
g13
(g14
g15
NtRp3268
(dp3269
g18
I1
sg19
I0
sg20
I0
sg21
I0
sg22
I0
sg23
I0
sg24
I0
sbssg942
S'\x19g\xdfM\x1a\x019\xaf\x1baIeR\xe5u\xa7'
p3270
ssS'user_system_models_users_tests_test_user_streak_history_model'
p3271
(dp3272
S'index'
p3273
(dp3274
g1234
S'user_system_models_users_tests_test_user_streak_history_model.html'
p3275
sg1236
S'user_system/models/users/tests/test_user_streak_history_model'
p3276
sg1238
g13
(g14
g15
NtRp3277
(dp3278
g18
I1
sg19
I0
sg20
I19
sg21
I0
sg22
I0
sg23
I0
sg24
I0
sbssS'hash'
p3279
S'\xc7I1\x11\xc9\xbf7\xee\x1c\x16@\x10JP\xaf\xfc'
p3280
sssS'version'
p3281
S'3.7.1'
p3282
sS'settings'
p3283
S'\x961E{\x0c29\xd1#\x83\xd3j9"\xd8\x10'
p3284
sS'format'
p3285
I1
s.