(dp1
S'files'
p2
(dp3
S'create_models_questions_tests_test_question_type_model'
p4
(dp5
S'index'
p6
(dp7
S'html_filename'
p8
S'create_models_questions_tests_test_question_type_model.html'
p9
sS'name'
p10
S'create/models/questions/tests/test_question_type_model'
p11
sS'nums'
p12
ccopy_reg
_reconstructor
p13
(ccoverage.results
Numbers
p14
c__builtin__
object
p15
NtRp16
(dp17
S'n_files'
p18
I1
sS'n_branches'
p19
I0
sS'n_statements'
p20
I17
sS'n_excluded'
p21
I0
sS'n_partial_branches'
p22
I0
sS'n_missing'
p23
I0
sS'n_missing_branches'
p24
I0
sbssS'hash'
p25
S'e\x1b\x19\xbb)\x89\xff\xfa\xe5\xca\xde\x08\x08CUL'
p26
ssS'create_models_books_book_history_model'
p27
(dp28
S'index'
p29
(dp30
S'html_filename'
p31
S'create_models_books_book_history_model.html'
p32
sS'name'
p33
S'create/models/books/book_history_model'
p34
sS'nums'
p35
g13
(g14
g15
NtRp36
(dp37
g18
I1
sg19
I4
sg20
I43
sg21
I0
sg22
I1
sg23
I0
sg24
I1
sbssS'hash'
p38
S'\xd71\x9e\xd0\x9bqR\xb9(!\x9f2\x10O|\xeb'
p39
ssS'create_models_tags_skill_model'
p40
(dp41
S'index'
p42
(dp43
g8
S'create_models_tags_skill_model.html'
p44
sg10
S'create/models/tags/skill_model'
p45
sg12
g13
(g14
g15
NtRp46
(dp47
g18
I1
sg19
I0
sg20
I10
sg21
I0
sg22
I0
sg23
I0
sg24
I0
sbssS'hash'
p48
S'B&\x06S\xb6\x85A\xdbx\xd4\xc7#]\x13\xe1\xca'
p49
ssS'user_system_models_users_teacher_profile_model'
p50
(dp51
S'index'
p52
(dp53
S'html_filename'
p54
S'user_system_models_users_teacher_profile_model.html'
p55
sS'name'
p56
S'user_system/models/users/teacher_profile_model'
p57
sS'nums'
p58
g13
(g14
g15
NtRp59
(dp60
g18
I1
sg19
I0
sg20
I25
sg21
I0
sg22
I0
sg23
I0
sg24
I0
sbssS'hash'
p61
S'\x10\x8fu\xd5\xd9SY5\x18\xe1\x1e\x9a\xb1\x15|J'
p62
ssS'create_models_books_book_model'
p63
(dp64
g29
(dp65
g31
S'create_models_books_book_model.html'
p66
sg33
S'create/models/books/book_model'
p67
sg35
g13
(g14
g15
NtRp68
(dp69
g18
I1
sg19
I4
sg20
I37
sg21
I0
sg22
I1
sg23
I7
sg24
I3
sbssg38
S'\x16Ws\xa8\xe0\xfdTjh\xe4]\xc2\xb7\xces\xac'
p70
ssS'user_system_views_signups_facebook_signup_view'
p71
(dp72
g6
(dp73
g8
S'user_system_views_signups_facebook_signup_view.html'
p74
sg10
S'user_system/views/signups/facebook_signup_view'
p75
sg12
g13
(g14
g15
NtRp76
(dp77
g18
I1
sg19
I8
sg20
I38
sg21
I0
sg22
I0
sg23
I0
sg24
I0
sbssg25
S'\x04E\'\x17r8\x14\xf6 \x98\xb5\xa0sx"@'
p78
ssS'user_system_views_logins_tests_test_email_login_view'
p79
(dp80
g6
(dp81
g8
S'user_system_views_logins_tests_test_email_login_view.html'
p82
sg10
S'user_system/views/logins/tests/test_email_login_view'
p83
sg12
g13
(g14
g15
NtRp84
(dp85
g18
I1
sg19
I0
sg20
I61
sg21
I0
sg22
I0
sg23
I0
sg24
I0
sbssg25
S'\x926\xe8\xcdL\xf3U\xc1C\x1b\x0f\xaf\xf0c\x9b\xd0'
p86
ssS'create_views_books_book_chapter_view'
p87
(dp88
S'index'
p89
(dp90
S'html_filename'
p91
S'create_views_books_book_chapter_view.html'
p92
sS'name'
p93
S'create/views/books/book_chapter_view'
p94
sS'nums'
p95
g13
(g14
g15
NtRp96
(dp97
g18
I1
sg19
I6
sg20
I23
sg21
I0
sg22
I0
sg23
I6
sg24
I6
sbssS'hash'
p98
S':a\xbd\x94\x7f\x15KDQ8BiX]\x14\x98'
p99
ssS'api_logging___init__'
p100
(dp101
g89
(dp102
S'html_filename'
p103
S'api_logging___init__.html'
p104
sS'name'
p105
S'api_logging/__init__'
p106
sS'nums'
p107
g13
(g14
g15
NtRp108
(dp109
g18
I1
sg19
I0
sg20
I0
sg21
I0
sg22
I0
sg23
I0
sg24
I0
sbssg98
S'\x19g\xdfM\x1a\x019\xaf\x1baIeR\xe5u\xa7'
p110
ssS'user_system_models_users_user_facebook_model'
p111
(dp112
g6
(dp113
g8
S'user_system_models_users_user_facebook_model.html'
p114
sg10
S'user_system/models/users/user_facebook_model'
p115
sg12
g13
(g14
g15
NtRp116
(dp117
g18
I1
sg19
I0
sg20
I22
sg21
I0
sg22
I0
sg23
I0
sg24
I0
sbssg25
S'!d\xff\xbcl0O(`\x1b1\xf7\xb3*{X'
p118
ssS'create_models_books___init__'
p119
(dp120
g29
(dp121
S'html_filename'
p122
S'create_models_books___init__.html'
p123
sS'name'
p124
S'create/models/books/__init__'
p125
sS'nums'
p126
g13
(g14
g15
NtRp127
(dp128
g18
I1
sg19
I0
sg20
I4
sg21
I0
sg22
I0
sg23
I0
sg24
I0
sbssg38
S'\xba\x14\x87u\xc0\x80\x96\x82s\x8d\x8bU)\x1c\xc3\x91'
p129
ssS'create_views___init__'
p130
(dp131
g6
(dp132
S'html_filename'
p133
S'create_views___init__.html'
p134
sS'name'
p135
S'create/views/__init__'
p136
sS'nums'
p137
g13
(g14
g15
NtRp138
(dp139
g18
I1
sg19
I0
sg20
I8
sg21
I0
sg22
I0
sg23
I0
sg24
I0
sbssg25
S'\xcb\xb0#\x1e\xf9#\xda\xb4`\xa9\xf6\xd8\x8a\x1c\xdc\x8c'
p140
ssS'flipped_helpers___init__'
p141
(dp142
g6
(dp143
S'html_filename'
p144
S'flipped_helpers___init__.html'
p145
sS'name'
p146
S'flipped/helpers/__init__'
p147
sS'nums'
p148
g13
(g14
g15
NtRp149
(dp150
g18
I1
sg19
I0
sg20
I4
sg21
I0
sg22
I0
sg23
I0
sg24
I0
sbssg25
S'HO\x93.\xb7\xdex\x8e\xfd\xac\x8b\x1d\xdb\xadO\x00'
p151
ssS'create_models_quests_tests_test_quest_model'
p152
(dp153
S'index'
p154
(dp155
S'html_filename'
p156
S'create_models_quests_tests_test_quest_model.html'
p157
sS'name'
p158
S'create/models/quests/tests/test_quest_model'
p159
sS'nums'
p160
g13
(g14
g15
NtRp161
(dp162
g18
I1
sg19
I0
sg20
I35
sg21
I0
sg22
I0
sg23
I0
sg24
I0
sbssS'hash'
p163
S'\x01H\x0c6Rg\x8ciu_\nQ(\xe08\xe1'
p164
ssS'create_models_question_datasets___init__'
p165
(dp166
S'index'
p167
(dp168
g133
S'create_models_question_datasets___init__.html'
p169
sg135
S'create/models/question_datasets/__init__'
p170
sg137
g13
(g14
g15
NtRp171
(dp172
g18
I1
sg19
I0
sg20
I1
sg21
I0
sg22
I0
sg23
I0
sg24
I0
sbssS'hash'
p173
S'\xeb\xb7>&t\x02-\xeaaJ,\x8a\xae\xc3\x1a]'
p174
ssS'flipped_helpers_errors_helper'
p175
(dp176
g6
(dp177
g8
S'flipped_helpers_errors_helper.html'
p178
sg10
S'flipped/helpers/errors_helper'
p179
sg12
g13
(g14
g15
NtRp180
(dp181
g18
I1
sg19
I0
sg20
I5
sg21
I0
sg22
I0
sg23
I0
sg24
I0
sbssg25
S'\x91\x04\x1c\xf86c\xad\xf7\xe3\xf13\xf5n8eP'
p182
ssS'user_system_views_roles_tests___init__'
p183
(dp184
g6
(dp185
g144
S'user_system_views_roles_tests___init__.html'
p186
sg146
S'user_system/views/roles/tests/__init__'
p187
sg148
g13
(g14
g15
NtRp188
(dp189
g18
I1
sg19
I0
sg20
I0
sg21
I0
sg22
I0
sg23
I0
sg24
I0
sbssg25
S'\x19g\xdfM\x1a\x019\xaf\x1baIeR\xe5u\xa7'
p190
ssS'create_models_questions_tests_test_question_history_model'
p191
(dp192
g6
(dp193
S'html_filename'
p194
S'create_models_questions_tests_test_question_history_model.html'
p195
sS'name'
p196
S'create/models/questions/tests/test_question_history_model'
p197
sS'nums'
p198
g13
(g14
g15
NtRp199
(dp200
g18
I1
sg19
I4
sg20
I65
sg21
I0
sg22
I0
sg23
I0
sg24
I0
sbssg25
S'\xac\x05\xb1n\x84\xf7\xde\x07\xcc\x9a\xcc\xb4\x95\x82y\xc6'
p201
ssS'user_system_views_logins_facebook_login_view'
p202
(dp203
g6
(dp204
g8
S'user_system_views_logins_facebook_login_view.html'
p205
sg10
S'user_system/views/logins/facebook_login_view'
p206
sg12
g13
(g14
g15
NtRp207
(dp208
g18
I1
sg19
I4
sg20
I24
sg21
I0
sg22
I0
sg23
I0
sg24
I0
sbssg25
S',\xf8~\x8d\x9b\xfe\xa6wQ5\x92t\x15\xe5\x95\x8d'
p209
ssS'user_system_models_apps_app_model'
p210
(dp211
g6
(dp212
g8
S'user_system_models_apps_app_model.html'
p213
sg10
S'user_system/models/apps/app_model'
p214
sg12
g13
(g14
g15
NtRp215
(dp216
g18
I1
sg19
I0
sg20
I16
sg21
I0
sg22
I0
sg23
I0
sg24
I0
sbssg25
S',\x89\x9d;<\xa3\xdc\x92@\xa5\x9c\x7fcg\x05?'
p217
ssS'user_system_views_users_tests___init__'
p218
(dp219
g6
(dp220
g144
S'user_system_views_users_tests___init__.html'
p221
sg146
S'user_system/views/users/tests/__init__'
p222
sg148
g13
(g14
g15
NtRp223
(dp224
g18
I1
sg19
I0
sg20
I0
sg21
I0
sg22
I0
sg23
I0
sg24
I0
sbssg25
S'\x19g\xdfM\x1a\x019\xaf\x1baIeR\xe5u\xa7'
p225
ssS'create_models_tags_tests_test_skill_model'
p226
(dp227
g42
(dp228
g8
S'create_models_tags_tests_test_skill_model.html'
p229
sg10
S'create/models/tags/tests/test_skill_model'
p230
sg12
g13
(g14
g15
NtRp231
(dp232
g18
I1
sg19
I0
sg20
I12
sg21
I0
sg22
I0
sg23
I0
sg24
I0
sbssg48
S'\x08\x9e\x87e#\x02\x06O\x02l!\x0e\xe8\xeb\xc0.'
p233
ssS'create_models_books_tests_test_book_subchapter_model'
p234
(dp235
g29
(dp236
S'html_filename'
p237
S'create_models_books_tests_test_book_subchapter_model.html'
p238
sS'name'
p239
S'create/models/books/tests/test_book_subchapter_model'
p240
sS'nums'
p241
g13
(g14
g15
NtRp242
(dp243
g18
I1
sg19
I0
sg20
I42
sg21
I0
sg22
I0
sg23
I0
sg24
I0
sbssg38
S'\xe3*\xba\x94d#\xcd\t\xc9\xb8\x05w\nz\xb8\xc0'
p244
ssS'create_views_questions_tests___init__'
p245
(dp246
g6
(dp247
g144
S'create_views_questions_tests___init__.html'
p248
sg146
S'create/views/questions/tests/__init__'
p249
sg148
g13
(g14
g15
NtRp250
(dp251
g18
I1
sg19
I0
sg20
I0
sg21
I0
sg22
I0
sg23
I0
sg24
I0
sbssg25
S'\x19g\xdfM\x1a\x019\xaf\x1baIeR\xe5u\xa7'
p252
ssS'create_models_daily_quest_templates_tests___init__'
p253
(dp254
S'index'
p255
(dp256
S'html_filename'
p257
S'create_models_daily_quest_templates_tests___init__.html'
p258
sS'name'
p259
S'create/models/daily_quest_templates/tests/__init__'
p260
sS'nums'
p261
g13
(g14
g15
NtRp262
(dp263
g18
I1
sg19
I0
sg20
I0
sg21
I0
sg22
I0
sg23
I0
sg24
I0
sbssS'hash'
p264
S'\x19g\xdfM\x1a\x019\xaf\x1baIeR\xe5u\xa7'
p265
ssS'create_models_tags_tag_model'
p266
(dp267
g42
(dp268
g31
S'create_models_tags_tag_model.html'
p269
sg33
S'create/models/tags/tag_model'
p270
sg35
g13
(g14
g15
NtRp271
(dp272
g18
I1
sg19
I0
sg20
I32
sg21
I0
sg22
I0
sg23
I0
sg24
I0
sbssg48
S'\x1f\xa9\xe0\xb0\x8fe\x8c\xa6$m\x03\xf4\x0c\x88\x8d\xbc'
p273
ssS'flipped___init__'
p274
(dp275
g6
(dp276
g144
S'flipped___init__.html'
p277
sg146
S'flipped/__init__'
p278
sg148
g13
(g14
g15
NtRp279
(dp280
g18
I1
sg19
I0
sg20
I0
sg21
I0
sg22
I0
sg23
I0
sg24
I0
sbssg25
S'\x19g\xdfM\x1a\x019\xaf\x1baIeR\xe5u\xa7'
p281
ssS'user_system_views_roles___init__'
p282
(dp283
g6
(dp284
g144
S'user_system_views_roles___init__.html'
p285
sg146
S'user_system/views/roles/__init__'
p286
sg148
g13
(g14
g15
NtRp287
(dp288
g18
I1
sg19
I0
sg20
I1
sg21
I0
sg22
I0
sg23
I0
sg24
I0
sbssg25
S'\xeb\x15\r\x85I\x9e<\xbc\x15\xd1P\xef\x16\x8c\xe0l'
p289
ssS'create_views_tags___init__'
p290
(dp291
S'index'
p292
(dp293
S'html_filename'
p294
S'create_views_tags___init__.html'
p295
sS'name'
p296
S'create/views/tags/__init__'
p297
sS'nums'
p298
g13
(g14
g15
NtRp299
(dp300
g18
I1
sg19
I0
sg20
I1
sg21
I0
sg22
I0
sg23
I0
sg24
I0
sbssS'hash'
p301
S'|r<\xaap\x01\xb1\xbc"\xe5\xbb\xd8\x87\xa5\xd2H'
p302
ssS'create_serializers_questions_question_history_serializer'
p303
(dp304
g6
(dp305
g31
S'create_serializers_questions_question_history_serializer.html'
p306
sg33
S'create/serializers/questions/question_history_serializer'
p307
sg35
g13
(g14
g15
NtRp308
(dp309
g18
I1
sg19
I0
sg20
I22
sg21
I0
sg22
I0
sg23
I0
sg24
I0
sbssg25
S'\xf8\x13W\xc0\x89\x17\xb1\xbdRf\xba\x9a!\x81\xa1\xe3'
p310
ssS'create_models_daily_quest_templates_tests_test_daily_quest_template_model'
p311
(dp312
g255
(dp313
g257
S'create_models_daily_quest_templates_tests_test_daily_quest_template_model.html'
p314
sg259
S'create/models/daily_quest_templates/tests/test_daily_quest_template_model'
p315
sg261
g13
(g14
g15
NtRp316
(dp317
g18
I1
sg19
I0
sg20
I37
sg21
I0
sg22
I0
sg23
I0
sg24
I0
sbssg264
S'\x01\x04)\xffw\x13\x9aqx\xb2\x9f\x02\xb0\x90\xf3\xa5'
p318
ssS'create_serializers_tags_skill_serializer'
p319
(dp320
g29
(dp321
g122
S'create_serializers_tags_skill_serializer.html'
p322
sg124
S'create/serializers/tags/skill_serializer'
p323
sg126
g13
(g14
g15
NtRp324
(dp325
g18
I1
sg19
I0
sg20
I6
sg21
I0
sg22
I0
sg23
I0
sg24
I0
sbssg38
S'\x1b\x10O\xca\xd5i\\\x06C\x00q}\xf43\xcb\xa6'
p326
ssS'create_serializers_quests_quest_history_serializer'
p327
(dp328
g154
(dp329
g31
S'create_serializers_quests_quest_history_serializer.html'
p330
sg33
S'create/serializers/quests/quest_history_serializer'
p331
sg35
g13
(g14
g15
NtRp332
(dp333
g18
I1
sg19
I0
sg20
I20
sg21
I0
sg22
I0
sg23
I6
sg24
I0
sbssg163
S'\xfcv;\xbdP\xc4\xa7l5\xb5\x04Z\xc9.\x04\x07'
p334
ssS'user_system_views_signups_hardcoded___init__'
p335
(dp336
g6
(dp337
g144
S'user_system_views_signups_hardcoded___init__.html'
p338
sg146
S'user_system/views/signups/hardcoded/__init__'
p339
sg148
g13
(g14
g15
NtRp340
(dp341
g18
I1
sg19
I0
sg20
I1
sg21
I0
sg22
I0
sg23
I0
sg24
I0
sbssg25
S'?\xfac\x0c\x91\xa4\xd6\xd4\x1d\xe4\x99\xc2[\x83\xfc\xdf'
p342
ssS'create_models_daily_quest_templates_daily_quest_template_model'
p343
(dp344
g255
(dp345
g257
S'create_models_daily_quest_templates_daily_quest_template_model.html'
p346
sg259
S'create/models/daily_quest_templates/daily_quest_template_model'
p347
sg261
g13
(g14
g15
NtRp348
(dp349
g18
I1
sg19
I0
sg20
I29
sg21
I0
sg22
I0
sg23
I0
sg24
I0
sbssg264
S'm:\xfa\nsk\x85\xa8p\x96\xc3\xca\xa1c\xb0+'
p350
ssS'create_views_books_tests_test_add_chapter_view'
p351
(dp352
S'index'
p353
(dp354
g8
S'create_views_books_tests_test_add_chapter_view.html'
p355
sg10
S'create/views/books/tests/test_add_chapter_view'
p356
sg12
g13
(g14
g15
NtRp357
(dp358
g18
I1
sg19
I0
sg20
I69
sg21
I0
sg22
I0
sg23
I0
sg24
I0
sbssS'hash'
p359
S'\xea\xcd\x81\xff\xe6p74\xe3\xab\xc2R\x1aZ#Y'
p360
ssS'create_serializers_tags_tag_type_serializer'
p361
(dp362
g29
(dp363
g122
S'create_serializers_tags_tag_type_serializer.html'
p364
sg124
S'create/serializers/tags/tag_type_serializer'
p365
sg126
g13
(g14
g15
NtRp366
(dp367
g18
I1
sg19
I0
sg20
I6
sg21
I0
sg22
I0
sg23
I0
sg24
I0
sbssg38
S'\xc3\xfd\x81\x18{\x97,\xb1\xb6\x9f\xee\xf2kZ\x1e\x02'
p368
ssS'create_serializers_question_datasets___init__'
p369
(dp370
g167
(dp371
g133
S'create_serializers_question_datasets___init__.html'
p372
sg135
S'create/serializers/question_datasets/__init__'
p373
sg137
g13
(g14
g15
NtRp374
(dp375
g18
I1
sg19
I0
sg20
I1
sg21
I0
sg22
I0
sg23
I0
sg24
I0
sbssg173
S'Z\xf8\x02Tc\xc1C;<_\x87\xc6\xc2H\xa6\xdc'
p376
ssS'create_models_books_tests_test_book_chapter_model'
p377
(dp378
g29
(dp379
g194
S'create_models_books_tests_test_book_chapter_model.html'
p380
sg196
S'create/models/books/tests/test_book_chapter_model'
p381
sg198
g13
(g14
g15
NtRp382
(dp383
g18
I1
sg19
I4
sg20
I46
sg21
I0
sg22
I0
sg23
I0
sg24
I0
sbssg38
S'\x01\xca}\x0cM\xc6\xd3\xb8\x8d\x84\x86\xb2`\x16\xd4\xf3'
p384
ssS'user_system_views_signups_tests_test_verify_email_view'
p385
(dp386
g6
(dp387
g8
S'user_system_views_signups_tests_test_verify_email_view.html'
p388
sg10
S'user_system/views/signups/tests/test_verify_email_view'
p389
sg12
g13
(g14
g15
NtRp390
(dp391
g18
I1
sg19
I0
sg20
I51
sg21
I0
sg22
I0
sg23
I0
sg24
I0
sbssg25
S'\x81\xacj\x9d\x1f\xa9o\xcc\x1e\xa3\xe59^YT\x9e'
p392
ssS'user_system_views_apps_tests_test_get_apps_list_view'
p393
(dp394
g6
(dp395
g8
S'user_system_views_apps_tests_test_get_apps_list_view.html'
p396
sg10
S'user_system/views/apps/tests/test_get_apps_list_view'
p397
sg12
g13
(g14
g15
NtRp398
(dp399
g18
I1
sg19
I0
sg20
I18
sg21
I0
sg22
I0
sg23
I0
sg24
I0
sbssg25
S'\x87\xab;"\x01p\xf9\xe5\xa6\xb1\xaej\x8egl\x99'
p400
ssS'create_views_books___init__'
p401
(dp402
g29
(dp403
S'html_filename'
p404
S'create_views_books___init__.html'
p405
sS'name'
p406
S'create/views/books/__init__'
p407
sS'nums'
p408
g13
(g14
g15
NtRp409
(dp410
g18
I1
sg19
I0
sg20
I3
sg21
I0
sg22
I0
sg23
I0
sg24
I0
sbssg38
S'\xce\x13\xc8S|wF\xe3\x148\xa0?ez,\xc4'
p411
ssS'user_system_views_users_user_view'
p412
(dp413
g6
(dp414
S'html_filename'
p415
S'user_system_views_users_user_view.html'
p416
sS'name'
p417
S'user_system/views/users/user_view'
p418
sS'nums'
p419
g13
(g14
g15
NtRp420
(dp421
g18
I1
sg19
I40
sg20
I101
sg21
I0
sg22
I0
sg23
I35
sg24
I18
sbssg25
S'\\w\x07\xad\x05\xf0g\xea\x1d#\x90\x19\x01\xba\x9dV'
p422
ssS'user_system_models_users_user_profile_model'
p423
(dp424
g6
(dp425
S'html_filename'
p426
S'user_system_models_users_user_profile_model.html'
p427
sS'name'
p428
S'user_system/models/users/user_profile_model'
p429
sS'nums'
p430
g13
(g14
g15
NtRp431
(dp432
g18
I1
sg19
I22
sg20
I106
sg21
I0
sg22
I1
sg23
I9
sg24
I3
sbssg25
S'Z\xd4/\xad\xdd\x81\x9fm&l\n\xf4[\xdb\xf8a'
p433
ssS'create_models_question_datasets_tests_test_question_dataset_model'
p434
(dp435
g167
(dp436
g133
S'create_models_question_datasets_tests_test_question_dataset_model.html'
p437
sg135
S'create/models/question_datasets/tests/test_question_dataset_model'
p438
sg137
g13
(g14
g15
NtRp439
(dp440
g18
I1
sg19
I2
sg20
I39
sg21
I0
sg22
I0
sg23
I0
sg24
I0
sbssg173
S'!\t\x88\xfc\x0f\xaa\x0c\x88\xe3\xf9\x04\xd1\\0w\xf1'
p441
ssS'user_system_views_apps___init__'
p442
(dp443
g6
(dp444
g144
S'user_system_views_apps___init__.html'
p445
sg146
S'user_system/views/apps/__init__'
p446
sg148
g13
(g14
g15
NtRp447
(dp448
g18
I1
sg19
I0
sg20
I1
sg21
I0
sg22
I0
sg23
I0
sg24
I0
sbssg25
S'?:\xf2A\xfa^]\xc5NR\xc9\x13\xb0\xe4\xfa\x9e'
p449
ssS'user_system_views_users_tests_test_get_users_list_view'
p450
(dp451
g6
(dp452
g8
S'user_system_views_users_tests_test_get_users_list_view.html'
p453
sg10
S'user_system/views/users/tests/test_get_users_list_view'
p454
sg12
g13
(g14
g15
NtRp455
(dp456
g18
I1
sg19
I0
sg20
I32
sg21
I0
sg22
I0
sg23
I0
sg24
I0
sbssg25
S'_~\xfc\x96\xe1\x9f\xd5h\x80\x8d\x90\x08\xa5Kyw'
p457
ssS'user_system_models_users___init__'
p458
(dp459
g6
(dp460
g54
S'user_system_models_users___init__.html'
p461
sg56
S'user_system/models/users/__init__'
p462
sg58
g13
(g14
g15
NtRp463
(dp464
g18
I1
sg19
I0
sg20
I5
sg21
I0
sg22
I0
sg23
I0
sg24
I0
sbssg25
S'\xdf\x16\x8f#)\xfc\x1a\t\x0b\x19\xc4\xc0?oh\x9e'
p465
ssS'create_views_books_tests_test_add_tag_to_subchapter_view'
p466
(dp467
S'index'
p468
(dp469
g8
S'create_views_books_tests_test_add_tag_to_subchapter_view.html'
p470
sg10
S'create/views/books/tests/test_add_tag_to_subchapter_view'
p471
sg12
g13
(g14
g15
NtRp472
(dp473
g18
I1
sg19
I0
sg20
I40
sg21
I0
sg22
I0
sg23
I0
sg24
I0
sbssS'hash'
p474
S'\xb78\xf4p\xcd\xec\xca\xaa\x93\xb9\xda\xa8Yo37'
p475
ssS'create_models_questions_question_type_model'
p476
(dp477
g6
(dp478
g8
S'create_models_questions_question_type_model.html'
p479
sg10
S'create/models/questions/question_type_model'
p480
sg12
g13
(g14
g15
NtRp481
(dp482
g18
I1
sg19
I0
sg20
I19
sg21
I0
sg22
I0
sg23
I0
sg24
I0
sbssg25
S'\xb9\xe7I\x93\x8b\xa8\xa8H\x80\x02_\xf9\x87\xa2\xe7\xa5'
p483
ssS'create_serializers_questions_question_template_serializer'
p484
(dp485
g154
(dp486
g31
S'create_serializers_questions_question_template_serializer.html'
p487
sg33
S'create/serializers/questions/question_template_serializer'
p488
sg35
g13
(g14
g15
NtRp489
(dp490
g18
I1
sg19
I0
sg20
I43
sg21
I0
sg22
I0
sg23
I9
sg24
I0
sbssg163
S'\x1a\x149\xdb\xb8\xc7\xfc\xb6\xbc\x8b\xfe\x8e~N\xb9J'
p491
ssS'create_models_books_book_subchapter_model'
p492
(dp493
g29
(dp494
g415
S'create_models_books_book_subchapter_model.html'
p495
sg417
S'create/models/books/book_subchapter_model'
p496
sg419
g13
(g14
g15
NtRp497
(dp498
g18
I1
sg19
I2
sg20
I45
sg21
I0
sg22
I0
sg23
I0
sg24
I0
sbssg38
S'\xbc\xee\x91\x7f;\xa9\x15\xeaau\xef\x82\x07"\x02\xd3'
p499
ssS'user_system_models_schools___init__'
p500
(dp501
S'index'
p502
(dp503
S'html_filename'
p504
S'user_system_models_schools___init__.html'
p505
sS'name'
p506
S'user_system/models/schools/__init__'
p507
sS'nums'
p508
g13
(g14
g15
NtRp509
(dp510
g18
I1
sg19
I0
sg20
I6
sg21
I0
sg22
I0
sg23
I0
sg24
I0
sbssS'hash'
p511
S'\xbe\xc9\xb2f\x05\x1f\xe6\xee\xef\x01#\xe8\x16\xc2\x83\xdb'
p512
ssS'user_system_views_apps_app_view'
p513
(dp514
g6
(dp515
S'html_filename'
p516
S'user_system_views_apps_app_view.html'
p517
sS'name'
p518
S'user_system/views/apps/app_view'
p519
sS'nums'
p520
g13
(g14
g15
NtRp521
(dp522
g18
I1
sg19
I0
sg20
I13
sg21
I0
sg22
I0
sg23
I0
sg24
I0
sbssg25
S'\xf7n\xffX\xe7\xd2\xb6\xa5\xc5\xe5\x96\x13\xf4\x9c\xac\x1e'
p523
ssS'user_system_models_schools_tests_test_classroom_model'
p524
(dp525
S'index'
p526
(dp527
S'html_filename'
p528
S'user_system_models_schools_tests_test_classroom_model.html'
p529
sS'name'
p530
S'user_system/models/schools/tests/test_classroom_model'
p531
sS'nums'
p532
g13
(g14
g15
NtRp533
(dp534
g18
I1
sg19
I0
sg20
I26
sg21
I0
sg22
I0
sg23
I0
sg24
I0
sbssS'hash'
p535
S'\xe9\xb63\xb6D\x8b\xc8\x89\xbd\xd6\xc6\x1f"\x9b\xd1\xaf'
p536
ssS'create_views_questions_tests_test_remove_tag_view'
p537
(dp538
S'index'
p539
(dp540
S'html_filename'
p541
S'create_views_questions_tests_test_remove_tag_view.html'
p542
sS'name'
p543
S'create/views/questions/tests/test_remove_tag_view'
p544
sS'nums'
p545
g13
(g14
g15
NtRp546
(dp547
g18
I1
sg19
I0
sg20
I36
sg21
I0
sg22
I0
sg23
I0
sg24
I0
sbssS'hash'
p548
S'\xbdV1EN\xfe\x8e;\xe4\x92\x91r\xd6Q\x03\x80'
p549
ssS'user_system_models_users_tests_test_student_profile_model'
p550
(dp551
g526
(dp552
S'html_filename'
p553
S'user_system_models_users_tests_test_student_profile_model.html'
p554
sS'name'
p555
S'user_system/models/users/tests/test_student_profile_model'
p556
sS'nums'
p557
g13
(g14
g15
NtRp558
(dp559
g18
I1
sg19
I0
sg20
I41
sg21
I0
sg22
I0
sg23
I0
sg24
I0
sbssg535
S'_\x1d\xee\xc7\xa6\xf8L\xd4%\xe2\xdc\x14\x94\x15X\x84'
p560
ssS'create_views_questions_tests_test_add_tag_view'
p561
(dp562
g539
(dp563
g541
S'create_views_questions_tests_test_add_tag_view.html'
p564
sg543
S'create/views/questions/tests/test_add_tag_view'
p565
sg545
g13
(g14
g15
NtRp566
(dp567
g18
I1
sg19
I0
sg20
I35
sg21
I0
sg22
I0
sg23
I0
sg24
I0
sbssg548
S'\x8e\x13\xdd\xbd\xba\r&,-|&W-a`\x7f'
p568
ssS'create_views_quests_quest_view'
p569
(dp570
g154
(dp571
g257
S'create_views_quests_quest_view.html'
p572
sg259
S'create/views/quests/quest_view'
p573
sg261
g13
(g14
g15
NtRp574
(dp575
g18
I1
sg19
I30
sg20
I116
sg21
I0
sg22
I0
sg23
I81
sg24
I30
sbssg163
S'\xd9H\x9a\xee\xa8\x97\x99:\x8c\xa9h}\xe0\xa9\xde\x8e'
p576
ssS'create_views_daily_quest_templates___init__'
p577
(dp578
g255
(dp579
g257
S'create_views_daily_quest_templates___init__.html'
p580
sg259
S'create/views/daily_quest_templates/__init__'
p581
sg261
g13
(g14
g15
NtRp582
(dp583
g18
I1
sg19
I0
sg20
I1
sg21
I0
sg22
I0
sg23
I0
sg24
I0
sbssg264
S'\xc1b\x1f\x95\xabR`C\xe80\xb9tNC\r3'
p584
ssS'api_logging_models'
p585
(dp586
g89
(dp587
g103
S'api_logging_models.html'
p588
sg105
S'api_logging/models'
p589
sg107
g13
(g14
g15
NtRp590
(dp591
g18
I1
sg19
I0
sg20
I21
sg21
I0
sg22
I0
sg23
I0
sg24
I0
sbssg98
S'\x0c\x96WFX%\xe9\xcf+\xcf\xc2s\xa7a1\xbd'
p592
ssS'create_views_books_tests_test_remove_chapter_view'
p593
(dp594
g353
(dp595
g8
S'create_views_books_tests_test_remove_chapter_view.html'
p596
sg10
S'create/views/books/tests/test_remove_chapter_view'
p597
sg12
g13
(g14
g15
NtRp598
(dp599
g18
I1
sg19
I0
sg20
I39
sg21
I0
sg22
I0
sg23
I0
sg24
I0
sbssg359
S'lJ\xdc\xbe\xe2>\x9d\xde\xb5+ia5;\x042'
p600
ssS'user_system_views_logins___init__'
p601
(dp602
g6
(dp603
g144
S'user_system_views_logins___init__.html'
p604
sg146
S'user_system/views/logins/__init__'
p605
sg148
g13
(g14
g15
NtRp606
(dp607
g18
I1
sg19
I0
sg20
I2
sg21
I0
sg22
I0
sg23
I0
sg24
I0
sbssg25
S'\xa0\xd3\xaas\xc2\xb93+ED.\xe5\xfe\xf2\xad\x87'
p608
ssS'user_system_models_schools_tests_test_grade_model'
p609
(dp610
g526
(dp611
g504
S'user_system_models_schools_tests_test_grade_model.html'
p612
sg506
S'user_system/models/schools/tests/test_grade_model'
p613
sg508
g13
(g14
g15
NtRp614
(dp615
g18
I1
sg19
I0
sg20
I20
sg21
I0
sg22
I0
sg23
I0
sg24
I0
sbssg535
S'\xae\xf4\xc7\x8e\xafy?\\25\x17\xf0\xd9i\xde-'
p616
ssS'user_system_views_signups_tests___init__'
p617
(dp618
g6
(dp619
g144
S'user_system_views_signups_tests___init__.html'
p620
sg146
S'user_system/views/signups/tests/__init__'
p621
sg148
g13
(g14
g15
NtRp622
(dp623
g18
I1
sg19
I0
sg20
I1
sg21
I0
sg22
I0
sg23
I0
sg24
I0
sbssg25
S'\xbc\xd6\xeb\xb3\xba\xcaz\xf7{\xd4B\xb5}l\xdf\x96'
p624
ssS'user_system_views_logins_tests_test_facebook_login_view'
p625
(dp626
g6
(dp627
g8
S'user_system_views_logins_tests_test_facebook_login_view.html'
p628
sg10
S'user_system/views/logins/tests/test_facebook_login_view'
p629
sg12
g13
(g14
g15
NtRp630
(dp631
g18
I1
sg19
I0
sg20
I51
sg21
I0
sg22
I0
sg23
I0
sg24
I0
sbssg25
S'\x8eg\xfbA\xbdf+\x81\xe9\x8a\x16\x82\xe9\xe3\xc0\xf4'
p632
ssS'create_models_questions_question_history_model'
p633
(dp634
g6
(dp635
g31
S'create_models_questions_question_history_model.html'
p636
sg33
S'create/models/questions/question_history_model'
p637
sg35
g13
(g14
g15
NtRp638
(dp639
g18
I1
sg19
I6
sg20
I58
sg21
I0
sg22
I2
sg23
I2
sg24
I2
sbssg25
S'\xf1X&\xd4A\x1a0\xc2\xf1\xbf\x95\x1c^\xc1\xe6O'
p640
ssS'create_models_daily_quests_daily_quest_model'
p641
(dp642
S'index'
p643
(dp644
g257
S'create_models_daily_quests_daily_quest_model.html'
p645
sg259
S'create/models/daily_quests/daily_quest_model'
p646
sg261
g13
(g14
g15
NtRp647
(dp648
g18
I1
sg19
I4
sg20
I51
sg21
I0
sg22
I0
sg23
I9
sg24
I4
sbssS'hash'
p649
S'\xc9\xa3B\x13\xef\x95c\xf7\x99\x1f\xba\x92\xf3JS\xf0'
p650
ssS'user_system_views_signups_tests_test_email_signup_view'
p651
(dp652
g6
(dp653
g8
S'user_system_views_signups_tests_test_email_signup_view.html'
p654
sg10
S'user_system/views/signups/tests/test_email_signup_view'
p655
sg12
g13
(g14
g15
NtRp656
(dp657
g18
I1
sg19
I0
sg20
I51
sg21
I0
sg22
I0
sg23
I0
sg24
I0
sbssg25
S'\xa3\xb2\xaf-\x99\xe3]\xcc\xe6\x8b\xeb\xf63=I\xb4'
p658
ssS'user_system_models_roles_tests_test_role_app_model'
p659
(dp660
g6
(dp661
g8
S'user_system_models_roles_tests_test_role_app_model.html'
p662
sg10
S'user_system/models/roles/tests/test_role_app_model'
p663
sg12
g13
(g14
g15
NtRp664
(dp665
g18
I1
sg19
I0
sg20
I21
sg21
I0
sg22
I0
sg23
I0
sg24
I0
sbssg25
S"\x80\xd7v\xbb\xe5d.\xeb\xfd\xc4\x04\xb2\x04'\xc6V"
p666
ssS'create_models_daily_quests_tests___init__'
p667
(dp668
g643
(dp669
S'html_filename'
p670
S'create_models_daily_quests_tests___init__.html'
p671
sS'name'
p672
S'create/models/daily_quests/tests/__init__'
p673
sS'nums'
p674
g13
(g14
g15
NtRp675
(dp676
g18
I1
sg19
I0
sg20
I1
sg21
I0
sg22
I0
sg23
I0
sg24
I0
sbssg649
S'\xbc\xd6\xeb\xb3\xba\xcaz\xf7{\xd4B\xb5}l\xdf\x96'
p677
ssS'create_views_tags_tests_test_search_tag_view'
p678
(dp679
S'index'
p680
(dp681
g8
S'create_views_tags_tests_test_search_tag_view.html'
p682
sg10
S'create/views/tags/tests/test_search_tag_view'
p683
sg12
g13
(g14
g15
NtRp684
(dp685
g18
I1
sg19
I0
sg20
I22
sg21
I0
sg22
I0
sg23
I0
sg24
I0
sbssS'hash'
p686
S'\rh\xcb\xb3g\x15\x9c\xe3hR\xc5r\xb9\x9c\xb2\x1f'
p687
ssS'user_system_models_schools_tests_test_organization_model'
p688
(dp689
g502
(dp690
g8
S'user_system_models_schools_tests_test_organization_model.html'
p691
sg10
S'user_system/models/schools/tests/test_organization_model'
p692
sg12
g13
(g14
g15
NtRp693
(dp694
g18
I1
sg19
I0
sg20
I24
sg21
I0
sg22
I0
sg23
I0
sg24
I0
sbssg511
S'\xeb?\x1b\x02\xc8gO\x05\xad\x0f\xa1K\xb3\xd7\xb7t'
p695
ssS'create_serializers_daily_quests_daily_quest_serializer'
p696
(dp697
g255
(dp698
g31
S'create_serializers_daily_quests_daily_quest_serializer.html'
p699
sg33
S'create/serializers/daily_quests/daily_quest_serializer'
p700
sg35
g13
(g14
g15
NtRp701
(dp702
g18
I1
sg19
I0
sg20
I12
sg21
I0
sg22
I0
sg23
I3
sg24
I0
sbssg264
S' $!\xf6\xe6\x92\x9f\x9f\xafy\xe9\x8b\x1c\xf4\xb6\x01'
p703
ssS'user_system_views_signups_email_signup_view'
p704
(dp705
g6
(dp706
g8
S'user_system_views_signups_email_signup_view.html'
p707
sg10
S'user_system/views/signups/email_signup_view'
p708
sg12
g13
(g14
g15
NtRp709
(dp710
g18
I1
sg19
I8
sg20
I44
sg21
I0
sg22
I0
sg23
I0
sg24
I0
sbssg25
S'&G\xd1\xc4{\x9b\xbf\x14\x92F\xbe\x13\xeer\x84\x1b'
p711
ssS'create_serializers_question_datasets_question_dataset_serializer'
p712
(dp713
g167
(dp714
g133
S'create_serializers_question_datasets_question_dataset_serializer.html'
p715
sg135
S'create/serializers/question_datasets/question_dataset_serializer'
p716
sg137
g13
(g14
g15
NtRp717
(dp718
g18
I1
sg19
I0
sg20
I6
sg21
I0
sg22
I0
sg23
I0
sg24
I0
sbssg173
S'\x1e}6\x82\x0c\x96\xdb\x00{jK\xdb\xc0\x8c\x97\xcd'
p719
ssS'flipped_helpers_success_response_helper'
p720
(dp721
g6
(dp722
g8
S'flipped_helpers_success_response_helper.html'
p723
sg10
S'flipped/helpers/success_response_helper'
p724
sg12
g13
(g14
g15
NtRp725
(dp726
g18
I1
sg19
I2
sg20
I4
sg21
I0
sg22
I0
sg23
I0
sg24
I0
sbssg25
S"'Bp\xbe\xd9\xfa\x92\xa4;\xb6\t\xa8\xfe<\x9d\xa5"
p727
ssS'create_models_books_tests_test_book_model'
p728
(dp729
g29
(dp730
g122
S'create_models_books_tests_test_book_model.html'
p731
sg124
S'create/models/books/tests/test_book_model'
p732
sg126
g13
(g14
g15
NtRp733
(dp734
g18
I1
sg19
I0
sg20
I28
sg21
I0
sg22
I0
sg23
I0
sg24
I0
sbssg38
S'\xf3\xa0Llu,WHx&D\xe9\xeb\xa7\x9fU'
p735
ssS'create_models_questions_question_model'
p736
(dp737
g6
(dp738
g156
S'create_models_questions_question_model.html'
p739
sg158
S'create/models/questions/question_model'
p740
sg160
g13
(g14
g15
NtRp741
(dp742
g18
I1
sg19
I0
sg20
I40
sg21
I0
sg22
I0
sg23
I0
sg24
I0
sbssg25
S'\x90h\x94\x1f\\\xed\x05\xcc\t\xbd\x8d\x8c\xce\x7f\xbcQ'
p743
ssS'create_views_books_book_subchapter_view'
p744
(dp745
g468
(dp746
g8
S'create_views_books_book_subchapter_view.html'
p747
sg10
S'create/views/books/book_subchapter_view'
p748
sg12
g13
(g14
g15
NtRp749
(dp750
g18
I1
sg19
I8
sg20
I46
sg21
I0
sg22
I0
sg23
I0
sg24
I0
sbssg474
S'\x0e\xa6\x19V\xf0\xf3;\xa2\x8d \xd8i\xb7*D\x87'
p751
ssS'user_system_models_roles_tests_test_role_model'
p752
(dp753
g6
(dp754
g8
S'user_system_models_roles_tests_test_role_model.html'
p755
sg10
S'user_system/models/roles/tests/test_role_model'
p756
sg12
g13
(g14
g15
NtRp757
(dp758
g18
I1
sg19
I0
sg20
I20
sg21
I0
sg22
I0
sg23
I0
sg24
I0
sbssg25
S'\xef\xba\x956\x96\xbc:\xa0\x0f\x00\x84\x80\x0elh\xed'
p759
ssS'create_views_questions_tests_test_hide_question_view'
p760
(dp761
g6
(dp762
g8
S'create_views_questions_tests_test_hide_question_view.html'
p763
sg10
S'create/views/questions/tests/test_hide_question_view'
p764
sg12
g13
(g14
g15
NtRp765
(dp766
g18
I1
sg19
I0
sg20
I30
sg21
I0
sg22
I0
sg23
I0
sg24
I0
sbssg25
S'\xb3\x10S\x8a\x9b\xecw\xaa\xd3\x81\x1b\xf2\xab\xb2QG'
p767
ssS'user_system_models_roles___init__'
p768
(dp769
g6
(dp770
g144
S'user_system_models_roles___init__.html'
p771
sg146
S'user_system/models/roles/__init__'
p772
sg148
g13
(g14
g15
NtRp773
(dp774
g18
I1
sg19
I0
sg20
I2
sg21
I0
sg22
I0
sg23
I0
sg24
I0
sbssg25
S'\xa3\xc2\r\x1b\x1bC\x85\xa5\xads\x7fl\xab`*1'
p775
ssS'create_views_questions_question_template_view'
p776
(dp777
g154
(dp778
g133
S'create_views_questions_question_template_view.html'
p779
sg135
S'create/views/questions/question_template_view'
p780
sg137
g13
(g14
g15
NtRp781
(dp782
g18
I1
sg19
I38
sg20
I114
sg21
I0
sg22
I0
sg23
I85
sg24
I38
sbssg163
S'\x1a\xb6\x03y\xd3\xfb\x85u\xe4\xb6\xa7b\xf3>\x14\xb1'
p783
ssS'user_system_views_logins_email_login_view'
p784
(dp785
g6
(dp786
g8
S'user_system_views_logins_email_login_view.html'
p787
sg10
S'user_system/views/logins/email_login_view'
p788
sg12
g13
(g14
g15
NtRp789
(dp790
g18
I1
sg19
I8
sg20
I29
sg21
I0
sg22
I0
sg23
I0
sg24
I0
sbssg25
S'q,G<H\x86\xac\xe1i2\xf8t?\x9e\xea\xa0'
p791
ssS'create_serializers_quests_quest_serializer'
p792
(dp793
g154
(dp794
g31
S'create_serializers_quests_quest_serializer.html'
p795
sg33
S'create/serializers/quests/quest_serializer'
p796
sg35
g13
(g14
g15
NtRp797
(dp798
g18
I1
sg19
I0
sg20
I40
sg21
I0
sg22
I0
sg23
I12
sg24
I0
sbssg163
S'j)\x15@\x90u\x92\xd6?B\xab\xaan\xda\x81\xbe'
p799
ssS'create_views_question_datasets_question_dataset_view'
p800
(dp801
g167
(dp802
g133
S'create_views_question_datasets_question_dataset_view.html'
p803
sg135
S'create/views/question_datasets/question_dataset_view'
p804
sg137
g13
(g14
g15
NtRp805
(dp806
g18
I1
sg19
I4
sg20
I20
sg21
I0
sg22
I0
sg23
I5
sg24
I4
sbssg173
S'\x01\xfb\xf2\x86m\xd4\xf9\xc3\xe6\xb6\x11\x96u;\x1ez'
p807
ssS'user_system_views_signups_tests_test_facebook_signup_view'
p808
(dp809
g6
(dp810
g8
S'user_system_views_signups_tests_test_facebook_signup_view.html'
p811
sg10
S'user_system/views/signups/tests/test_facebook_signup_view'
p812
sg12
g13
(g14
g15
NtRp813
(dp814
g18
I1
sg19
I0
sg20
I60
sg21
I0
sg22
I0
sg23
I0
sg24
I0
sbssg25
S'\x93<\xc8]\x14\t\xa8/\xdd\xd1\xa4]\xfbp!\xbd'
p815
ssS'user_system_models_users_tests_test_teacher_profile_model'
p816
(dp817
g52
(dp818
g54
S'user_system_models_users_tests_test_teacher_profile_model.html'
p819
sg56
S'user_system/models/users/tests/test_teacher_profile_model'
p820
sg58
g13
(g14
g15
NtRp821
(dp822
g18
I1
sg19
I0
sg20
I32
sg21
I0
sg22
I0
sg23
I0
sg24
I0
sbssg61
S'\xe7n\x9a\x17\x9d0\x01\xa6\x0f\x18\x10l\x8ckmy'
p823
ssS'user_system_models_users_tests_test_teacher_mapping_model'
p824
(dp825
g52
(dp826
g54
S'user_system_models_users_tests_test_teacher_mapping_model.html'
p827
sg56
S'user_system/models/users/tests/test_teacher_mapping_model'
p828
sg58
g13
(g14
g15
NtRp829
(dp830
g18
I1
sg19
I0
sg20
I22
sg21
I0
sg22
I0
sg23
I0
sg24
I0
sbssg61
S"\xbb\xd7\xe2\xf2\x7f\x9b\xc5j\xd6'(\xda\xa5\x14\\\x12"
p831
ssS'create_views_summary_create_summary_view'
p832
(dp833
S'index'
p834
(dp835
g415
S'create_views_summary_create_summary_view.html'
p836
sg417
S'create/views/summary/create_summary_view'
p837
sg419
g13
(g14
g15
NtRp838
(dp839
g18
I1
sg19
I0
sg20
I59
sg21
I0
sg22
I0
sg23
I48
sg24
I0
sbssS'hash'
p840
S"'\xfe\xf4\x8c\xed2\xc3\x18\xf6\x85\x1f\xb0\xf0G\xb7\x8f"
p841
ssS'create_serializers_books_book_serializer'
p842
(dp843
g29
(dp844
g31
S'create_serializers_books_book_serializer.html'
p845
sg33
S'create/serializers/books/book_serializer'
p846
sg35
g13
(g14
g15
NtRp847
(dp848
g18
I1
sg19
I0
sg20
I25
sg21
I0
sg22
I0
sg23
I0
sg24
I0
sbssg38
S"o\r\r\x1e8\xe6\xa9\xd1\x83X.\xcf1\x98\xa3'"
p849
ssS'create_models_books_tests___init__'
p850
(dp851
g29
(dp852
g122
S'create_models_books_tests___init__.html'
p853
sg124
S'create/models/books/tests/__init__'
p854
sg126
g13
(g14
g15
NtRp855
(dp856
g18
I1
sg19
I0
sg20
I0
sg21
I0
sg22
I0
sg23
I0
sg24
I0
sbssg38
S'\x19g\xdfM\x1a\x019\xaf\x1baIeR\xe5u\xa7'
p857
ssS'user_system_models_schools_tests___init__'
p858
(dp859
g502
(dp860
g91
S'user_system_models_schools_tests___init__.html'
p861
sg93
S'user_system/models/schools/tests/__init__'
p862
sg95
g13
(g14
g15
NtRp863
(dp864
g18
I1
sg19
I0
sg20
I0
sg21
I0
sg22
I0
sg23
I0
sg24
I0
sbssg511
S'\x19g\xdfM\x1a\x019\xaf\x1baIeR\xe5u\xa7'
p865
ssS'api_logging_mixins'
p866
(dp867
g292
(dp868
g8
S'api_logging_mixins.html'
p869
sg10
S'api_logging/mixins'
p870
sg12
g13
(g14
g15
NtRp871
(dp872
g18
I1
sg19
I4
sg20
I26
sg21
I0
sg22
I2
sg23
I2
sg24
I2
sbssg301
S'w\xa7\xcf,\xf7\x87[\xb0\xc5\xb2\x1f\xa5+\x1dSF'
p873
ssS'create_serializers_books_book_chapter_serializer'
p874
(dp875
g29
(dp876
g31
S'create_serializers_books_book_chapter_serializer.html'
p877
sg33
S'create/serializers/books/book_chapter_serializer'
p878
sg35
g13
(g14
g15
NtRp879
(dp880
g18
I1
sg19
I0
sg20
I18
sg21
I0
sg22
I0
sg23
I3
sg24
I0
sbssg38
S'\x0cX\x02%\x8d\x96\xee\xf6\ns-\x85\xf0\xcb\x14\xe9'
p881
ssS'create_urls'
p882
(dp883
g6
(dp884
g133
S'create_urls.html'
p885
sg135
S'create/urls'
p886
sg137
g13
(g14
g15
NtRp887
(dp888
g18
I1
sg19
I0
sg20
I23
sg21
I0
sg22
I0
sg23
I0
sg24
I0
sbssg25
S'\x9e\xbc\xf7x"\\x\xe9<\x92\x8c\xe0\xe9~u_'
p889
ssS'create_views_tags_tests_test_get_tags_list_view'
p890
(dp891
g292
(dp892
g8
S'create_views_tags_tests_test_get_tags_list_view.html'
p893
sg10
S'create/views/tags/tests/test_get_tags_list_view'
p894
sg12
g13
(g14
g15
NtRp895
(dp896
g18
I1
sg19
I0
sg20
I21
sg21
I0
sg22
I0
sg23
I0
sg24
I0
sbssg301
S'F\xf6yk?\xb2\xc12\x93\x8b\xe6Bx\xa09\x89'
p897
ssS'create_serializers_tags_tag_serializer'
p898
(dp899
g29
(dp900
g31
S'create_serializers_tags_tag_serializer.html'
p901
sg33
S'create/serializers/tags/tag_serializer'
p902
sg35
g13
(g14
g15
NtRp903
(dp904
g18
I1
sg19
I0
sg20
I38
sg21
I0
sg22
I0
sg23
I0
sg24
I0
sbssg38
S'\xf7\xa8n\xd6\xf1\xe1\xf8\xaedX\x8e\xfe\ry\xd4\xc3'
p905
ssS'create___init__'
p906
(dp907
g6
(dp908
g144
S'create___init__.html'
p909
sg146
S'create/__init__'
p910
sg148
g13
(g14
g15
NtRp911
(dp912
g18
I1
sg19
I0
sg20
I0
sg21
I0
sg22
I0
sg23
I0
sg24
I0
sbssg25
S'\x19g\xdfM\x1a\x019\xaf\x1baIeR\xe5u\xa7'
p913
ssS'create_views_books_tests_test_remove_tag_from_subchapter_view'
p914
(dp915
g468
(dp916
g8
S'create_views_books_tests_test_remove_tag_from_subchapter_view.html'
p917
sg10
S'create/views/books/tests/test_remove_tag_from_subchapter_view'
p918
sg12
g13
(g14
g15
NtRp919
(dp920
g18
I1
sg19
I0
sg20
I40
sg21
I0
sg22
I0
sg23
I0
sg24
I0
sbssg474
S"(Vo#\xdd\x9a\xbc\x11\xff\xd6'\xd7\xeb\xca\x1aM"
p921
ssS'user_system_urls'
p922
(dp923
g6
(dp924
g144
S'user_system_urls.html'
p925
sg146
S'user_system/urls'
p926
sg148
g13
(g14
g15
NtRp927
(dp928
g18
I1
sg19
I0
sg20
I12
sg21
I0
sg22
I0
sg23
I0
sg24
I0
sbssg25
S'\xff\xeeM\x1b\x99\x134\xc3\xb3\xda\xcd=\x1bw\x90G'
p929
ssS'user_system_models_schools_tests_test_semester_model'
p930
(dp931
g502
(dp932
g54
S'user_system_models_schools_tests_test_semester_model.html'
p933
sg56
S'user_system/models/schools/tests/test_semester_model'
p934
sg58
g13
(g14
g15
NtRp935
(dp936
g18
I1
sg19
I0
sg20
I29
sg21
I0
sg22
I0
sg23
I0
sg24
I0
sbssg511
S'\xe9\xd9\xdc\\\xb9\x93\xb1\x93Q\x02\xe9\xb7Y,\xa6w'
p937
ssS'flipped_urls'
p938
(dp939
g6
(dp940
g144
S'flipped_urls.html'
p941
sg146
S'flipped/urls'
p942
sg148
g13
(g14
g15
NtRp943
(dp944
g18
I1
sg19
I0
sg20
I9
sg21
I0
sg22
I0
sg23
I0
sg24
I0
sbssg25
S'm\xa9\xd5+\x8a\xb0\\\xc0\xa0\xedxZ\x06\xdb\x06b'
p945
ssS'create_models_questions___init__'
p946
(dp947
g6
(dp948
S'html_filename'
p949
S'create_models_questions___init__.html'
p950
sS'name'
p951
S'create/models/questions/__init__'
p952
sS'nums'
p953
g13
(g14
g15
NtRp954
(dp955
g18
I1
sg19
I0
sg20
I5
sg21
I0
sg22
I0
sg23
I0
sg24
I0
sbssg25
S'\x96H\xf0\x04e\xef\xa2\xb5\xfe\\y]9?#u'
p956
ssS'user_system_views_users_tests_test_get_users_by_signup_type_view'
p957
(dp958
g6
(dp959
g8
S'user_system_views_users_tests_test_get_users_by_signup_type_view.html'
p960
sg10
S'user_system/views/users/tests/test_get_users_by_signup_type_view'
p961
sg12
g13
(g14
g15
NtRp962
(dp963
g18
I1
sg19
I0
sg20
I39
sg21
I0
sg22
I0
sg23
I0
sg24
I0
sbssg25
S')6\x9d\xd9x\xf4\x1fC\xbc\x92\x06\x9bz~1W'
p964
ssS'create_models_tags_tests_test_tag_type_model'
p965
(dp966
g42
(dp967
g8
S'create_models_tags_tests_test_tag_type_model.html'
p968
sg10
S'create/models/tags/tests/test_tag_type_model'
p969
sg12
g13
(g14
g15
NtRp970
(dp971
g18
I1
sg19
I0
sg20
I17
sg21
I0
sg22
I0
sg23
I0
sg24
I0
sbssg48
S'?6\xfcg\xce\x11\x1a7E\xaf\xb2\x02\t"\xddA'
p972
ssS'api_logging_admin'
p973
(dp974
g89
(dp975
g103
S'api_logging_admin.html'
p976
sg105
S'api_logging/admin'
p977
sg107
g13
(g14
g15
NtRp978
(dp979
g18
I1
sg19
I0
sg20
I7
sg21
I0
sg22
I0
sg23
I0
sg24
I0
sbssg98
S'U\x00\xaf\x98\xcc8\x9e!a\xd9"m\x83%$\xf2'
p980
ssS'create_models_quests_quest_history_model'
p981
(dp982
g154
(dp983
g194
S'create_models_quests_quest_history_model.html'
p984
sg196
S'create/models/quests/quest_history_model'
p985
sg198
g13
(g14
g15
NtRp986
(dp987
g18
I1
sg19
I6
sg20
I56
sg21
I0
sg22
I3
sg23
I2
sg24
I3
sbssg163
S'\x03\xf1N\xbd\x87\x8e!\x1c\xa8\xa7\xb5v\xcdo!\x19'
p988
ssS'user_system_views_users_tests_test_add_role_view'
p989
(dp990
g6
(dp991
g8
S'user_system_views_users_tests_test_add_role_view.html'
p992
sg10
S'user_system/views/users/tests/test_add_role_view'
p993
sg12
g13
(g14
g15
NtRp994
(dp995
g18
I1
sg19
I0
sg20
I36
sg21
I0
sg22
I0
sg23
I0
sg24
I0
sbssg25
S'\x0eh\xf7\xba\x08_N\xdeM\xdf\x03\xbd\x8c\x8a\x89\xd0'
p996
ssS'create_models_tags_tag_type_model'
p997
(dp998
g42
(dp999
g8
S'create_models_tags_tag_type_model.html'
p1000
sg10
S'create/models/tags/tag_type_model'
p1001
sg12
g13
(g14
g15
NtRp1002
(dp1003
g18
I1
sg19
I0
sg20
I15
sg21
I0
sg22
I0
sg23
I0
sg24
I0
sbssg48
S'\x89\x07\x8e\xc7^0\x96Do\xbf\xa5\xca5\xe4\x92\xeb'
p1004
ssS'create_serializers___init__'
p1005
(dp1006
g6
(dp1007
g133
S'create_serializers___init__.html'
p1008
sg135
S'create/serializers/__init__'
p1009
sg137
g13
(g14
g15
NtRp1010
(dp1011
g18
I1
sg19
I0
sg20
I7
sg21
I0
sg22
I0
sg23
I0
sg24
I0
sbssg25
S'6\xb3\xc5\x7f\x94b\xa2%I,\x99\x1aDV\x1a\xbd'
p1012
ssS'create_serializers_books_book_history_serializer'
p1013
(dp1014
S'index'
p1015
(dp1016
g31
S'create_serializers_books_book_history_serializer.html'
p1017
sg33
S'create/serializers/books/book_history_serializer'
p1018
sg35
g13
(g14
g15
NtRp1019
(dp1020
g18
I1
sg19
I0
sg20
I14
sg21
I0
sg22
I0
sg23
I0
sg24
I0
sbssS'hash'
p1021
S'|g\x1e1\xcdq*ob~B\xca\xd92\x8b\x01'
p1022
ssS'create_models_questions_tests_test_question_choice_model'
p1023
(dp1024
g6
(dp1025
g949
S'create_models_questions_tests_test_question_choice_model.html'
p1026
sg951
S'create/models/questions/tests/test_question_choice_model'
p1027
sg953
g13
(g14
g15
NtRp1028
(dp1029
g18
I1
sg19
I0
sg20
I32
sg21
I0
sg22
I0
sg23
I0
sg24
I0
sbssg25
S'\xd0C\xca`\x9e\x97\x06X+\xc8UjUt\x9c3'
p1030
ssS'user_system_views_users_tests_test_get_user_by_id_view'
p1031
(dp1032
g6
(dp1033
g8
S'user_system_views_users_tests_test_get_user_by_id_view.html'
p1034
sg10
S'user_system/views/users/tests/test_get_user_by_id_view'
p1035
sg12
g13
(g14
g15
NtRp1036
(dp1037
g18
I1
sg19
I0
sg20
I24
sg21
I0
sg22
I0
sg23
I0
sg24
I0
sbssg25
S'\x8b\xea\xca\x9a\xa0\xd65\xd7\xd0\xba{\xdea\x0f\xc8\x06'
p1038
ssS'create_models___init__'
p1039
(dp1040
g6
(dp1041
g133
S'create_models___init__.html'
p1042
sg135
S'create/models/__init__'
p1043
sg137
g13
(g14
g15
NtRp1044
(dp1045
g18
I1
sg19
I0
sg20
I7
sg21
I0
sg22
I0
sg23
I0
sg24
I0
sbssg25
S'6\xb3\xc5\x7f\x94b\xa2%I,\x99\x1aDV\x1a\xbd'
p1046
ssS'create_serializers_tags_tag_history_serializer'
p1047
(dp1048
S'index'
p1049
(dp1050
S'html_filename'
p1051
S'create_serializers_tags_tag_history_serializer.html'
p1052
sS'name'
p1053
S'create/serializers/tags/tag_history_serializer'
p1054
sS'nums'
p1055
g13
(g14
g15
NtRp1056
(dp1057
g18
I1
sg19
I0
sg20
I14
sg21
I0
sg22
I0
sg23
I0
sg24
I0
sbssS'hash'
p1058
S'\x9b\xf1\x1a\x98-G\xd9\xf7\x1d\xfcS\xb5viw\xc5'
p1059
ssS'create_views_tags_tests___init__'
p1060
(dp1061
g292
(dp1062
g294
S'create_views_tags_tests___init__.html'
p1063
sg296
S'create/views/tags/tests/__init__'
p1064
sg298
g13
(g14
g15
NtRp1065
(dp1066
g18
I1
sg19
I0
sg20
I0
sg21
I0
sg22
I0
sg23
I0
sg24
I0
sbssg301
S'\x19g\xdfM\x1a\x019\xaf\x1baIeR\xe5u\xa7'
p1067
ssS'create_serializers_daily_quest_templates___init__'
p1068
(dp1069
g255
(dp1070
g257
S'create_serializers_daily_quest_templates___init__.html'
p1071
sg259
S'create/serializers/daily_quest_templates/__init__'
p1072
sg261
g13
(g14
g15
NtRp1073
(dp1074
g18
I1
sg19
I0
sg20
I1
sg21
I0
sg22
I0
sg23
I0
sg24
I0
sbssg264
S'\xa2\xd34\x1b\xe2+\x16\xa9un\x8f\xa5\xe6\xc4\\p'
p1075
ssS'user_system_views_users___init__'
p1076
(dp1077
g6
(dp1078
g144
S'user_system_views_users___init__.html'
p1079
sg146
S'user_system/views/users/__init__'
p1080
sg148
g13
(g14
g15
NtRp1081
(dp1082
g18
I1
sg19
I0
sg20
I1
sg21
I0
sg22
I0
sg23
I0
sg24
I0
sbssg25
S'4B\xd9\x99J\xb4\xc8\xbf\x91w\xd9\x878M\xf6 '
p1083
ssS'user_system_views_apps_tests_test_get_app_by_id_view'
p1084
(dp1085
g6
(dp1086
g8
S'user_system_views_apps_tests_test_get_app_by_id_view.html'
p1087
sg10
S'user_system/views/apps/tests/test_get_app_by_id_view'
p1088
sg12
g13
(g14
g15
NtRp1089
(dp1090
g18
I1
sg19
I0
sg20
I17
sg21
I0
sg22
I0
sg23
I0
sg24
I0
sbssg25
S"\xa2\x1eG%r{-~\xc5=\x8aj\x99X!'"
p1091
ssS'create_views_questions_question_view'
p1092
(dp1093
g6
(dp1094
g670
S'create_views_questions_question_view.html'
p1095
sg672
S'create/views/questions/question_view'
p1096
sg674
g13
(g14
g15
NtRp1097
(dp1098
g18
I1
sg19
I34
sg20
I112
sg21
I0
sg22
I1
sg23
I40
sg24
I21
sbssg25
S"_'M\x9d\x0e\r\xae\x93=\xce\xd2\x1b>\x8eV\xe4"
p1099
ssS'create_views_books_tests_test_get_book_by_id_view'
p1100
(dp1101
g1015
(dp1102
g8
S'create_views_books_tests_test_get_book_by_id_view.html'
p1103
sg10
S'create/views/books/tests/test_get_book_by_id_view'
p1104
sg12
g13
(g14
g15
NtRp1105
(dp1106
g18
I1
sg19
I0
sg20
I20
sg21
I0
sg22
I0
sg23
I0
sg24
I0
sbssg1021
S'\xc88x\xaf\x84e\xaa6\x17\xdf\x0e\x8c`\xcaAO'
p1107
ssS'user_system_views_apps_tests___init__'
p1108
(dp1109
g6
(dp1110
g144
S'user_system_views_apps_tests___init__.html'
p1111
sg146
S'user_system/views/apps/tests/__init__'
p1112
sg148
g13
(g14
g15
NtRp1113
(dp1114
g18
I1
sg19
I0
sg20
I0
sg21
I0
sg22
I0
sg23
I0
sg24
I0
sbssg25
S'\x19g\xdfM\x1a\x019\xaf\x1baIeR\xe5u\xa7'
p1115
ssS'user_system_serializers___init__'
p1116
(dp1117
g6
(dp1118
g144
S'user_system_serializers___init__.html'
p1119
sg146
S'user_system/serializers/__init__'
p1120
sg148
g13
(g14
g15
NtRp1121
(dp1122
g18
I1
sg19
I0
sg20
I2
sg21
I0
sg22
I0
sg23
I0
sg24
I0
sbssg25
S'\xbfJ\xf0\xf4\xd3\xef\xf7T7zz\xae\x87\x00ts'
p1123
ssS'create_models_questions_tests___init__'
p1124
(dp1125
g6
(dp1126
g144
S'create_models_questions_tests___init__.html'
p1127
sg146
S'create/models/questions/tests/__init__'
p1128
sg148
g13
(g14
g15
NtRp1129
(dp1130
g18
I1
sg19
I0
sg20
I0
sg21
I0
sg22
I0
sg23
I0
sg24
I0
sbssg25
S'\x19g\xdfM\x1a\x019\xaf\x1baIeR\xe5u\xa7'
p1131
ssS'user_system_models_users_student_profile_model'
p1132
(dp1133
g526
(dp1134
g553
S'user_system_models_users_student_profile_model.html'
p1135
sg555
S'user_system/models/users/student_profile_model'
p1136
sg557
g13
(g14
g15
NtRp1137
(dp1138
g18
I1
sg19
I0
sg20
I35
sg21
I0
sg22
I0
sg23
I0
sg24
I0
sbssg535
S'\xe3|\x06.-\xe4X\xa8\xe9?Rqb%C8'
p1139
ssS'flipped_helpers_tests_test_email_helper'
p1140
(dp1141
g6
(dp1142
g8
S'flipped_helpers_tests_test_email_helper.html'
p1143
sg10
S'flipped/helpers/tests/test_email_helper'
p1144
sg12
g13
(g14
g15
NtRp1145
(dp1146
g18
I1
sg19
I0
sg20
I13
sg21
I0
sg22
I0
sg23
I0
sg24
I0
sbssg25
S'\x13\xee\xcb^E:3A\xff)v\x7f\xd3\xa7\xa2\xaa'
p1147
ssS'create_models_books_book_chapter_model'
p1148
(dp1149
g29
(dp1150
g194
S'create_models_books_book_chapter_model.html'
p1151
sg196
S'create/models/books/book_chapter_model'
p1152
sg198
g13
(g14
g15
NtRp1153
(dp1154
g18
I1
sg19
I4
sg20
I50
sg21
I0
sg22
I1
sg23
I3
sg24
I1
sbssg38
S'\x06\xb4M\t\xda9\xd8\xe4#\xb4\x19l\x04XJ\x14'
p1155
ssS'create_serializers_books___init__'
p1156
(dp1157
g29
(dp1158
g122
S'create_serializers_books___init__.html'
p1159
sg124
S'create/serializers/books/__init__'
p1160
sg126
g13
(g14
g15
NtRp1161
(dp1162
g18
I1
sg19
I0
sg20
I0
sg21
I0
sg22
I0
sg23
I0
sg24
I0
sbssg38
S'\x19g\xdfM\x1a\x019\xaf\x1baIeR\xe5u\xa7'
p1163
ssS'user_system_serializers_users___init__'
p1164
(dp1165
g6
(dp1166
g144
S'user_system_serializers_users___init__.html'
p1167
sg146
S'user_system/serializers/users/__init__'
p1168
sg148
g13
(g14
g15
NtRp1169
(dp1170
g18
I1
sg19
I0
sg20
I2
sg21
I0
sg22
I0
sg23
I0
sg24
I0
sbssg25
S'\xfc\xae\x8a\x9eM\xc4\x8a\xaek\x8c\xa44\xa7\x1e/\x0c'
p1171
ssS'user_system_admin'
p1172
(dp1173
g6
(dp1174
g54
S'user_system_admin.html'
p1175
sg56
S'user_system/admin'
p1176
sg58
g13
(g14
g15
NtRp1177
(dp1178
g18
I1
sg19
I0
sg20
I19
sg21
I0
sg22
I0
sg23
I0
sg24
I0
sbssg25
S'\x92C\x8dV\xebQ \x935yR\xb1\xf2\x96E\xa5'
p1179
ssS'user_system_models_schools_academic_year_model'
p1180
(dp1181
g502
(dp1182
g54
S'user_system_models_schools_academic_year_model.html'
p1183
sg56
S'user_system/models/schools/academic_year_model'
p1184
sg58
g13
(g14
g15
NtRp1185
(dp1186
g18
I1
sg19
I0
sg20
I23
sg21
I0
sg22
I0
sg23
I0
sg24
I0
sbssg511
S'\xf1Zl\xd3\xdd4\xdcX&\xdf\xf0<.\x11FY'
p1187
ssS'user_system_models_users_tests___init__'
p1188
(dp1189
g6
(dp1190
g144
S'user_system_models_users_tests___init__.html'
p1191
sg146
S'user_system/models/users/tests/__init__'
p1192
sg148
g13
(g14
g15
NtRp1193
(dp1194
g18
I1
sg19
I0
sg20
I0
sg21
I0
sg22
I0
sg23
I0
sg24
I0
sbssg25
S'\x19g\xdfM\x1a\x019\xaf\x1baIeR\xe5u\xa7'
p1195
ssS'user_system_models_schools_tests_test_academic_year_model'
p1196
(dp1197
g502
(dp1198
g54
S'user_system_models_schools_tests_test_academic_year_model.html'
p1199
sg56
S'user_system/models/schools/tests/test_academic_year_model'
p1200
sg58
g13
(g14
g15
NtRp1201
(dp1202
g18
I1
sg19
I0
sg20
I28
sg21
I0
sg22
I0
sg23
I0
sg24
I0
sbssg511
S'{=\xee\xbc8\xbd\xa7\xdd\x0f!3\xf8\xf0os\xe2'
p1203
ssS'user_system_views_users_tests_test_delete_user_view'
p1204
(dp1205
g6
(dp1206
g8
S'user_system_views_users_tests_test_delete_user_view.html'
p1207
sg10
S'user_system/views/users/tests/test_delete_user_view'
p1208
sg12
g13
(g14
g15
NtRp1209
(dp1210
g18
I1
sg19
I0
sg20
I22
sg21
I0
sg22
I0
sg23
I0
sg24
I0
sbssg25
S'\xe4S$\xa1t\xc6\xbe\xc7\xb9^Y\x05{\x92KQ'
p1211
ssS'user_system_models_schools_organization_model'
p1212
(dp1213
g502
(dp1214
g8
S'user_system_models_schools_organization_model.html'
p1215
sg10
S'user_system/models/schools/organization_model'
p1216
sg12
g13
(g14
g15
NtRp1217
(dp1218
g18
I1
sg19
I0
sg20
I20
sg21
I0
sg22
I0
sg23
I0
sg24
I0
sbssg511
S'\x1fi\x9a\xcev\xa5J\xbd\xca\xac~\xed\x02 \xf4A'
p1219
ssS'create_views_books_tests_test_hide_book_view'
p1220
(dp1221
g1015
(dp1222
g8
S'create_views_books_tests_test_hide_book_view.html'
p1223
sg10
S'create/views/books/tests/test_hide_book_view'
p1224
sg12
g13
(g14
g15
NtRp1225
(dp1226
g18
I1
sg19
I0
sg20
I25
sg21
I0
sg22
I0
sg23
I0
sg24
I0
sbssg1021
S'\xe1\x17\x16\xca\x8a\xc5c\x1b\xce\xab\xb8\xf9G\x03\x9dQ'
p1227
ssS'user_system_models_schools_grade_model'
p1228
(dp1229
g526
(dp1230
g54
S'user_system_models_schools_grade_model.html'
p1231
sg56
S'user_system/models/schools/grade_model'
p1232
sg58
g13
(g14
g15
NtRp1233
(dp1234
g18
I1
sg19
I0
sg20
I17
sg21
I0
sg22
I0
sg23
I0
sg24
I0
sbssg535
S'{ZR\x02\x19\xff\x8a\x18@\xc2\xe4\xceM"t\xbb'
p1235
ssS'create_models_daily_quests_tests_test_daily_quest_model'
p1236
(dp1237
g643
(dp1238
g257
S'create_models_daily_quests_tests_test_daily_quest_model.html'
p1239
sg259
S'create/models/daily_quests/tests/test_daily_quest_model'
p1240
sg261
g13
(g14
g15
NtRp1241
(dp1242
g18
I1
sg19
I2
sg20
I51
sg21
I0
sg22
I0
sg23
I0
sg24
I0
sbssg649
S'\x16\x87\xb8\xd4K\xb4\x87\xf9\x84\xc4V\x94\x17\xf6\x1a\xf0'
p1243
ssS'create_serializers_questions_question_choice_serializer'
p1244
(dp1245
g6
(dp1246
g144
S'create_serializers_questions_question_choice_serializer.html'
p1247
sg146
S'create/serializers/questions/question_choice_serializer'
p1248
sg148
g13
(g14
g15
NtRp1249
(dp1250
g18
I1
sg19
I0
sg20
I6
sg21
I0
sg22
I0
sg23
I0
sg24
I0
sbssg25
S'\xfe6\xfd\x11\xaaH\xd9\xf4\xe6\x97\xd8\xea\xe5z%F'
p1251
ssS'create_views_books_tests_test_add_subchapter_view'
p1252
(dp1253
S'index'
p1254
(dp1255
g8
S'create_views_books_tests_test_add_subchapter_view.html'
p1256
sg10
S'create/views/books/tests/test_add_subchapter_view'
p1257
sg12
g13
(g14
g15
NtRp1258
(dp1259
g18
I1
sg19
I0
sg20
I60
sg21
I0
sg22
I0
sg23
I0
sg24
I0
sbssS'hash'
p1260
S"\xcc^2\xc4\xf2\xb1\xdc\xe8\xf0t\xb6\xcc\x1f\xce\xf1'"
p1261
ssS'create_models_quests_quest_model'
p1262
(dp1263
g154
(dp1264
g156
S'create_models_quests_quest_model.html'
p1265
sg158
S'create/models/quests/quest_model'
p1266
sg160
g13
(g14
g15
NtRp1267
(dp1268
g18
I1
sg19
I0
sg20
I35
sg21
I0
sg22
I0
sg23
I0
sg24
I0
sbssg163
S'\x14\xc3\xae6\xf8~0\xd9O*\xd7U\x8a\x9b\xfd\xb2'
p1269
ssS'create_models_tags_tag_history_model'
p1270
(dp1271
g89
(dp1272
g541
S'create_models_tags_tag_history_model.html'
p1273
sg543
S'create/models/tags/tag_history_model'
p1274
sg545
g13
(g14
g15
NtRp1275
(dp1276
g18
I1
sg19
I0
sg20
I37
sg21
I0
sg22
I0
sg23
I0
sg24
I0
sbssg98
S'\xae\xc8g\xc1\xf5l<\x1f\x9c\xaf\x17\xf98\r\xa1\xe2'
p1277
ssS'user_system_views_users_tests_test_remove_role_view'
p1278
(dp1279
g6
(dp1280
g8
S'user_system_views_users_tests_test_remove_role_view.html'
p1281
sg10
S'user_system/views/users/tests/test_remove_role_view'
p1282
sg12
g13
(g14
g15
NtRp1283
(dp1284
g18
I1
sg19
I0
sg20
I42
sg21
I0
sg22
I0
sg23
I0
sg24
I0
sbssg25
S'\xfb\x9b\xa3\xe5\x90\xe7q99\x19\x10"<@L\x8c'
p1285
ssS'create_admin'
p1286
(dp1287
g6
(dp1288
g133
S'create_admin.html'
p1289
sg135
S'create/admin'
p1290
sg137
g13
(g14
g15
NtRp1291
(dp1292
g18
I1
sg19
I0
sg20
I19
sg21
I0
sg22
I0
sg23
I0
sg24
I0
sbssg25
S'ZN7\x83ul\x10D\x1e\x9c\x9fY\x17\xc2\x9ft'
p1293
ssS'create_views_questions_tests_test_get_question_list_view'
p1294
(dp1295
g6
(dp1296
g8
S'create_views_questions_tests_test_get_question_list_view.html'
p1297
sg10
S'create/views/questions/tests/test_get_question_list_view'
p1298
sg12
g13
(g14
g15
NtRp1299
(dp1300
g18
I1
sg19
I0
sg20
I32
sg21
I0
sg22
I0
sg23
I0
sg24
I0
sbssg25
S'\xa2&\x88;1\\\xa2 \xb4&ejB\xd1%\x06'
p1301
ssS'create_models_questions_tests_test_question_template_model'
p1302
(dp1303
g154
(dp1304
g156
S'create_models_questions_tests_test_question_template_model.html'
p1305
sg158
S'create/models/questions/tests/test_question_template_model'
p1306
sg160
g13
(g14
g15
NtRp1307
(dp1308
g18
I1
sg19
I8
sg20
I71
sg21
I0
sg22
I0
sg23
I0
sg24
I0
sbssg163
S"\xe7\x9d\xf5b\xfc'>\xe8[\xda\x87Ow\xb2\x81d"
p1309
ssS'user_system_models_apps___init__'
p1310
(dp1311
g6
(dp1312
g144
S'user_system_models_apps___init__.html'
p1313
sg146
S'user_system/models/apps/__init__'
p1314
sg148
g13
(g14
g15
NtRp1315
(dp1316
g18
I1
sg19
I0
sg20
I1
sg21
I0
sg22
I0
sg23
I0
sg24
I0
sbssg25
S'\n\xe9\xce\x15)\x8d\xc6\xdd\xe0\x9b\x990[\xae\x8cl'
p1317
ssS'create_models_tags_tests_test_tag_history_model'
p1318
(dp1319
g89
(dp1320
g670
S'create_models_tags_tests_test_tag_history_model.html'
p1321
sg672
S'create/models/tags/tests/test_tag_history_model'
p1322
sg674
g13
(g14
g15
NtRp1323
(dp1324
g18
I1
sg19
I0
sg20
I56
sg21
I0
sg22
I0
sg23
I0
sg24
I0
sbssg98
S'J\xf0\xc3w\xa6Y\xf9A<\x1dl\xf8#\x87`\xee'
p1325
ssS'user_system_models_schools_course_model'
p1326
(dp1327
g526
(dp1328
g504
S'user_system_models_schools_course_model.html'
p1329
sg506
S'user_system/models/schools/course_model'
p1330
sg508
g13
(g14
g15
NtRp1331
(dp1332
g18
I1
sg19
I0
sg20
I20
sg21
I0
sg22
I0
sg23
I0
sg24
I0
sbssg535
S'\xe7I\x8e\xd7\xfbJe\x04x3\x84\x86\xa1\xd18\x85'
p1333
ssS'create_views_books_book_view'
p1334
(dp1335
g29
(dp1336
g8
S'create_views_books_book_view.html'
p1337
sg10
S'create/views/books/book_view'
p1338
sg12
g13
(g14
g15
NtRp1339
(dp1340
g18
I1
sg19
I32
sg20
I115
sg21
I0
sg22
I3
sg23
I1
sg24
I3
sbssg38
S'Q\x05);\xde\xb02(=\xec$\xd4\xcc\x15.:'
p1341
ssS'create_views_daily_quest_templates_daily_quest_template_view'
p1342
(dp1343
g255
(dp1344
g257
S'create_views_daily_quest_templates_daily_quest_template_view.html'
p1345
sg259
S'create/views/daily_quest_templates/daily_quest_template_view'
p1346
sg261
g13
(g14
g15
NtRp1347
(dp1348
g18
I1
sg19
I4
sg20
I20
sg21
I0
sg22
I0
sg23
I5
sg24
I4
sbssg264
S'*(w\xa3\x82\x06\xe8D\x8c\xaa+3\xbc\xe3\xa5\x1d'
p1349
ssS'create_models_quests___init__'
p1350
(dp1351
g154
(dp1352
g949
S'create_models_quests___init__.html'
p1353
sg951
S'create/models/quests/__init__'
p1354
sg953
g13
(g14
g15
NtRp1355
(dp1356
g18
I1
sg19
I0
sg20
I2
sg21
I0
sg22
I0
sg23
I0
sg24
I0
sbssg163
S'\x1e\x87\x83\xe2\x04\x1d\xcd:`\x99V\x85#\xca\x12^'
p1357
ssS'user_system_views_signups_hardcoded_tests_test_test_account_view'
p1358
(dp1359
g6
(dp1360
g8
S'user_system_views_signups_hardcoded_tests_test_test_account_view.html'
p1361
sg10
S'user_system/views/signups/hardcoded/tests/test_test_account_view'
p1362
sg12
g13
(g14
g15
NtRp1363
(dp1364
g18
I1
sg19
I0
sg20
I24
sg21
I0
sg22
I0
sg23
I0
sg24
I0
sbssg25
S'@\xc3::\xf8h\x1aT\x9f\x83\xee1\xb7\x9a\xe0\xf9'
p1365
ssS'create_models_questions_question_template_model'
p1366
(dp1367
g154
(dp1368
g156
S'create_models_questions_question_template_model.html'
p1369
sg158
S'create/models/questions/question_template_model'
p1370
sg160
g13
(g14
g15
NtRp1371
(dp1372
g18
I1
sg19
I0
sg20
I40
sg21
I0
sg22
I0
sg23
I0
sg24
I0
sbssg163
S'\x845gz\x1d\x17\x1dv\x81\n\x96G\x99pE\\'
p1373
ssS'create_views_questions_tests_test_get_question_by_id_view'
p1374
(dp1375
g6
(dp1376
g8
S'create_views_questions_tests_test_get_question_by_id_view.html'
p1377
sg10
S'create/views/questions/tests/test_get_question_by_id_view'
p1378
sg12
g13
(g14
g15
NtRp1379
(dp1380
g18
I1
sg19
I0
sg20
I24
sg21
I0
sg22
I0
sg23
I0
sg24
I0
sbssg25
S'\xa7[\x91\xa9\xa6\xb4\xbd&n$O^O\xec\xf2X'
p1381
ssS'create_models_tags_concept_model'
p1382
(dp1383
g42
(dp1384
g8
S'create_models_tags_concept_model.html'
p1385
sg10
S'create/models/tags/concept_model'
p1386
sg12
g13
(g14
g15
NtRp1387
(dp1388
g18
I1
sg19
I0
sg20
I10
sg21
I0
sg22
I0
sg23
I0
sg24
I0
sbssg48
S'@vb\xbd\xcay\xb1b\x9e\xaf\xc0v/\xd6\x13\xd3'
p1389
ssS'create_views_daily_quests_daily_quest_view'
p1390
(dp1391
g255
(dp1392
g257
S'create_views_daily_quests_daily_quest_view.html'
p1393
sg259
S'create/views/daily_quests/daily_quest_view'
p1394
sg261
g13
(g14
g15
NtRp1395
(dp1396
g18
I1
sg19
I8
sg20
I34
sg21
I0
sg22
I0
sg23
I17
sg24
I8
sbssg264
S'\x9b\xbe99\x1cP\x1d\xd8iT&I;\xb4\xbbf'
p1397
ssS'create_serializers_quests___init__'
p1398
(dp1399
g154
(dp1400
g257
S'create_serializers_quests___init__.html'
p1401
sg259
S'create/serializers/quests/__init__'
p1402
sg261
g13
(g14
g15
NtRp1403
(dp1404
g18
I1
sg19
I0
sg20
I2
sg21
I0
sg22
I0
sg23
I0
sg24
I0
sbssg163
S'm\x05\xd3w+\x06\x8c\xa0\xc4\xe4\xecc\xe0\xb0$\xde'
p1405
ssS'create_models_tags_tests___init__'
p1406
(dp1407
g42
(dp1408
S'html_filename'
p1409
S'create_models_tags_tests___init__.html'
p1410
sS'name'
p1411
S'create/models/tags/tests/__init__'
p1412
sS'nums'
p1413
g13
(g14
g15
NtRp1414
(dp1415
g18
I1
sg19
I0
sg20
I1
sg21
I0
sg22
I0
sg23
I0
sg24
I0
sbssg48
S'\xbc\xd6\xeb\xb3\xba\xcaz\xf7{\xd4B\xb5}l\xdf\x96'
p1416
ssS'create_serializers_books_book_subchapter_serializer'
p1417
(dp1418
g29
(dp1419
g31
S'create_serializers_books_book_subchapter_serializer.html'
p1420
sg33
S'create/serializers/books/book_subchapter_serializer'
p1421
sg35
g13
(g14
g15
NtRp1422
(dp1423
g18
I1
sg19
I0
sg20
I18
sg21
I0
sg22
I0
sg23
I3
sg24
I0
sbssg38
S'89\x89\x89\xd8\x94\xd2l\x98G]\xad\xe1\xf7\x93\xfc'
p1424
ssS'user_system_models_schools_classroom_model'
p1425
(dp1426
g526
(dp1427
g528
S'user_system_models_schools_classroom_model.html'
p1428
sg530
S'user_system/models/schools/classroom_model'
p1429
sg532
g13
(g14
g15
NtRp1430
(dp1431
g18
I1
sg19
I0
sg20
I20
sg21
I0
sg22
I0
sg23
I0
sg24
I0
sbssg535
S'\x91\xd2\xed\xaahx\x82\x01.\xc4t\x07\x14\xf42\x86'
p1432
ssS'create_views_quests___init__'
p1433
(dp1434
g154
(dp1435
g949
S'create_views_quests___init__.html'
p1436
sg951
S'create/views/quests/__init__'
p1437
sg953
g13
(g14
g15
NtRp1438
(dp1439
g18
I1
sg19
I0
sg20
I1
sg21
I0
sg22
I0
sg23
I0
sg24
I0
sbssg163
S'\x8d\x97\x8c^6\xf0o\xc3_\x8dRQ}\xd2]a'
p1440
ssS'create_views_books_tests_test_remove_subchapter_view'
p1441
(dp1442
S'index'
p1443
(dp1444
g8
S'create_views_books_tests_test_remove_subchapter_view.html'
p1445
sg10
S'create/views/books/tests/test_remove_subchapter_view'
p1446
sg12
g13
(g14
g15
NtRp1447
(dp1448
g18
I1
sg19
I0
sg20
I44
sg21
I0
sg22
I0
sg23
I0
sg24
I0
sbssS'hash'
p1449
S'\x0b\xddi\xaa_d\x8c\xf3b\xa2\x12\xbc\xce\xa5\xbf\x8b'
p1450
ssS'create_models_quests_tests___init__'
p1451
(dp1452
g154
(dp1453
g949
S'create_models_quests_tests___init__.html'
p1454
sg951
S'create/models/quests/tests/__init__'
p1455
sg953
g13
(g14
g15
NtRp1456
(dp1457
g18
I1
sg19
I0
sg20
I1
sg21
I0
sg22
I0
sg23
I0
sg24
I0
sbssg163
S'\xbc\xd6\xeb\xb3\xba\xcaz\xf7{\xd4B\xb5}l\xdf\x96'
p1458
ssS'user_system_models_schools_semester_model'
p1459
(dp1460
g502
(dp1461
g54
S'user_system_models_schools_semester_model.html'
p1462
sg56
S'user_system/models/schools/semester_model'
p1463
sg58
g13
(g14
g15
NtRp1464
(dp1465
g18
I1
sg19
I0
sg20
I23
sg21
I0
sg22
I0
sg23
I0
sg24
I0
sbssg511
S'\x9f&7d<%\x13 \xcaht\xc4\xd4N\xee&'
p1466
ssS'create_views_questions___init__'
p1467
(dp1468
g6
(dp1469
g949
S'create_views_questions___init__.html'
p1470
sg951
S'create/views/questions/__init__'
p1471
sg953
g13
(g14
g15
NtRp1472
(dp1473
g18
I1
sg19
I0
sg20
I2
sg21
I0
sg22
I0
sg23
I0
sg24
I0
sbssg25
S'\xb2S\x05z\x8b_9u)\x95\\\xf7!yS\xf0'
p1474
ssS'user_system_models___init__'
p1475
(dp1476
g6
(dp1477
g91
S'user_system_models___init__.html'
p1478
sg93
S'user_system/models/__init__'
p1479
sg95
g13
(g14
g15
NtRp1480
(dp1481
g18
I1
sg19
I0
sg20
I4
sg21
I0
sg22
I0
sg23
I0
sg24
I0
sbssg25
S"\xe9'\xed1xn\xd7\xe4\x91\x8ei\xc0\x0f\x1b\x9eY"
p1482
ssS'create_models_questions_tests_test_question_model'
p1483
(dp1484
g6
(dp1485
g194
S'create_models_questions_tests_test_question_model.html'
p1486
sg196
S'create/models/questions/tests/test_question_model'
p1487
sg198
g13
(g14
g15
NtRp1488
(dp1489
g18
I1
sg19
I8
sg20
I50
sg21
I0
sg22
I0
sg23
I0
sg24
I0
sbssg25
S'\x04\x01\x05\x16h\xb7\xc0}\xfab\x172$J\x1d\n'
p1490
ssS'user_system_models_schools_tests_test_course_model'
p1491
(dp1492
g526
(dp1493
g54
S'user_system_models_schools_tests_test_course_model.html'
p1494
sg56
S'user_system/models/schools/tests/test_course_model'
p1495
sg58
g13
(g14
g15
NtRp1496
(dp1497
g18
I1
sg19
I0
sg20
I26
sg21
I0
sg22
I0
sg23
I0
sg24
I0
sbssg535
S'\xa7\xfa\x87\xea\xdd\xb4\xcb\xa8\x9c\xeaQ&\xfc\xa2a\xcc'
p1498
ssS'user_system_models_apps_tests___init__'
p1499
(dp1500
g6
(dp1501
g144
S'user_system_models_apps_tests___init__.html'
p1502
sg146
S'user_system/models/apps/tests/__init__'
p1503
sg148
g13
(g14
g15
NtRp1504
(dp1505
g18
I1
sg19
I0
sg20
I0
sg21
I0
sg22
I0
sg23
I0
sg24
I0
sbssg25
S'\x19g\xdfM\x1a\x019\xaf\x1baIeR\xe5u\xa7'
p1506
ssS'create_models_question_datasets_tests___init__'
p1507
(dp1508
g167
(dp1509
g133
S'create_models_question_datasets_tests___init__.html'
p1510
sg135
S'create/models/question_datasets/tests/__init__'
p1511
sg137
g13
(g14
g15
NtRp1512
(dp1513
g18
I1
sg19
I0
sg20
I0
sg21
I0
sg22
I0
sg23
I0
sg24
I0
sbssg173
S'\x19g\xdfM\x1a\x019\xaf\x1baIeR\xe5u\xa7'
p1514
ssS'create_models_quests_tests_test_quest_history_model'
p1515
(dp1516
g154
(dp1517
g194
S'create_models_quests_tests_test_quest_history_model.html'
p1518
sg196
S'create/models/quests/tests/test_quest_history_model'
p1519
sg198
g13
(g14
g15
NtRp1520
(dp1521
g18
I1
sg19
I0
sg20
I56
sg21
I0
sg22
I0
sg23
I0
sg24
I0
sbssg163
S'\xf0f\x05^\xea\x97\x14\x0f\x89\xb4~.\xea$\x9er'
p1522
ssS'create_views_summary___init__'
p1523
(dp1524
g834
(dp1525
g415
S'create_views_summary___init__.html'
p1526
sg417
S'create/views/summary/__init__'
p1527
sg419
g13
(g14
g15
NtRp1528
(dp1529
g18
I1
sg19
I0
sg20
I1
sg21
I0
sg22
I0
sg23
I0
sg24
I0
sbssg840
S'#\xb7\xbd\xa1M\xe4\xa0\x05\xf5x\x057hU[\xca'
p1530
ssS'create_models_daily_quest_templates___init__'
p1531
(dp1532
g255
(dp1533
g257
S'create_models_daily_quest_templates___init__.html'
p1534
sg259
S'create/models/daily_quest_templates/__init__'
p1535
sg261
g13
(g14
g15
NtRp1536
(dp1537
g18
I1
sg19
I0
sg20
I1
sg21
I0
sg22
I0
sg23
I0
sg24
I0
sbssg264
S'\x12\x89x\xb9F\xfb=b\x04\xddy\xb4\xccZb\xb8'
p1538
ssS'user_system___init__'
p1539
(dp1540
g6
(dp1541
g144
S'user_system___init__.html'
p1542
sg146
S'user_system/__init__'
p1543
sg148
g13
(g14
g15
NtRp1544
(dp1545
g18
I1
sg19
I0
sg20
I0
sg21
I0
sg22
I0
sg23
I0
sg24
I0
sbssg25
S'\x19g\xdfM\x1a\x019\xaf\x1baIeR\xe5u\xa7'
p1546
ssS'create_models_question_datasets_question_dataset_model'
p1547
(dp1548
g167
(dp1549
g133
S'create_models_question_datasets_question_dataset_model.html'
p1550
sg135
S'create/models/question_datasets/question_dataset_model'
p1551
sg137
g13
(g14
g15
NtRp1552
(dp1553
g18
I1
sg19
I0
sg20
I25
sg21
I0
sg22
I0
sg23
I0
sg24
I0
sbssg173
S'\x9e\x8d\xc6\xe6\xe4\x9f#\xfdc\xc9q\r\x17Y\x8e\xb1'
p1554
ssS'user_system_views_signups_hardcoded_test_account_view'
p1555
(dp1556
g6
(dp1557
g8
S'user_system_views_signups_hardcoded_test_account_view.html'
p1558
sg10
S'user_system/views/signups/hardcoded/test_account_view'
p1559
sg12
g13
(g14
g15
NtRp1560
(dp1561
g18
I1
sg19
I2
sg20
I18
sg21
I0
sg22
I0
sg23
I0
sg24
I0
sbssg25
S"\xb4\xf1\xfdH\x8f\xf1QX7'\\\xd3\xab.\xbc\x80"
p1562
ssS'create_serializers_questions___init__'
p1563
(dp1564
g6
(dp1565
g670
S'create_serializers_questions___init__.html'
p1566
sg672
S'create/serializers/questions/__init__'
p1567
sg674
g13
(g14
g15
NtRp1568
(dp1569
g18
I1
sg19
I0
sg20
I4
sg21
I0
sg22
I0
sg23
I0
sg24
I0
sbssg25
S')\xbe\xb9]:)\xb0\xc6\x08\x19i\x1f\xc4\xdf\xc8 '
p1570
ssS'create_views_tags_tests_test_get_tag_by_id_view'
p1571
(dp1572
g292
(dp1573
g8
S'create_views_tags_tests_test_get_tag_by_id_view.html'
p1574
sg10
S'create/views/tags/tests/test_get_tag_by_id_view'
p1575
sg12
g13
(g14
g15
NtRp1576
(dp1577
g18
I1
sg19
I0
sg20
I20
sg21
I0
sg22
I0
sg23
I0
sg24
I0
sbssg301
S'T\xd5\xd7\xd9\xb8\x12\x81xj\xca\x90\xa41\xcf\x02]'
p1578
ssS'create_views_question_datasets___init__'
p1579
(dp1580
g167
(dp1581
g133
S'create_views_question_datasets___init__.html'
p1582
sg135
S'create/views/question_datasets/__init__'
p1583
sg137
g13
(g14
g15
NtRp1584
(dp1585
g18
I1
sg19
I0
sg20
I1
sg21
I0
sg22
I0
sg23
I0
sg24
I0
sbssg173
S'\x87x\xd1\xbe\x15\xd3\xbc\x99\x86\x08\xf8\x06S\xcf\x00\x87'
p1586
ssS'user_system_models_users_tests_test_user_profile_model'
p1587
(dp1588
g6
(dp1589
g541
S'user_system_models_users_tests_test_user_profile_model.html'
p1590
sg543
S'user_system/models/users/tests/test_user_profile_model'
p1591
sg545
g13
(g14
g15
NtRp1592
(dp1593
g18
I1
sg19
I0
sg20
I82
sg21
I0
sg22
I0
sg23
I0
sg24
I0
sbssg25
S'\x11\\c?\xb7\xb3\xb2\x86Y|\xde[i\x1a\x92\xe0'
p1594
ssS'create_views_books_tests_test_get_books_list_view'
p1595
(dp1596
g1015
(dp1597
g8
S'create_views_books_tests_test_get_books_list_view.html'
p1598
sg10
S'create/views/books/tests/test_get_books_list_view'
p1599
sg12
g13
(g14
g15
NtRp1600
(dp1601
g18
I1
sg19
I0
sg20
I21
sg21
I0
sg22
I0
sg23
I0
sg24
I0
sbssg1021
S'\x16\x8f\xf1\x81>\x0f\xb4S\x19\xff\xcd\xc1Y\xe9;\x98'
p1602
ssS'user_system_views_roles_tests_test_user_role_view'
p1603
(dp1604
g6
(dp1605
g8
S'user_system_views_roles_tests_test_user_role_view.html'
p1606
sg10
S'user_system/views/roles/tests/test_user_role_view'
p1607
sg12
g13
(g14
g15
NtRp1608
(dp1609
g18
I1
sg19
I0
sg20
I41
sg21
I0
sg22
I0
sg23
I0
sg24
I0
sbssg25
S'\xaf \x02-\xd3\xa9\xee\x1e7\x87\xa8[\xd9\xd8V\xd8'
p1610
ssS'user_system_views_signups_hardcoded_tests___init__'
p1611
(dp1612
g6
(dp1613
g144
S'user_system_views_signups_hardcoded_tests___init__.html'
p1614
sg146
S'user_system/views/signups/hardcoded/tests/__init__'
p1615
sg148
g13
(g14
g15
NtRp1616
(dp1617
g18
I1
sg19
I0
sg20
I0
sg21
I0
sg22
I0
sg23
I0
sg24
I0
sbssg25
S'\x19g\xdfM\x1a\x019\xaf\x1baIeR\xe5u\xa7'
p1618
ssS'user_system_views_signups___init__'
p1619
(dp1620
g6
(dp1621
g144
S'user_system_views_signups___init__.html'
p1622
sg146
S'user_system/views/signups/__init__'
p1623
sg148
g13
(g14
g15
NtRp1624
(dp1625
g18
I1
sg19
I0
sg20
I4
sg21
I0
sg22
I0
sg23
I0
sg24
I0
sbssg25
S'\x02\x1d\x90mQ#+\xc5\x93\xdb\xa4Hs\xcf\xa8\x97'
p1626
ssS'create_views_tags_tag_view'
p1627
(dp1628
g292
(dp1629
g257
S'create_views_tags_tag_view.html'
p1630
sg259
S'create/views/tags/tag_view'
p1631
sg261
g13
(g14
g15
NtRp1632
(dp1633
g18
I1
sg19
I30
sg20
I89
sg21
I0
sg22
I7
sg23
I12
sg24
I15
sbssg301
S'\x00#\x7f\xd9rw\xee\xf3d\xce\\3b\xa52,'
p1634
ssS'flipped_helpers_parameters_helper'
p1635
(dp1636
g6
(dp1637
g8
S'flipped_helpers_parameters_helper.html'
p1638
sg10
S'flipped/helpers/parameters_helper'
p1639
sg12
g13
(g14
g15
NtRp1640
(dp1641
g18
I1
sg19
I10
sg20
I17
sg21
I0
sg22
I0
sg23
I0
sg24
I0
sbssg25
S'\xc5\x1f\xc5\x05\x86\x13\xf6\xa2\xb5\x07e\xa9_\x00[\xa8'
p1642
ssS'api_logging_managers'
p1643
(dp1644
g89
(dp1645
g8
S'api_logging_managers.html'
p1646
sg10
S'api_logging/managers'
p1647
sg12
g13
(g14
g15
NtRp1648
(dp1649
g18
I1
sg19
I0
sg20
I4
sg21
I0
sg22
I0
sg23
I0
sg24
I0
sbssg98
S'\xef\xaf\x98\xcd63\x10\x1c\xc1\xfcP\x12\xc1\xe7\xa5\xc7'
p1650
ssS'create_serializers_questions_question_serializer'
p1651
(dp1652
g6
(dp1653
g31
S'create_serializers_questions_question_serializer.html'
p1654
sg33
S'create/serializers/questions/question_serializer'
p1655
sg35
g13
(g14
g15
NtRp1656
(dp1657
g18
I1
sg19
I0
sg20
I45
sg21
I0
sg22
I0
sg23
I6
sg24
I0
sbssg25
S'\xe0\xd0\xaf\x11\x82Rs{R_o\xa0\x1ew\xb6\x9b'
p1658
ssS'create_views_tags_tests_test_add_prerequisite_view'
p1659
(dp1660
g680
(dp1661
g8
S'create_views_tags_tests_test_add_prerequisite_view.html'
p1662
sg10
S'create/views/tags/tests/test_add_prerequisite_view'
p1663
sg12
g13
(g14
g15
NtRp1664
(dp1665
g18
I1
sg19
I0
sg20
I26
sg21
I0
sg22
I0
sg23
I0
sg24
I0
sbssg686
S'\xd2\xef\x02\xe1{\xbc\x9b\xf3\x8b\xbd\xf0\xd2\xe7\xcc\xb5\xa4'
p1666
ssS'user_system_models_users_teacher_mapping_model'
p1667
(dp1668
g52
(dp1669
g528
S'user_system_models_users_teacher_mapping_model.html'
p1670
sg530
S'user_system/models/users/teacher_mapping_model'
p1671
sg532
g13
(g14
g15
NtRp1672
(dp1673
g18
I1
sg19
I0
sg20
I18
sg21
I0
sg22
I0
sg23
I0
sg24
I0
sbssg61
S'\xf9\x99\xaa\xb3\xc8hV\xa9\x98ls\x92\x18"\xc3\xa6'
p1674
ssS'create_models_tags___init__'
p1675
(dp1676
g42
(dp1677
g103
S'create_models_tags___init__.html'
p1678
sg105
S'create/models/tags/__init__'
p1679
sg107
g13
(g14
g15
NtRp1680
(dp1681
g18
I1
sg19
I0
sg20
I5
sg21
I0
sg22
I0
sg23
I0
sg24
I0
sbssg48
S'\xcck\xb0R5)\xa8c\xdb\xa6\xfb\xec\x18 \xde}'
p1682
ssS'user_system_models_roles_role_model'
p1683
(dp1684
g6
(dp1685
g8
S'user_system_models_roles_role_model.html'
p1686
sg10
S'user_system/models/roles/role_model'
p1687
sg12
g13
(g14
g15
NtRp1688
(dp1689
g18
I1
sg19
I0
sg20
I16
sg21
I0
sg22
I0
sg23
I0
sg24
I0
sbssg25
S'\x180j\xc8\x05 \xa05\xa7\xffj\x1dJ\x8a6\xcb'
p1690
ssS'user_system_views___init__'
p1691
(dp1692
g6
(dp1693
g144
S'user_system_views___init__.html'
p1694
sg146
S'user_system/views/__init__'
p1695
sg148
g13
(g14
g15
NtRp1696
(dp1697
g18
I1
sg19
I0
sg20
I4
sg21
I0
sg22
I0
sg23
I0
sg24
I0
sbssg25
S'\xb4\xb2\xf3\xe1"\'\x90\t\x19D\xca\x15\x9e/\xc3\x06'
p1698
ssS'create_models_books_tests_test_book_history_model'
p1699
(dp1700
g29
(dp1701
g103
S'create_models_books_tests_test_book_history_model.html'
p1702
sg105
S'create/models/books/tests/test_book_history_model'
p1703
sg107
g13
(g14
g15
NtRp1704
(dp1705
g18
I1
sg19
I0
sg20
I44
sg21
I0
sg22
I0
sg23
I0
sg24
I0
sbssg38
S'\xc0\xbc6\xd3\xc6\x96U\x0fRlx\xbe\xc5\x0f8\xfa'
p1706
ssS'create_views_books_tests_test_create_new_book'
p1707
(dp1708
S'index'
p1709
(dp1710
g8
S'create_views_books_tests_test_create_new_book.html'
p1711
sg10
S'create/views/books/tests/test_create_new_book'
p1712
sg12
g13
(g14
g15
NtRp1713
(dp1714
g18
I1
sg19
I0
sg20
I18
sg21
I0
sg22
I0
sg23
I0
sg24
I0
sbssS'hash'
p1715
S'\xe3\xaew\xf8\xd7\x8f\xc5 \x85\xc1\xb6I\x82X(-'
p1716
ssS'user_system_views_roles_user_role_view'
p1717
(dp1718
g6
(dp1719
g8
S'user_system_views_roles_user_role_view.html'
p1720
sg10
S'user_system/views/roles/user_role_view'
p1721
sg12
g13
(g14
g15
NtRp1722
(dp1723
g18
I1
sg19
I8
sg20
I31
sg21
I0
sg22
I0
sg23
I0
sg24
I0
sbssg25
S'S@\xea\xb7\xd6\xe1\x1b\x1dU\x18a\x9d\x80\xe3A\xb9'
p1724
ssS'create_views_daily_quests___init__'
p1725
(dp1726
g255
(dp1727
g257
S'create_views_daily_quests___init__.html'
p1728
sg259
S'create/views/daily_quests/__init__'
p1729
sg261
g13
(g14
g15
NtRp1730
(dp1731
g18
I1
sg19
I0
sg20
I1
sg21
I0
sg22
I0
sg23
I0
sg24
I0
sbssg264
S'\xa3\x08\xf3\xbaF\xd5u\x88\x12\xa3V\x05K\xe5\xd0\xa9'
p1732
ssS'create_models_daily_quests___init__'
p1733
(dp1734
g643
(dp1735
g670
S'create_models_daily_quests___init__.html'
p1736
sg672
S'create/models/daily_quests/__init__'
p1737
sg674
g13
(g14
g15
NtRp1738
(dp1739
g18
I1
sg19
I0
sg20
I1
sg21
I0
sg22
I0
sg23
I0
sg24
I0
sbssg649
S'\x94\x0eB\xb3\x8e\xc6\x81\xc0\x16\x84P.\x11:\x8e\xc9'
p1740
ssS'create_serializers_questions_question_type_serializer'
p1741
(dp1742
g6
(dp1743
g144
S'create_serializers_questions_question_type_serializer.html'
p1744
sg146
S'create/serializers/questions/question_type_serializer'
p1745
sg148
g13
(g14
g15
NtRp1746
(dp1747
g18
I1
sg19
I0
sg20
I6
sg21
I0
sg22
I0
sg23
I0
sg24
I0
sbssg25
S'!\x8a\x91KA:\x92\x13/\xdd\xd9\xc2?\x8b\xe1\xc6'
p1748
ssS'flipped_helpers_email_helper'
p1749
(dp1750
g6
(dp1751
g8
S'flipped_helpers_email_helper.html'
p1752
sg10
S'flipped/helpers/email_helper'
p1753
sg12
g13
(g14
g15
NtRp1754
(dp1755
g18
I1
sg19
I2
sg20
I9
sg21
I0
sg22
I0
sg23
I0
sg24
I0
sbssg25
S"\xeal\t\x03)\xcc\xc4\x0b\r\xe2&\x83a'I\xad"
p1756
ssS'user_system_views_signups_verify_email_view'
p1757
(dp1758
g6
(dp1759
g8
S'user_system_views_signups_verify_email_view.html'
p1760
sg10
S'user_system/views/signups/verify_email_view'
p1761
sg12
g13
(g14
g15
NtRp1762
(dp1763
g18
I1
sg19
I6
sg20
I26
sg21
I0
sg22
I0
sg23
I0
sg24
I0
sbssg25
S"B+;\xbf\xb1A\x1f\n\x94\x0e\xeb\xd0\xf1Y'l"
p1764
ssS'user_system_models_users_tests_test_user_facebook_model'
p1765
(dp1766
g6
(dp1767
g8
S'user_system_models_users_tests_test_user_facebook_model.html'
p1768
sg10
S'user_system/models/users/tests/test_user_facebook_model'
p1769
sg12
g13
(g14
g15
NtRp1770
(dp1771
g18
I1
sg19
I0
sg20
I29
sg21
I0
sg22
I0
sg23
I0
sg24
I0
sbssg25
S'B\xac\x06Z\x1f7\xba2\x81\xd7\xb4\x17\xaf\x84u+'
p1772
ssS'create_models_tags_tests_test_concept_model'
p1773
(dp1774
g42
(dp1775
g8
S'create_models_tags_tests_test_concept_model.html'
p1776
sg10
S'create/models/tags/tests/test_concept_model'
p1777
sg12
g13
(g14
g15
NtRp1778
(dp1779
g18
I1
sg19
I0
sg20
I12
sg21
I0
sg22
I0
sg23
I0
sg24
I0
sbssg48
S'@\x95\xd9\xf7\xa5\xc4\x0c\xb1\xad\xa4\xf5p\x95\x06!N'
p1780
ssS'create_models_questions_question_choice_model'
p1781
(dp1782
g6
(dp1783
g949
S'create_models_questions_question_choice_model.html'
p1784
sg951
S'create/models/questions/question_choice_model'
p1785
sg953
g13
(g14
g15
NtRp1786
(dp1787
g18
I1
sg19
I0
sg20
I40
sg21
I0
sg22
I0
sg23
I2
sg24
I0
sbssg25
S'\xb7k7\x1f\xe0\xe1\xbcH\xfd\xdc,\r\xe0\x1ea\xac'
p1788
ssS'flipped_helpers_tests___init__'
p1789
(dp1790
g6
(dp1791
g144
S'flipped_helpers_tests___init__.html'
p1792
sg146
S'flipped/helpers/tests/__init__'
p1793
sg148
g13
(g14
g15
NtRp1794
(dp1795
g18
I1
sg19
I0
sg20
I0
sg21
I0
sg22
I0
sg23
I0
sg24
I0
sbssg25
S'\x19g\xdfM\x1a\x019\xaf\x1baIeR\xe5u\xa7'
p1796
ssS'user_system_views_logins_tests___init__'
p1797
(dp1798
g6
(dp1799
g144
S'user_system_views_logins_tests___init__.html'
p1800
sg146
S'user_system/views/logins/tests/__init__'
p1801
sg148
g13
(g14
g15
NtRp1802
(dp1803
g18
I1
sg19
I0
sg20
I1
sg21
I0
sg22
I0
sg23
I0
sg24
I0
sbssg25
S'\xbc\xd6\xeb\xb3\xba\xcaz\xf7{\xd4B\xb5}l\xdf\x96'
p1804
ssS'user_system_serializers_users_list_user_serializer'
p1805
(dp1806
g6
(dp1807
g8
S'user_system_serializers_users_list_user_serializer.html'
p1808
sg10
S'user_system/serializers/users/list_user_serializer'
p1809
sg12
g13
(g14
g15
NtRp1810
(dp1811
g18
I1
sg19
I0
sg20
I18
sg21
I0
sg22
I0
sg23
I0
sg24
I0
sbssg25
S'\xdfK>6\xe0\x8d\xcd\xd4/O\xef\xaa\xd0\x9efX'
p1812
ssS'user_system_serializers_app_serializer'
p1813
(dp1814
g6
(dp1815
g144
S'user_system_serializers_app_serializer.html'
p1816
sg146
S'user_system/serializers/app_serializer'
p1817
sg148
g13
(g14
g15
NtRp1818
(dp1819
g18
I1
sg19
I0
sg20
I7
sg21
I0
sg22
I0
sg23
I0
sg24
I0
sbssg25
S'\xc1\x87\xd6\x1b\xbe\x8f\xfb\xdd\x1a\xa9\x92A\xe2\xc3\xe2\xf1'
p1820
ssS'user_system_models_roles_role_app_model'
p1821
(dp1822
g6
(dp1823
g8
S'user_system_models_roles_role_app_model.html'
p1824
sg10
S'user_system/models/roles/role_app_model'
p1825
sg12
g13
(g14
g15
NtRp1826
(dp1827
g18
I1
sg19
I0
sg20
I18
sg21
I0
sg22
I0
sg23
I0
sg24
I0
sbssg25
S'\x8d\xa3&\x03\x9d\x1cO|\xces.\x11/\x8f`\xcc'
p1828
ssS'create_serializers_tags_concept_serializer'
p1829
(dp1830
g29
(dp1831
g122
S'create_serializers_tags_concept_serializer.html'
p1832
sg124
S'create/serializers/tags/concept_serializer'
p1833
sg126
g13
(g14
g15
NtRp1834
(dp1835
g18
I1
sg19
I0
sg20
I6
sg21
I0
sg22
I0
sg23
I0
sg24
I0
sbssg38
S'\xf1\xe0\xc7%%\xbd\xfc@\x12\x02\x96\xbb\x0c\xbf\x9fq'
p1836
ssS'create_models_tags_tests_test_tag_model'
p1837
(dp1838
g42
(dp1839
g8
S'create_models_tags_tests_test_tag_model.html'
p1840
sg10
S'create/models/tags/tests/test_tag_model'
p1841
sg12
g13
(g14
g15
NtRp1842
(dp1843
g18
I1
sg19
I0
sg20
I32
sg21
I0
sg22
I0
sg23
I0
sg24
I0
sbssg48
S'\xe1A7\xdf\x189Je\xa5\x8e\xf7\x89\x9f\x87%R'
p1844
ssS'create_views_tags_tests_test_remove_prerequisite_view'
p1845
(dp1846
g680
(dp1847
g8
S'create_views_tags_tests_test_remove_prerequisite_view.html'
p1848
sg10
S'create/views/tags/tests/test_remove_prerequisite_view'
p1849
sg12
g13
(g14
g15
NtRp1850
(dp1851
g18
I1
sg19
I0
sg20
I31
sg21
I0
sg22
I0
sg23
I0
sg24
I0
sbssg686
S'\x8e\x8c~\xff\x85\x94\x8c~T\x7f\x80\x82W\x96\x19\x9c'
p1852
ssS'user_system_serializers_users_user_serializer'
p1853
(dp1854
g6
(dp1855
g8
S'user_system_serializers_users_user_serializer.html'
p1856
sg10
S'user_system/serializers/users/user_serializer'
p1857
sg12
g13
(g14
g15
NtRp1858
(dp1859
g18
I1
sg19
I0
sg20
I24
sg21
I0
sg22
I0
sg23
I0
sg24
I0
sbssg25
S'\x9b\x08-K@\xc4\xe3\x95\x806\xc7:Q\xcf#h'
p1860
ssS'user_system_models_roles_tests___init__'
p1861
(dp1862
g6
(dp1863
g144
S'user_system_models_roles_tests___init__.html'
p1864
sg146
S'user_system/models/roles/tests/__init__'
p1865
sg148
g13
(g14
g15
NtRp1866
(dp1867
g18
I1
sg19
I0
sg20
I0
sg21
I0
sg22
I0
sg23
I0
sg24
I0
sbssg25
S'\x19g\xdfM\x1a\x019\xaf\x1baIeR\xe5u\xa7'
p1868
ssS'create_serializers_tags___init__'
p1869
(dp1870
S'index'
p1871
(dp1872
S'html_filename'
p1873
S'create_serializers_tags___init__.html'
p1874
sS'name'
p1875
S'create/serializers/tags/__init__'
p1876
sS'nums'
p1877
g13
(g14
g15
NtRp1878
(dp1879
g18
I1
sg19
I0
sg20
I0
sg21
I0
sg22
I0
sg23
I0
sg24
I0
sbssS'hash'
p1880
S'\x19g\xdfM\x1a\x019\xaf\x1baIeR\xe5u\xa7'
p1881
ssS'create_views_tags_tests_test_hide_tag_view'
p1882
(dp1883
g292
(dp1884
g8
S'create_views_tags_tests_test_hide_tag_view.html'
p1885
sg10
S'create/views/tags/tests/test_hide_tag_view'
p1886
sg12
g13
(g14
g15
NtRp1887
(dp1888
g18
I1
sg19
I0
sg20
I25
sg21
I0
sg22
I0
sg23
I0
sg24
I0
sbssg301
S'\x8a\x07\xe0\xe1Q\x820\x05R\x14E\xd0\xdf\x8e\xc5\x8a'
p1889
ssS'create_serializers_daily_quest_templates_daily_quest_template_serializer'
p1890
(dp1891
g255
(dp1892
g257
S'create_serializers_daily_quest_templates_daily_quest_template_serializer.html'
p1893
sg259
S'create/serializers/daily_quest_templates/daily_quest_template_serializer'
p1894
sg261
g13
(g14
g15
NtRp1895
(dp1896
g18
I1
sg19
I0
sg20
I8
sg21
I0
sg22
I0
sg23
I0
sg24
I0
sbssg264
S'-b,\x8cFu\xd2b\x8b\rw5\xa4\xf7\xc3\xf2'
p1897
ssS'create_serializers_daily_quests___init__'
p1898
(dp1899
g643
(dp1900
g257
S'create_serializers_daily_quests___init__.html'
p1901
sg259
S'create/serializers/daily_quests/__init__'
p1902
sg261
g13
(g14
g15
NtRp1903
(dp1904
g18
I1
sg19
I0
sg20
I1
sg21
I0
sg22
I0
sg23
I0
sg24
I0
sbssg649
S'N\xb8\x18\x1c\x0c\xc7\xca\x91\xa0|\xe1\x02L\xeeC\xbe'
p1905
ssS'create_views_books_tests___init__'
p1906
(dp1907
g1015
(dp1908
S'html_filename'
p1909
S'create_views_books_tests___init__.html'
p1910
sS'name'
p1911
S'create/views/books/tests/__init__'
p1912
sS'nums'
p1913
g13
(g14
g15
NtRp1914
(dp1915
g18
I1
sg19
I0
sg20
I0
sg21
I0
sg22
I0
sg23
I0
sg24
I0
sbssg1021
S'\x19g\xdfM\x1a\x019\xaf\x1baIeR\xe5u\xa7'
p1916
ssS'user_system_models_apps_tests_test_app_model'
p1917
(dp1918
g6
(dp1919
g8
S'user_system_models_apps_tests_test_app_model.html'
p1920
sg10
S'user_system/models/apps/tests/test_app_model'
p1921
sg12
g13
(g14
g15
NtRp1922
(dp1923
g18
I1
sg19
I0
sg20
I18
sg21
I0
sg22
I0
sg23
I0
sg24
I0
sbssg25
S'\xfb\xfc\xe0#\xe2\n\x8e\x9e\x94\xa8\x83\xc5\xb1U\xa3a'
p1924
ssS'create_views_tags_tests_test_create_tag_view'
p1925
(dp1926
g292
(dp1927
g8
S'create_views_tags_tests_test_create_tag_view.html'
p1928
sg10
S'create/views/tags/tests/test_create_tag_view'
p1929
sg12
g13
(g14
g15
NtRp1930
(dp1931
g18
I1
sg19
I0
sg20
I33
sg21
I0
sg22
I0
sg23
I0
sg24
I0
sbssg301
S'\\\x91{\x1a ;Qg\xbd\x81\xe2\xaf\xa41\xac\x1b'
p1932
sssS'version'
p1933
S'3.7.1'
p1934
sS'settings'
p1935
S'\x961E{\x0c29\xd1#\x83\xd3j9"\xd8\x10'
p1936
sS'format'
p1937
I1
s.