(dp1
S'files'
p2
(dp3
S'create_models_questions_tests_test_question_type_model'
p4
(dp5
S'index'
p6
(dp7
S'html_filename'
p8
S'create_models_questions_tests_test_question_type_model.html'
p9
sS'name'
p10
S'create/models/questions/tests/test_question_type_model'
p11
sS'nums'
p12
ccopy_reg
_reconstructor
p13
(ccoverage.results
Numbers
p14
c__builtin__
object
p15
NtRp16
(dp17
S'n_files'
p18
I1
sS'n_branches'
p19
I0
sS'n_statements'
p20
I17
sS'n_excluded'
p21
I0
sS'n_partial_branches'
p22
I0
sS'n_missing'
p23
I0
sS'n_missing_branches'
p24
I0
sbssS'hash'
p25
S'e\x1b\x19\xbb)\x89\xff\xfa\xe5\xca\xde\x08\x08CUL'
p26
ssS'user_system_views_signups_facebook_signup_view'
p27
(dp28
g6
(dp29
g8
S'user_system_views_signups_facebook_signup_view.html'
p30
sg10
S'user_system/views/signups/facebook_signup_view'
p31
sg12
g13
(g14
g15
NtRp32
(dp33
g18
I1
sg19
I8
sg20
I37
sg21
I0
sg22
I0
sg23
I0
sg24
I0
sbssg25
S'\xdf}\x9b\xe7\xda\xf8\x1a\x0f\x7f\xb6*G\x82\xfd%\xca'
p34
ssS'user_system_views_logins_tests_test_email_login_view'
p35
(dp36
g6
(dp37
g8
S'user_system_views_logins_tests_test_email_login_view.html'
p38
sg10
S'user_system/views/logins/tests/test_email_login_view'
p39
sg12
g13
(g14
g15
NtRp40
(dp41
g18
I1
sg19
I0
sg20
I61
sg21
I0
sg22
I0
sg23
I0
sg24
I0
sbssg25
S'\x926\xe8\xcdL\xf3U\xc1C\x1b\x0f\xaf\xf0c\x9b\xd0'
p42
ssS'user_system_models_roles_tests_test_role_app_model'
p43
(dp44
g6
(dp45
g8
S'user_system_models_roles_tests_test_role_app_model.html'
p46
sg10
S'user_system/models/roles/tests/test_role_app_model'
p47
sg12
g13
(g14
g15
NtRp48
(dp49
g18
I1
sg19
I0
sg20
I21
sg21
I0
sg22
I0
sg23
I0
sg24
I0
sbssg25
S"\x80\xd7v\xbb\xe5d.\xeb\xfd\xc4\x04\xb2\x04'\xc6V"
p50
ssS'create_views___init__'
p51
(dp52
g6
(dp53
g8
S'create_views___init__.html'
p54
sg10
S'create/views/__init__'
p55
sg12
g13
(g14
g15
NtRp56
(dp57
g18
I1
sg19
I0
sg20
I1
sg21
I0
sg22
I0
sg23
I0
sg24
I0
sbssg25
S']t?34o\x0cc,\xa8\xa5\x9an\x0f\x9c\xab'
p58
ssS'flipped_helpers___init__'
p59
(dp60
g6
(dp61
g8
S'flipped_helpers___init__.html'
p62
sg10
S'flipped/helpers/__init__'
p63
sg12
g13
(g14
g15
NtRp64
(dp65
g18
I1
sg19
I0
sg20
I4
sg21
I0
sg22
I0
sg23
I0
sg24
I0
sbssg25
S'HO\x93.\xb7\xdex\x8e\xfd\xac\x8b\x1d\xdb\xadO\x00'
p66
ssS'flipped_helpers_errors_helper'
p67
(dp68
g6
(dp69
g8
S'flipped_helpers_errors_helper.html'
p70
sg10
S'flipped/helpers/errors_helper'
p71
sg12
g13
(g14
g15
NtRp72
(dp73
g18
I1
sg19
I0
sg20
I5
sg21
I0
sg22
I0
sg23
I0
sg24
I0
sbssg25
S'\x91\x04\x1c\xf86c\xad\xf7\xe3\xf13\xf5n8eP'
p74
ssS'user_system_views_apps_tests_test_get_app_by_id_view'
p75
(dp76
g6
(dp77
g8
S'user_system_views_apps_tests_test_get_app_by_id_view.html'
p78
sg10
S'user_system/views/apps/tests/test_get_app_by_id_view'
p79
sg12
g13
(g14
g15
NtRp80
(dp81
g18
I1
sg19
I0
sg20
I17
sg21
I0
sg22
I0
sg23
I0
sg24
I0
sbssg25
S"\xa2\x1eG%r{-~\xc5=\x8aj\x99X!'"
p82
ssS'create_models_questions_tests_test_question_history_model'
p83
(dp84
g6
(dp85
g8
S'create_models_questions_tests_test_question_history_model.html'
p86
sg10
S'create/models/questions/tests/test_question_history_model'
p87
sg12
g13
(g14
g15
NtRp88
(dp89
g18
I1
sg19
I4
sg20
I48
sg21
I0
sg22
I0
sg23
I0
sg24
I0
sbssg25
S'\xb4\x85yn\xdd\xb0\xaeR\xca\xbf3"\xee\xde\xf3\x8b'
p90
ssS'user_system_views_logins_facebook_login_view'
p91
(dp92
g6
(dp93
g8
S'user_system_views_logins_facebook_login_view.html'
p94
sg10
S'user_system/views/logins/facebook_login_view'
p95
sg12
g13
(g14
g15
NtRp96
(dp97
g18
I1
sg19
I4
sg20
I23
sg21
I0
sg22
I0
sg23
I0
sg24
I0
sbssg25
S'\xad\xb1n\xdd\xa0\xa8\xac:\xeb\xceZ\x04|\x92\xff\xb6'
p98
ssS'create_views_questions_question_view'
p99
(dp100
g6
(dp101
g8
S'create_views_questions_question_view.html'
p102
sg10
S'create/views/questions/question_view'
p103
sg12
g13
(g14
g15
NtRp104
(dp105
g18
I1
sg19
I22
sg20
I68
sg21
I0
sg22
I1
sg23
I28
sg24
I17
sbssg25
S'VRK\xed\xf3\t\xf2b^\xb25\xb0\x8cJ\x19j'
p106
ssS'user_system_views_users_tests___init__'
p107
(dp108
g6
(dp109
g8
S'user_system_views_users_tests___init__.html'
p110
sg10
S'user_system/views/users/tests/__init__'
p111
sg12
g13
(g14
g15
NtRp112
(dp113
g18
I1
sg19
I0
sg20
I0
sg21
I0
sg22
I0
sg23
I0
sg24
I0
sbssg25
S'\x19g\xdfM\x1a\x019\xaf\x1baIeR\xe5u\xa7'
p114
ssS'create_views_questions_tests___init__'
p115
(dp116
g6
(dp117
g8
S'create_views_questions_tests___init__.html'
p118
sg10
S'create/views/questions/tests/__init__'
p119
sg12
g13
(g14
g15
NtRp120
(dp121
g18
I1
sg19
I0
sg20
I0
sg21
I0
sg22
I0
sg23
I0
sg24
I0
sbssg25
S'\x19g\xdfM\x1a\x019\xaf\x1baIeR\xe5u\xa7'
p122
ssS'flipped___init__'
p123
(dp124
g6
(dp125
g8
S'flipped___init__.html'
p126
sg10
S'flipped/__init__'
p127
sg12
g13
(g14
g15
NtRp128
(dp129
g18
I1
sg19
I0
sg20
I0
sg21
I0
sg22
I0
sg23
I0
sg24
I0
sbssg25
S'\x19g\xdfM\x1a\x019\xaf\x1baIeR\xe5u\xa7'
p130
ssS'user_system_views_roles___init__'
p131
(dp132
g6
(dp133
g8
S'user_system_views_roles___init__.html'
p134
sg10
S'user_system/views/roles/__init__'
p135
sg12
g13
(g14
g15
NtRp136
(dp137
g18
I1
sg19
I0
sg20
I1
sg21
I0
sg22
I0
sg23
I0
sg24
I0
sbssg25
S'\xeb\x15\r\x85I\x9e<\xbc\x15\xd1P\xef\x16\x8c\xe0l'
p138
ssS'create_serializers_questions_question_history_serializer'
p139
(dp140
g6
(dp141
g8
S'create_serializers_questions_question_history_serializer.html'
p142
sg10
S'create/serializers/questions/question_history_serializer'
p143
sg12
g13
(g14
g15
NtRp144
(dp145
g18
I1
sg19
I0
sg20
I12
sg21
I0
sg22
I0
sg23
I0
sg24
I0
sbssg25
S'\xe2\xd9\x97\x1b\x81\xdcKx\xf6\xe0\x89P\x99\xf2\x8b\x99'
p146
ssS'user_system_views_signups_hardcoded___init__'
p147
(dp148
g6
(dp149
g8
S'user_system_views_signups_hardcoded___init__.html'
p150
sg10
S'user_system/views/signups/hardcoded/__init__'
p151
sg12
g13
(g14
g15
NtRp152
(dp153
g18
I1
sg19
I0
sg20
I1
sg21
I0
sg22
I0
sg23
I0
sg24
I0
sbssg25
S'?\xfac\x0c\x91\xa4\xd6\xd4\x1d\xe4\x99\xc2[\x83\xfc\xdf'
p154
ssS'user_system_views_signups_tests_test_verify_email_view'
p155
(dp156
g6
(dp157
g8
S'user_system_views_signups_tests_test_verify_email_view.html'
p158
sg10
S'user_system/views/signups/tests/test_verify_email_view'
p159
sg12
g13
(g14
g15
NtRp160
(dp161
g18
I1
sg19
I0
sg20
I51
sg21
I0
sg22
I0
sg23
I0
sg24
I0
sbssg25
S'\x81\xacj\x9d\x1f\xa9o\xcc\x1e\xa3\xe59^YT\x9e'
p162
ssS'user_system_views_users_user_view'
p163
(dp164
g6
(dp165
g8
S'user_system_views_users_user_view.html'
p166
sg10
S'user_system/views/users/user_view'
p167
sg12
g13
(g14
g15
NtRp168
(dp169
g18
I1
sg19
I22
sg20
I63
sg21
I0
sg22
I0
sg23
I0
sg24
I0
sbssg25
S'l\x80\xbd\xa9-\xb7\x99\xe9\x80\xa4W\xb7\xb3cN9'
p170
ssS'user_system_models_users_user_profile_model'
p171
(dp172
g6
(dp173
g8
S'user_system_models_users_user_profile_model.html'
p174
sg10
S'user_system/models/users/user_profile_model'
p175
sg12
g13
(g14
g15
NtRp176
(dp177
g18
I1
sg19
I14
sg20
I86
sg21
I0
sg22
I0
sg23
I0
sg24
I0
sbssg25
S'\xf0\r\xb5R\x07\xd8\x87\x0bg\x02\xc55\xf6S;`'
p178
ssS'user_system_models_roles___init__'
p179
(dp180
g6
(dp181
g8
S'user_system_models_roles___init__.html'
p182
sg10
S'user_system/models/roles/__init__'
p183
sg12
g13
(g14
g15
NtRp184
(dp185
g18
I1
sg19
I0
sg20
I2
sg21
I0
sg22
I0
sg23
I0
sg24
I0
sbssg25
S'\xa3\xc2\r\x1b\x1bC\x85\xa5\xads\x7fl\xab`*1'
p186
ssS'user_system_views_apps___init__'
p187
(dp188
g6
(dp189
g8
S'user_system_views_apps___init__.html'
p190
sg10
S'user_system/views/apps/__init__'
p191
sg12
g13
(g14
g15
NtRp192
(dp193
g18
I1
sg19
I0
sg20
I1
sg21
I0
sg22
I0
sg23
I0
sg24
I0
sbssg25
S'?:\xf2A\xfa^]\xc5NR\xc9\x13\xb0\xe4\xfa\x9e'
p194
ssS'user_system_views_users_tests_test_get_users_list_view'
p195
(dp196
g6
(dp197
g8
S'user_system_views_users_tests_test_get_users_list_view.html'
p198
sg10
S'user_system/views/users/tests/test_get_users_list_view'
p199
sg12
g13
(g14
g15
NtRp200
(dp201
g18
I1
sg19
I0
sg20
I32
sg21
I0
sg22
I0
sg23
I0
sg24
I0
sbssg25
S'_~\xfc\x96\xe1\x9f\xd5h\x80\x8d\x90\x08\xa5Kyw'
p202
ssS'user_system_models_users___init__'
p203
(dp204
g6
(dp205
g8
S'user_system_models_users___init__.html'
p206
sg10
S'user_system/models/users/__init__'
p207
sg12
g13
(g14
g15
NtRp208
(dp209
g18
I1
sg19
I0
sg20
I2
sg21
I0
sg22
I0
sg23
I0
sg24
I0
sbssg25
S'\x95\x0c}P.\xcf\xcb\xbf\x03\xfa\x8f\r\x1a\x87\xcf\x96'
p210
ssS'user_system_views_apps_app_view'
p211
(dp212
g6
(dp213
g8
S'user_system_views_apps_app_view.html'
p214
sg10
S'user_system/views/apps/app_view'
p215
sg12
g13
(g14
g15
NtRp216
(dp217
g18
I1
sg19
I0
sg20
I12
sg21
I0
sg22
I0
sg23
I0
sg24
I0
sbssg25
S'"\x0f6*\xcb\xcb=\xf5\xc0\x06\xfb\x99$8\xddt'
p218
ssS'user_system_views_signups_tests___init__'
p219
(dp220
g6
(dp221
g8
S'user_system_views_signups_tests___init__.html'
p222
sg10
S'user_system/views/signups/tests/__init__'
p223
sg12
g13
(g14
g15
NtRp224
(dp225
g18
I1
sg19
I0
sg20
I1
sg21
I0
sg22
I0
sg23
I0
sg24
I0
sbssg25
S'\xbc\xd6\xeb\xb3\xba\xcaz\xf7{\xd4B\xb5}l\xdf\x96'
p226
ssS'user_system_views_logins_tests_test_facebook_login_view'
p227
(dp228
g6
(dp229
g8
S'user_system_views_logins_tests_test_facebook_login_view.html'
p230
sg10
S'user_system/views/logins/tests/test_facebook_login_view'
p231
sg12
g13
(g14
g15
NtRp232
(dp233
g18
I1
sg19
I0
sg20
I51
sg21
I0
sg22
I0
sg23
I0
sg24
I0
sbssg25
S'\x8eg\xfbA\xbdf+\x81\xe9\x8a\x16\x82\xe9\xe3\xc0\xf4'
p234
ssS'user_system_views_logins_email_login_view'
p235
(dp236
g6
(dp237
g8
S'user_system_views_logins_email_login_view.html'
p238
sg10
S'user_system/views/logins/email_login_view'
p239
sg12
g13
(g14
g15
NtRp240
(dp241
g18
I1
sg19
I8
sg20
I28
sg21
I0
sg22
I0
sg23
I0
sg24
I0
sbssg25
S'\x02\xd32CH\xa1Sw*\x1b\xd8w\xba\xd2\xc2\xf0'
p242
ssS'user_system_views_signups_tests_test_email_signup_view'
p243
(dp244
g6
(dp245
g8
S'user_system_views_signups_tests_test_email_signup_view.html'
p246
sg10
S'user_system/views/signups/tests/test_email_signup_view'
p247
sg12
g13
(g14
g15
NtRp248
(dp249
g18
I1
sg19
I0
sg20
I57
sg21
I0
sg22
I0
sg23
I5
sg24
I0
sbssg25
S'\xbc\x85\x18\x8c\x01(s\x93\xe8\xabI[-2\x8fa'
p250
ssS'user_system_models_users_user_facebook_model'
p251
(dp252
g6
(dp253
g8
S'user_system_models_users_user_facebook_model.html'
p254
sg10
S'user_system/models/users/user_facebook_model'
p255
sg12
g13
(g14
g15
NtRp256
(dp257
g18
I1
sg19
I0
sg20
I22
sg21
I0
sg22
I0
sg23
I0
sg24
I0
sbssg25
S'!d\xff\xbcl0O(`\x1b1\xf7\xb3*{X'
p258
ssS'user_system_views_signups_email_signup_view'
p259
(dp260
g6
(dp261
g8
S'user_system_views_signups_email_signup_view.html'
p262
sg10
S'user_system/views/signups/email_signup_view'
p263
sg12
g13
(g14
g15
NtRp264
(dp265
g18
I1
sg19
I8
sg20
I43
sg21
I0
sg22
I0
sg23
I0
sg24
I0
sbssg25
S'\x99\x10\xc5H\xdd\x9dn\xdd\xc4O\x15?\x12F\x87M'
p266
ssS'flipped_helpers_success_response_helper'
p267
(dp268
g6
(dp269
g8
S'flipped_helpers_success_response_helper.html'
p270
sg10
S'flipped/helpers/success_response_helper'
p271
sg12
g13
(g14
g15
NtRp272
(dp273
g18
I1
sg19
I2
sg20
I4
sg21
I0
sg22
I0
sg23
I0
sg24
I0
sbssg25
S"'Bp\xbe\xd9\xfa\x92\xa4;\xb6\t\xa8\xfe<\x9d\xa5"
p274
ssS'create_models_questions_question_model'
p275
(dp276
g6
(dp277
g8
S'create_models_questions_question_model.html'
p278
sg10
S'create/models/questions/question_model'
p279
sg12
g13
(g14
g15
NtRp280
(dp281
g18
I1
sg19
I0
sg20
I30
sg21
I0
sg22
I0
sg23
I0
sg24
I0
sbssg25
S'\x86N)\xbc\xa5> \x92 -\xc6\x88\xc5\xf8\xdc\xa6'
p282
ssS'user_system_models_roles_tests_test_role_model'
p283
(dp284
g6
(dp285
g8
S'user_system_models_roles_tests_test_role_model.html'
p286
sg10
S'user_system/models/roles/tests/test_role_model'
p287
sg12
g13
(g14
g15
NtRp288
(dp289
g18
I1
sg19
I0
sg20
I20
sg21
I0
sg22
I0
sg23
I0
sg24
I0
sbssg25
S'\xef\xba\x956\x96\xbc:\xa0\x0f\x00\x84\x80\x0elh\xed'
p290
ssS'create_views_questions_tests_test_hide_question_view'
p291
(dp292
g6
(dp293
g8
S'create_views_questions_tests_test_hide_question_view.html'
p294
sg10
S'create/views/questions/tests/test_hide_question_view'
p295
sg12
g13
(g14
g15
NtRp296
(dp297
g18
I1
sg19
I0
sg20
I30
sg21
I0
sg22
I0
sg23
I0
sg24
I0
sbssg25
S'\xb3\x10S\x8a\x9b\xecw\xaa\xd3\x81\x1b\xf2\xab\xb2QG'
p298
ssS'create_models_questions_question_history_model'
p299
(dp300
g6
(dp301
g8
S'create_models_questions_question_history_model.html'
p302
sg10
S'create/models/questions/question_history_model'
p303
sg12
g13
(g14
g15
NtRp304
(dp305
g18
I1
sg19
I0
sg20
I38
sg21
I0
sg22
I0
sg23
I0
sg24
I0
sbssg25
S"\xf7F.\xea\x959_e\x8dN\xc9'\xcc\x89\xa2T"
p306
ssS'user_system_serializers_users_list_user_serializer'
p307
(dp308
g6
(dp309
g8
S'user_system_serializers_users_list_user_serializer.html'
p310
sg10
S'user_system/serializers/users/list_user_serializer'
p311
sg12
g13
(g14
g15
NtRp312
(dp313
g18
I1
sg19
I0
sg20
I18
sg21
I0
sg22
I0
sg23
I0
sg24
I0
sbssg25
S'\xdfK>6\xe0\x8d\xcd\xd4/O\xef\xaa\xd0\x9efX'
p314
ssS'user_system_views_signups_tests_test_facebook_signup_view'
p315
(dp316
g6
(dp317
g8
S'user_system_views_signups_tests_test_facebook_signup_view.html'
p318
sg10
S'user_system/views/signups/tests/test_facebook_signup_view'
p319
sg12
g13
(g14
g15
NtRp320
(dp321
g18
I1
sg19
I0
sg20
I60
sg21
I0
sg22
I0
sg23
I0
sg24
I0
sbssg25
S'\x93<\xc8]\x14\t\xa8/\xdd\xd1\xa4]\xfbp!\xbd'
p322
ssS'create_urls'
p323
(dp324
g6
(dp325
g8
S'create_urls.html'
p326
sg10
S'create/urls'
p327
sg12
g13
(g14
g15
NtRp328
(dp329
g18
I1
sg19
I0
sg20
I7
sg21
I0
sg22
I0
sg23
I0
sg24
I0
sbssg25
S'\x88/\x13$\xffF\x06v\x18\xd5<\xc0H\xaa\xacR'
p330
ssS'create___init__'
p331
(dp332
g6
(dp333
g8
S'create___init__.html'
p334
sg10
S'create/__init__'
p335
sg12
g13
(g14
g15
NtRp336
(dp337
g18
I1
sg19
I0
sg20
I0
sg21
I0
sg22
I0
sg23
I0
sg24
I0
sbssg25
S'\x19g\xdfM\x1a\x019\xaf\x1baIeR\xe5u\xa7'
p338
ssS'user_system_urls'
p339
(dp340
g6
(dp341
g8
S'user_system_urls.html'
p342
sg10
S'user_system/urls'
p343
sg12
g13
(g14
g15
NtRp344
(dp345
g18
I1
sg19
I0
sg20
I12
sg21
I0
sg22
I0
sg23
I0
sg24
I0
sbssg25
S'\xff\xeeM\x1b\x99\x134\xc3\xb3\xda\xcd=\x1bw\x90G'
p346
ssS'create_models_questions___init__'
p347
(dp348
g6
(dp349
g8
S'create_models_questions___init__.html'
p350
sg10
S'create/models/questions/__init__'
p351
sg12
g13
(g14
g15
NtRp352
(dp353
g18
I1
sg19
I0
sg20
I4
sg21
I0
sg22
I0
sg23
I0
sg24
I0
sbssg25
S'c\xb9+~n\x022\xd2\xcbTt\xd9\xd6w\xd1\xec'
p354
ssS'user_system_views_users_tests_test_add_role_view'
p355
(dp356
g6
(dp357
g8
S'user_system_views_users_tests_test_add_role_view.html'
p358
sg10
S'user_system/views/users/tests/test_add_role_view'
p359
sg12
g13
(g14
g15
NtRp360
(dp361
g18
I1
sg19
I0
sg20
I36
sg21
I0
sg22
I0
sg23
I0
sg24
I0
sbssg25
S'\x0eh\xf7\xba\x08_N\xdeM\xdf\x03\xbd\x8c\x8a\x89\xd0'
p362
ssS'create_serializers___init__'
p363
(dp364
g6
(dp365
g8
S'create_serializers___init__.html'
p366
sg10
S'create/serializers/__init__'
p367
sg12
g13
(g14
g15
NtRp368
(dp369
g18
I1
sg19
I0
sg20
I1
sg21
I0
sg22
I0
sg23
I0
sg24
I0
sbssg25
S']t?34o\x0cc,\xa8\xa5\x9an\x0f\x9c\xab'
p370
ssS'create_models_questions_tests_test_question_choice_model'
p371
(dp372
g6
(dp373
g8
S'create_models_questions_tests_test_question_choice_model.html'
p374
sg10
S'create/models/questions/tests/test_question_choice_model'
p375
sg12
g13
(g14
g15
NtRp376
(dp377
g18
I1
sg19
I0
sg20
I28
sg21
I0
sg22
I0
sg23
I0
sg24
I0
sbssg25
S'\x0e\xeeJ\xa4\xad7\xd1V@2$r+\x04\xf6\xac'
p378
ssS'user_system_views_users_tests_test_get_user_by_id_view'
p379
(dp380
g6
(dp381
g8
S'user_system_views_users_tests_test_get_user_by_id_view.html'
p382
sg10
S'user_system/views/users/tests/test_get_user_by_id_view'
p383
sg12
g13
(g14
g15
NtRp384
(dp385
g18
I1
sg19
I0
sg20
I24
sg21
I0
sg22
I0
sg23
I0
sg24
I0
sbssg25
S'\x8b\xea\xca\x9a\xa0\xd65\xd7\xd0\xba{\xdea\x0f\xc8\x06'
p386
ssS'create_models___init__'
p387
(dp388
g6
(dp389
g8
S'create_models___init__.html'
p390
sg10
S'create/models/__init__'
p391
sg12
g13
(g14
g15
NtRp392
(dp393
g18
I1
sg19
I0
sg20
I1
sg21
I0
sg22
I0
sg23
I0
sg24
I0
sbssg25
S']t?34o\x0cc,\xa8\xa5\x9an\x0f\x9c\xab'
p394
ssS'user_system_models_roles_role_app_model'
p395
(dp396
g6
(dp397
g8
S'user_system_models_roles_role_app_model.html'
p398
sg10
S'user_system/models/roles/role_app_model'
p399
sg12
g13
(g14
g15
NtRp400
(dp401
g18
I1
sg19
I0
sg20
I18
sg21
I0
sg22
I0
sg23
I0
sg24
I0
sbssg25
S'\x8d\xa3&\x03\x9d\x1cO|\xces.\x11/\x8f`\xcc'
p402
ssS'user_system_views_users___init__'
p403
(dp404
g6
(dp405
g8
S'user_system_views_users___init__.html'
p406
sg10
S'user_system/views/users/__init__'
p407
sg12
g13
(g14
g15
NtRp408
(dp409
g18
I1
sg19
I0
sg20
I1
sg21
I0
sg22
I0
sg23
I0
sg24
I0
sbssg25
S'4B\xd9\x99J\xb4\xc8\xbf\x91w\xd9\x878M\xf6 '
p410
ssS'user_system_views_roles_tests___init__'
p411
(dp412
g6
(dp413
g8
S'user_system_views_roles_tests___init__.html'
p414
sg10
S'user_system/views/roles/tests/__init__'
p415
sg12
g13
(g14
g15
NtRp416
(dp417
g18
I1
sg19
I0
sg20
I0
sg21
I0
sg22
I0
sg23
I0
sg24
I0
sbssg25
S'\x19g\xdfM\x1a\x019\xaf\x1baIeR\xe5u\xa7'
p418
ssS'user_system_models_apps_app_model'
p419
(dp420
g6
(dp421
g8
S'user_system_models_apps_app_model.html'
p422
sg10
S'user_system/models/apps/app_model'
p423
sg12
g13
(g14
g15
NtRp424
(dp425
g18
I1
sg19
I0
sg20
I16
sg21
I0
sg22
I0
sg23
I0
sg24
I0
sbssg25
S',\x89\x9d;<\xa3\xdc\x92@\xa5\x9c\x7fcg\x05?'
p426
ssS'user_system_views_apps_tests___init__'
p427
(dp428
g6
(dp429
g8
S'user_system_views_apps_tests___init__.html'
p430
sg10
S'user_system/views/apps/tests/__init__'
p431
sg12
g13
(g14
g15
NtRp432
(dp433
g18
I1
sg19
I0
sg20
I0
sg21
I0
sg22
I0
sg23
I0
sg24
I0
sbssg25
S'\x19g\xdfM\x1a\x019\xaf\x1baIeR\xe5u\xa7'
p434
ssS'user_system_serializers___init__'
p435
(dp436
g6
(dp437
g8
S'user_system_serializers___init__.html'
p438
sg10
S'user_system/serializers/__init__'
p439
sg12
g13
(g14
g15
NtRp440
(dp441
g18
I1
sg19
I0
sg20
I2
sg21
I0
sg22
I0
sg23
I0
sg24
I0
sbssg25
S'\xbfJ\xf0\xf4\xd3\xef\xf7T7zz\xae\x87\x00ts'
p442
ssS'create_models_questions_tests___init__'
p443
(dp444
g6
(dp445
g8
S'create_models_questions_tests___init__.html'
p446
sg10
S'create/models/questions/tests/__init__'
p447
sg12
g13
(g14
g15
NtRp448
(dp449
g18
I1
sg19
I0
sg20
I0
sg21
I0
sg22
I0
sg23
I0
sg24
I0
sbssg25
S'\x19g\xdfM\x1a\x019\xaf\x1baIeR\xe5u\xa7'
p450
ssS'flipped_helpers_tests_test_email_helper'
p451
(dp452
g6
(dp453
g8
S'flipped_helpers_tests_test_email_helper.html'
p454
sg10
S'flipped/helpers/tests/test_email_helper'
p455
sg12
g13
(g14
g15
NtRp456
(dp457
g18
I1
sg19
I0
sg20
I13
sg21
I0
sg22
I0
sg23
I0
sg24
I0
sbssg25
S'\x13\xee\xcb^E:3A\xff)v\x7f\xd3\xa7\xa2\xaa'
p458
ssS'user_system_serializers_users___init__'
p459
(dp460
g6
(dp461
g8
S'user_system_serializers_users___init__.html'
p462
sg10
S'user_system/serializers/users/__init__'
p463
sg12
g13
(g14
g15
NtRp464
(dp465
g18
I1
sg19
I0
sg20
I2
sg21
I0
sg22
I0
sg23
I0
sg24
I0
sbssg25
S'\xfc\xae\x8a\x9eM\xc4\x8a\xaek\x8c\xa44\xa7\x1e/\x0c'
p466
ssS'user_system_admin'
p467
(dp468
g6
(dp469
g8
S'user_system_admin.html'
p470
sg10
S'user_system/admin'
p471
sg12
g13
(g14
g15
NtRp472
(dp473
g18
I1
sg19
I0
sg20
I7
sg21
I0
sg22
I0
sg23
I0
sg24
I0
sbssg25
S']\xc7.\xda\xb9\xfe\xb1\x03\xae3\xed\xd2\x1b\xf1\xee\xbc'
p474
ssS'user_system_models_users_tests___init__'
p475
(dp476
g6
(dp477
g8
S'user_system_models_users_tests___init__.html'
p478
sg10
S'user_system/models/users/tests/__init__'
p479
sg12
g13
(g14
g15
NtRp480
(dp481
g18
I1
sg19
I0
sg20
I0
sg21
I0
sg22
I0
sg23
I0
sg24
I0
sbssg25
S'\x19g\xdfM\x1a\x019\xaf\x1baIeR\xe5u\xa7'
p482
ssS'user_system_views_users_tests_test_delete_user_view'
p483
(dp484
g6
(dp485
g8
S'user_system_views_users_tests_test_delete_user_view.html'
p486
sg10
S'user_system/views/users/tests/test_delete_user_view'
p487
sg12
g13
(g14
g15
NtRp488
(dp489
g18
I1
sg19
I0
sg20
I22
sg21
I0
sg22
I0
sg23
I0
sg24
I0
sbssg25
S'\xe4S$\xa1t\xc6\xbe\xc7\xb9^Y\x05{\x92KQ'
p490
ssS'create_views_questions___init__'
p491
(dp492
g6
(dp493
g8
S'create_views_questions___init__.html'
p494
sg10
S'create/views/questions/__init__'
p495
sg12
g13
(g14
g15
NtRp496
(dp497
g18
I1
sg19
I0
sg20
I1
sg21
I0
sg22
I0
sg23
I0
sg24
I0
sbssg25
S's\x04\x05r\x04\x1e\xcbJ\xaat)j\\\xb9\xe2\xfd'
p498
ssS'create_serializers_questions_question_choice_serializer'
p499
(dp500
g6
(dp501
g8
S'create_serializers_questions_question_choice_serializer.html'
p502
sg10
S'create/serializers/questions/question_choice_serializer'
p503
sg12
g13
(g14
g15
NtRp504
(dp505
g18
I1
sg19
I0
sg20
I6
sg21
I0
sg22
I0
sg23
I0
sg24
I0
sbssg25
S'\xfe6\xfd\x11\xaaH\xd9\xf4\xe6\x97\xd8\xea\xe5z%F'
p506
ssS'user_system_views_users_tests_test_remove_role_view'
p507
(dp508
g6
(dp509
g8
S'user_system_views_users_tests_test_remove_role_view.html'
p510
sg10
S'user_system/views/users/tests/test_remove_role_view'
p511
sg12
g13
(g14
g15
NtRp512
(dp513
g18
I1
sg19
I0
sg20
I42
sg21
I0
sg22
I0
sg23
I0
sg24
I0
sbssg25
S'\xfb\x9b\xa3\xe5\x90\xe7q99\x19\x10"<@L\x8c'
p514
ssS'create_admin'
p515
(dp516
g6
(dp517
g8
S'create_admin.html'
p518
sg10
S'create/admin'
p519
sg12
g13
(g14
g15
NtRp520
(dp521
g18
I1
sg19
I0
sg20
I6
sg21
I0
sg22
I0
sg23
I0
sg24
I0
sbssg25
S'A<\x97\xf6\r\xcb\xb2\xcb\xd3[.m_\xe0\x03\xdc'
p522
ssS'create_views_questions_tests_test_get_question_list_view'
p523
(dp524
g6
(dp525
g8
S'create_views_questions_tests_test_get_question_list_view.html'
p526
sg10
S'create/views/questions/tests/test_get_question_list_view'
p527
sg12
g13
(g14
g15
NtRp528
(dp529
g18
I1
sg19
I0
sg20
I32
sg21
I0
sg22
I0
sg23
I0
sg24
I0
sbssg25
S'\xa2&\x88;1\\\xa2 \xb4&ejB\xd1%\x06'
p530
ssS'user_system_models_apps___init__'
p531
(dp532
g6
(dp533
g8
S'user_system_models_apps___init__.html'
p534
sg10
S'user_system/models/apps/__init__'
p535
sg12
g13
(g14
g15
NtRp536
(dp537
g18
I1
sg19
I0
sg20
I1
sg21
I0
sg22
I0
sg23
I0
sg24
I0
sbssg25
S'\n\xe9\xce\x15)\x8d\xc6\xdd\xe0\x9b\x990[\xae\x8cl'
p538
ssS'user_system_views_logins___init__'
p539
(dp540
g6
(dp541
g8
S'user_system_views_logins___init__.html'
p542
sg10
S'user_system/views/logins/__init__'
p543
sg12
g13
(g14
g15
NtRp544
(dp545
g18
I1
sg19
I0
sg20
I2
sg21
I0
sg22
I0
sg23
I0
sg24
I0
sbssg25
S'\xa0\xd3\xaas\xc2\xb93+ED.\xe5\xfe\xf2\xad\x87'
p546
ssS'user_system_views_signups_hardcoded_tests_test_test_account_view'
p547
(dp548
g6
(dp549
g8
S'user_system_views_signups_hardcoded_tests_test_test_account_view.html'
p550
sg10
S'user_system/views/signups/hardcoded/tests/test_test_account_view'
p551
sg12
g13
(g14
g15
NtRp552
(dp553
g18
I1
sg19
I0
sg20
I24
sg21
I0
sg22
I0
sg23
I0
sg24
I0
sbssg25
S'@\xc3::\xf8h\x1aT\x9f\x83\xee1\xb7\x9a\xe0\xf9'
p554
ssS'create_views_questions_tests_test_get_question_by_id_view'
p555
(dp556
g6
(dp557
g8
S'create_views_questions_tests_test_get_question_by_id_view.html'
p558
sg10
S'create/views/questions/tests/test_get_question_by_id_view'
p559
sg12
g13
(g14
g15
NtRp560
(dp561
g18
I1
sg19
I0
sg20
I24
sg21
I0
sg22
I0
sg23
I0
sg24
I0
sbssg25
S'\xa7[\x91\xa9\xa6\xb4\xbd&n$O^O\xec\xf2X'
p562
ssS'user_system_views_signups_verify_email_view'
p563
(dp564
g6
(dp565
g8
S'user_system_views_signups_verify_email_view.html'
p566
sg10
S'user_system/views/signups/verify_email_view'
p567
sg12
g13
(g14
g15
NtRp568
(dp569
g18
I1
sg19
I6
sg20
I25
sg21
I0
sg22
I0
sg23
I0
sg24
I0
sbssg25
S'\n\x8e\x1e=L\x1a\x0bn\xb5%\x1e\xd3\xb9D~C'
p570
ssS'flipped_helpers_parameters_helper'
p571
(dp572
g6
(dp573
g8
S'flipped_helpers_parameters_helper.html'
p574
sg10
S'flipped/helpers/parameters_helper'
p575
sg12
g13
(g14
g15
NtRp576
(dp577
g18
I1
sg19
I10
sg20
I17
sg21
I0
sg22
I0
sg23
I0
sg24
I0
sbssg25
S'\xc5\x1f\xc5\x05\x86\x13\xf6\xa2\xb5\x07e\xa9_\x00[\xa8'
p578
ssS'user_system_models___init__'
p579
(dp580
g6
(dp581
g8
S'user_system_models___init__.html'
p582
sg10
S'user_system/models/__init__'
p583
sg12
g13
(g14
g15
NtRp584
(dp585
g18
I1
sg19
I0
sg20
I3
sg21
I0
sg22
I0
sg23
I0
sg24
I0
sbssg25
S'|\xc4-\xac\xc1#\x01r\xcb\xe7\x98\n\x91\xc26}'
p586
ssS'create_models_questions_tests_test_question_model'
p587
(dp588
g6
(dp589
g8
S'create_models_questions_tests_test_question_model.html'
p590
sg10
S'create/models/questions/tests/test_question_model'
p591
sg12
g13
(g14
g15
NtRp592
(dp593
g18
I1
sg19
I0
sg20
I32
sg21
I0
sg22
I0
sg23
I0
sg24
I0
sbssg25
S'inl\xadA\xa4w\xb9(\xd1\x0b\x0e\x99\xc92N'
p594
ssS'user_system_models_apps_tests___init__'
p595
(dp596
g6
(dp597
g8
S'user_system_models_apps_tests___init__.html'
p598
sg10
S'user_system/models/apps/tests/__init__'
p599
sg12
g13
(g14
g15
NtRp600
(dp601
g18
I1
sg19
I0
sg20
I0
sg21
I0
sg22
I0
sg23
I0
sg24
I0
sbssg25
S'\x19g\xdfM\x1a\x019\xaf\x1baIeR\xe5u\xa7'
p602
ssS'user_system___init__'
p603
(dp604
g6
(dp605
g8
S'user_system___init__.html'
p606
sg10
S'user_system/__init__'
p607
sg12
g13
(g14
g15
NtRp608
(dp609
g18
I1
sg19
I0
sg20
I0
sg21
I0
sg22
I0
sg23
I0
sg24
I0
sbssg25
S'\x19g\xdfM\x1a\x019\xaf\x1baIeR\xe5u\xa7'
p610
ssS'user_system_views_signups_hardcoded_test_account_view'
p611
(dp612
g6
(dp613
g8
S'user_system_views_signups_hardcoded_test_account_view.html'
p614
sg10
S'user_system/views/signups/hardcoded/test_account_view'
p615
sg12
g13
(g14
g15
NtRp616
(dp617
g18
I1
sg19
I2
sg20
I18
sg21
I0
sg22
I0
sg23
I0
sg24
I0
sbssg25
S"\xb4\xf1\xfdH\x8f\xf1QX7'\\\xd3\xab.\xbc\x80"
p618
ssS'create_serializers_questions___init__'
p619
(dp620
g6
(dp621
g8
S'create_serializers_questions___init__.html'
p622
sg10
S'create/serializers/questions/__init__'
p623
sg12
g13
(g14
g15
NtRp624
(dp625
g18
I1
sg19
I0
sg20
I3
sg21
I0
sg22
I0
sg23
I0
sg24
I0
sbssg25
S'\x84=\xe9\xab\xdc\xfd3]\x11\x89\xd6\xb2\x03\xb4\xea\xf5'
p626
ssS'user_system_models_users_tests_test_user_profile_model'
p627
(dp628
g6
(dp629
g8
S'user_system_models_users_tests_test_user_profile_model.html'
p630
sg10
S'user_system/models/users/tests/test_user_profile_model'
p631
sg12
g13
(g14
g15
NtRp632
(dp633
g18
I1
sg19
I0
sg20
I74
sg21
I0
sg22
I0
sg23
I0
sg24
I0
sbssg25
S'\x0f\xca\xe9\t\xbb\xfd\xe9\x93&\x98/\x07\xbc\xfaz\xbe'
p634
ssS'user_system_views_roles_tests_test_user_role_view'
p635
(dp636
g6
(dp637
g8
S'user_system_views_roles_tests_test_user_role_view.html'
p638
sg10
S'user_system/views/roles/tests/test_user_role_view'
p639
sg12
g13
(g14
g15
NtRp640
(dp641
g18
I1
sg19
I0
sg20
I41
sg21
I0
sg22
I0
sg23
I0
sg24
I0
sbssg25
S'\xaf \x02-\xd3\xa9\xee\x1e7\x87\xa8[\xd9\xd8V\xd8'
p642
ssS'user_system_views_signups_hardcoded_tests___init__'
p643
(dp644
g6
(dp645
g8
S'user_system_views_signups_hardcoded_tests___init__.html'
p646
sg10
S'user_system/views/signups/hardcoded/tests/__init__'
p647
sg12
g13
(g14
g15
NtRp648
(dp649
g18
I1
sg19
I0
sg20
I0
sg21
I0
sg22
I0
sg23
I0
sg24
I0
sbssg25
S'\x19g\xdfM\x1a\x019\xaf\x1baIeR\xe5u\xa7'
p650
ssS'user_system_views_signups___init__'
p651
(dp652
g6
(dp653
g8
S'user_system_views_signups___init__.html'
p654
sg10
S'user_system/views/signups/__init__'
p655
sg12
g13
(g14
g15
NtRp656
(dp657
g18
I1
sg19
I0
sg20
I4
sg21
I0
sg22
I0
sg23
I0
sg24
I0
sbssg25
S'\x02\x1d\x90mQ#+\xc5\x93\xdb\xa4Hs\xcf\xa8\x97'
p658
ssS'user_system_views_apps_tests_test_get_apps_list_view'
p659
(dp660
g6
(dp661
g8
S'user_system_views_apps_tests_test_get_apps_list_view.html'
p662
sg10
S'user_system/views/apps/tests/test_get_apps_list_view'
p663
sg12
g13
(g14
g15
NtRp664
(dp665
g18
I1
sg19
I0
sg20
I18
sg21
I0
sg22
I0
sg23
I0
sg24
I0
sbssg25
S'\x87\xab;"\x01p\xf9\xe5\xa6\xb1\xaej\x8egl\x99'
p666
ssS'create_serializers_questions_question_serializer'
p667
(dp668
g6
(dp669
g8
S'create_serializers_questions_question_serializer.html'
p670
sg10
S'create/serializers/questions/question_serializer'
p671
sg12
g13
(g14
g15
NtRp672
(dp673
g18
I1
sg19
I0
sg20
I19
sg21
I0
sg22
I0
sg23
I0
sg24
I0
sbssg25
S'\xbd\x0c\x89q\x8f\xfbr%\x85\xaf\xea\xd1\xfd\xc6\x10z'
p674
ssS'user_system_views___init__'
p675
(dp676
g6
(dp677
g8
S'user_system_views___init__.html'
p678
sg10
S'user_system/views/__init__'
p679
sg12
g13
(g14
g15
NtRp680
(dp681
g18
I1
sg19
I0
sg20
I4
sg21
I0
sg22
I0
sg23
I0
sg24
I0
sbssg25
S'\xb4\xb2\xf3\xe1"\'\x90\t\x19D\xca\x15\x9e/\xc3\x06'
p682
ssS'user_system_models_roles_role_model'
p683
(dp684
g6
(dp685
g8
S'user_system_models_roles_role_model.html'
p686
sg10
S'user_system/models/roles/role_model'
p687
sg12
g13
(g14
g15
NtRp688
(dp689
g18
I1
sg19
I0
sg20
I16
sg21
I0
sg22
I0
sg23
I0
sg24
I0
sbssg25
S'\x180j\xc8\x05 \xa05\xa7\xffj\x1dJ\x8a6\xcb'
p690
ssS'create_models_questions_question_type_model'
p691
(dp692
g6
(dp693
g8
S'create_models_questions_question_type_model.html'
p694
sg10
S'create/models/questions/question_type_model'
p695
sg12
g13
(g14
g15
NtRp696
(dp697
g18
I1
sg19
I0
sg20
I19
sg21
I0
sg22
I0
sg23
I0
sg24
I0
sbssg25
S'\xb9\xe7I\x93\x8b\xa8\xa8H\x80\x02_\xf9\x87\xa2\xe7\xa5'
p698
ssS'user_system_views_roles_user_role_view'
p699
(dp700
g6
(dp701
g8
S'user_system_views_roles_user_role_view.html'
p702
sg10
S'user_system/views/roles/user_role_view'
p703
sg12
g13
(g14
g15
NtRp704
(dp705
g18
I1
sg19
I8
sg20
I30
sg21
I0
sg22
I0
sg23
I0
sg24
I0
sbssg25
S'&\x17\xb7_n\xc0\xf24ub\x0bt9f\x96\x8f'
p706
ssS'create_serializers_questions_question_type_serializer'
p707
(dp708
g6
(dp709
g8
S'create_serializers_questions_question_type_serializer.html'
p710
sg10
S'create/serializers/questions/question_type_serializer'
p711
sg12
g13
(g14
g15
NtRp712
(dp713
g18
I1
sg19
I0
sg20
I6
sg21
I0
sg22
I0
sg23
I0
sg24
I0
sbssg25
S'!\x8a\x91KA:\x92\x13/\xdd\xd9\xc2?\x8b\xe1\xc6'
p714
ssS'flipped_helpers_email_helper'
p715
(dp716
g6
(dp717
g8
S'flipped_helpers_email_helper.html'
p718
sg10
S'flipped/helpers/email_helper'
p719
sg12
g13
(g14
g15
NtRp720
(dp721
g18
I1
sg19
I2
sg20
I9
sg21
I0
sg22
I0
sg23
I0
sg24
I0
sbssg25
S"\xeal\t\x03)\xcc\xc4\x0b\r\xe2&\x83a'I\xad"
p722
ssS'user_system_models_users_tests_test_user_facebook_model'
p723
(dp724
g6
(dp725
g8
S'user_system_models_users_tests_test_user_facebook_model.html'
p726
sg10
S'user_system/models/users/tests/test_user_facebook_model'
p727
sg12
g13
(g14
g15
NtRp728
(dp729
g18
I1
sg19
I0
sg20
I29
sg21
I0
sg22
I0
sg23
I0
sg24
I0
sbssg25
S'B\xac\x06Z\x1f7\xba2\x81\xd7\xb4\x17\xaf\x84u+'
p730
ssS'flipped_urls'
p731
(dp732
g6
(dp733
g8
S'flipped_urls.html'
p734
sg10
S'flipped/urls'
p735
sg12
g13
(g14
g15
NtRp736
(dp737
g18
I1
sg19
I0
sg20
I9
sg21
I0
sg22
I0
sg23
I0
sg24
I0
sbssg25
S'm\xa9\xd5+\x8a\xb0\\\xc0\xa0\xedxZ\x06\xdb\x06b'
p738
ssS'create_models_questions_question_choice_model'
p739
(dp740
g6
(dp741
g8
S'create_models_questions_question_choice_model.html'
p742
sg10
S'create/models/questions/question_choice_model'
p743
sg12
g13
(g14
g15
NtRp744
(dp745
g18
I1
sg19
I0
sg20
I33
sg21
I0
sg22
I0
sg23
I0
sg24
I0
sbssg25
S'\xb0r\xc6\xa1\xd6\xb1\xa5\x87\xf4Jx`)\xab\xec\xa7'
p746
ssS'flipped_helpers_tests___init__'
p747
(dp748
g6
(dp749
g8
S'flipped_helpers_tests___init__.html'
p750
sg10
S'flipped/helpers/tests/__init__'
p751
sg12
g13
(g14
g15
NtRp752
(dp753
g18
I1
sg19
I0
sg20
I0
sg21
I0
sg22
I0
sg23
I0
sg24
I0
sbssg25
S'\x19g\xdfM\x1a\x019\xaf\x1baIeR\xe5u\xa7'
p754
ssS'user_system_views_logins_tests___init__'
p755
(dp756
g6
(dp757
g8
S'user_system_views_logins_tests___init__.html'
p758
sg10
S'user_system/views/logins/tests/__init__'
p759
sg12
g13
(g14
g15
NtRp760
(dp761
g18
I1
sg19
I0
sg20
I1
sg21
I0
sg22
I0
sg23
I0
sg24
I0
sbssg25
S'\xbc\xd6\xeb\xb3\xba\xcaz\xf7{\xd4B\xb5}l\xdf\x96'
p762
ssS'user_system_views_users_tests_test_get_users_by_signup_type_view'
p763
(dp764
g6
(dp765
g8
S'user_system_views_users_tests_test_get_users_by_signup_type_view.html'
p766
sg10
S'user_system/views/users/tests/test_get_users_by_signup_type_view'
p767
sg12
g13
(g14
g15
NtRp768
(dp769
g18
I1
sg19
I0
sg20
I39
sg21
I0
sg22
I0
sg23
I0
sg24
I0
sbssg25
S')6\x9d\xd9x\xf4\x1fC\xbc\x92\x06\x9bz~1W'
p770
ssS'user_system_serializers_users_user_serializer'
p771
(dp772
g6
(dp773
g8
S'user_system_serializers_users_user_serializer.html'
p774
sg10
S'user_system/serializers/users/user_serializer'
p775
sg12
g13
(g14
g15
NtRp776
(dp777
g18
I1
sg19
I0
sg20
I24
sg21
I0
sg22
I0
sg23
I0
sg24
I0
sbssg25
S'\x9b\x08-K@\xc4\xe3\x95\x806\xc7:Q\xcf#h'
p778
ssS'user_system_models_roles_tests___init__'
p779
(dp780
g6
(dp781
g8
S'user_system_models_roles_tests___init__.html'
p782
sg10
S'user_system/models/roles/tests/__init__'
p783
sg12
g13
(g14
g15
NtRp784
(dp785
g18
I1
sg19
I0
sg20
I0
sg21
I0
sg22
I0
sg23
I0
sg24
I0
sbssg25
S'\x19g\xdfM\x1a\x019\xaf\x1baIeR\xe5u\xa7'
p786
ssS'user_system_serializers_app_serializer'
p787
(dp788
g6
(dp789
g8
S'user_system_serializers_app_serializer.html'
p790
sg10
S'user_system/serializers/app_serializer'
p791
sg12
g13
(g14
g15
NtRp792
(dp793
g18
I1
sg19
I0
sg20
I7
sg21
I0
sg22
I0
sg23
I0
sg24
I0
sbssg25
S'\xc1\x87\xd6\x1b\xbe\x8f\xfb\xdd\x1a\xa9\x92A\xe2\xc3\xe2\xf1'
p794
ssS'user_system_models_apps_tests_test_app_model'
p795
(dp796
g6
(dp797
g8
S'user_system_models_apps_tests_test_app_model.html'
p798
sg10
S'user_system/models/apps/tests/test_app_model'
p799
sg12
g13
(g14
g15
NtRp800
(dp801
g18
I1
sg19
I0
sg20
I18
sg21
I0
sg22
I0
sg23
I0
sg24
I0
sbssg25
S'\xfb\xfc\xe0#\xe2\n\x8e\x9e\x94\xa8\x83\xc5\xb1U\xa3a'
p802
sssS'version'
p803
S'3.7.1'
p804
sS'settings'
p805
S'\x961E{\x0c29\xd1#\x83\xd3j9"\xd8\x10'
p806
sS'format'
p807
I1
s.