(dp1
S'files'
p2
(dp3
S'create_views_quests_tests_test_add_tag_view'
p4
(dp5
S'index'
p6
(dp7
S'html_filename'
p8
S'create_views_quests_tests_test_add_tag_view.html'
p9
sS'name'
p10
S'create/views/quests/tests/test_add_tag_view'
p11
sS'nums'
p12
ccopy_reg
_reconstructor
p13
(ccoverage.results
Numbers
p14
c__builtin__
object
p15
NtRp16
(dp17
S'n_files'
p18
I1
sS'n_branches'
p19
I0
sS'n_statements'
p20
I35
sS'n_excluded'
p21
I0
sS'n_partial_branches'
p22
I0
sS'n_missing'
p23
I0
sS'n_missing_branches'
p24
I0
sbssS'hash'
p25
S'o\xbe\xf1\xf9\x80\xe5|\xbab\xcc\xe2F=\x1e\xacp'
p26
ssS'user_system_models_users_teacher_profile_model'
p27
(dp28
S'index'
p29
(dp30
S'html_filename'
p31
S'user_system_models_users_teacher_profile_model.html'
p32
sS'name'
p33
S'user_system/models/users/teacher_profile_model'
p34
sS'nums'
p35
g13
(g14
g15
NtRp36
(dp37
g18
I1
sg19
I0
sg20
I27
sg21
I0
sg22
I0
sg23
I0
sg24
I0
sbssS'hash'
p38
S'x\x9e\x06\xe6\x8d\x87\xed\xaf\x91\x87\x16\xfc"\x96\xf2\xfc'
p39
ssS'user_system_views_signups_facebook_signup_view'
p40
(dp41
S'index'
p42
(dp43
S'html_filename'
p44
S'user_system_views_signups_facebook_signup_view.html'
p45
sS'name'
p46
S'user_system/views/signups/facebook_signup_view'
p47
sS'nums'
p48
g13
(g14
g15
NtRp49
(dp50
g18
I1
sg19
I8
sg20
I38
sg21
I0
sg22
I0
sg23
I0
sg24
I0
sbssS'hash'
p51
S'\x04E\'\x17r8\x14\xf6 \x98\xb5\xa0sx"@'
p52
ssS'teach_models_teacher_tags___init__'
p53
(dp54
S'index'
p55
(dp56
S'html_filename'
p57
S'teach_models_teacher_tags___init__.html'
p58
sS'name'
p59
S'teach/models/teacher_tags/__init__'
p60
sS'nums'
p61
g13
(g14
g15
NtRp62
(dp63
g18
I1
sg19
I0
sg20
I1
sg21
I0
sg22
I0
sg23
I0
sg24
I0
sbssS'hash'
p64
S"\x15#y\x16\x1a\x9d\xc6mE\xccg]\x07\xb9'\xe0"
p65
ssS'user_system_models_users_user_facebook_model'
p66
(dp67
g42
(dp68
g44
S'user_system_models_users_user_facebook_model.html'
p69
sg46
S'user_system/models/users/user_facebook_model'
p70
sg48
g13
(g14
g15
NtRp71
(dp72
g18
I1
sg19
I0
sg20
I22
sg21
I0
sg22
I0
sg23
I0
sg24
I0
sbssg51
S'!d\xff\xbcl0O(`\x1b1\xf7\xb3*{X'
p73
ssS'teach_models_teacher_chapters___init__'
p74
(dp75
g55
(dp76
g57
S'teach_models_teacher_chapters___init__.html'
p77
sg59
S'teach/models/teacher_chapters/__init__'
p78
sg61
g13
(g14
g15
NtRp79
(dp80
g18
I1
sg19
I0
sg20
I1
sg21
I0
sg22
I0
sg23
I0
sg24
I0
sbssg64
S'\xfa\xce(\x03\x8d\xd7\xc1h\xedT\xf9d\xae\x03w^'
p81
ssS'user_system_views_logins_facebook_login_view'
p82
(dp83
g42
(dp84
g44
S'user_system_views_logins_facebook_login_view.html'
p85
sg46
S'user_system/views/logins/facebook_login_view'
p86
sg48
g13
(g14
g15
NtRp87
(dp88
g18
I1
sg19
I4
sg20
I24
sg21
I0
sg22
I0
sg23
I0
sg24
I0
sbssg51
S',\xf8~\x8d\x9b\xfe\xa6wQ5\x92t\x15\xe5\x95\x8d'
p89
ssS'create_serializers_questions_question_history_serializer'
p90
(dp91
g42
(dp92
S'html_filename'
p93
S'create_serializers_questions_question_history_serializer.html'
p94
sS'name'
p95
S'create/serializers/questions/question_history_serializer'
p96
sS'nums'
p97
g13
(g14
g15
NtRp98
(dp99
g18
I1
sg19
I2
sg20
I30
sg21
I0
sg22
I1
sg23
I2
sg24
I1
sbssg51
S'C\x93,\xa4\xac3\xb6\xb8\xca\x076\xae\x14\x15\xc0J'
p100
ssS'create_serializers_quests_quest_history_serializer'
p101
(dp102
S'index'
p103
(dp104
S'html_filename'
p105
S'create_serializers_quests_quest_history_serializer.html'
p106
sS'name'
p107
S'create/serializers/quests/quest_history_serializer'
p108
sS'nums'
p109
g13
(g14
g15
NtRp110
(dp111
g18
I1
sg19
I0
sg20
I38
sg21
I0
sg22
I0
sg23
I15
sg24
I0
sbssS'hash'
p112
S'\x0c\x10\x81\x11\xc3\xff\x01\x8d<#\xe5~\x84\xec\x18\xfd'
p113
ssS'user_system_models_users_tests_test_student_profile_request_model'
p114
(dp115
S'index'
p116
(dp117
g31
S'user_system_models_users_tests_test_student_profile_request_model.html'
p118
sg33
S'user_system/models/users/tests/test_student_profile_request_model'
p119
sg35
g13
(g14
g15
NtRp120
(dp121
g18
I1
sg19
I0
sg20
I42
sg21
I0
sg22
I0
sg23
I0
sg24
I0
sbssS'hash'
p122
S'\x0c4FG\x9bD\x9e\xaa\xb9a\xd6\xee\xc6&0T'
p123
ssS'create_views_books_tests_test_add_chapter_view'
p124
(dp125
S'index'
p126
(dp127
g44
S'create_views_books_tests_test_add_chapter_view.html'
p128
sg46
S'create/views/books/tests/test_add_chapter_view'
p129
sg48
g13
(g14
g15
NtRp130
(dp131
g18
I1
sg19
I0
sg20
I69
sg21
I0
sg22
I0
sg23
I0
sg24
I0
sbssS'hash'
p132
S'\xea\xcd\x81\xff\xe6p74\xe3\xab\xc2R\x1aZ#Y'
p133
ssS'teach_models_teacher_chapters_tests_test_teacher_chapter_model'
p134
(dp135
g55
(dp136
g57
S'teach_models_teacher_chapters_tests_test_teacher_chapter_model.html'
p137
sg59
S'teach/models/teacher_chapters/tests/test_teacher_chapter_model'
p138
sg61
g13
(g14
g15
NtRp139
(dp140
g18
I1
sg19
I0
sg20
I28
sg21
I0
sg22
I0
sg23
I0
sg24
I0
sbssg64
S'm\xb2B\x1a\x04\xa5\x94N\xbe\xb6\xfa\xa9\x16J\x10\x92'
p141
ssS'create_serializers_question_datasets___init__'
p142
(dp143
S'index'
p144
(dp145
S'html_filename'
p146
S'create_serializers_question_datasets___init__.html'
p147
sS'name'
p148
S'create/serializers/question_datasets/__init__'
p149
sS'nums'
p150
g13
(g14
g15
NtRp151
(dp152
g18
I1
sg19
I0
sg20
I1
sg21
I0
sg22
I0
sg23
I0
sg24
I0
sbssS'hash'
p153
S'Z\xf8\x02Tc\xc1C;<_\x87\xc6\xc2H\xa6\xdc'
p154
ssS'user_system_models_users_user_profile_model'
p155
(dp156
g42
(dp157
S'html_filename'
p158
S'user_system_models_users_user_profile_model.html'
p159
sS'name'
p160
S'user_system/models/users/user_profile_model'
p161
sS'nums'
p162
g13
(g14
g15
NtRp163
(dp164
g18
I1
sg19
I48
sg20
I178
sg21
I0
sg22
I0
sg23
I24
sg24
I6
sbssg51
S'\xf2\xb8\xecp\xaf\xff\n\xe3b\x06\xe8\xc3p\xf9\xe4W'
p165
ssS'create_models_question_datasets_tests_test_question_dataset_model'
p166
(dp167
g144
(dp168
g146
S'create_models_question_datasets_tests_test_question_dataset_model.html'
p169
sg148
S'create/models/question_datasets/tests/test_question_dataset_model'
p170
sg150
g13
(g14
g15
NtRp171
(dp172
g18
I1
sg19
I2
sg20
I39
sg21
I0
sg22
I0
sg23
I0
sg24
I0
sbssg153
S'!\t\x88\xfc\x0f\xaa\x0c\x88\xe3\xf9\x04\xd1\\0w\xf1'
p173
ssS'user_system_models_users___init__'
p174
(dp175
g42
(dp176
S'html_filename'
p177
S'user_system_models_users___init__.html'
p178
sS'name'
p179
S'user_system/models/users/__init__'
p180
sS'nums'
p181
g13
(g14
g15
NtRp182
(dp183
g18
I1
sg19
I0
sg20
I11
sg21
I0
sg22
I0
sg23
I0
sg24
I0
sbssg51
S'\x81\xefKrW:\x98\xa0\xfbl\x17\xe1E\xb8..'
p184
ssS'teach_urls'
p185
(dp186
g55
(dp187
S'html_filename'
p188
S'teach_urls.html'
p189
sS'name'
p190
S'teach/urls'
p191
sS'nums'
p192
g13
(g14
g15
NtRp193
(dp194
g18
I1
sg19
I0
sg20
I13
sg21
I0
sg22
I0
sg23
I0
sg24
I0
sbssg64
S'1\xa6\x90\x84\xbf\x9b\x9at\x1f4\xf1\x1b\x92\x03\xff%'
p195
ssS'learn_serializers_daily_quests___init__'
p196
(dp197
g55
(dp198
g177
S'learn_serializers_daily_quests___init__.html'
p199
sg179
S'learn/serializers/daily_quests/__init__'
p200
sg181
g13
(g14
g15
NtRp201
(dp202
g18
I1
sg19
I0
sg20
I2
sg21
I0
sg22
I0
sg23
I0
sg24
I0
sbssg64
S'\x8e\x0b\xa4\xc1x\xdb]\xcc\xf6 \x7f\xbeO\x91\xca@'
p203
ssS'user_system_models_schools___init__'
p204
(dp205
S'index'
p206
(dp207
S'html_filename'
p208
S'user_system_models_schools___init__.html'
p209
sS'name'
p210
S'user_system/models/schools/__init__'
p211
sS'nums'
p212
g13
(g14
g15
NtRp213
(dp214
g18
I1
sg19
I0
sg20
I6
sg21
I0
sg22
I0
sg23
I0
sg24
I0
sbssS'hash'
p215
S'\xbe\xc9\xb2f\x05\x1f\xe6\xee\xef\x01#\xe8\x16\xc2\x83\xdb'
p216
ssS'create_views_questions_tests_test_remove_tag_view'
p217
(dp218
S'index'
p219
(dp220
S'html_filename'
p221
S'create_views_questions_tests_test_remove_tag_view.html'
p222
sS'name'
p223
S'create/views/questions/tests/test_remove_tag_view'
p224
sS'nums'
p225
g13
(g14
g15
NtRp226
(dp227
g18
I1
sg19
I0
sg20
I36
sg21
I0
sg22
I0
sg23
I0
sg24
I0
sbssS'hash'
p228
S'\xbdV1EN\xfe\x8e;\xe4\x92\x91r\xd6Q\x03\x80'
p229
ssS'user_system_models_users_tests_test_student_profile_model'
p230
(dp231
S'index'
p232
(dp233
g177
S'user_system_models_users_tests_test_student_profile_model.html'
p234
sg179
S'user_system/models/users/tests/test_student_profile_model'
p235
sg181
g13
(g14
g15
NtRp236
(dp237
g18
I1
sg19
I0
sg20
I48
sg21
I0
sg22
I0
sg23
I0
sg24
I0
sbssS'hash'
p238
S'\n_\xb5B0\x1dR\x0b\x16i\x1fy.Z\x14#'
p239
ssS'create_views_daily_quest_templates___init__'
p240
(dp241
S'index'
p242
(dp243
S'html_filename'
p244
S'create_views_daily_quest_templates___init__.html'
p245
sS'name'
p246
S'create/views/daily_quest_templates/__init__'
p247
sS'nums'
p248
g13
(g14
g15
NtRp249
(dp250
g18
I1
sg19
I0
sg20
I1
sg21
I0
sg22
I0
sg23
I0
sg24
I0
sbssS'hash'
p251
S'\xc1b\x1f\x95\xabR`C\xe80\xb9tNC\r3'
p252
ssS'api_logging_views_query_stat_query_stat_view'
p253
(dp254
S'index'
p255
(dp256
S'html_filename'
p257
S'api_logging_views_query_stat_query_stat_view.html'
p258
sS'name'
p259
S'api_logging/views/query_stat/query_stat_view'
p260
sS'nums'
p261
g13
(g14
g15
NtRp262
(dp263
g18
I1
sg19
I2
sg20
I40
sg21
I0
sg22
I0
sg23
I20
sg24
I2
sbssS'hash'
p264
S'\xd2\xdb!D8\xbd]\xc7\x91e\xc6\xc8\x19D3\xb1'
p265
ssS'learn___init__'
p266
(dp267
g55
(dp268
g57
S'learn___init__.html'
p269
sg59
S'learn/__init__'
p270
sg61
g13
(g14
g15
NtRp271
(dp272
g18
I1
sg19
I0
sg20
I0
sg21
I0
sg22
I0
sg23
I0
sg24
I0
sbssg64
S'\x19g\xdfM\x1a\x019\xaf\x1baIeR\xe5u\xa7'
p273
ssS'create_serializers_quests___init__'
p274
(dp275
g103
(dp276
g31
S'create_serializers_quests___init__.html'
p277
sg33
S'create/serializers/quests/__init__'
p278
sg35
g13
(g14
g15
NtRp279
(dp280
g18
I1
sg19
I0
sg20
I2
sg21
I0
sg22
I0
sg23
I0
sg24
I0
sbssg112
S'\xc0,Fh\xaf\xa0(\x8f\xde\x02{\x88!\x04\x7f\xb6'
p281
ssS'teach_views_teacher_chapters___init__'
p282
(dp283
g55
(dp284
g57
S'teach_views_teacher_chapters___init__.html'
p285
sg59
S'teach/views/teacher_chapters/__init__'
p286
sg61
g13
(g14
g15
NtRp287
(dp288
g18
I1
sg19
I0
sg20
I1
sg21
I0
sg22
I0
sg23
I0
sg24
I0
sbssg64
S'\x10AP\xc9\nC\xd2REz\xf6\xe5\xd2(\xee`'
p289
ssS'user_system_models_users_student_profile_request_model'
p290
(dp291
g116
(dp292
g31
S'user_system_models_users_student_profile_request_model.html'
p293
sg33
S'user_system/models/users/student_profile_request_model'
p294
sg35
g13
(g14
g15
NtRp295
(dp296
g18
I1
sg19
I0
sg20
I45
sg21
I0
sg22
I0
sg23
I0
sg24
I0
sbssg122
S'\xeeZA}\xa0\xf5\x88k0a2\x9fS\xf3}\x05'
p297
ssS'privilege_models___init__'
p298
(dp299
S'index'
p300
(dp301
g93
S'privilege_models___init__.html'
p302
sg95
S'privilege/models/__init__'
p303
sg97
g13
(g14
g15
NtRp304
(dp305
g18
I1
sg19
I0
sg20
I1
sg21
I0
sg22
I0
sg23
I0
sg24
I0
sbssS'hash'
p306
S'\x13V\xca}S\xd3\x98Rp?\xb0\xe1\x904>b'
p307
ssS'user_system_views_users_teacher_mapping_view'
p308
(dp309
S'index'
p310
(dp311
g177
S'user_system_views_users_teacher_mapping_view.html'
p312
sg179
S'user_system/views/users/teacher_mapping_view'
p313
sg181
g13
(g14
g15
NtRp314
(dp315
g18
I1
sg19
I0
sg20
I14
sg21
I0
sg22
I0
sg23
I0
sg24
I0
sbssS'hash'
p316
S'B\x04t\x93Z\x86Q.\x17\xf9\xa0*\xf6\x86\xcf\x10'
p317
ssS'create_views_tags_tests_test_search_tag_view'
p318
(dp319
S'index'
p320
(dp321
g93
S'create_views_tags_tests_test_search_tag_view.html'
p322
sg95
S'create/views/tags/tests/test_search_tag_view'
p323
sg97
g13
(g14
g15
NtRp324
(dp325
g18
I1
sg19
I0
sg20
I22
sg21
I0
sg22
I0
sg23
I0
sg24
I0
sbssS'hash'
p326
S'\rh\xcb\xb3g\x15\x9c\xe3hR\xc5r\xb9\x9c\xb2\x1f'
p327
ssS'create_views_questions_tests_test_hide_question_view'
p328
(dp329
g42
(dp330
g44
S'create_views_questions_tests_test_hide_question_view.html'
p331
sg46
S'create/views/questions/tests/test_hide_question_view'
p332
sg48
g13
(g14
g15
NtRp333
(dp334
g18
I1
sg19
I0
sg20
I30
sg21
I0
sg22
I0
sg23
I0
sg24
I0
sbssg51
S'\xb3\x10S\x8a\x9b\xecw\xaa\xd3\x81\x1b\xf2\xab\xb2QG'
p335
ssS'user_system_serializers_users_student_profile_request_serializer'
p336
(dp337
g116
(dp338
g31
S'user_system_serializers_users_student_profile_request_serializer.html'
p339
sg33
S'user_system/serializers/users/student_profile_request_serializer'
p340
sg35
g13
(g14
g15
NtRp341
(dp342
g18
I1
sg19
I0
sg20
I8
sg21
I0
sg22
I0
sg23
I0
sg24
I0
sbssg122
S'\xa9VJ\x07M\x02\xee$\t\xc8O\xc43$\x1a-'
p343
ssS'create_views_question_datasets_question_dataset_view'
p344
(dp345
g144
(dp346
g146
S'create_views_question_datasets_question_dataset_view.html'
p347
sg148
S'create/views/question_datasets/question_dataset_view'
p348
sg150
g13
(g14
g15
NtRp349
(dp350
g18
I1
sg19
I4
sg20
I20
sg21
I0
sg22
I0
sg23
I5
sg24
I4
sbssg153
S'\x01\xfb\xf2\x86m\xd4\xf9\xc3\xe6\xb6\x11\x96u;\x1ez'
p351
ssS'teach_models_campaigns___init__'
p352
(dp353
g116
(dp354
g31
S'teach_models_campaigns___init__.html'
p355
sg33
S'teach/models/campaigns/__init__'
p356
sg35
g13
(g14
g15
NtRp357
(dp358
g18
I1
sg19
I0
sg20
I1
sg21
I0
sg22
I0
sg23
I0
sg24
I0
sbssg122
S'\xba\x82\x818\x88\xe0\xf2#\xe9\x89\xffso\xdc\xe6\xd4'
p359
ssS'create_serializers_books_book_chapter_serializer'
p360
(dp361
S'index'
p362
(dp363
g57
S'create_serializers_books_book_chapter_serializer.html'
p364
sg59
S'create/serializers/books/book_chapter_serializer'
p365
sg61
g13
(g14
g15
NtRp366
(dp367
g18
I1
sg19
I0
sg20
I23
sg21
I0
sg22
I0
sg23
I3
sg24
I0
sbssS'hash'
p368
S'\xf1~, f\x89\xad\xc8p\xcc\xd4E_\x0b3\x06'
p369
ssS'api_logging_models_api_logging_api_logging_model'
p370
(dp371
g310
(dp372
g177
S'api_logging_models_api_logging_api_logging_model.html'
p373
sg179
S'api_logging/models/api_logging/api_logging_model'
p374
sg181
g13
(g14
g15
NtRp375
(dp376
g18
I1
sg19
I0
sg20
I21
sg21
I0
sg22
I0
sg23
I0
sg24
I0
sbssg316
S'\x0c\x96WFX%\xe9\xcf+\xcf\xc2s\xa7a1\xbd'
p377
ssS'create_models_question_datasets___init__'
p378
(dp379
g144
(dp380
g146
S'create_models_question_datasets___init__.html'
p381
sg148
S'create/models/question_datasets/__init__'
p382
sg150
g13
(g14
g15
NtRp383
(dp384
g18
I1
sg19
I0
sg20
I1
sg21
I0
sg22
I0
sg23
I0
sg24
I0
sbssg153
S'\xeb\xb7>&t\x02-\xeaaJ,\x8a\xae\xc3\x1a]'
p385
ssS'user_system_urls'
p386
(dp387
g42
(dp388
S'html_filename'
p389
S'user_system_urls.html'
p390
sS'name'
p391
S'user_system/urls'
p392
sS'nums'
p393
g13
(g14
g15
NtRp394
(dp395
g18
I1
sg19
I0
sg20
I18
sg21
I0
sg22
I0
sg23
I0
sg24
I0
sbssg51
S'\x00\x8ala|\xefj\x9c-\x8e\x9d\xca\xbe"W\x9f'
p396
ssS'create_models_tags_tests_test_tag_type_model'
p397
(dp398
S'index'
p399
(dp400
g44
S'create_models_tags_tests_test_tag_type_model.html'
p401
sg46
S'create/models/tags/tests/test_tag_type_model'
p402
sg48
g13
(g14
g15
NtRp403
(dp404
g18
I1
sg19
I0
sg20
I17
sg21
I0
sg22
I0
sg23
I0
sg24
I0
sbssS'hash'
p405
S'?6\xfcg\xce\x11\x1a7E\xaf\xb2\x02\t"\xddA'
p406
ssS'create_models_quests_quest_history_model'
p407
(dp408
g103
(dp409
g8
S'create_models_quests_quest_history_model.html'
p410
sg10
S'create/models/quests/quest_history_model'
p411
sg12
g13
(g14
g15
NtRp412
(dp413
g18
I1
sg19
I8
sg20
I75
sg21
I0
sg22
I3
sg23
I4
sg24
I3
sbssg112
S'@\xe7\xfa\x02?w\xe7\x93\xa3\x85\x0f\x0fz\xf0\xdbR'
p414
ssS'learn_models_daily_quests_tests_test_daily_quest_question_history_model'
p415
(dp416
S'index'
p417
(dp418
g389
S'learn_models_daily_quests_tests_test_daily_quest_question_history_model.html'
p419
sg391
S'learn/models/daily_quests/tests/test_daily_quest_question_history_model'
p420
sg393
g13
(g14
g15
NtRp421
(dp422
g18
I1
sg19
I0
sg20
I202
sg21
I0
sg22
I0
sg23
I0
sg24
I0
sbssS'hash'
p423
S"(\xfe\xfc\x9b\xd9\xaf\n\x08\x83_\xc9Ko'\xc4\xb9"
p424
ssS'create_models_daily_quest_copies_daily_quest_copy_model'
p425
(dp426
S'index'
p427
(dp428
S'html_filename'
p429
S'create_models_daily_quest_copies_daily_quest_copy_model.html'
p430
sS'name'
p431
S'create/models/daily_quest_copies/daily_quest_copy_model'
p432
sS'nums'
p433
g13
(g14
g15
NtRp434
(dp435
g18
I1
sg19
I6
sg20
I47
sg21
I0
sg22
I0
sg23
I14
sg24
I6
sbssS'hash'
p436
S'\x90\xa7\xba\xee\x88\xf84\xf7\xd1B\x9b9@\\\x80P'
p437
ssS'create_views_tags_tests___init__'
p438
(dp439
S'index'
p440
(dp441
S'html_filename'
p442
S'create_views_tags_tests___init__.html'
p443
sS'name'
p444
S'create/views/tags/tests/__init__'
p445
sS'nums'
p446
g13
(g14
g15
NtRp447
(dp448
g18
I1
sg19
I0
sg20
I0
sg21
I0
sg22
I0
sg23
I0
sg24
I0
sbssS'hash'
p449
S'\x19g\xdfM\x1a\x019\xaf\x1baIeR\xe5u\xa7'
p450
ssS'user_system_models_apps_app_model'
p451
(dp452
g42
(dp453
g44
S'user_system_models_apps_app_model.html'
p454
sg46
S'user_system/models/apps/app_model'
p455
sg48
g13
(g14
g15
NtRp456
(dp457
g18
I1
sg19
I0
sg20
I16
sg21
I0
sg22
I0
sg23
I0
sg24
I0
sbssg51
S',\x89\x9d;<\xa3\xdc\x92@\xa5\x9c\x7fcg\x05?'
p458
ssS'user_system_views_apps_tests___init__'
p459
(dp460
g42
(dp461
S'html_filename'
p462
S'user_system_views_apps_tests___init__.html'
p463
sS'name'
p464
S'user_system/views/apps/tests/__init__'
p465
sS'nums'
p466
g13
(g14
g15
NtRp467
(dp468
g18
I1
sg19
I0
sg20
I0
sg21
I0
sg22
I0
sg23
I0
sg24
I0
sbssg51
S'\x19g\xdfM\x1a\x019\xaf\x1baIeR\xe5u\xa7'
p469
ssS'privilege___init__'
p470
(dp471
g300
(dp472
g93
S'privilege___init__.html'
p473
sg95
S'privilege/__init__'
p474
sg97
g13
(g14
g15
NtRp475
(dp476
g18
I1
sg19
I0
sg20
I0
sg21
I0
sg22
I0
sg23
I0
sg24
I0
sbssg306
S'\x19g\xdfM\x1a\x019\xaf\x1baIeR\xe5u\xa7'
p477
ssS'create_views_books___init__'
p478
(dp479
g362
(dp480
S'html_filename'
p481
S'create_views_books___init__.html'
p482
sS'name'
p483
S'create/views/books/__init__'
p484
sS'nums'
p485
g13
(g14
g15
NtRp486
(dp487
g18
I1
sg19
I0
sg20
I3
sg21
I0
sg22
I0
sg23
I0
sg24
I0
sbssg368
S'\xce\x13\xc8S|wF\xe3\x148\xa0?ez,\xc4'
p488
ssS'create_models_books_book_chapter_model'
p489
(dp490
g362
(dp491
g31
S'create_models_books_book_chapter_model.html'
p492
sg33
S'create/models/books/book_chapter_model'
p493
sg35
g13
(g14
g15
NtRp494
(dp495
g18
I1
sg19
I8
sg20
I58
sg21
I0
sg22
I1
sg23
I3
sg24
I3
sbssg368
S'5h\xa3E\x99\xf4H\x97\xbf\x08?=+K\xe7\xad'
p496
ssS'user_system_admin'
p497
(dp498
g42
(dp499
g177
S'user_system_admin.html'
p500
sg179
S'user_system/admin'
p501
sg181
g13
(g14
g15
NtRp502
(dp503
g18
I1
sg19
I0
sg20
I25
sg21
I0
sg22
I0
sg23
I0
sg24
I0
sbssg51
S',\xc1@k;\x98\x80\xb5\xbc\xab\x11\xf3\xdc\x0b\xd1U'
p504
ssS'user_system_serializers_users_teacher_profile_serializer'
p505
(dp506
g116
(dp507
g31
S'user_system_serializers_users_teacher_profile_serializer.html'
p508
sg33
S'user_system/serializers/users/teacher_profile_serializer'
p509
sg35
g13
(g14
g15
NtRp510
(dp511
g18
I1
sg19
I4
sg20
I20
sg21
I0
sg22
I0
sg23
I9
sg24
I4
sbssg122
S'\xe2\xa5\xba\xd6e\xc2\x88\xab\xaes\x15\x08\xa9ta\xd6'
p512
ssS'user_system_models_users_tests___init__'
p513
(dp514
g42
(dp515
g462
S'user_system_models_users_tests___init__.html'
p516
sg464
S'user_system/models/users/tests/__init__'
p517
sg466
g13
(g14
g15
NtRp518
(dp519
g18
I1
sg19
I0
sg20
I0
sg21
I0
sg22
I0
sg23
I0
sg24
I0
sbssg51
S'\x19g\xdfM\x1a\x019\xaf\x1baIeR\xe5u\xa7'
p520
ssS'user_system_models_users_user_profile_picture_model'
p521
(dp522
g116
(dp523
g31
S'user_system_models_users_user_profile_picture_model.html'
p524
sg33
S'user_system/models/users/user_profile_picture_model'
p525
sg35
g13
(g14
g15
NtRp526
(dp527
g18
I1
sg19
I0
sg20
I18
sg21
I0
sg22
I0
sg23
I0
sg24
I0
sbssg122
S'$E\xff\xf5f,\xb2\xc7\xb4\x9b*\x0es|s\xcc'
p528
ssS'teach_models_teacher_tags_teacher_tag_model'
p529
(dp530
g55
(dp531
g57
S'teach_models_teacher_tags_teacher_tag_model.html'
p532
sg59
S'teach/models/teacher_tags/teacher_tag_model'
p533
sg61
g13
(g14
g15
NtRp534
(dp535
g18
I1
sg19
I0
sg20
I30
sg21
I0
sg22
I0
sg23
I0
sg24
I0
sbssg64
S'\\\xb6A\xa8\xa7\x93\x16K\xceQ>\xe8t\xdb<#'
p536
ssS'teach_models_daily_quest_templates_daily_quest_template_model'
p537
(dp538
g55
(dp539
S'html_filename'
p540
S'teach_models_daily_quest_templates_daily_quest_template_model.html'
p541
sS'name'
p542
S'teach/models/daily_quest_templates/daily_quest_template_model'
p543
sS'nums'
p544
g13
(g14
g15
NtRp545
(dp546
g18
I1
sg19
I0
sg20
I32
sg21
I0
sg22
I0
sg23
I0
sg24
I0
sbssg64
S'\xd8?/FZ\xe7\xb6\xa6E&6\x86\xa5\x93\x7f='
p547
ssS'create_views_books_tests_test_add_subchapter_view'
p548
(dp549
S'index'
p550
(dp551
g44
S'create_views_books_tests_test_add_subchapter_view.html'
p552
sg46
S'create/views/books/tests/test_add_subchapter_view'
p553
sg48
g13
(g14
g15
NtRp554
(dp555
g18
I1
sg19
I0
sg20
I60
sg21
I0
sg22
I0
sg23
I0
sg24
I0
sbssS'hash'
p556
S"\xcc^2\xc4\xf2\xb1\xdc\xe8\xf0t\xb6\xcc\x1f\xce\xf1'"
p557
ssS'create_models_quests_quest_model'
p558
(dp559
g103
(dp560
S'html_filename'
p561
S'create_models_quests_quest_model.html'
p562
sS'name'
p563
S'create/models/quests/quest_model'
p564
sS'nums'
p565
g13
(g14
g15
NtRp566
(dp567
g18
I1
sg19
I4
sg20
I59
sg21
I0
sg22
I0
sg23
I13
sg24
I4
sbssg112
S'^g\x1e\x82\xee1[\xc0\xbe\x04\xca\xb1`M\xe7\xe9'
p568
ssS'user_system_views_users_tests_test_remove_role_view'
p569
(dp570
g42
(dp571
g44
S'user_system_views_users_tests_test_remove_role_view.html'
p572
sg46
S'user_system/views/users/tests/test_remove_role_view'
p573
sg48
g13
(g14
g15
NtRp574
(dp575
g18
I1
sg19
I0
sg20
I42
sg21
I0
sg22
I0
sg23
I0
sg24
I0
sbssg51
S'\xfb\x9b\xa3\xe5\x90\xe7q99\x19\x10"<@L\x8c'
p576
ssS'create_models_tags_tests_test_tag_history_model'
p577
(dp578
S'index'
p579
(dp580
g57
S'create_models_tags_tests_test_tag_history_model.html'
p581
sg59
S'create/models/tags/tests/test_tag_history_model'
p582
sg61
g13
(g14
g15
NtRp583
(dp584
g18
I1
sg19
I0
sg20
I58
sg21
I0
sg22
I0
sg23
I0
sg24
I0
sbssS'hash'
p585
S"\x05Y\xa9\xba\xf0\xa8\xd2*7_\xcb]\xfb*#'"
p586
ssS'teach_views_teacher_news_feed___init__'
p587
(dp588
g310
(dp589
g177
S'teach_views_teacher_news_feed___init__.html'
p590
sg179
S'teach/views/teacher_news_feed/__init__'
p591
sg181
g13
(g14
g15
NtRp592
(dp593
g18
I1
sg19
I0
sg20
I1
sg21
I0
sg22
I0
sg23
I0
sg24
I0
sbssg316
S'\xe8\xcd\xf3\x9f\xa3=;`\xf0oZ\xcb!\x98\xac\x1c'
p594
ssS'create_views_daily_quest_templates_daily_quest_template_view'
p595
(dp596
g242
(dp597
g244
S'create_views_daily_quest_templates_daily_quest_template_view.html'
p598
sg246
S'create/views/daily_quest_templates/daily_quest_template_view'
p599
sg248
g13
(g14
g15
NtRp600
(dp601
g18
I1
sg19
I4
sg20
I20
sg21
I0
sg22
I0
sg23
I5
sg24
I4
sbssg251
S'*(w\xa3\x82\x06\xe8D\x8c\xaa+3\xbc\xe3\xa5\x1d'
p602
ssS'create_models_questions_question_history_remark_model'
p603
(dp604
S'index'
p605
(dp606
S'html_filename'
p607
S'create_models_questions_question_history_remark_model.html'
p608
sS'name'
p609
S'create/models/questions/question_history_remark_model'
p610
sS'nums'
p611
g13
(g14
g15
NtRp612
(dp613
g18
I1
sg19
I0
sg20
I27
sg21
I0
sg22
I0
sg23
I0
sg24
I0
sbssS'hash'
p614
S'\xac"G5\x1c\xf2\xef\xa9\x1dUd\xce4.\xac\xa4'
p615
ssS'learn_serializers___init__'
p616
(dp617
g55
(dp618
g57
S'learn_serializers___init__.html'
p619
sg59
S'learn/serializers/__init__'
p620
sg61
g13
(g14
g15
NtRp621
(dp622
g18
I1
sg19
I0
sg20
I1
sg21
I0
sg22
I0
sg23
I0
sg24
I0
sbssg64
S'cLP\xd9\xc0\x91mD\xa3\xd2\xbczr\xdak\xf4'
p623
ssS'user_system_views_schools___init__'
p624
(dp625
g116
(dp626
g31
S'user_system_views_schools___init__.html'
p627
sg33
S'user_system/views/schools/__init__'
p628
sg35
g13
(g14
g15
NtRp629
(dp630
g18
I1
sg19
I0
sg20
I2
sg21
I0
sg22
I0
sg23
I0
sg24
I0
sbssg122
S'\x85\xe2\x7f\xa7\xac\x16HY\x8b\x10\x9b\xc0r\x17|\x8c'
p631
ssS'create_views_quests___init__'
p632
(dp633
g103
(dp634
S'html_filename'
p635
S'create_views_quests___init__.html'
p636
sS'name'
p637
S'create/views/quests/__init__'
p638
sS'nums'
p639
g13
(g14
g15
NtRp640
(dp641
g18
I1
sg19
I0
sg20
I1
sg21
I0
sg22
I0
sg23
I0
sg24
I0
sbssg112
S'\x8d\x97\x8c^6\xf0o\xc3_\x8dRQ}\xd2]a'
p642
ssS'user_system_models_schools_tests_test_course_model'
p643
(dp644
g232
(dp645
S'html_filename'
p646
S'user_system_models_schools_tests_test_course_model.html'
p647
sS'name'
p648
S'user_system/models/schools/tests/test_course_model'
p649
sS'nums'
p650
g13
(g14
g15
NtRp651
(dp652
g18
I1
sg19
I8
sg20
I50
sg21
I0
sg22
I0
sg23
I0
sg24
I0
sbssg238
S'\xd7va\xe6uR6*v\xca\x885\xf3]$1'
p653
ssS'create_models_question_datasets_tests___init__'
p654
(dp655
g144
(dp656
g146
S'create_models_question_datasets_tests___init__.html'
p657
sg148
S'create/models/question_datasets/tests/__init__'
p658
sg150
g13
(g14
g15
NtRp659
(dp660
g18
I1
sg19
I0
sg20
I0
sg21
I0
sg22
I0
sg23
I0
sg24
I0
sbssg153
S'\x19g\xdfM\x1a\x019\xaf\x1baIeR\xe5u\xa7'
p661
ssS'api_logging_models_modal_logging_modal_model'
p662
(dp663
g310
(dp664
g177
S'api_logging_models_modal_logging_modal_model.html'
p665
sg179
S'api_logging/models/modal_logging/modal_model'
p666
sg181
g13
(g14
g15
NtRp667
(dp668
g18
I1
sg19
I0
sg20
I19
sg21
I0
sg22
I0
sg23
I5
sg24
I0
sbssg316
S'\x0f\x1e\xac\x00_hQ\xcb\xa2\xa8\xf4@\xb9\x97\x9c\x1e'
p669
ssS'user_system_views_signups_hardcoded_test_account_view'
p670
(dp671
g42
(dp672
g44
S'user_system_views_signups_hardcoded_test_account_view.html'
p673
sg46
S'user_system/views/signups/hardcoded/test_account_view'
p674
sg48
g13
(g14
g15
NtRp675
(dp676
g18
I1
sg19
I2
sg20
I18
sg21
I0
sg22
I0
sg23
I0
sg24
I0
sbssg51
S"\xb4\xf1\xfdH\x8f\xf1QX7'\\\xd3\xab.\xbc\x80"
p677
ssS'user_system_views_users_create_student_view'
p678
(dp679
g310
(dp680
g177
S'user_system_views_users_create_student_view.html'
p681
sg179
S'user_system/views/users/create_student_view'
p682
sg181
g13
(g14
g15
NtRp683
(dp684
g18
I1
sg19
I2
sg20
I37
sg21
I0
sg22
I0
sg23
I24
sg24
I2
sbssg316
S'\x8e\xce\xac\xe9\xe3J4\xbb\x88$\xefFS\x06Ow'
p685
ssS'teach_serializers_teacher_tags___init__'
p686
(dp687
g55
(dp688
g57
S'teach_serializers_teacher_tags___init__.html'
p689
sg59
S'teach/serializers/teacher_tags/__init__'
p690
sg61
g13
(g14
g15
NtRp691
(dp692
g18
I1
sg19
I0
sg20
I1
sg21
I0
sg22
I0
sg23
I0
sg24
I0
sbssg64
S'Q\xc1\xe2\xf5*\x8fJ\xddv\xe7\x91\xd1S\xf5\xa9\xa3'
p693
ssS'learn_models_daily_quests_tests___init__'
p694
(dp695
g55
(dp696
g57
S'learn_models_daily_quests_tests___init__.html'
p697
sg59
S'learn/models/daily_quests/tests/__init__'
p698
sg61
g13
(g14
g15
NtRp699
(dp700
g18
I1
sg19
I0
sg20
I1
sg21
I0
sg22
I0
sg23
I0
sg24
I0
sbssg64
S'\xbc\xd6\xeb\xb3\xba\xcaz\xf7{\xd4B\xb5}l\xdf\x96'
p701
ssS'user_system_views_signups___init__'
p702
(dp703
g42
(dp704
g462
S'user_system_views_signups___init__.html'
p705
sg464
S'user_system/views/signups/__init__'
p706
sg466
g13
(g14
g15
NtRp707
(dp708
g18
I1
sg19
I0
sg20
I4
sg21
I0
sg22
I0
sg23
I0
sg24
I0
sbssg51
S'\x02\x1d\x90mQ#+\xc5\x93\xdb\xa4Hs\xcf\xa8\x97'
p709
ssS'create_views_tags_tag_view'
p710
(dp711
g440
(dp712
g105
S'create_views_tags_tag_view.html'
p713
sg107
S'create/views/tags/tag_view'
p714
sg109
g13
(g14
g15
NtRp715
(dp716
g18
I1
sg19
I32
sg20
I92
sg21
I0
sg22
I8
sg23
I13
sg24
I16
sbssg449
S'\xd5\xd6\xf9\xa6U<\xf82\xe0xx\x06}\xa5\xeb\xe7'
p717
ssS'api_logging_managers'
p718
(dp719
g579
(dp720
g44
S'api_logging_managers.html'
p721
sg46
S'api_logging/managers'
p722
sg48
g13
(g14
g15
NtRp723
(dp724
g18
I1
sg19
I0
sg20
I4
sg21
I0
sg22
I0
sg23
I0
sg24
I0
sbssg585
S'\xef\xaf\x98\xcd63\x10\x1c\xc1\xfcP\x12\xc1\xe7\xa5\xc7'
p725
ssS'teach_models_campaigns_campaign_model'
p726
(dp727
g116
(dp728
g177
S'teach_models_campaigns_campaign_model.html'
p729
sg179
S'teach/models/campaigns/campaign_model'
p730
sg181
g13
(g14
g15
NtRp731
(dp732
g18
I1
sg19
I0
sg20
I40
sg21
I0
sg22
I0
sg23
I0
sg24
I0
sbssg122
S'>\xc8\xe2\xfb\xdd\xc1"@\xea/\xe1\xbb\xf1\xa4\x80\x0f'
p733
ssS'create_views_tags_tests_test_add_prerequisite_view'
p734
(dp735
g320
(dp736
g44
S'create_views_tags_tests_test_add_prerequisite_view.html'
p737
sg46
S'create/views/tags/tests/test_add_prerequisite_view'
p738
sg48
g13
(g14
g15
NtRp739
(dp740
g18
I1
sg19
I0
sg20
I26
sg21
I0
sg22
I0
sg23
I0
sg24
I0
sbssg326
S'\xd2\xef\x02\xe1{\xbc\x9b\xf3\x8b\xbd\xf0\xd2\xe7\xcc\xb5\xa4'
p741
ssS'create_models_tags___init__'
p742
(dp743
g399
(dp744
S'html_filename'
p745
S'create_models_tags___init__.html'
p746
sS'name'
p747
S'create/models/tags/__init__'
p748
sS'nums'
p749
g13
(g14
g15
NtRp750
(dp751
g18
I1
sg19
I0
sg20
I5
sg21
I0
sg22
I0
sg23
I0
sg24
I0
sbssg405
S'\xcck\xb0R5)\xa8c\xdb\xa6\xfb\xec\x18 \xde}'
p752
ssS'teach_models_campaigns_tests___init__'
p753
(dp754
g116
(dp755
g31
S'teach_models_campaigns_tests___init__.html'
p756
sg33
S'teach/models/campaigns/tests/__init__'
p757
sg35
g13
(g14
g15
NtRp758
(dp759
g18
I1
sg19
I0
sg20
I0
sg21
I0
sg22
I0
sg23
I0
sg24
I0
sbssg122
S'\x19g\xdfM\x1a\x019\xaf\x1baIeR\xe5u\xa7'
p760
ssS'learn_views_student_news_feed___init__'
p761
(dp762
g310
(dp763
g177
S'learn_views_student_news_feed___init__.html'
p764
sg179
S'learn/views/student_news_feed/__init__'
p765
sg181
g13
(g14
g15
NtRp766
(dp767
g18
I1
sg19
I0
sg20
I1
sg21
I0
sg22
I0
sg23
I0
sg24
I0
sbssg316
S'\xc5\x87\xccQ|\xa2\xee\x11p\x84\xfe\xed\xe3W\xfa\x07'
p768
ssS'create_models_daily_quests___init__'
p769
(dp770
S'index'
p771
(dp772
S'html_filename'
p773
S'create_models_daily_quests___init__.html'
p774
sS'name'
p775
S'create/models/daily_quests/__init__'
p776
sS'nums'
p777
g13
(g14
g15
NtRp778
(dp779
g18
I1
sg19
I0
sg20
I1
sg21
I0
sg22
I0
sg23
I0
sg24
I0
sbssS'hash'
p780
S'\x94\x0eB\xb3\x8e\xc6\x81\xc0\x16\x84P.\x11:\x8e\xc9'
p781
ssS'teach_views_teacher_chapters_teacher_chapter_view'
p782
(dp783
g55
(dp784
g31
S'teach_views_teacher_chapters_teacher_chapter_view.html'
p785
sg33
S'teach/views/teacher_chapters/teacher_chapter_view'
p786
sg35
g13
(g14
g15
NtRp787
(dp788
g18
I1
sg19
I12
sg20
I44
sg21
I0
sg22
I0
sg23
I25
sg24
I12
sbssg64
S'Z\xc5\n\xdb\xe5!2~7\xe3i\xa7j\xd4\x10\x8c'
p789
ssS'create_serializers_tags_concept_serializer'
p790
(dp791
g362
(dp792
S'html_filename'
p793
S'create_serializers_tags_concept_serializer.html'
p794
sS'name'
p795
S'create/serializers/tags/concept_serializer'
p796
sS'nums'
p797
g13
(g14
g15
NtRp798
(dp799
g18
I1
sg19
I0
sg20
I6
sg21
I0
sg22
I0
sg23
I0
sg24
I0
sbssg368
S'\xf1\xe0\xc7%%\xbd\xfc@\x12\x02\x96\xbb\x0c\xbf\x9fq'
p800
ssS'create_serializers_questions_question_history_remark_serializer'
p801
(dp802
g605
(dp803
g607
S'create_serializers_questions_question_history_remark_serializer.html'
p804
sg609
S'create/serializers/questions/question_history_remark_serializer'
p805
sg611
g13
(g14
g15
NtRp806
(dp807
g18
I1
sg19
I0
sg20
I6
sg21
I0
sg22
I0
sg23
I0
sg24
I0
sbssg614
S'\xb53\t\x11\xa6\x1b\xf7!D"\xc8\xa3\xcb41\x9d'
p808
ssS'user_system_models_roles_tests___init__'
p809
(dp810
g42
(dp811
g462
S'user_system_models_roles_tests___init__.html'
p812
sg464
S'user_system/models/roles/tests/__init__'
p813
sg466
g13
(g14
g15
NtRp814
(dp815
g18
I1
sg19
I0
sg20
I0
sg21
I0
sg22
I0
sg23
I0
sg24
I0
sbssg51
S'\x19g\xdfM\x1a\x019\xaf\x1baIeR\xe5u\xa7'
p816
ssS'create_serializers_tags___init__'
p817
(dp818
S'index'
p819
(dp820
S'html_filename'
p821
S'create_serializers_tags___init__.html'
p822
sS'name'
p823
S'create/serializers/tags/__init__'
p824
sS'nums'
p825
g13
(g14
g15
NtRp826
(dp827
g18
I1
sg19
I0
sg20
I0
sg21
I0
sg22
I0
sg23
I0
sg24
I0
sbssS'hash'
p828
S'\x19g\xdfM\x1a\x019\xaf\x1baIeR\xe5u\xa7'
p829
ssS'privilege_urls'
p830
(dp831
g300
(dp832
g93
S'privilege_urls.html'
p833
sg95
S'privilege/urls'
p834
sg97
g13
(g14
g15
NtRp835
(dp836
g18
I1
sg19
I0
sg20
I7
sg21
I0
sg22
I0
sg23
I0
sg24
I0
sbssg306
S'\x86\xbf\xcdE\x8fy\xc9\xd5\x13I\x11#-J.\xe8'
p837
ssS'flipped_helpers_time_helper'
p838
(dp839
g116
(dp840
g389
S'flipped_helpers_time_helper.html'
p841
sg391
S'flipped/helpers/time_helper'
p842
sg393
g13
(g14
g15
NtRp843
(dp844
g18
I1
sg19
I2
sg20
I31
sg21
I0
sg22
I0
sg23
I19
sg24
I2
sbssg122
S'\xca\x92a\xc5\xd9\xf1\xd2\xa6H\x16\xd9\xed\xcdv&\xdb'
p845
ssS'create_serializers_daily_quests___init__'
p846
(dp847
g771
(dp848
g244
S'create_serializers_daily_quests___init__.html'
p849
sg246
S'create/serializers/daily_quests/__init__'
p850
sg248
g13
(g14
g15
NtRp851
(dp852
g18
I1
sg19
I0
sg20
I1
sg21
I0
sg22
I0
sg23
I0
sg24
I0
sbssg780
S'N\xb8\x18\x1c\x0c\xc7\xca\x91\xa0|\xe1\x02L\xeeC\xbe'
p853
ssS'api_logging_views_LoggingView'
p854
(dp855
g310
(dp856
g177
S'api_logging_views_LoggingView.html'
p857
sg179
S'api_logging/views/LoggingView'
p858
sg181
g13
(g14
g15
NtRp859
(dp860
g18
I1
sg19
I8
sg20
I41
sg21
I0
sg22
I0
sg23
I27
sg24
I8
sbssg316
S'\xe3\xefQ\x1e\x9e\xec\xea\xa7\xc5\x05\xb9\x90\xf6\xf3\x88\x9b'
p861
ssS'create_models_questions_tests_test_question_type_model'
p862
(dp863
g42
(dp864
g44
S'create_models_questions_tests_test_question_type_model.html'
p865
sg46
S'create/models/questions/tests/test_question_type_model'
p866
sg48
g13
(g14
g15
NtRp867
(dp868
g18
I1
sg19
I0
sg20
I17
sg21
I0
sg22
I0
sg23
I0
sg24
I0
sbssg51
S'e\x1b\x19\xbb)\x89\xff\xfa\xe5\xca\xde\x08\x08CUL'
p869
ssS'teach_models___init__'
p870
(dp871
g55
(dp872
g31
S'teach_models___init__.html'
p873
sg33
S'teach/models/__init__'
p874
sg35
g13
(g14
g15
NtRp875
(dp876
g18
I1
sg19
I0
sg20
I4
sg21
I0
sg22
I0
sg23
I0
sg24
I0
sbssg64
S'\x18\xb4\x9a\xf6\x89\xe4oR\x81\xdbb\xf7E\xf9\x92\xb7'
p877
ssS'create_models_tags_skill_model'
p878
(dp879
g399
(dp880
g44
S'create_models_tags_skill_model.html'
p881
sg46
S'create/models/tags/skill_model'
p882
sg48
g13
(g14
g15
NtRp883
(dp884
g18
I1
sg19
I0
sg20
I10
sg21
I0
sg22
I0
sg23
I0
sg24
I0
sbssg405
S'B&\x06S\xb6\x85A\xdbx\xd4\xc7#]\x13\xe1\xca'
p885
ssS'learn_tests'
p886
(dp887
g55
(dp888
g57
S'learn_tests.html'
p889
sg59
S'learn/tests'
p890
sg61
g13
(g14
g15
NtRp891
(dp892
g18
I1
sg19
I0
sg20
I1
sg21
I0
sg22
I0
sg23
I0
sg24
I0
sbssg64
S'\xe3\x7f\x86\xaa\x99\xac\xc8\x80\xdblE4\x0f\xe7\x1d\xfc'
p893
ssS'learn_models_daily_quests_daily_quest_model'
p894
(dp895
g55
(dp896
S'html_filename'
p897
S'learn_models_daily_quests_daily_quest_model.html'
p898
sS'name'
p899
S'learn/models/daily_quests/daily_quest_model'
p900
sS'nums'
p901
g13
(g14
g15
NtRp902
(dp903
g18
I1
sg19
I22
sg20
I123
sg21
I0
sg22
I3
sg23
I9
sg24
I5
sbssg64
S'V\xc0\xd6\x96s\xd6\x88\x97%.\xd5\x9dSII\xdb'
p904
ssS'api_logging_views___init__'
p905
(dp906
g310
(dp907
g257
S'api_logging_views___init__.html'
p908
sg259
S'api_logging/views/__init__'
p909
sg261
g13
(g14
g15
NtRp910
(dp911
g18
I1
sg19
I0
sg20
I4
sg21
I0
sg22
I0
sg23
I0
sg24
I0
sbssg316
S'\xdb\xe9\xd3\xd6\x86\x03\x82\x92\x17 \x05\xdb\xfec\x1e\x10'
p912
ssS'create_models_books___init__'
p913
(dp914
g362
(dp915
g793
S'create_models_books___init__.html'
p916
sg795
S'create/models/books/__init__'
p917
sg797
g13
(g14
g15
NtRp918
(dp919
g18
I1
sg19
I0
sg20
I4
sg21
I0
sg22
I0
sg23
I0
sg24
I0
sbssg368
S'\xba\x14\x87u\xc0\x80\x96\x82s\x8d\x8bU)\x1c\xc3\x91'
p920
ssS'flipped_helpers___init__'
p921
(dp922
g42
(dp923
g389
S'flipped_helpers___init__.html'
p924
sg391
S'flipped/helpers/__init__'
p925
sg393
g13
(g14
g15
NtRp926
(dp927
g18
I1
sg19
I0
sg20
I5
sg21
I0
sg22
I0
sg23
I0
sg24
I0
sbssg51
S'\x8d&\xda\xf5\x1f\xe2\xe9/Cb\xfb\x88\x04UM6'
p928
ssS'create_models_quests_tests_test_quest_model'
p929
(dp930
g103
(dp931
g561
S'create_models_quests_tests_test_quest_model.html'
p932
sg563
S'create/models/quests/tests/test_quest_model'
p933
sg565
g13
(g14
g15
NtRp934
(dp935
g18
I1
sg19
I4
sg20
I48
sg21
I0
sg22
I0
sg23
I0
sg24
I0
sbssg112
S'\xcdF\x98\xd0k\x14\x9e\xe4\x90\x96\x03\xddNdiH'
p936
ssS'privilege_views_privileges_user_privilege_view'
p937
(dp938
g300
(dp939
g93
S'privilege_views_privileges_user_privilege_view.html'
p940
sg95
S'privilege/views/privileges/user_privilege_view'
p941
sg97
g13
(g14
g15
NtRp942
(dp943
g18
I1
sg19
I10
sg20
I38
sg21
I0
sg22
I0
sg23
I22
sg24
I10
sbssg306
S'\xf699\xa5A\xca\x9e\x91,l\xf8\x8dI[PR'
p944
ssS'learn_models_daily_quests_tests_test_daily_quest_model'
p945
(dp946
g55
(dp947
g389
S'learn_models_daily_quests_tests_test_daily_quest_model.html'
p948
sg391
S'learn/models/daily_quests/tests/test_daily_quest_model'
p949
sg393
g13
(g14
g15
NtRp950
(dp951
g18
I1
sg19
I12
sg20
I249
sg21
I0
sg22
I0
sg23
I0
sg24
I0
sbssg64
S'+\xfc\x0c\xee\x10\x00\x0f+\xad\x07l\xcf\x8b\xac\xefF'
p952
ssS'create_views_books_tests_test_get_book_by_id_view'
p953
(dp954
S'index'
p955
(dp956
g93
S'create_views_books_tests_test_get_book_by_id_view.html'
p957
sg95
S'create/views/books/tests/test_get_book_by_id_view'
p958
sg97
g13
(g14
g15
NtRp959
(dp960
g18
I1
sg19
I0
sg20
I20
sg21
I0
sg22
I0
sg23
I0
sg24
I0
sbssS'hash'
p961
S'\xc88x\xaf\x84e\xaa6\x17\xdf\x0e\x8c`\xcaAO'
p962
ssS'user_system_views_apps_tests_test_get_app_by_id_view'
p963
(dp964
g42
(dp965
g44
S'user_system_views_apps_tests_test_get_app_by_id_view.html'
p966
sg46
S'user_system/views/apps/tests/test_get_app_by_id_view'
p967
sg48
g13
(g14
g15
NtRp968
(dp969
g18
I1
sg19
I0
sg20
I17
sg21
I0
sg22
I0
sg23
I0
sg24
I0
sbssg51
S"\xa2\x1eG%r{-~\xc5=\x8aj\x99X!'"
p970
ssS'teach_views_daily_quest_templates_daily_quest_template_view'
p971
(dp972
g55
(dp973
S'html_filename'
p974
S'teach_views_daily_quest_templates_daily_quest_template_view.html'
p975
sS'name'
p976
S'teach/views/daily_quest_templates/daily_quest_template_view'
p977
sS'nums'
p978
g13
(g14
g15
NtRp979
(dp980
g18
I1
sg19
I18
sg20
I54
sg21
I0
sg22
I0
sg23
I33
sg24
I18
sbssg64
S'\x97J\xccM\x9b\xcd1\xaf\x95\xea\xd8\x8d\xdc(\x89['
p981
ssS'api_logging_views_summary___init__'
p982
(dp983
g310
(dp984
g177
S'api_logging_views_summary___init__.html'
p985
sg179
S'api_logging/views/summary/__init__'
p986
sg181
g13
(g14
g15
NtRp987
(dp988
g18
I1
sg19
I0
sg20
I1
sg21
I0
sg22
I0
sg23
I0
sg24
I0
sbssg316
S'\x04\x12bh\x96\xc5j\x88dm\x0e\xd7\xe1\x94Lq'
p989
ssS'privilege_serializers___init__'
p990
(dp991
g300
(dp992
g93
S'privilege_serializers___init__.html'
p993
sg95
S'privilege/serializers/__init__'
p994
sg97
g13
(g14
g15
NtRp995
(dp996
g18
I1
sg19
I0
sg20
I1
sg21
I0
sg22
I0
sg23
I0
sg24
I0
sbssg306
S'\x13V\xca}S\xd3\x98Rp?\xb0\xe1\x904>b'
p997
ssS'create_models_books_tests_test_book_subchapter_model'
p998
(dp999
g362
(dp1000
S'html_filename'
p1001
S'create_models_books_tests_test_book_subchapter_model.html'
p1002
sS'name'
p1003
S'create/models/books/tests/test_book_subchapter_model'
p1004
sS'nums'
p1005
g13
(g14
g15
NtRp1006
(dp1007
g18
I1
sg19
I0
sg20
I42
sg21
I0
sg22
I0
sg23
I0
sg24
I0
sbssg368
S'\xe3*\xba\x94d#\xcd\t\xc9\xb8\x05w\nz\xb8\xc0'
p1008
ssS'learn_models_daily_quests___init__'
p1009
(dp1010
g55
(dp1011
S'html_filename'
p1012
S'learn_models_daily_quests___init__.html'
p1013
sS'name'
p1014
S'learn/models/daily_quests/__init__'
p1015
sS'nums'
p1016
g13
(g14
g15
NtRp1017
(dp1018
g18
I1
sg19
I0
sg20
I2
sg21
I0
sg22
I0
sg23
I0
sg24
I0
sbssg64
S's\x11\xbfV}\xab\xfcdH\xcf4Q\xc5\x86\xa3\xb4'
p1019
ssS'create_models_daily_quest_templates_tests___init__'
p1020
(dp1021
g242
(dp1022
g244
S'create_models_daily_quest_templates_tests___init__.html'
p1023
sg246
S'create/models/daily_quest_templates/tests/__init__'
p1024
sg248
g13
(g14
g15
NtRp1025
(dp1026
g18
I1
sg19
I0
sg20
I0
sg21
I0
sg22
I0
sg23
I0
sg24
I0
sbssg251
S'\x19g\xdfM\x1a\x019\xaf\x1baIeR\xe5u\xa7'
p1027
ssS'create_models_tags_tag_model'
p1028
(dp1029
g399
(dp1030
g93
S'create_models_tags_tag_model.html'
p1031
sg95
S'create/models/tags/tag_model'
p1032
sg97
g13
(g14
g15
NtRp1033
(dp1034
g18
I1
sg19
I0
sg20
I37
sg21
I0
sg22
I0
sg23
I0
sg24
I0
sbssg405
S'rJ0\x91]\xe5\xfc\xa8\x8c\x00}RI\x18\xf0\x07'
p1035
ssS'create_views_tags___init__'
p1036
(dp1037
g440
(dp1038
g442
S'create_views_tags___init__.html'
p1039
sg444
S'create/views/tags/__init__'
p1040
sg446
g13
(g14
g15
NtRp1041
(dp1042
g18
I1
sg19
I0
sg20
I1
sg21
I0
sg22
I0
sg23
I0
sg24
I0
sbssg449
S'|r<\xaap\x01\xb1\xbc"\xe5\xbb\xd8\x87\xa5\xd2H'
p1043
ssS'api_logging_models_query_stat___init__'
p1044
(dp1045
g255
(dp1046
g257
S'api_logging_models_query_stat___init__.html'
p1047
sg259
S'api_logging/models/query_stat/__init__'
p1048
sg261
g13
(g14
g15
NtRp1049
(dp1050
g18
I1
sg19
I0
sg20
I1
sg21
I0
sg22
I0
sg23
I0
sg24
I0
sbssg264
S'lAVjsm\xf3\xa0\xf4\x14\x8bL\xb9S\xd6\xe6'
p1051
ssS'create_serializers_tags_skill_serializer'
p1052
(dp1053
g362
(dp1054
g793
S'create_serializers_tags_skill_serializer.html'
p1055
sg795
S'create/serializers/tags/skill_serializer'
p1056
sg797
g13
(g14
g15
NtRp1057
(dp1058
g18
I1
sg19
I0
sg20
I6
sg21
I0
sg22
I0
sg23
I0
sg24
I0
sbssg368
S'\x1b\x10O\xca\xd5i\\\x06C\x00q}\xf43\xcb\xa6'
p1059
ssS'create_views_questions_question_history_remark_view'
p1060
(dp1061
g605
(dp1062
g607
S'create_views_questions_question_history_remark_view.html'
p1063
sg609
S'create/views/questions/question_history_remark_view'
p1064
sg611
g13
(g14
g15
NtRp1065
(dp1066
g18
I1
sg19
I0
sg20
I14
sg21
I0
sg22
I0
sg23
I0
sg24
I0
sbssg614
S'{4O\x0e\xb3\xad\xc8\xb72\x8f\x1f\x11\xc0\x9e\xa0\xd6'
p1067
ssS'create_serializers_tags_tag_type_serializer'
p1068
(dp1069
g362
(dp1070
g793
S'create_serializers_tags_tag_type_serializer.html'
p1071
sg795
S'create/serializers/tags/tag_type_serializer'
p1072
sg797
g13
(g14
g15
NtRp1073
(dp1074
g18
I1
sg19
I0
sg20
I6
sg21
I0
sg22
I0
sg23
I0
sg24
I0
sbssg368
S'\xc3\xfd\x81\x18{\x97,\xb1\xb6\x9f\xee\xf2kZ\x1e\x02'
p1075
ssS'learn_models_points_tests_test_point_history_model'
p1076
(dp1077
g310
(dp1078
g177
S'learn_models_points_tests_test_point_history_model.html'
p1079
sg179
S'learn/models/points/tests/test_point_history_model'
p1080
sg181
g13
(g14
g15
NtRp1081
(dp1082
g18
I1
sg19
I0
sg20
I22
sg21
I0
sg22
I0
sg23
I0
sg24
I0
sbssg316
S"\x8d\xd7\x96\xe4\x1b\xf6\xc4\xed:B\x13\xa9MA'\x99"
p1083
ssS'learn_serializers_daily_quests_daily_quest_serializer'
p1084
(dp1085
g55
(dp1086
S'html_filename'
p1087
S'learn_serializers_daily_quests_daily_quest_serializer.html'
p1088
sS'name'
p1089
S'learn/serializers/daily_quests/daily_quest_serializer'
p1090
sS'nums'
p1091
g13
(g14
g15
NtRp1092
(dp1093
g18
I1
sg19
I2
sg20
I61
sg21
I0
sg22
I0
sg23
I27
sg24
I2
sbssg64
S'[\x88\x15VYH\x14\xb8S\xb2\x02\xa7a<\x08\x7f'
p1094
ssS'user_system_models_users_tests_test_user_profile_picture_model'
p1095
(dp1096
g116
(dp1097
g31
S'user_system_models_users_tests_test_user_profile_picture_model.html'
p1098
sg33
S'user_system/models/users/tests/test_user_profile_picture_model'
p1099
sg35
g13
(g14
g15
NtRp1100
(dp1101
g18
I1
sg19
I0
sg20
I21
sg21
I0
sg22
I0
sg23
I0
sg24
I0
sbssg122
S'\xbc/\x93\xf6\x8a\x1eC\x99t\xd0\xdc\x96\xf8\x970\xc9'
p1102
ssS'teach_views_teacher_news_feed_teacher_news_feed_view'
p1103
(dp1104
g310
(dp1105
S'html_filename'
p1106
S'teach_views_teacher_news_feed_teacher_news_feed_view.html'
p1107
sS'name'
p1108
S'teach/views/teacher_news_feed/teacher_news_feed_view'
p1109
sS'nums'
p1110
g13
(g14
g15
NtRp1111
(dp1112
g18
I1
sg19
I2
sg20
I40
sg21
I0
sg22
I0
sg23
I20
sg24
I2
sbssg316
S'\x91\x13LD\x93S\xb7\xc7F\x89y\x9f\x0cO\xb9_'
p1113
ssS'user_system_serializers_schools_organization_serializer'
p1114
(dp1115
g55
(dp1116
g57
S'user_system_serializers_schools_organization_serializer.html'
p1117
sg59
S'user_system/serializers/schools/organization_serializer'
p1118
sg61
g13
(g14
g15
NtRp1119
(dp1120
g18
I1
sg19
I0
sg20
I7
sg21
I0
sg22
I0
sg23
I0
sg24
I0
sbssg64
S'90~\xe3\x8f\x8e\xd9m\xb4\nInn\x03(\xdb'
p1121
ssS'create_models_books_book_subchapter_model'
p1122
(dp1123
g362
(dp1124
S'html_filename'
p1125
S'create_models_books_book_subchapter_model.html'
p1126
sS'name'
p1127
S'create/models/books/book_subchapter_model'
p1128
sS'nums'
p1129
g13
(g14
g15
NtRp1130
(dp1131
g18
I1
sg19
I2
sg20
I45
sg21
I0
sg22
I0
sg23
I0
sg24
I0
sbssg368
S'\xbc\xee\x91\x7f;\xa9\x15\xeaau\xef\x82\x07"\x02\xd3'
p1132
ssS'teach_views_summaries_leaderboard_view'
p1133
(dp1134
g310
(dp1135
g1087
S'teach_views_summaries_leaderboard_view.html'
p1136
sg1089
S'teach/views/summaries/leaderboard_view'
p1137
sg1091
g13
(g14
g15
NtRp1138
(dp1139
g18
I1
sg19
I64
sg20
I160
sg21
I0
sg22
I0
sg23
I130
sg24
I64
sbssg316
S'\xb2\xf0\xf4&\x19\xffq\x0f\xb5Q\xc6.\xe9^\xbe\xfa'
p1140
ssS'api_logging_serializers_modal_loggings_modal_user_history_serializer'
p1141
(dp1142
g310
(dp1143
g177
S'api_logging_serializers_modal_loggings_modal_user_history_serializer.html'
p1144
sg179
S'api_logging/serializers/modal_loggings/modal_user_history_serializer'
p1145
sg181
g13
(g14
g15
NtRp1146
(dp1147
g18
I1
sg19
I0
sg20
I7
sg21
I0
sg22
I0
sg23
I0
sg24
I0
sbssg316
S'\xc2\x8f\x89\xe8$\x9c~\x81\xa9\xca\xf8h\x80\xb7hp'
p1148
ssS'learn_models_points___init__'
p1149
(dp1150
g310
(dp1151
g177
S'learn_models_points___init__.html'
p1152
sg179
S'learn/models/points/__init__'
p1153
sg181
g13
(g14
g15
NtRp1154
(dp1155
g18
I1
sg19
I0
sg20
I2
sg21
I0
sg22
I0
sg23
I0
sg24
I0
sbssg316
S'\x1d_\xe1\xcei\x14zD\xd7\x8e\xa1\xf55\x1f\xd1\xd5'
p1156
ssS'api_logging_models___init__'
p1157
(dp1158
g310
(dp1159
g257
S'api_logging_models___init__.html'
p1160
sg259
S'api_logging/models/__init__'
p1161
sg261
g13
(g14
g15
NtRp1162
(dp1163
g18
I1
sg19
I0
sg20
I4
sg21
I0
sg22
I0
sg23
I0
sg24
I0
sbssg316
S'\x1e\xe1SC\x84\x0bP\xec\xc0\xa61\xf48)\xde\xbb'
p1164
ssS'teach_serializers___init__'
p1165
(dp1166
g55
(dp1167
g57
S'teach_serializers___init__.html'
p1168
sg59
S'teach/serializers/__init__'
p1169
sg61
g13
(g14
g15
NtRp1170
(dp1171
g18
I1
sg19
I0
sg20
I3
sg21
I0
sg22
I0
sg23
I0
sg24
I0
sbssg64
S'3\x13\x12&\xcb\xecC\xee\xa8lR\x1a\x1d\xb9M\xba'
p1172
ssS'user_system_views_signups_tests___init__'
p1173
(dp1174
g42
(dp1175
g462
S'user_system_views_signups_tests___init__.html'
p1176
sg464
S'user_system/views/signups/tests/__init__'
p1177
sg466
g13
(g14
g15
NtRp1178
(dp1179
g18
I1
sg19
I0
sg20
I1
sg21
I0
sg22
I0
sg23
I0
sg24
I0
sbssg51
S'\xbc\xd6\xeb\xb3\xba\xcaz\xf7{\xd4B\xb5}l\xdf\x96'
p1180
ssS'create_models_daily_quests_tests___init__'
p1181
(dp1182
g771
(dp1183
g773
S'create_models_daily_quests_tests___init__.html'
p1184
sg775
S'create/models/daily_quests/tests/__init__'
p1185
sg777
g13
(g14
g15
NtRp1186
(dp1187
g18
I1
sg19
I0
sg20
I1
sg21
I0
sg22
I0
sg23
I0
sg24
I0
sbssg780
S'\xbc\xd6\xeb\xb3\xba\xcaz\xf7{\xd4B\xb5}l\xdf\x96'
p1188
ssS'api_logging_models_api_logging___init__'
p1189
(dp1190
g310
(dp1191
g177
S'api_logging_models_api_logging___init__.html'
p1192
sg179
S'api_logging/models/api_logging/__init__'
p1193
sg181
g13
(g14
g15
NtRp1194
(dp1195
g18
I1
sg19
I0
sg20
I1
sg21
I0
sg22
I0
sg23
I0
sg24
I0
sbssg316
S'C\xe8\xcf\x97-\xc6\xd3j\xcb\x90*\xea\xd3w\x83\xe0'
p1196
ssS'create_serializers_daily_quests_daily_quest_serializer'
p1197
(dp1198
g242
(dp1199
S'html_filename'
p1200
S'create_serializers_daily_quests_daily_quest_serializer.html'
p1201
sS'name'
p1202
S'create/serializers/daily_quests/daily_quest_serializer'
p1203
sS'nums'
p1204
g13
(g14
g15
NtRp1205
(dp1206
g18
I1
sg19
I0
sg20
I12
sg21
I0
sg22
I0
sg23
I3
sg24
I0
sbssg251
S' $!\xf6\xe6\x92\x9f\x9f\xafy\xe9\x8b\x1c\xf4\xb6\x01'
p1207
ssS'user_system_views_signups_email_signup_view'
p1208
(dp1209
g42
(dp1210
g44
S'user_system_views_signups_email_signup_view.html'
p1211
sg46
S'user_system/views/signups/email_signup_view'
p1212
sg48
g13
(g14
g15
NtRp1213
(dp1214
g18
I1
sg19
I8
sg20
I44
sg21
I0
sg22
I0
sg23
I0
sg24
I0
sbssg51
S'&G\xd1\xc4{\x9b\xbf\x14\x92F\xbe\x13\xeer\x84\x1b'
p1215
ssS'teach_views_teacher_tags___init__'
p1216
(dp1217
g55
(dp1218
g57
S'teach_views_teacher_tags___init__.html'
p1219
sg59
S'teach/views/teacher_tags/__init__'
p1220
sg61
g13
(g14
g15
NtRp1221
(dp1222
g18
I1
sg19
I0
sg20
I1
sg21
I0
sg22
I0
sg23
I0
sg24
I0
sbssg64
S'cp\x00\xdc\x00\xe5M\x9f\x1f\xaa\xb2Y\xd9%\x1d"'
p1223
ssS'flipped_helpers_success_response_helper'
p1224
(dp1225
g42
(dp1226
g44
S'flipped_helpers_success_response_helper.html'
p1227
sg46
S'flipped/helpers/success_response_helper'
p1228
sg48
g13
(g14
g15
NtRp1229
(dp1230
g18
I1
sg19
I2
sg20
I4
sg21
I0
sg22
I0
sg23
I0
sg24
I0
sbssg51
S"'Bp\xbe\xd9\xfa\x92\xa4;\xb6\t\xa8\xfe<\x9d\xa5"
p1231
ssS'create_models_questions_question_model'
p1232
(dp1233
g42
(dp1234
S'html_filename'
p1235
S'create_models_questions_question_model.html'
p1236
sS'name'
p1237
S'create/models/questions/question_model'
p1238
sS'nums'
p1239
g13
(g14
g15
NtRp1240
(dp1241
g18
I1
sg19
I0
sg20
I48
sg21
I0
sg22
I0
sg23
I0
sg24
I0
sbssg51
S'\tGy\xb6\x10\x17dQ\xd7\xd8N>\xd5\x96R\x82'
p1242
ssS'user_system_models_roles___init__'
p1243
(dp1244
g42
(dp1245
g462
S'user_system_models_roles___init__.html'
p1246
sg464
S'user_system/models/roles/__init__'
p1247
sg466
g13
(g14
g15
NtRp1248
(dp1249
g18
I1
sg19
I0
sg20
I2
sg21
I0
sg22
I0
sg23
I0
sg24
I0
sbssg51
S'\xa3\xc2\r\x1b\x1bC\x85\xa5\xads\x7fl\xab`*1'
p1250
ssS'create_models_questions_question_history_model'
p1251
(dp1252
g42
(dp1253
g93
S'create_models_questions_question_history_model.html'
p1254
sg95
S'create/models/questions/question_history_model'
p1255
sg97
g13
(g14
g15
NtRp1256
(dp1257
g18
I1
sg19
I8
sg20
I68
sg21
I0
sg22
I2
sg23
I2
sg24
I2
sbssg51
S'\xd0\xe9\x0bm$j\x15\x9b@\x93\xe5C\xa7\x97\xfd\xf4'
p1258
ssS'user_system_views_signups_tests_test_facebook_signup_view'
p1259
(dp1260
g42
(dp1261
g44
S'user_system_views_signups_tests_test_facebook_signup_view.html'
p1262
sg46
S'user_system/views/signups/tests/test_facebook_signup_view'
p1263
sg48
g13
(g14
g15
NtRp1264
(dp1265
g18
I1
sg19
I0
sg20
I60
sg21
I0
sg22
I0
sg23
I0
sg24
I0
sbssg51
S'\x93<\xc8]\x14\t\xa8/\xdd\xd1\xa4]\xfbp!\xbd'
p1266
ssS'user_system_models_users_tests_test_teacher_mapping_model'
p1267
(dp1268
g29
(dp1269
S'html_filename'
p1270
S'user_system_models_users_tests_test_teacher_mapping_model.html'
p1271
sS'name'
p1272
S'user_system/models/users/tests/test_teacher_mapping_model'
p1273
sS'nums'
p1274
g13
(g14
g15
NtRp1275
(dp1276
g18
I1
sg19
I4
sg20
I35
sg21
I0
sg22
I0
sg23
I0
sg24
I0
sbssg38
S'\x96\x93\xca\x00>\xf7\xc8\xe6:\xb8\x7f\xf5q:\xb6\xaa'
p1277
ssS'learn_views_daily_quests_daily_quest_view'
p1278
(dp1279
g55
(dp1280
g177
S'learn_views_daily_quests_daily_quest_view.html'
p1281
sg179
S'learn/views/daily_quests/daily_quest_view'
p1282
sg181
g13
(g14
g15
NtRp1283
(dp1284
g18
I1
sg19
I16
sg20
I61
sg21
I0
sg22
I0
sg23
I40
sg24
I16
sbssg64
S'\xceiA\x93\xcd>Y\x85L\x07Oz\x9aw\xae;'
p1285
ssS'teach_views_summaries_class_ranking_view'
p1286
(dp1287
g310
(dp1288
g1087
S'teach_views_summaries_class_ranking_view.html'
p1289
sg1089
S'teach/views/summaries/class_ranking_view'
p1290
sg1091
g13
(g14
g15
NtRp1291
(dp1292
g18
I1
sg19
I18
sg20
I78
sg21
I0
sg22
I0
sg23
I55
sg24
I18
sbssg316
S'\x86\xe0\x0e\x1e\xa5A\x94Fv\xfb-|]\x1aq\x7f'
p1293
ssS'privilege_models_privileges_tests___init__'
p1294
(dp1295
g300
(dp1296
g93
S'privilege_models_privileges_tests___init__.html'
p1297
sg95
S'privilege/models/privileges/tests/__init__'
p1298
sg97
g13
(g14
g15
NtRp1299
(dp1300
g18
I1
sg19
I0
sg20
I0
sg21
I0
sg22
I0
sg23
I0
sg24
I0
sbssg306
S'\x19g\xdfM\x1a\x019\xaf\x1baIeR\xe5u\xa7'
p1301
ssS'teach_serializers_teacher_chapters___init__'
p1302
(dp1303
g55
(dp1304
g57
S'teach_serializers_teacher_chapters___init__.html'
p1305
sg59
S'teach/serializers/teacher_chapters/__init__'
p1306
sg61
g13
(g14
g15
NtRp1307
(dp1308
g18
I1
sg19
I0
sg20
I1
sg21
I0
sg22
I0
sg23
I0
sg24
I0
sbssg64
S'\xfe\x88\xda\x10\xec!\x99\xb7-\x8d\x90E\xe18K\xb1'
p1309
ssS'api_logging_admin'
p1310
(dp1311
g579
(dp1312
g257
S'api_logging_admin.html'
p1313
sg259
S'api_logging/admin'
p1314
sg261
g13
(g14
g15
NtRp1315
(dp1316
g18
I1
sg19
I0
sg20
I11
sg21
I0
sg22
I0
sg23
I0
sg24
I0
sbssg585
S'\x9c\xc9Q\x0b\xd7D\x8a?p\xe97\x06/\xdd\x1cr'
p1317
ssS'user_system_models_users_user_streak_history_model'
p1318
(dp1319
g310
(dp1320
g1270
S'user_system_models_users_user_streak_history_model.html'
p1321
sg1272
S'user_system/models/users/user_streak_history_model'
p1322
sg1274
g13
(g14
g15
NtRp1323
(dp1324
g18
I1
sg19
I0
sg20
I28
sg21
I0
sg22
I0
sg23
I0
sg24
I0
sbssg316
S'w\x85uw\r5\x1a\xa5\xea>\xdaqki`p'
p1325
ssS'create_models_tags_tests_test_concept_model'
p1326
(dp1327
g399
(dp1328
g44
S'create_models_tags_tests_test_concept_model.html'
p1329
sg46
S'create/models/tags/tests/test_concept_model'
p1330
sg48
g13
(g14
g15
NtRp1331
(dp1332
g18
I1
sg19
I0
sg20
I12
sg21
I0
sg22
I0
sg23
I0
sg24
I0
sbssg405
S'@\x95\xd9\xf7\xa5\xc4\x0c\xb1\xad\xa4\xf5p\x95\x06!N'
p1333
ssS'privilege_models_privileges_privilege_model'
p1334
(dp1335
g300
(dp1336
g1270
S'privilege_models_privileges_privilege_model.html'
p1337
sg1272
S'privilege/models/privileges/privilege_model'
p1338
sg1274
g13
(g14
g15
NtRp1339
(dp1340
g18
I1
sg19
I0
sg20
I29
sg21
I0
sg22
I0
sg23
I0
sg24
I0
sbssg306
S'\xa3\xbf\x7fn\x8c\xe8#\xf8\xa9\x95#\xc7\xdb\xf0Y\xe6'
p1341
ssS'create_models_questions_tests_test_question_choice_model'
p1342
(dp1343
g42
(dp1344
S'html_filename'
p1345
S'create_models_questions_tests_test_question_choice_model.html'
p1346
sS'name'
p1347
S'create/models/questions/tests/test_question_choice_model'
p1348
sS'nums'
p1349
g13
(g14
g15
NtRp1350
(dp1351
g18
I1
sg19
I0
sg20
I46
sg21
I0
sg22
I0
sg23
I0
sg24
I0
sbssg51
S'$\x08N\xfb\nW\n\xecG\x9a[\xb7\xe2\xc1\xbd\x06'
p1352
ssS'user_system_views_users_tests_test_get_user_by_id_view'
p1353
(dp1354
g42
(dp1355
g93
S'user_system_views_users_tests_test_get_user_by_id_view.html'
p1356
sg95
S'user_system/views/users/tests/test_get_user_by_id_view'
p1357
sg97
g13
(g14
g15
NtRp1358
(dp1359
g18
I1
sg19
I0
sg20
I27
sg21
I0
sg22
I0
sg23
I0
sg24
I0
sbssg51
S'\xd7\x7f\x0c\xb9\xda.\xf1\x82\xb4\xdf*z\x10(o)'
p1360
ssS'create_models___init__'
p1361
(dp1362
g42
(dp1363
g57
S'create_models___init__.html'
p1364
sg59
S'create/models/__init__'
p1365
sg61
g13
(g14
g15
NtRp1366
(dp1367
g18
I1
sg19
I0
sg20
I6
sg21
I0
sg22
I0
sg23
I0
sg24
I0
sbssg51
S'\x1a\xde\xff\xb8/\x08R\x8e\xff\x13\x8b\xeb`\xfd\x98\xf8'
p1368
ssS'create_serializers_tags_tag_history_serializer'
p1369
(dp1370
S'index'
p1371
(dp1372
g105
S'create_serializers_tags_tag_history_serializer.html'
p1373
sg107
S'create/serializers/tags/tag_history_serializer'
p1374
sg109
g13
(g14
g15
NtRp1375
(dp1376
g18
I1
sg19
I0
sg20
I14
sg21
I0
sg22
I0
sg23
I0
sg24
I0
sbssS'hash'
p1377
S'\xc1"\xf9l4\xe66\x8a\xd0)r!\x05Y+\xd2'
p1378
ssS'create_serializers_daily_quest_templates___init__'
p1379
(dp1380
g242
(dp1381
g244
S'create_serializers_daily_quest_templates___init__.html'
p1382
sg246
S'create/serializers/daily_quest_templates/__init__'
p1383
sg248
g13
(g14
g15
NtRp1384
(dp1385
g18
I1
sg19
I0
sg20
I1
sg21
I0
sg22
I0
sg23
I0
sg24
I0
sbssg251
S'\xa2\xd34\x1b\xe2+\x16\xa9un\x8f\xa5\xe6\xc4\\p'
p1386
ssS'user_system_views_roles_tests___init__'
p1387
(dp1388
g42
(dp1389
g462
S'user_system_views_roles_tests___init__.html'
p1390
sg464
S'user_system/views/roles/tests/__init__'
p1391
sg466
g13
(g14
g15
NtRp1392
(dp1393
g18
I1
sg19
I0
sg20
I0
sg21
I0
sg22
I0
sg23
I0
sg24
I0
sbssg51
S'\x19g\xdfM\x1a\x019\xaf\x1baIeR\xe5u\xa7'
p1394
ssS'api_logging_models_modal_logging___init__'
p1395
(dp1396
g310
(dp1397
g177
S'api_logging_models_modal_logging___init__.html'
p1398
sg179
S'api_logging/models/modal_logging/__init__'
p1399
sg181
g13
(g14
g15
NtRp1400
(dp1401
g18
I1
sg19
I0
sg20
I2
sg21
I0
sg22
I0
sg23
I0
sg24
I0
sbssg316
S"+\x16\xa4\xd1\xf5m\xa9\x9e*\xd0\xa23O'}-"
p1402
ssS'user_system_serializers___init__'
p1403
(dp1404
g42
(dp1405
g57
S'user_system_serializers___init__.html'
p1406
sg59
S'user_system/serializers/__init__'
p1407
sg61
g13
(g14
g15
NtRp1408
(dp1409
g18
I1
sg19
I0
sg20
I3
sg21
I0
sg22
I0
sg23
I0
sg24
I0
sbssg51
S'\x85\x12\xbd.\x85L4\xea\t4\x9c\xcf\xb5 \x81\xb4'
p1410
ssS'teach_models_daily_quest_templates_tests___init__'
p1411
(dp1412
g55
(dp1413
g57
S'teach_models_daily_quest_templates_tests___init__.html'
p1414
sg59
S'teach/models/daily_quest_templates/tests/__init__'
p1415
sg61
g13
(g14
g15
NtRp1416
(dp1417
g18
I1
sg19
I0
sg20
I0
sg21
I0
sg22
I0
sg23
I0
sg24
I0
sbssg64
S'\x19g\xdfM\x1a\x019\xaf\x1baIeR\xe5u\xa7'
p1418
ssS'user_system_serializers_schools_grade_serializer'
p1419
(dp1420
g116
(dp1421
g31
S'user_system_serializers_schools_grade_serializer.html'
p1422
sg33
S'user_system/serializers/schools/grade_serializer'
p1423
sg35
g13
(g14
g15
NtRp1424
(dp1425
g18
I1
sg19
I0
sg20
I9
sg21
I0
sg22
I0
sg23
I0
sg24
I0
sbssg122
S"()\x18t._h'\x1c\x9bV\x14KS\xf6,"
p1426
ssS'create_models_questions_tests___init__'
p1427
(dp1428
g42
(dp1429
g462
S'create_models_questions_tests___init__.html'
p1430
sg464
S'create/models/questions/tests/__init__'
p1431
sg466
g13
(g14
g15
NtRp1432
(dp1433
g18
I1
sg19
I0
sg20
I0
sg21
I0
sg22
I0
sg23
I0
sg24
I0
sbssg51
S'\x19g\xdfM\x1a\x019\xaf\x1baIeR\xe5u\xa7'
p1434
ssS'teach_views___init__'
p1435
(dp1436
g55
(dp1437
g177
S'teach_views___init__.html'
p1438
sg179
S'teach/views/__init__'
p1439
sg181
g13
(g14
g15
NtRp1440
(dp1441
g18
I1
sg19
I0
sg20
I3
sg21
I0
sg22
I0
sg23
I0
sg24
I0
sbssg64
S'\xddN\x8bL\xe7O\xba\x93\x86:\xc2\x15\x13gc6'
p1442
ssS'privilege_admin'
p1443
(dp1444
g300
(dp1445
g93
S'privilege_admin.html'
p1446
sg95
S'privilege/admin'
p1447
sg97
g13
(g14
g15
NtRp1448
(dp1449
g18
I1
sg19
I0
sg20
I4
sg21
I0
sg22
I0
sg23
I0
sg24
I0
sbssg306
S'\xa1\x9fb^\xc7l\x00\x1f\x0e\x9c\x06\x08\x99Kx\x94'
p1450
ssS'teach_models_teacher_tags_tests_test_teacher_tag_model'
p1451
(dp1452
g55
(dp1453
g57
S'teach_models_teacher_tags_tests_test_teacher_tag_model.html'
p1454
sg59
S'teach/models/teacher_tags/tests/test_teacher_tag_model'
p1455
sg61
g13
(g14
g15
NtRp1456
(dp1457
g18
I1
sg19
I0
sg20
I30
sg21
I0
sg22
I0
sg23
I0
sg24
I0
sbssg64
S'\xf3\x06\xd8\xd6\x93V\xab\xdc\x87\x05\xf6vJ\xa9`\xe6'
p1458
ssS'user_system_models_schools_academic_year_model'
p1459
(dp1460
g206
(dp1461
S'html_filename'
p1462
S'user_system_models_schools_academic_year_model.html'
p1463
sS'name'
p1464
S'user_system/models/schools/academic_year_model'
p1465
sS'nums'
p1466
g13
(g14
g15
NtRp1467
(dp1468
g18
I1
sg19
I0
sg20
I23
sg21
I0
sg22
I0
sg23
I0
sg24
I0
sbssg215
S'\xf1Zl\xd3\xdd4\xdcX&\xdf\xf0<.\x11FY'
p1469
ssS'learn_models___init__'
p1470
(dp1471
g55
(dp1472
g177
S'learn_models___init__.html'
p1473
sg179
S'learn/models/__init__'
p1474
sg181
g13
(g14
g15
NtRp1475
(dp1476
g18
I1
sg19
I0
sg20
I2
sg21
I0
sg22
I0
sg23
I0
sg24
I0
sbssg64
S'J\x07\xbfU\xe2\xd2\xed\xadY\xe2o$\x84\x86bd'
p1477
ssS'user_system_models_users_student_profile_model'
p1478
(dp1479
g232
(dp1480
g177
S'user_system_models_users_student_profile_model.html'
p1481
sg179
S'user_system/models/users/student_profile_model'
p1482
sg181
g13
(g14
g15
NtRp1483
(dp1484
g18
I1
sg19
I2
sg20
I41
sg21
I0
sg22
I0
sg23
I0
sg24
I0
sbssg238
S'q\x83gLh\x1e\xeb\xb5+w&@\xe2"=\xb8'
p1485
ssS'user_system_models_schools_organization_model'
p1486
(dp1487
g206
(dp1488
g646
S'user_system_models_schools_organization_model.html'
p1489
sg648
S'user_system/models/schools/organization_model'
p1490
sg650
g13
(g14
g15
NtRp1491
(dp1492
g18
I1
sg19
I0
sg20
I28
sg21
I0
sg22
I0
sg23
I0
sg24
I0
sbssg215
S']\xd3\xfd\x922s\xeb0\xfd\x8a\x88\xfe"\xbd<h'
p1493
ssS'create_views_books_tests_test_hide_book_view'
p1494
(dp1495
g955
(dp1496
g44
S'create_views_books_tests_test_hide_book_view.html'
p1497
sg46
S'create/views/books/tests/test_hide_book_view'
p1498
sg48
g13
(g14
g15
NtRp1499
(dp1500
g18
I1
sg19
I0
sg20
I25
sg21
I0
sg22
I0
sg23
I0
sg24
I0
sbssg961
S'\xe1\x17\x16\xca\x8a\xc5c\x1b\xce\xab\xb8\xf9G\x03\x9dQ'
p1501
ssS'teach_serializers_teacher_tags_teacher_tag_serializer'
p1502
(dp1503
g55
(dp1504
g31
S'teach_serializers_teacher_tags_teacher_tag_serializer.html'
p1505
sg33
S'teach/serializers/teacher_tags/teacher_tag_serializer'
p1506
sg35
g13
(g14
g15
NtRp1507
(dp1508
g18
I1
sg19
I2
sg20
I26
sg21
I0
sg22
I0
sg23
I9
sg24
I2
sbssg64
S'\x07C\xdf\xcd\x92\x1eS\x1a#\x8e\x9d\x88Dj\n\x12'
p1509
ssS'create_models_daily_quests_tests_test_daily_quest_model'
p1510
(dp1511
g771
(dp1512
g244
S'create_models_daily_quests_tests_test_daily_quest_model.html'
p1513
sg246
S'create/models/daily_quests/tests/test_daily_quest_model'
p1514
sg248
g13
(g14
g15
NtRp1515
(dp1516
g18
I1
sg19
I2
sg20
I51
sg21
I0
sg22
I0
sg23
I0
sg24
I0
sbssg780
S'\x16\x87\xb8\xd4K\xb4\x87\xf9\x84\xc4V\x94\x17\xf6\x1a\xf0'
p1517
ssS'create_admin'
p1518
(dp1519
g42
(dp1520
g57
S'create_admin.html'
p1521
sg59
S'create/admin'
p1522
sg61
g13
(g14
g15
NtRp1523
(dp1524
g18
I1
sg19
I0
sg20
I20
sg21
I0
sg22
I0
sg23
I0
sg24
I0
sbssg51
S'\x03\xe6\xc2\xd5\xa8\xb1\x92\xa5/8\x0fZCN\r\x08'
p1525
ssS'create_views_questions_tests_test_get_question_list_view'
p1526
(dp1527
g42
(dp1528
g93
S'create_views_questions_tests_test_get_question_list_view.html'
p1529
sg95
S'create/views/questions/tests/test_get_question_list_view'
p1530
sg97
g13
(g14
g15
NtRp1531
(dp1532
g18
I1
sg19
I0
sg20
I32
sg21
I0
sg22
I0
sg23
I0
sg24
I0
sbssg51
S'\xa2&\x88;1\\\xa2 \xb4&ejB\xd1%\x06'
p1533
ssS'user_system_views_logins___init__'
p1534
(dp1535
g42
(dp1536
g462
S'user_system_views_logins___init__.html'
p1537
sg464
S'user_system/views/logins/__init__'
p1538
sg466
g13
(g14
g15
NtRp1539
(dp1540
g18
I1
sg19
I0
sg20
I2
sg21
I0
sg22
I0
sg23
I0
sg24
I0
sbssg51
S'\xa0\xd3\xaas\xc2\xb93+ED.\xe5\xfe\xf2\xad\x87'
p1541
ssS'create_views_daily_quest_copies___init__'
p1542
(dp1543
g427
(dp1544
S'html_filename'
p1545
S'create_views_daily_quest_copies___init__.html'
p1546
sS'name'
p1547
S'create/views/daily_quest_copies/__init__'
p1548
sS'nums'
p1549
g13
(g14
g15
NtRp1550
(dp1551
g18
I1
sg19
I0
sg20
I1
sg21
I0
sg22
I0
sg23
I0
sg24
I0
sbssg436
S"'\xb6_z\x90s\x92\xdd\xc7\xb2\x87d\xba\xe24X"
p1552
ssS'create_views_quests_tests_test_hide_quest_view'
p1553
(dp1554
g6
(dp1555
g8
S'create_views_quests_tests_test_hide_quest_view.html'
p1556
sg10
S'create/views/quests/tests/test_hide_quest_view'
p1557
sg12
g13
(g14
g15
NtRp1558
(dp1559
g18
I1
sg19
I0
sg20
I26
sg21
I0
sg22
I0
sg23
I0
sg24
I0
sbssg25
S'G\xcb\xcf\xbb~*\xa2i\xd2\xff\x81\x81\xf0)G\xda'
p1560
ssS'create_views_books_tests_test_add_tag_to_subchapter_view'
p1561
(dp1562
S'index'
p1563
(dp1564
g44
S'create_views_books_tests_test_add_tag_to_subchapter_view.html'
p1565
sg46
S'create/views/books/tests/test_add_tag_to_subchapter_view'
p1566
sg48
g13
(g14
g15
NtRp1567
(dp1568
g18
I1
sg19
I0
sg20
I40
sg21
I0
sg22
I0
sg23
I0
sg24
I0
sbssS'hash'
p1569
S'\xb78\xf4p\xcd\xec\xca\xaa\x93\xb9\xda\xa8Yo37'
p1570
ssS'api_logging_models_modal_logging_modal_user_history_model'
p1571
(dp1572
g310
(dp1573
g177
S'api_logging_models_modal_logging_modal_user_history_model.html'
p1574
sg179
S'api_logging/models/modal_logging/modal_user_history_model'
p1575
sg181
g13
(g14
g15
NtRp1576
(dp1577
g18
I1
sg19
I0
sg20
I15
sg21
I0
sg22
I0
sg23
I3
sg24
I0
sbssg316
S'\xabX\xd42<$9z\xc1]\xc12\xe9\xd8\xbf\xd2'
p1578
ssS'create_views_daily_quests_daily_quest_view'
p1579
(dp1580
g242
(dp1581
g244
S'create_views_daily_quests_daily_quest_view.html'
p1582
sg246
S'create/views/daily_quests/daily_quest_view'
p1583
sg248
g13
(g14
g15
NtRp1584
(dp1585
g18
I1
sg19
I8
sg20
I34
sg21
I0
sg22
I0
sg23
I17
sg24
I8
sbssg251
S'\x9b\xbe99\x1cP\x1d\xd8iT&I;\xb4\xbbf'
p1586
ssS'user_system_managers_user_manager'
p1587
(dp1588
g310
(dp1589
g1087
S'user_system_managers_user_manager.html'
p1590
sg1089
S'user_system/managers/user_manager'
p1591
sg1091
g13
(g14
g15
NtRp1592
(dp1593
g18
I1
sg19
I26
sg20
I62
sg21
I0
sg22
I0
sg23
I51
sg24
I26
sbssg316
S'x\xd5\xed\xa1\xa9\xbd\xbe\xee\xaa\xaaT%{\xff\xdc2'
p1594
ssS'create_models_quests_tests___init__'
p1595
(dp1596
g103
(dp1597
g635
S'create_models_quests_tests___init__.html'
p1598
sg637
S'create/models/quests/tests/__init__'
p1599
sg639
g13
(g14
g15
NtRp1600
(dp1601
g18
I1
sg19
I0
sg20
I1
sg21
I0
sg22
I0
sg23
I0
sg24
I0
sbssg112
S'\xbc\xd6\xeb\xb3\xba\xcaz\xf7{\xd4B\xb5}l\xdf\x96'
p1602
ssS'create_views_questions___init__'
p1603
(dp1604
g42
(dp1605
g607
S'create_views_questions___init__.html'
p1606
sg609
S'create/views/questions/__init__'
p1607
sg611
g13
(g14
g15
NtRp1608
(dp1609
g18
I1
sg19
I0
sg20
I3
sg21
I0
sg22
I0
sg23
I0
sg24
I0
sbssg51
S'h\x154\xc5\xe58\xa8\xc8\xa9\xa6\xbea?\xcf?i'
p1610
ssS'user_system_views_users_create_teacher_view'
p1611
(dp1612
g310
(dp1613
g177
S'user_system_views_users_create_teacher_view.html'
p1614
sg179
S'user_system/views/users/create_teacher_view'
p1615
sg181
g13
(g14
g15
NtRp1616
(dp1617
g18
I1
sg19
I2
sg20
I34
sg21
I0
sg22
I0
sg23
I21
sg24
I2
sbssg316
S'=\xee\xed^jo\xc1\xebz\xedP\xf9\x91n\xec\x8d'
p1618
ssS'user_system_models_apps_tests___init__'
p1619
(dp1620
g42
(dp1621
g462
S'user_system_models_apps_tests___init__.html'
p1622
sg464
S'user_system/models/apps/tests/__init__'
p1623
sg466
g13
(g14
g15
NtRp1624
(dp1625
g18
I1
sg19
I0
sg20
I0
sg21
I0
sg22
I0
sg23
I0
sg24
I0
sbssg51
S'\x19g\xdfM\x1a\x019\xaf\x1baIeR\xe5u\xa7'
p1626
ssS'privilege_serializers_privileges_user_privilege_serializer'
p1627
(dp1628
g300
(dp1629
g93
S'privilege_serializers_privileges_user_privilege_serializer.html'
p1630
sg95
S'privilege/serializers/privileges/user_privilege_serializer'
p1631
sg97
g13
(g14
g15
NtRp1632
(dp1633
g18
I1
sg19
I0
sg20
I9
sg21
I0
sg22
I0
sg23
I0
sg24
I0
sbssg306
S'#\xe5\xcc\x9as5y,\xa1HiQ\xa2c\xdb2'
p1634
ssS'create_models_quests_tests_test_quest_history_model'
p1635
(dp1636
g103
(dp1637
g1235
S'create_models_quests_tests_test_quest_history_model.html'
p1638
sg1237
S'create/models/quests/tests/test_quest_history_model'
p1639
sg1239
g13
(g14
g15
NtRp1640
(dp1641
g18
I1
sg19
I8
sg20
I79
sg21
I0
sg22
I0
sg23
I0
sg24
I0
sbssg112
S'##\xeax]g;Ka\xb3\xc0Py,oE'
p1642
ssS'create_views_summary___init__'
p1643
(dp1644
S'index'
p1645
(dp1646
g1125
S'create_views_summary___init__.html'
p1647
sg1127
S'create/views/summary/__init__'
p1648
sg1129
g13
(g14
g15
NtRp1649
(dp1650
g18
I1
sg19
I0
sg20
I1
sg21
I0
sg22
I0
sg23
I0
sg24
I0
sbssS'hash'
p1651
S'#\xb7\xbd\xa1M\xe4\xa0\x05\xf5x\x057hU[\xca'
p1652
ssS'create_models_daily_quest_templates___init__'
p1653
(dp1654
g242
(dp1655
g244
S'create_models_daily_quest_templates___init__.html'
p1656
sg246
S'create/models/daily_quest_templates/__init__'
p1657
sg248
g13
(g14
g15
NtRp1658
(dp1659
g18
I1
sg19
I0
sg20
I1
sg21
I0
sg22
I0
sg23
I0
sg24
I0
sbssg251
S'\x12\x89x\xb9F\xfb=b\x04\xddy\xb4\xccZb\xb8'
p1660
ssS'create_views_tags_tests_test_get_tag_by_id_view'
p1661
(dp1662
g440
(dp1663
g93
S'create_views_tags_tests_test_get_tag_by_id_view.html'
p1664
sg95
S'create/views/tags/tests/test_get_tag_by_id_view'
p1665
sg97
g13
(g14
g15
NtRp1666
(dp1667
g18
I1
sg19
I0
sg20
I20
sg21
I0
sg22
I0
sg23
I0
sg24
I0
sbssg449
S'T\xd5\xd7\xd9\xb8\x12\x81xj\xca\x90\xa41\xcf\x02]'
p1668
ssS'api_logging_models_user_activities___init__'
p1669
(dp1670
g310
(dp1671
g177
S'api_logging_models_user_activities___init__.html'
p1672
sg179
S'api_logging/models/user_activities/__init__'
p1673
sg181
g13
(g14
g15
NtRp1674
(dp1675
g18
I1
sg19
I0
sg20
I1
sg21
I0
sg22
I0
sg23
I0
sg24
I0
sbssg316
S'\xd9\xe2\xb9\xa8[\x85h\x8ep\xd5\x12TW1\x9d\x1b'
p1676
ssS'user_system_models_users_tests_test_user_profile_model'
p1677
(dp1678
g42
(dp1679
g158
S'user_system_models_users_tests_test_user_profile_model.html'
p1680
sg160
S'user_system/models/users/tests/test_user_profile_model'
p1681
sg162
g13
(g14
g15
NtRp1682
(dp1683
g18
I1
sg19
I0
sg20
I142
sg21
I0
sg22
I0
sg23
I0
sg24
I0
sbssg51
S'\x00\xb8\xc5\xc0\xcb\xb1\xcaP@!\x086\x84\x1d\xd5\xed'
p1684
ssS'user_system_views_users_user_streak_history_view'
p1685
(dp1686
S'index'
p1687
(dp1688
g389
S'user_system_views_users_user_streak_history_view.html'
p1689
sg391
S'user_system/views/users/user_streak_history_view'
p1690
sg393
g13
(g14
g15
NtRp1691
(dp1692
g18
I1
sg19
I0
sg20
I15
sg21
I0
sg22
I0
sg23
I0
sg24
I0
sbssS'hash'
p1693
S'\x82\xa4:\x84\x8dJE7\xc0"\xbb\xceU\xa9\xd6\x07'
p1694
ssS'user_system_views_roles_tests_test_user_role_view'
p1695
(dp1696
g42
(dp1697
g44
S'user_system_views_roles_tests_test_user_role_view.html'
p1698
sg46
S'user_system/views/roles/tests/test_user_role_view'
p1699
sg48
g13
(g14
g15
NtRp1700
(dp1701
g18
I1
sg19
I0
sg20
I41
sg21
I0
sg22
I0
sg23
I0
sg24
I0
sbssg51
S'\xaf \x02-\xd3\xa9\xee\x1e7\x87\xa8[\xd9\xd8V\xd8'
p1702
ssS'user_system_views_apps_tests_test_get_apps_list_view'
p1703
(dp1704
g42
(dp1705
g44
S'user_system_views_apps_tests_test_get_apps_list_view.html'
p1706
sg46
S'user_system/views/apps/tests/test_get_apps_list_view'
p1707
sg48
g13
(g14
g15
NtRp1708
(dp1709
g18
I1
sg19
I0
sg20
I18
sg21
I0
sg22
I0
sg23
I0
sg24
I0
sbssg51
S'\x87\xab;"\x01p\xf9\xe5\xa6\xb1\xaej\x8egl\x99'
p1710
ssS'api_logging_models_user_activities_user_activity_model'
p1711
(dp1712
g310
(dp1713
g177
S'api_logging_models_user_activities_user_activity_model.html'
p1714
sg179
S'api_logging/models/user_activities/user_activity_model'
p1715
sg181
g13
(g14
g15
NtRp1716
(dp1717
g18
I1
sg19
I0
sg20
I11
sg21
I0
sg22
I0
sg23
I0
sg24
I0
sbssg316
S'f\xe2(\xd3\xddS\xfd\x1e\xf0d\xb2,\xb2\x8f\x8c\x18'
p1718
ssS'create_views_books_tests_test_create_new_book'
p1719
(dp1720
S'index'
p1721
(dp1722
g44
S'create_views_books_tests_test_create_new_book.html'
p1723
sg46
S'create/views/books/tests/test_create_new_book'
p1724
sg48
g13
(g14
g15
NtRp1725
(dp1726
g18
I1
sg19
I0
sg20
I18
sg21
I0
sg22
I0
sg23
I0
sg24
I0
sbssS'hash'
p1727
S'\xe3\xaew\xf8\xd7\x8f\xc5 \x85\xc1\xb6I\x82X(-'
p1728
ssS'create_serializers_questions_question_type_serializer'
p1729
(dp1730
g42
(dp1731
g462
S'create_serializers_questions_question_type_serializer.html'
p1732
sg464
S'create/serializers/questions/question_type_serializer'
p1733
sg466
g13
(g14
g15
NtRp1734
(dp1735
g18
I1
sg19
I0
sg20
I6
sg21
I0
sg22
I0
sg23
I0
sg24
I0
sbssg51
S'!\x8a\x91KA:\x92\x13/\xdd\xd9\xc2?\x8b\xe1\xc6'
p1736
ssS'create_models_books_tests_test_book_model'
p1737
(dp1738
g362
(dp1739
S'html_filename'
p1740
S'create_models_books_tests_test_book_model.html'
p1741
sS'name'
p1742
S'create/models/books/tests/test_book_model'
p1743
sS'nums'
p1744
g13
(g14
g15
NtRp1745
(dp1746
g18
I1
sg19
I6
sg20
I44
sg21
I0
sg22
I0
sg23
I0
sg24
I0
sbssg368
S'\xff\x88\xcd\xb0\x80\xb2\x9d\xf7\xf9G\xb1.\xaf\xdd\x07\xd7'
p1747
ssS'user_system_serializers_users_teacher_mapping_serializer'
p1748
(dp1749
g310
(dp1750
g177
S'user_system_serializers_users_teacher_mapping_serializer.html'
p1751
sg179
S'user_system/serializers/users/teacher_mapping_serializer'
p1752
sg181
g13
(g14
g15
NtRp1753
(dp1754
g18
I1
sg19
I0
sg20
I7
sg21
I0
sg22
I0
sg23
I0
sg24
I0
sbssg316
S'\x13\xf7\x06\xcfN\x17?&3\xc5\xf6]6uj\xc1'
p1755
ssS'create_models_questions_question_choice_model'
p1756
(dp1757
g42
(dp1758
g1345
S'create_models_questions_question_choice_model.html'
p1759
sg1347
S'create/models/questions/question_choice_model'
p1760
sg1349
g13
(g14
g15
NtRp1761
(dp1762
g18
I1
sg19
I0
sg20
I42
sg21
I0
sg22
I0
sg23
I0
sg24
I0
sbssg51
S'\xd7\xd8\x1f\xbf<\xee\xdd?}\xfe>\x82\\\x97\x15)'
p1763
ssS'flipped_helpers_tests___init__'
p1764
(dp1765
g42
(dp1766
g462
S'flipped_helpers_tests___init__.html'
p1767
sg464
S'flipped/helpers/tests/__init__'
p1768
sg466
g13
(g14
g15
NtRp1769
(dp1770
g18
I1
sg19
I0
sg20
I0
sg21
I0
sg22
I0
sg23
I0
sg24
I0
sbssg51
S'\x19g\xdfM\x1a\x019\xaf\x1baIeR\xe5u\xa7'
p1771
ssS'user_system_models_roles_role_app_model'
p1772
(dp1773
g42
(dp1774
g44
S'user_system_models_roles_role_app_model.html'
p1775
sg46
S'user_system/models/roles/role_app_model'
p1776
sg48
g13
(g14
g15
NtRp1777
(dp1778
g18
I1
sg19
I0
sg20
I18
sg21
I0
sg22
I0
sg23
I0
sg24
I0
sbssg51
S'\x8d\xa3&\x03\x9d\x1cO|\xces.\x11/\x8f`\xcc'
p1779
ssS'create_models_tags_tests_test_tag_model'
p1780
(dp1781
g399
(dp1782
S'html_filename'
p1783
S'create_models_tags_tests_test_tag_model.html'
p1784
sS'name'
p1785
S'create/models/tags/tests/test_tag_model'
p1786
sS'nums'
p1787
g13
(g14
g15
NtRp1788
(dp1789
g18
I1
sg19
I6
sg20
I52
sg21
I0
sg22
I0
sg23
I0
sg24
I0
sbssg405
S'1\x992\xc0\xbb\xb6d *5\xfa\xd2\xdc1\xb2\x92'
p1790
ssS'create_views_tags_tests_test_remove_prerequisite_view'
p1791
(dp1792
g320
(dp1793
g44
S'create_views_tags_tests_test_remove_prerequisite_view.html'
p1794
sg46
S'create/views/tags/tests/test_remove_prerequisite_view'
p1795
sg48
g13
(g14
g15
NtRp1796
(dp1797
g18
I1
sg19
I0
sg20
I31
sg21
I0
sg22
I0
sg23
I0
sg24
I0
sbssg326
S'\x8e\x8c~\xff\x85\x94\x8c~T\x7f\x80\x82W\x96\x19\x9c'
p1798
ssS'learn_models_points_tests_test_point_type_model'
p1799
(dp1800
g310
(dp1801
g646
S'learn_models_points_tests_test_point_type_model.html'
p1802
sg648
S'learn/models/points/tests/test_point_type_model'
p1803
sg650
g13
(g14
g15
NtRp1804
(dp1805
g18
I1
sg19
I0
sg20
I20
sg21
I0
sg22
I0
sg23
I0
sg24
I0
sbssg316
S'\x8a\x938\x82k\xa7\x10\xf1\x95\x07\xc4\xb2\x9d\n\xc6\x1f'
p1806
ssS'teach_serializers_teacher_chapters_teacher_chapter_serializer'
p1807
(dp1808
g55
(dp1809
g57
S'teach_serializers_teacher_chapters_teacher_chapter_serializer.html'
p1810
sg59
S'teach/serializers/teacher_chapters/teacher_chapter_serializer'
p1811
sg61
g13
(g14
g15
NtRp1812
(dp1813
g18
I1
sg19
I0
sg20
I12
sg21
I0
sg22
I0
sg23
I0
sg24
I0
sbssg64
S'\xac\x9b\xf1Q\x91\xf4J\x03y\xc4\xa7\x9c\x996\x13a'
p1814
ssS'user_system_serializers_app_serializer'
p1815
(dp1816
g42
(dp1817
g462
S'user_system_serializers_app_serializer.html'
p1818
sg464
S'user_system/serializers/app_serializer'
p1819
sg466
g13
(g14
g15
NtRp1820
(dp1821
g18
I1
sg19
I0
sg20
I7
sg21
I0
sg22
I0
sg23
I0
sg24
I0
sbssg51
S'\xc1\x87\xd6\x1b\xbe\x8f\xfb\xdd\x1a\xa9\x92A\xe2\xc3\xe2\xf1'
p1822
ssS'user_system_views_logins_tests_test_facebook_login_view'
p1823
(dp1824
g42
(dp1825
g44
S'user_system_views_logins_tests_test_facebook_login_view.html'
p1826
sg46
S'user_system/views/logins/tests/test_facebook_login_view'
p1827
sg48
g13
(g14
g15
NtRp1828
(dp1829
g18
I1
sg19
I0
sg20
I51
sg21
I0
sg22
I0
sg23
I0
sg24
I0
sbssg51
S'\x8eg\xfbA\xbdf+\x81\xe9\x8a\x16\x82\xe9\xe3\xc0\xf4'
p1830
ssS'create_models_books_book_history_model'
p1831
(dp1832
g362
(dp1833
g93
S'create_models_books_book_history_model.html'
p1834
sg95
S'create/models/books/book_history_model'
p1835
sg97
g13
(g14
g15
NtRp1836
(dp1837
g18
I1
sg19
I4
sg20
I43
sg21
I0
sg22
I1
sg23
I0
sg24
I1
sbssg368
S'\xd71\x9e\xd0\x9bqR\xb9(!\x9f2\x10O|\xeb'
p1838
ssS'teach_models_teacher_chapters_tests___init__'
p1839
(dp1840
g55
(dp1841
g57
S'teach_models_teacher_chapters_tests___init__.html'
p1842
sg59
S'teach/models/teacher_chapters/tests/__init__'
p1843
sg61
g13
(g14
g15
NtRp1844
(dp1845
g18
I1
sg19
I0
sg20
I0
sg21
I0
sg22
I0
sg23
I0
sg24
I0
sbssg64
S'\x19g\xdfM\x1a\x019\xaf\x1baIeR\xe5u\xa7'
p1846
ssS'create_views_quests_tests_test_remove_tag_view'
p1847
(dp1848
g6
(dp1849
g8
S'create_views_quests_tests_test_remove_tag_view.html'
p1850
sg10
S'create/views/quests/tests/test_remove_tag_view'
p1851
sg12
g13
(g14
g15
NtRp1852
(dp1853
g18
I1
sg19
I0
sg20
I0
sg21
I0
sg22
I0
sg23
I0
sg24
I0
sbssg25
S'\x19g\xdfM\x1a\x019\xaf\x1baIeR\xe5u\xa7'
p1854
ssS'create_models_books_book_model'
p1855
(dp1856
g362
(dp1857
S'html_filename'
p1858
S'create_models_books_book_model.html'
p1859
sS'name'
p1860
S'create/models/books/book_model'
p1861
sS'nums'
p1862
g13
(g14
g15
NtRp1863
(dp1864
g18
I1
sg19
I4
sg20
I37
sg21
I0
sg22
I0
sg23
I0
sg24
I0
sbssg368
S'Z\x88%\xfa\x8c7\x1e\xf9\x06qW\x80O\xe1\x85.'
p1865
ssS'create_views_books_tests_test_remove_chapter_view'
p1866
(dp1867
g126
(dp1868
g44
S'create_views_books_tests_test_remove_chapter_view.html'
p1869
sg46
S'create/views/books/tests/test_remove_chapter_view'
p1870
sg48
g13
(g14
g15
NtRp1871
(dp1872
g18
I1
sg19
I0
sg20
I39
sg21
I0
sg22
I0
sg23
I0
sg24
I0
sbssg132
S'lJ\xdc\xbe\xe2>\x9d\xde\xb5+ia5;\x042'
p1873
ssS'privilege_models_privileges_tests_test_user_privilege_model'
p1874
(dp1875
g300
(dp1876
g93
S'privilege_models_privileges_tests_test_user_privilege_model.html'
p1877
sg95
S'privilege/models/privileges/tests/test_user_privilege_model'
p1878
sg97
g13
(g14
g15
NtRp1879
(dp1880
g18
I1
sg19
I0
sg20
I19
sg21
I0
sg22
I0
sg23
I0
sg24
I0
sbssg306
S'\xcd\xf2\x96G\xfe\xbc/\xb5\x15\xceNf\x0f\x0b5\xd4'
p1881
ssS'privilege_views___init__'
p1882
(dp1883
g300
(dp1884
g93
S'privilege_views___init__.html'
p1885
sg95
S'privilege/views/__init__'
p1886
sg97
g13
(g14
g15
NtRp1887
(dp1888
g18
I1
sg19
I0
sg20
I0
sg21
I0
sg22
I0
sg23
I0
sg24
I0
sbssg306
S'\x19g\xdfM\x1a\x019\xaf\x1baIeR\xe5u\xa7'
p1889
ssS'api_logging_views_query_stat___init__'
p1890
(dp1891
g255
(dp1892
g257
S'api_logging_views_query_stat___init__.html'
p1893
sg259
S'api_logging/views/query_stat/__init__'
p1894
sg261
g13
(g14
g15
NtRp1895
(dp1896
g18
I1
sg19
I0
sg20
I1
sg21
I0
sg22
I0
sg23
I0
sg24
I0
sbssg264
S'\xbe{\x9f#C\x83\xe9\xa5\xf6B\xf2\xd6\x8a\x0eB\xd0'
p1897
ssS'user_system_views_users_tests___init__'
p1898
(dp1899
g42
(dp1900
g462
S'user_system_views_users_tests___init__.html'
p1901
sg464
S'user_system/views/users/tests/__init__'
p1902
sg466
g13
(g14
g15
NtRp1903
(dp1904
g18
I1
sg19
I0
sg20
I0
sg21
I0
sg22
I0
sg23
I0
sg24
I0
sbssg51
S'\x19g\xdfM\x1a\x019\xaf\x1baIeR\xe5u\xa7'
p1905
ssS'create_models_tags_tests_test_skill_model'
p1906
(dp1907
g399
(dp1908
g44
S'create_models_tags_tests_test_skill_model.html'
p1909
sg46
S'create/models/tags/tests/test_skill_model'
p1910
sg48
g13
(g14
g15
NtRp1911
(dp1912
g18
I1
sg19
I0
sg20
I12
sg21
I0
sg22
I0
sg23
I0
sg24
I0
sbssg405
S'\x08\x9e\x87e#\x02\x06O\x02l!\x0e\xe8\xeb\xc0.'
p1913
ssS'user_system_views_signups_hardcoded___init__'
p1914
(dp1915
g42
(dp1916
g462
S'user_system_views_signups_hardcoded___init__.html'
p1917
sg464
S'user_system/views/signups/hardcoded/__init__'
p1918
sg466
g13
(g14
g15
NtRp1919
(dp1920
g18
I1
sg19
I0
sg20
I1
sg21
I0
sg22
I0
sg23
I0
sg24
I0
sbssg51
S'?\xfac\x0c\x91\xa4\xd6\xd4\x1d\xe4\x99\xc2[\x83\xfc\xdf'
p1921
ssS'create_models_daily_quest_templates_daily_quest_template_model'
p1922
(dp1923
g242
(dp1924
g244
S'create_models_daily_quest_templates_daily_quest_template_model.html'
p1925
sg246
S'create/models/daily_quest_templates/daily_quest_template_model'
p1926
sg248
g13
(g14
g15
NtRp1927
(dp1928
g18
I1
sg19
I0
sg20
I29
sg21
I0
sg22
I0
sg23
I0
sg24
I0
sbssg251
S'm:\xfa\nsk\x85\xa8p\x96\xc3\xca\xa1c\xb0+'
p1929
ssS'create_models_books_tests_test_book_chapter_model'
p1930
(dp1931
g362
(dp1932
g1740
S'create_models_books_tests_test_book_chapter_model.html'
p1933
sg1742
S'create/models/books/tests/test_book_chapter_model'
p1934
sg1744
g13
(g14
g15
NtRp1935
(dp1936
g18
I1
sg19
I8
sg20
I55
sg21
I0
sg22
I0
sg23
I0
sg24
I0
sbssg368
S'\xc4\x1a\xd7\x12s\xd3V\xef\xac\xa7%\x0c\xdc\x17\x05c'
p1937
ssS'user_system_views_signups_tests_test_verify_email_view'
p1938
(dp1939
g42
(dp1940
g44
S'user_system_views_signups_tests_test_verify_email_view.html'
p1941
sg46
S'user_system/views/signups/tests/test_verify_email_view'
p1942
sg48
g13
(g14
g15
NtRp1943
(dp1944
g18
I1
sg19
I0
sg20
I51
sg21
I0
sg22
I0
sg23
I0
sg24
I0
sbssg51
S'\x81\xacj\x9d\x1f\xa9o\xcc\x1e\xa3\xe59^YT\x9e'
p1945
ssS'teach_models_daily_quest_templates___init__'
p1946
(dp1947
g55
(dp1948
g57
S'teach_models_daily_quest_templates___init__.html'
p1949
sg59
S'teach/models/daily_quest_templates/__init__'
p1950
sg61
g13
(g14
g15
NtRp1951
(dp1952
g18
I1
sg19
I0
sg20
I1
sg21
I0
sg22
I0
sg23
I0
sg24
I0
sbssg64
S'\x12\x89x\xb9F\xfb=b\x04\xddy\xb4\xccZb\xb8'
p1953
ssS'teach_serializers_daily_quest_templates_daily_quest_template_serializer'
p1954
(dp1955
g55
(dp1956
g177
S'teach_serializers_daily_quest_templates_daily_quest_template_serializer.html'
p1957
sg179
S'teach/serializers/daily_quest_templates/daily_quest_template_serializer'
p1958
sg181
g13
(g14
g15
NtRp1959
(dp1960
g18
I1
sg19
I0
sg20
I12
sg21
I0
sg22
I0
sg23
I0
sg24
I0
sbssg64
S"\xd9\x0bcm\x95?'mB\xf9\xdd\xa1\xfc>:="
p1961
ssS'create_views_questions_tests_test_add_tag_view'
p1962
(dp1963
g219
(dp1964
g221
S'create_views_questions_tests_test_add_tag_view.html'
p1965
sg223
S'create/views/questions/tests/test_add_tag_view'
p1966
sg225
g13
(g14
g15
NtRp1967
(dp1968
g18
I1
sg19
I0
sg20
I35
sg21
I0
sg22
I0
sg23
I0
sg24
I0
sbssg228
S'\x8e\x13\xdd\xbd\xba\r&,-|&W-a`\x7f'
p1969
ssS'create_views_quests_quest_view'
p1970
(dp1971
g103
(dp1972
g1012
S'create_views_quests_quest_view.html'
p1973
sg1014
S'create/views/quests/quest_view'
p1974
sg1016
g13
(g14
g15
NtRp1975
(dp1976
g18
I1
sg19
I84
sg20
I249
sg21
I0
sg22
I0
sg23
I178
sg24
I78
sbssg112
S'(\xa2UK\xe2}\xa8\xe0\xc9 3#\xec\x01\xfd\x16'
p1977
ssS'privilege_models_privileges_tests_test_privilege_model'
p1978
(dp1979
g300
(dp1980
g1270
S'privilege_models_privileges_tests_test_privilege_model.html'
p1981
sg1272
S'privilege/models/privileges/tests/test_privilege_model'
p1982
sg1274
g13
(g14
g15
NtRp1983
(dp1984
g18
I1
sg19
I0
sg20
I30
sg21
I0
sg22
I0
sg23
I0
sg24
I0
sbssg306
S'\xe0^\x80\xd5+a\xd9\xc4\xeabB\xc5\x142;\xc9'
p1985
ssS'api_logging_models'
p1986
(dp1987
g579
(dp1988
g745
S'api_logging_models.html'
p1989
sg747
S'api_logging/models'
p1990
sg749
g13
(g14
g15
NtRp1991
(dp1992
g18
I1
sg19
I0
sg20
I21
sg21
I0
sg22
I0
sg23
I0
sg24
I0
sbssg585
S'\x0c\x96WFX%\xe9\xcf+\xcf\xc2s\xa7a1\xbd'
p1993
ssS'user_system_models_schools_tests_test_grade_model'
p1994
(dp1995
g232
(dp1996
g31
S'user_system_models_schools_tests_test_grade_model.html'
p1997
sg33
S'user_system/models/schools/tests/test_grade_model'
p1998
sg35
g13
(g14
g15
NtRp1999
(dp2000
g18
I1
sg19
I0
sg20
I24
sg21
I0
sg22
I0
sg23
I0
sg24
I0
sbssg238
S'\x1e|\xb0\x10\x05\x9c\xb5\xe9\xbc\xff\x8a\xaan\xdf\xd4\xb2'
p2001
ssS'user_system_models_apps_tests_test_app_model'
p2002
(dp2003
g42
(dp2004
g44
S'user_system_models_apps_tests_test_app_model.html'
p2005
sg46
S'user_system/models/apps/tests/test_app_model'
p2006
sg48
g13
(g14
g15
NtRp2007
(dp2008
g18
I1
sg19
I0
sg20
I18
sg21
I0
sg22
I0
sg23
I0
sg24
I0
sbssg51
S'\xfb\xfc\xe0#\xe2\n\x8e\x9e\x94\xa8\x83\xc5\xb1U\xa3a'
p2009
ssS'create_models_daily_quests_daily_quest_model'
p2010
(dp2011
g771
(dp2012
g1545
S'create_models_daily_quests_daily_quest_model.html'
p2013
sg1547
S'create/models/daily_quests/daily_quest_model'
p2014
sg1549
g13
(g14
g15
NtRp2015
(dp2016
g18
I1
sg19
I2
sg20
I48
sg21
I0
sg22
I0
sg23
I6
sg24
I2
sbssg780
S'\xae\'/"f\x1014\xdd\x0e\x85\xf4\x91\x02\\`'
p2017
ssS'user_system_views_signups_tests_test_email_signup_view'
p2018
(dp2019
g42
(dp2020
g44
S'user_system_views_signups_tests_test_email_signup_view.html'
p2021
sg46
S'user_system/views/signups/tests/test_email_signup_view'
p2022
sg48
g13
(g14
g15
NtRp2023
(dp2024
g18
I1
sg19
I0
sg20
I51
sg21
I0
sg22
I0
sg23
I0
sg24
I0
sbssg51
S'\xa3\xb2\xaf-\x99\xe3]\xcc\xe6\x8b\xeb\xf63=I\xb4'
p2025
ssS'user_system_models_schools_tests_test_organization_model'
p2026
(dp2027
g206
(dp2028
g646
S'user_system_models_schools_tests_test_organization_model.html'
p2029
sg648
S'user_system/models/schools/tests/test_organization_model'
p2030
sg650
g13
(g14
g15
NtRp2031
(dp2032
g18
I1
sg19
I0
sg20
I27
sg21
I0
sg22
I0
sg23
I0
sg24
I0
sbssg215
S"\xa3'h\xadZ,\x82G\xbc\x08wON /j"
p2033
ssS'learn_admin'
p2034
(dp2035
g55
(dp2036
g177
S'learn_admin.html'
p2037
sg179
S'learn/admin'
p2038
sg181
g13
(g14
g15
NtRp2039
(dp2040
g18
I1
sg19
I0
sg20
I6
sg21
I0
sg22
I0
sg23
I0
sg24
I0
sbssg64
S'\x01\xff=[_\x13,\xf8ES\x17G)\x1e\xfb\x10'
p2041
ssS'create_views_books_book_subchapter_view'
p2042
(dp2043
g1563
(dp2044
g44
S'create_views_books_book_subchapter_view.html'
p2045
sg46
S'create/views/books/book_subchapter_view'
p2046
sg48
g13
(g14
g15
NtRp2047
(dp2048
g18
I1
sg19
I8
sg20
I46
sg21
I0
sg22
I0
sg23
I0
sg24
I0
sbssg1569
S'\x0e\xa6\x19V\xf0\xf3;\xa2\x8d \xd8i\xb7*D\x87'
p2049
ssS'user_system_models_roles_tests_test_role_model'
p2050
(dp2051
g42
(dp2052
g44
S'user_system_models_roles_tests_test_role_model.html'
p2053
sg46
S'user_system/models/roles/tests/test_role_model'
p2054
sg48
g13
(g14
g15
NtRp2055
(dp2056
g18
I1
sg19
I0
sg20
I20
sg21
I0
sg22
I0
sg23
I0
sg24
I0
sbssg51
S'\xef\xba\x956\x96\xbc:\xa0\x0f\x00\x84\x80\x0elh\xed'
p2057
ssS'user_system_models_schools_classroom_model'
p2058
(dp2059
g232
(dp2060
g177
S'user_system_models_schools_classroom_model.html'
p2061
sg179
S'user_system/models/schools/classroom_model'
p2062
sg181
g13
(g14
g15
NtRp2063
(dp2064
g18
I1
sg19
I2
sg20
I24
sg21
I0
sg22
I0
sg23
I0
sg24
I0
sbssg238
S'\xb4}\xd2\xf3\xe4P\x96mC/hd\x0c\x17\x97m'
p2065
ssS'user_system_views_logins_email_login_view'
p2066
(dp2067
g42
(dp2068
g177
S'user_system_views_logins_email_login_view.html'
p2069
sg179
S'user_system/views/logins/email_login_view'
p2070
sg181
g13
(g14
g15
NtRp2071
(dp2072
g18
I1
sg19
I8
sg20
I35
sg21
I0
sg22
I0
sg23
I0
sg24
I0
sbssg51
S'\x9e\xe3\x8e\xf9o\x8aYC\xa2\xcb\xe7\xbd\x94\xe1O\x1a'
p2073
ssS'user_system_serializers_users_list_user_serializer'
p2074
(dp2075
g42
(dp2076
g44
S'user_system_serializers_users_list_user_serializer.html'
p2077
sg46
S'user_system/serializers/users/list_user_serializer'
p2078
sg48
g13
(g14
g15
NtRp2079
(dp2080
g18
I1
sg19
I0
sg20
I18
sg21
I0
sg22
I0
sg23
I0
sg24
I0
sbssg51
S'\xdfK>6\xe0\x8d\xcd\xd4/O\xef\xaa\xd0\x9efX'
p2081
ssS'user_system_models_users_tests_test_teacher_profile_model'
p2082
(dp2083
g29
(dp2084
g1462
S'user_system_models_users_tests_test_teacher_profile_model.html'
p2085
sg1464
S'user_system/models/users/tests/test_teacher_profile_model'
p2086
sg1466
g13
(g14
g15
NtRp2087
(dp2088
g18
I1
sg19
I0
sg20
I32
sg21
I0
sg22
I0
sg23
I0
sg24
I0
sbssg38
S'\xe7n\x9a\x17\x9d0\x01\xa6\x0f\x18\x10l\x8ckmy'
p2089
ssS'create_views_quests_tests_test_remove_question_template_view'
p2090
(dp2091
g6
(dp2092
g8
S'create_views_quests_tests_test_remove_question_template_view.html'
p2093
sg10
S'create/views/quests/tests/test_remove_question_template_view'
p2094
sg12
g13
(g14
g15
NtRp2095
(dp2096
g18
I1
sg19
I0
sg20
I0
sg21
I0
sg22
I0
sg23
I0
sg24
I0
sbssg25
S'\x19g\xdfM\x1a\x019\xaf\x1baIeR\xe5u\xa7'
p2097
ssS'user_system_serializers_users_user_profile_update_request_serializer'
p2098
(dp2099
g116
(dp2100
S'html_filename'
p2101
S'user_system_serializers_users_user_profile_update_request_serializer.html'
p2102
sS'name'
p2103
S'user_system/serializers/users/user_profile_update_request_serializer'
p2104
sS'nums'
p2105
g13
(g14
g15
NtRp2106
(dp2107
g18
I1
sg19
I0
sg20
I20
sg21
I0
sg22
I0
sg23
I2
sg24
I0
sbssg122
S'\x19EO\xe6\xb5\xdbWY\xb8\xd9\x1cP&\xe3\xc4\xca'
p2108
ssS'create_views_books_tests_test_get_books_list_view'
p2109
(dp2110
g955
(dp2111
g93
S'create_views_books_tests_test_get_books_list_view.html'
p2112
sg95
S'create/views/books/tests/test_get_books_list_view'
p2113
sg97
g13
(g14
g15
NtRp2114
(dp2115
g18
I1
sg19
I0
sg20
I21
sg21
I0
sg22
I0
sg23
I0
sg24
I0
sbssg961
S'\x16\x8f\xf1\x81>\x0f\xb4S\x19\xff\xcd\xc1Y\xe9;\x98'
p2116
ssS'user_system_serializers_schools_classroom_serializer'
p2117
(dp2118
g116
(dp2119
g31
S'user_system_serializers_schools_classroom_serializer.html'
p2120
sg33
S'user_system/serializers/schools/classroom_serializer'
p2121
sg35
g13
(g14
g15
NtRp2122
(dp2123
g18
I1
sg19
I0
sg20
I13
sg21
I0
sg22
I0
sg23
I2
sg24
I0
sbssg122
S'\\\x02 #\xfc|[\xb1g\x7f\x83+\xb6\xaa\x13\x01'
p2124
ssS'create_models_daily_quest_copies_tests___init__'
p2125
(dp2126
g427
(dp2127
g1545
S'create_models_daily_quest_copies_tests___init__.html'
p2128
sg1547
S'create/models/daily_quest_copies/tests/__init__'
p2129
sg1549
g13
(g14
g15
NtRp2130
(dp2131
g18
I1
sg19
I0
sg20
I0
sg21
I0
sg22
I0
sg23
I0
sg24
I0
sbssg436
S'\x19g\xdfM\x1a\x019\xaf\x1baIeR\xe5u\xa7'
p2132
ssS'api_logging_views_summary_user_activity_summary_view'
p2133
(dp2134
g310
(dp2135
g177
S'api_logging_views_summary_user_activity_summary_view.html'
p2136
sg179
S'api_logging/views/summary/user_activity_summary_view'
p2137
sg181
g13
(g14
g15
NtRp2138
(dp2139
g18
I1
sg19
I8
sg20
I27
sg21
I0
sg22
I0
sg23
I13
sg24
I8
sbssg316
S'\x99\xfc\\\x0e\x10\x840(\x94\xd3(k\x9f\xb4\xd9M'
p2140
ssS'create_urls'
p2141
(dp2142
g42
(dp2143
g57
S'create_urls.html'
p2144
sg59
S'create/urls'
p2145
sg61
g13
(g14
g15
NtRp2146
(dp2147
g18
I1
sg19
I0
sg20
I22
sg21
I0
sg22
I0
sg23
I0
sg24
I0
sbssg51
S"k/4\x8e_h\xf3)p'\x8e\x80v\x1e\xbdg"
p2148
ssS'create_views_tags_tests_test_get_tags_list_view'
p2149
(dp2150
g440
(dp2151
g93
S'create_views_tags_tests_test_get_tags_list_view.html'
p2152
sg95
S'create/views/tags/tests/test_get_tags_list_view'
p2153
sg97
g13
(g14
g15
NtRp2154
(dp2155
g18
I1
sg19
I0
sg20
I21
sg21
I0
sg22
I0
sg23
I0
sg24
I0
sbssg449
S'F\xf6yk?\xb2\xc12\x93\x8b\xe6Bx\xa09\x89'
p2156
ssS'create_serializers_tags_tag_serializer'
p2157
(dp2158
g362
(dp2159
g93
S'create_serializers_tags_tag_serializer.html'
p2160
sg95
S'create/serializers/tags/tag_serializer'
p2161
sg97
g13
(g14
g15
NtRp2162
(dp2163
g18
I1
sg19
I0
sg20
I38
sg21
I0
sg22
I0
sg23
I0
sg24
I0
sbssg368
S'\xf7\xa8n\xd6\xf1\xe1\xf8\xaedX\x8e\xfe\ry\xd4\xc3'
p2164
ssS'user_system_models_users_teacher_mapping_model'
p2165
(dp2166
g29
(dp2167
g1270
S'user_system_models_users_teacher_mapping_model.html'
p2168
sg1272
S'user_system/models/users/teacher_mapping_model'
p2169
sg1274
g13
(g14
g15
NtRp2170
(dp2171
g18
I1
sg19
I4
sg20
I25
sg21
I0
sg22
I0
sg23
I0
sg24
I0
sbssg38
S'\xf8\xaf0\xe2\xc1q\x88\xa4\\\xde\x81@\xa4\xe3\xef\x12'
p2172
ssS'create_models_questions___init__'
p2173
(dp2174
g42
(dp2175
g607
S'create_models_questions___init__.html'
p2176
sg609
S'create/models/questions/__init__'
p2177
sg611
g13
(g14
g15
NtRp2178
(dp2179
g18
I1
sg19
I0
sg20
I6
sg21
I0
sg22
I0
sg23
I0
sg24
I0
sbssg51
S'\xd4\xfd\xae\xf0N\xdd-\x07$U\xac\xf1\xc2\x0f\xa5H'
p2180
ssS'create_models_tags_tag_type_model'
p2181
(dp2182
g399
(dp2183
g44
S'create_models_tags_tag_type_model.html'
p2184
sg46
S'create/models/tags/tag_type_model'
p2185
sg48
g13
(g14
g15
NtRp2186
(dp2187
g18
I1
sg19
I0
sg20
I15
sg21
I0
sg22
I0
sg23
I0
sg24
I0
sbssg405
S'\x89\x07\x8e\xc7^0\x96Do\xbf\xa5\xca5\xe4\x92\xeb'
p2188
ssS'create_serializers___init__'
p2189
(dp2190
g42
(dp2191
g57
S'create_serializers___init__.html'
p2192
sg59
S'create/serializers/__init__'
p2193
sg61
g13
(g14
g15
NtRp2194
(dp2195
g18
I1
sg19
I0
sg20
I6
sg21
I0
sg22
I0
sg23
I0
sg24
I0
sbssg51
S'\x97\xc3"\xfe\x83V\xc1w\xa6r\x02s qES'
p2196
ssS'create_serializers_books_book_history_serializer'
p2197
(dp2198
g955
(dp2199
g93
S'create_serializers_books_book_history_serializer.html'
p2200
sg95
S'create/serializers/books/book_history_serializer'
p2201
sg97
g13
(g14
g15
NtRp2202
(dp2203
g18
I1
sg19
I0
sg20
I14
sg21
I0
sg22
I0
sg23
I0
sg24
I0
sbssg961
S'|g\x1e1\xcdq*ob~B\xca\xd92\x8b\x01'
p2204
ssS'teach_views_daily_quest_templates___init__'
p2205
(dp2206
g55
(dp2207
g57
S'teach_views_daily_quest_templates___init__.html'
p2208
sg59
S'teach/views/daily_quest_templates/__init__'
p2209
sg61
g13
(g14
g15
NtRp2210
(dp2211
g18
I1
sg19
I0
sg20
I1
sg21
I0
sg22
I0
sg23
I0
sg24
I0
sbssg64
S'\xc1b\x1f\x95\xabR`C\xe80\xb9tNC\r3'
p2212
ssS'teach___init__'
p2213
(dp2214
g55
(dp2215
g57
S'teach___init__.html'
p2216
sg59
S'teach/__init__'
p2217
sg61
g13
(g14
g15
NtRp2218
(dp2219
g18
I1
sg19
I0
sg20
I0
sg21
I0
sg22
I0
sg23
I0
sg24
I0
sbssg64
S'\x19g\xdfM\x1a\x019\xaf\x1baIeR\xe5u\xa7'
p2220
ssS'user_system_views_users___init__'
p2221
(dp2222
g42
(dp2223
g389
S'user_system_views_users___init__.html'
p2224
sg391
S'user_system/views/users/__init__'
p2225
sg393
g13
(g14
g15
NtRp2226
(dp2227
g18
I1
sg19
I0
sg20
I7
sg21
I0
sg22
I0
sg23
I0
sg24
I0
sbssg51
S']\x15\xfe\xc7\xefw\x97\xcc\x87v\xa2Z\x9b\xb1\x91\xaf'
p2228
ssS'user_system_serializers_users_user_streak_history_serializer'
p2229
(dp2230
g1687
(dp2231
g389
S'user_system_serializers_users_user_streak_history_serializer.html'
p2232
sg391
S'user_system/serializers/users/user_streak_history_serializer'
p2233
sg393
g13
(g14
g15
NtRp2234
(dp2235
g18
I1
sg19
I0
sg20
I7
sg21
I0
sg22
I0
sg23
I0
sg24
I0
sbssg1693
S'\xc8\x05\x87\xf4N\xc27/(.\xaf\xf4NliE'
p2236
ssS'flipped_helpers_tests_test_email_helper'
p2237
(dp2238
g42
(dp2239
g44
S'flipped_helpers_tests_test_email_helper.html'
p2240
sg46
S'flipped/helpers/tests/test_email_helper'
p2241
sg48
g13
(g14
g15
NtRp2242
(dp2243
g18
I1
sg19
I0
sg20
I13
sg21
I0
sg22
I0
sg23
I0
sg24
I0
sbssg51
S'\x13\xee\xcb^E:3A\xff)v\x7f\xd3\xa7\xa2\xaa'
p2244
ssS'user_system_serializers_users___init__'
p2245
(dp2246
g42
(dp2247
g389
S'user_system_serializers_users___init__.html'
p2248
sg391
S'user_system/serializers/users/__init__'
p2249
sg393
g13
(g14
g15
NtRp2250
(dp2251
g18
I1
sg19
I0
sg20
I8
sg21
I0
sg22
I0
sg23
I0
sg24
I0
sbssg51
S'\xb6(Qu\xed\x1eu\xb3\x15,\xae\x0c\xe6>\xe2\x80'
p2252
ssS'user_system_models_schools_tests_test_semester_model'
p2253
(dp2254
g206
(dp2255
g1462
S'user_system_models_schools_tests_test_semester_model.html'
p2256
sg1464
S'user_system/models/schools/tests/test_semester_model'
p2257
sg1466
g13
(g14
g15
NtRp2258
(dp2259
g18
I1
sg19
I0
sg20
I29
sg21
I0
sg22
I0
sg23
I0
sg24
I0
sbssg215
S'\xe9\xd9\xdc\\\xb9\x93\xb1\x93Q\x02\xe9\xb7Y,\xa6w'
p2260
ssS'create_views_quests_tests___init__'
p2261
(dp2262
g6
(dp2263
g8
S'create_views_quests_tests___init__.html'
p2264
sg10
S'create/views/quests/tests/__init__'
p2265
sg12
g13
(g14
g15
NtRp2266
(dp2267
g18
I1
sg19
I0
sg20
I0
sg21
I0
sg22
I0
sg23
I0
sg24
I0
sbssg25
S'\x19g\xdfM\x1a\x019\xaf\x1baIeR\xe5u\xa7'
p2268
ssS'user_system_serializers_schools_course_serializer'
p2269
(dp2270
g116
(dp2271
g31
S'user_system_serializers_schools_course_serializer.html'
p2272
sg33
S'user_system/serializers/schools/course_serializer'
p2273
sg35
g13
(g14
g15
NtRp2274
(dp2275
g18
I1
sg19
I0
sg20
I16
sg21
I0
sg22
I0
sg23
I2
sg24
I0
sbssg122
S'\xb0\xa8O3\x01\xce\xfe3\x12\x94\xc0\xc4\xe0@\xafJ'
p2276
ssS'user_system_views_users_tests_test_delete_user_view'
p2277
(dp2278
g42
(dp2279
g44
S'user_system_views_users_tests_test_delete_user_view.html'
p2280
sg46
S'user_system/views/users/tests/test_delete_user_view'
p2281
sg48
g13
(g14
g15
NtRp2282
(dp2283
g18
I1
sg19
I0
sg20
I22
sg21
I0
sg22
I0
sg23
I0
sg24
I0
sbssg51
S'\xe4S$\xa1t\xc6\xbe\xc7\xb9^Y\x05{\x92KQ'
p2284
ssS'learn_models_daily_quests_daily_quest_question_history_model'
p2285
(dp2286
S'index'
p2287
(dp2288
S'html_filename'
p2289
S'learn_models_daily_quests_daily_quest_question_history_model.html'
p2290
sS'name'
p2291
S'learn/models/daily_quests/daily_quest_question_history_model'
p2292
sS'nums'
p2293
g13
(g14
g15
NtRp2294
(dp2295
g18
I1
sg19
I6
sg20
I65
sg21
I0
sg22
I0
sg23
I4
sg24
I2
sbssS'hash'
p2296
S')\x12x?=\x06;DF\xf0#m\x85F\xbd*'
p2297
ssS'user_system_models_users_user_profile_update_request_model'
p2298
(dp2299
g116
(dp2300
g646
S'user_system_models_users_user_profile_update_request_model.html'
p2301
sg648
S'user_system/models/users/user_profile_update_request_model'
p2302
sg650
g13
(g14
g15
NtRp2303
(dp2304
g18
I1
sg19
I0
sg20
I58
sg21
I0
sg22
I0
sg23
I0
sg24
I0
sbssg122
S'\xc8t\x16>\xb9"\xff\x93\xe3\x00\xa5z0[\xacM'
p2305
ssS'create_models_tags_tag_history_model'
p2306
(dp2307
g579
(dp2308
g221
S'create_models_tags_tag_history_model.html'
p2309
sg223
S'create/models/tags/tag_history_model'
p2310
sg225
g13
(g14
g15
NtRp2311
(dp2312
g18
I1
sg19
I0
sg20
I37
sg21
I0
sg22
I0
sg23
I0
sg24
I0
sbssg585
S'\xae\xc8g\xc1\xf5l<\x1f\x9c\xaf\x17\xf98\r\xa1\xe2'
p2313
ssS'create_serializers_daily_quest_copies___init__'
p2314
(dp2315
g427
(dp2316
g1545
S'create_serializers_daily_quest_copies___init__.html'
p2317
sg1547
S'create/serializers/daily_quest_copies/__init__'
p2318
sg1549
g13
(g14
g15
NtRp2319
(dp2320
g18
I1
sg19
I0
sg20
I1
sg21
I0
sg22
I0
sg23
I0
sg24
I0
sbssg436
S'\nX]\x85Nc\xb8\xc0\xe1\xaf\xa0\xda_\x9e\xb9u'
p2321
ssS'user_system_models_schools_course_model'
p2322
(dp2323
g232
(dp2324
g646
S'user_system_models_schools_course_model.html'
p2325
sg648
S'user_system/models/schools/course_model'
p2326
sg650
g13
(g14
g15
NtRp2327
(dp2328
g18
I1
sg19
I6
sg20
I37
sg21
I0
sg22
I0
sg23
I0
sg24
I0
sbssg238
S']\xfb\xca\\\xbf\x86n\xc3fj\xc2\x1ej\\q\x14'
p2329
ssS'create_models_daily_quest_copies_tests_test_daily_quest_copy_model'
p2330
(dp2331
g427
(dp2332
g561
S'create_models_daily_quest_copies_tests_test_daily_quest_copy_model.html'
p2333
sg563
S'create/models/daily_quest_copies/tests/test_daily_quest_copy_model'
p2334
sg565
g13
(g14
g15
NtRp2335
(dp2336
g18
I1
sg19
I4
sg20
I45
sg21
I0
sg22
I0
sg23
I0
sg24
I0
sbssg436
S'\xcd\xeeU\x8a\xd7\x95\x9e5E\xd0\xaf\xd07\x80\x85\xe0'
p2337
ssS'privilege_views_privileges___init__'
p2338
(dp2339
g300
(dp2340
g93
S'privilege_views_privileges___init__.html'
p2341
sg95
S'privilege/views/privileges/__init__'
p2342
sg97
g13
(g14
g15
NtRp2343
(dp2344
g18
I1
sg19
I0
sg20
I1
sg21
I0
sg22
I0
sg23
I0
sg24
I0
sbssg306
S']\x14S\xdf\xb4:Tx\xb9\x98\x89\xe7\x01%DZ'
p2345
ssS'teach_models_teacher_chapters_teacher_chapter_model'
p2346
(dp2347
g55
(dp2348
S'html_filename'
p2349
S'teach_models_teacher_chapters_teacher_chapter_model.html'
p2350
sS'name'
p2351
S'teach/models/teacher_chapters/teacher_chapter_model'
p2352
sS'nums'
p2353
g13
(g14
g15
NtRp2354
(dp2355
g18
I1
sg19
I0
sg20
I23
sg21
I0
sg22
I0
sg23
I0
sg24
I0
sbssg64
S'\x97T&\xd0\x81q\xc2M\xc3\x03\x01U\xf5S!h'
p2356
ssS'create_models_questions_question_template_model'
p2357
(dp2358
g103
(dp2359
S'html_filename'
p2360
S'create_models_questions_question_template_model.html'
p2361
sS'name'
p2362
S'create/models/questions/question_template_model'
p2363
sS'nums'
p2364
g13
(g14
g15
NtRp2365
(dp2366
g18
I1
sg19
I0
sg20
I40
sg21
I0
sg22
I0
sg23
I0
sg24
I0
sbssg112
S'\x845gz\x1d\x17\x1dv\x81\n\x96G\x99pE\\'
p2367
ssS'create_views_questions_tests_test_get_question_by_id_view'
p2368
(dp2369
g42
(dp2370
g93
S'create_views_questions_tests_test_get_question_by_id_view.html'
p2371
sg95
S'create/views/questions/tests/test_get_question_by_id_view'
p2372
sg97
g13
(g14
g15
NtRp2373
(dp2374
g18
I1
sg19
I0
sg20
I24
sg21
I0
sg22
I0
sg23
I0
sg24
I0
sbssg51
S'\xa7[\x91\xa9\xa6\xb4\xbd&n$O^O\xec\xf2X'
p2375
ssS'teach_models_teacher_tags_tests___init__'
p2376
(dp2377
g55
(dp2378
g57
S'teach_models_teacher_tags_tests___init__.html'
p2379
sg59
S'teach/models/teacher_tags/tests/__init__'
p2380
sg61
g13
(g14
g15
NtRp2381
(dp2382
g18
I1
sg19
I0
sg20
I0
sg21
I0
sg22
I0
sg23
I0
sg24
I0
sbssg64
S'\x19g\xdfM\x1a\x019\xaf\x1baIeR\xe5u\xa7'
p2383
ssS'api_logging_urls'
p2384
(dp2385
g310
(dp2386
g257
S'api_logging_urls.html'
p2387
sg259
S'api_logging/urls'
p2388
sg261
g13
(g14
g15
NtRp2389
(dp2390
g18
I1
sg19
I0
sg20
I13
sg21
I0
sg22
I0
sg23
I0
sg24
I0
sbssg316
S'\x8a\n\x99\x1f\xc4\x0f\x94\xc9\x97\xde\xea\xfe\x15Y\xa7\x0c'
p2391
ssS'api_logging_serializers_LoggingSerializer'
p2392
(dp2393
g310
(dp2394
g177
S'api_logging_serializers_LoggingSerializer.html'
p2395
sg179
S'api_logging/serializers/LoggingSerializer'
p2396
sg181
g13
(g14
g15
NtRp2397
(dp2398
g18
I1
sg19
I0
sg20
I12
sg21
I0
sg22
I0
sg23
I0
sg24
I0
sbssg316
S'1\xdb}\x8eJ\x1a\xe6@D\xcc}\xf4\x11(\x11\xb0'
p2399
ssS'create_views_books_tests_test_remove_subchapter_view'
p2400
(dp2401
S'index'
p2402
(dp2403
g44
S'create_views_books_tests_test_remove_subchapter_view.html'
p2404
sg46
S'create/views/books/tests/test_remove_subchapter_view'
p2405
sg48
g13
(g14
g15
NtRp2406
(dp2407
g18
I1
sg19
I0
sg20
I44
sg21
I0
sg22
I0
sg23
I0
sg24
I0
sbssS'hash'
p2408
S'\x0b\xddi\xaa_d\x8c\xf3b\xa2\x12\xbc\xce\xa5\xbf\x8b'
p2409
ssS'teach_views_summaries_daily_quest_daily_summary_view'
p2410
(dp2411
g310
(dp2412
g389
S'teach_views_summaries_daily_quest_daily_summary_view.html'
p2413
sg391
S'teach/views/summaries/daily_quest_daily_summary_view'
p2414
sg393
g13
(g14
g15
NtRp2415
(dp2416
g18
I1
sg19
I12
sg20
I61
sg21
I0
sg22
I0
sg23
I39
sg24
I12
sbssg316
S'\x06\\F.\x8c\xd3M\x8e\xc5\xc9\xd5<\x13V\xd6C'
p2417
ssS'learn_models_points_point_history_model'
p2418
(dp2419
g310
(dp2420
g177
S'learn_models_points_point_history_model.html'
p2421
sg179
S'learn/models/points/point_history_model'
p2422
sg181
g13
(g14
g15
NtRp2423
(dp2424
g18
I1
sg19
I0
sg20
I16
sg21
I0
sg22
I0
sg23
I0
sg24
I0
sbssg316
S'\xa8\xbaH\x19\x11\xbeT\xe2N=\xfe\xed\x9d\xd4\x83\x1e'
p2425
ssS'user_system___init__'
p2426
(dp2427
g42
(dp2428
g462
S'user_system___init__.html'
p2429
sg464
S'user_system/__init__'
p2430
sg466
g13
(g14
g15
NtRp2431
(dp2432
g18
I1
sg19
I0
sg20
I0
sg21
I0
sg22
I0
sg23
I0
sg24
I0
sbssg51
S'\x19g\xdfM\x1a\x019\xaf\x1baIeR\xe5u\xa7'
p2433
ssS'create_models_question_datasets_question_dataset_model'
p2434
(dp2435
g144
(dp2436
g146
S'create_models_question_datasets_question_dataset_model.html'
p2437
sg148
S'create/models/question_datasets/question_dataset_model'
p2438
sg150
g13
(g14
g15
NtRp2439
(dp2440
g18
I1
sg19
I0
sg20
I25
sg21
I0
sg22
I0
sg23
I0
sg24
I0
sbssg153
S'\x9e\x8d\xc6\xe6\xe4\x9f#\xfdc\xc9q\r\x17Y\x8e\xb1'
p2441
ssS'create_views_question_datasets___init__'
p2442
(dp2443
g144
(dp2444
g146
S'create_views_question_datasets___init__.html'
p2445
sg148
S'create/views/question_datasets/__init__'
p2446
sg150
g13
(g14
g15
NtRp2447
(dp2448
g18
I1
sg19
I0
sg20
I1
sg21
I0
sg22
I0
sg23
I0
sg24
I0
sbssg153
S'\x87x\xd1\xbe\x15\xd3\xbc\x99\x86\x08\xf8\x06S\xcf\x00\x87'
p2449
ssS'teach_serializers_daily_quest_templates___init__'
p2450
(dp2451
g55
(dp2452
g57
S'teach_serializers_daily_quest_templates___init__.html'
p2453
sg59
S'teach/serializers/daily_quest_templates/__init__'
p2454
sg61
g13
(g14
g15
NtRp2455
(dp2456
g18
I1
sg19
I0
sg20
I1
sg21
I0
sg22
I0
sg23
I0
sg24
I0
sbssg64
S'\xa2\xd34\x1b\xe2+\x16\xa9un\x8f\xa5\xe6\xc4\\p'
p2457
ssS'create_views_books_tests_test_remove_tag_from_subchapter_view'
p2458
(dp2459
g1563
(dp2460
g44
S'create_views_books_tests_test_remove_tag_from_subchapter_view.html'
p2461
sg46
S'create/views/books/tests/test_remove_tag_from_subchapter_view'
p2462
sg48
g13
(g14
g15
NtRp2463
(dp2464
g18
I1
sg19
I0
sg20
I40
sg21
I0
sg22
I0
sg23
I0
sg24
I0
sbssg1569
S"(Vo#\xdd\x9a\xbc\x11\xff\xd6'\xd7\xeb\xca\x1aM"
p2465
ssS'create_views_daily_quests___init__'
p2466
(dp2467
g242
(dp2468
g244
S'create_views_daily_quests___init__.html'
p2469
sg246
S'create/views/daily_quests/__init__'
p2470
sg248
g13
(g14
g15
NtRp2471
(dp2472
g18
I1
sg19
I0
sg20
I1
sg21
I0
sg22
I0
sg23
I0
sg24
I0
sbssg251
S'\xa3\x08\xf3\xbaF\xd5u\x88\x12\xa3V\x05K\xe5\xd0\xa9'
p2473
ssS'flipped_helpers_email_helper'
p2474
(dp2475
g42
(dp2476
g44
S'flipped_helpers_email_helper.html'
p2477
sg46
S'flipped/helpers/email_helper'
p2478
sg48
g13
(g14
g15
NtRp2479
(dp2480
g18
I1
sg19
I2
sg20
I9
sg21
I0
sg22
I0
sg23
I0
sg24
I0
sbssg51
S"\xeal\t\x03)\xcc\xc4\x0b\r\xe2&\x83a'I\xad"
p2481
ssS'flipped_urls'
p2482
(dp2483
g42
(dp2484
g93
S'flipped_urls.html'
p2485
sg95
S'flipped/urls'
p2486
sg97
g13
(g14
g15
NtRp2487
(dp2488
g18
I1
sg19
I0
sg20
I9
sg21
I0
sg22
I0
sg23
I0
sg24
I0
sbssg51
S'\xcbN{\xd0A\x0b\xa0\xc3\xd4\x8cr\xe3\x1e\x12\x1e\xb0'
p2489
ssS'teach_views_summaries_daily_quest_summary_view'
p2490
(dp2491
g310
(dp2492
g257
S'teach_views_summaries_daily_quest_summary_view.html'
p2493
sg259
S'teach/views/summaries/daily_quest_summary_view'
p2494
sg261
g13
(g14
g15
NtRp2495
(dp2496
g18
I1
sg19
I28
sg20
I80
sg21
I0
sg22
I0
sg23
I59
sg24
I28
sbssg316
S'^\xb6\x88U\xed\xcf9\x11\x87\x0c\x80\t\xd7\xf7\xad\x85'
p2497
ssS'user_system_views_users_student_profile_request_view'
p2498
(dp2499
g116
(dp2500
g31
S'user_system_views_users_student_profile_request_view.html'
p2501
sg33
S'user_system/views/users/student_profile_request_view'
p2502
sg35
g13
(g14
g15
NtRp2503
(dp2504
g18
I1
sg19
I0
sg20
I14
sg21
I0
sg22
I0
sg23
I0
sg24
I0
sbssg122
S'\x87:\xd0\xef\x04\xf3-q\r\xe7\xec \xceS\xee<'
p2505
ssS'user_system_views_logins_tests___init__'
p2506
(dp2507
g42
(dp2508
g462
S'user_system_views_logins_tests___init__.html'
p2509
sg464
S'user_system/views/logins/tests/__init__'
p2510
sg466
g13
(g14
g15
NtRp2511
(dp2512
g18
I1
sg19
I0
sg20
I1
sg21
I0
sg22
I0
sg23
I0
sg24
I0
sbssg51
S'\xbc\xd6\xeb\xb3\xba\xcaz\xf7{\xd4B\xb5}l\xdf\x96'
p2513
ssS'api_logging_views_modal_loggings___init__'
p2514
(dp2515
g310
(dp2516
g177
S'api_logging_views_modal_loggings___init__.html'
p2517
sg179
S'api_logging/views/modal_loggings/__init__'
p2518
sg181
g13
(g14
g15
NtRp2519
(dp2520
g18
I1
sg19
I0
sg20
I1
sg21
I0
sg22
I0
sg23
I0
sg24
I0
sbssg316
S'\xf1\x0fWK\x0c\x9eD\xe8\x12\xaf\x93\xfa\xd7q\xa8\x91'
p2521
ssS'user_system_views_users_tests_test_get_users_by_signup_type_view'
p2522
(dp2523
g42
(dp2524
g93
S'user_system_views_users_tests_test_get_users_by_signup_type_view.html'
p2525
sg95
S'user_system/views/users/tests/test_get_users_by_signup_type_view'
p2526
sg97
g13
(g14
g15
NtRp2527
(dp2528
g18
I1
sg19
I0
sg20
I44
sg21
I0
sg22
I0
sg23
I0
sg24
I0
sbssg51
S'T/\xf9\xf8\x94\xd6Lm\x89o\xb6\x99/Z\xc1]'
p2529
ssS'user_system_serializers_users_user_serializer'
p2530
(dp2531
g42
(dp2532
g93
S'user_system_serializers_users_user_serializer.html'
p2533
sg95
S'user_system/serializers/users/user_serializer'
p2534
sg97
g13
(g14
g15
NtRp2535
(dp2536
g18
I1
sg19
I8
sg20
I46
sg21
I0
sg22
I2
sg23
I8
sg24
I6
sbssg51
S'\xb2\xee\xa4\xa6\x8b\xe1\xe1\xce\xaa\xe6\xdd\xbd\xb3\xf2\x81/'
p2537
ssS'create_serializers_daily_quest_copies_daily_quest_copy_serializer'
p2538
(dp2539
g427
(dp2540
g1545
S'create_serializers_daily_quest_copies_daily_quest_copy_serializer.html'
p2541
sg1547
S'create/serializers/daily_quest_copies/daily_quest_copy_serializer'
p2542
sg1549
g13
(g14
g15
NtRp2543
(dp2544
g18
I1
sg19
I0
sg20
I18
sg21
I0
sg22
I0
sg23
I3
sg24
I0
sbssg436
S'\xb6\xc6tAeANu\xae\n4T\xc1.\xe2\xfd'
p2545
ssS'create_models_books_tests_test_book_history_model'
p2546
(dp2547
g362
(dp2548
g646
S'create_models_books_tests_test_book_history_model.html'
p2549
sg648
S'create/models/books/tests/test_book_history_model'
p2550
sg650
g13
(g14
g15
NtRp2551
(dp2552
g18
I1
sg19
I0
sg20
I65
sg21
I0
sg22
I0
sg23
I0
sg24
I0
sbssg368
S'\xedQI\xf5\x17. 8I\x938\xca4\x05=\xf3'
p2553
ssS'create_views_quests_tests_test_remove_question_view'
p2554
(dp2555
g6
(dp2556
g8
S'create_views_quests_tests_test_remove_question_view.html'
p2557
sg10
S'create/views/quests/tests/test_remove_question_view'
p2558
sg12
g13
(g14
g15
NtRp2559
(dp2560
g18
I1
sg19
I0
sg20
I0
sg21
I0
sg22
I0
sg23
I0
sg24
I0
sbssg25
S'\x19g\xdfM\x1a\x019\xaf\x1baIeR\xe5u\xa7'
p2561
ssS'create_serializers_daily_quest_templates_daily_quest_template_serializer'
p2562
(dp2563
g242
(dp2564
g244
S'create_serializers_daily_quest_templates_daily_quest_template_serializer.html'
p2565
sg246
S'create/serializers/daily_quest_templates/daily_quest_template_serializer'
p2566
sg248
g13
(g14
g15
NtRp2567
(dp2568
g18
I1
sg19
I0
sg20
I8
sg21
I0
sg22
I0
sg23
I0
sg24
I0
sbssg251
S'-b,\x8cFu\xd2b\x8b\rw5\xa4\xf7\xc3\xf2'
p2569
ssS'user_system_managers___init__'
p2570
(dp2571
g310
(dp2572
g1087
S'user_system_managers___init__.html'
p2573
sg1089
S'user_system/managers/__init__'
p2574
sg1091
g13
(g14
g15
NtRp2575
(dp2576
g18
I1
sg19
I0
sg20
I2
sg21
I0
sg22
I0
sg23
I0
sg24
I0
sbssg316
S'\xa5\xc9\x8d9\xe4\xb5\xce\xe3R\xccW\x976\xcdI\xa4'
p2577
ssS'teach_models_campaigns_tests_test_campaign_model'
p2578
(dp2579
g116
(dp2580
g31
S'teach_models_campaigns_tests_test_campaign_model.html'
p2581
sg33
S'teach/models/campaigns/tests/test_campaign_model'
p2582
sg35
g13
(g14
g15
NtRp2583
(dp2584
g18
I1
sg19
I0
sg20
I43
sg21
I0
sg22
I0
sg23
I0
sg24
I0
sbssg122
S"\x1b\xbbi{\xe8\xa9o\xd3w\xfb'\x1e\xca\x1b\xd9\xc7"
p2585
ssS'api_logging_views_modal_loggings_modal_user_history_view'
p2586
(dp2587
g310
(dp2588
g1087
S'api_logging_views_modal_loggings_modal_user_history_view.html'
p2589
sg1089
S'api_logging/views/modal_loggings/modal_user_history_view'
p2590
sg1091
g13
(g14
g15
NtRp2591
(dp2592
g18
I1
sg19
I0
sg20
I12
sg21
I0
sg22
I0
sg23
I0
sg24
I0
sbssg316
S'\xe0g\x1c\xea/\xf3m\xa8\x9d\x1f7\xba\x82w\x88\x9c'
p2593
ssS'user_system_views_logins_tests_test_email_login_view'
p2594
(dp2595
g42
(dp2596
g44
S'user_system_views_logins_tests_test_email_login_view.html'
p2597
sg46
S'user_system/views/logins/tests/test_email_login_view'
p2598
sg48
g13
(g14
g15
NtRp2599
(dp2600
g18
I1
sg19
I0
sg20
I61
sg21
I0
sg22
I0
sg23
I0
sg24
I0
sbssg51
S'\x926\xe8\xcdL\xf3U\xc1C\x1b\x0f\xaf\xf0c\x9b\xd0'
p2601
ssS'create_views_books_book_chapter_view'
p2602
(dp2603
g579
(dp2604
g177
S'create_views_books_book_chapter_view.html'
p2605
sg179
S'create/views/books/book_chapter_view'
p2606
sg181
g13
(g14
g15
NtRp2607
(dp2608
g18
I1
sg19
I12
sg20
I44
sg21
I0
sg22
I0
sg23
I22
sg24
I12
sbssg585
S'\x0b3\xd8 \xe1\x08#79\x0c\x7f\x1f6\xad0\xe9'
p2609
ssS'create_views___init__'
p2610
(dp2611
g42
(dp2612
g57
S'create_views___init__.html'
p2613
sg59
S'create/views/__init__'
p2614
sg61
g13
(g14
g15
NtRp2615
(dp2616
g18
I1
sg19
I0
sg20
I7
sg21
I0
sg22
I0
sg23
I0
sg24
I0
sbssg51
S'\x8f\x98\x9b$~\xde\xc2\xfc\x97/\x14^\xe8\xf8\x10M'
p2617
ssS'user_system_serializers_users_student_profile_serializer'
p2618
(dp2619
g116
(dp2620
g1087
S'user_system_serializers_users_student_profile_serializer.html'
p2621
sg1089
S'user_system/serializers/users/student_profile_serializer'
p2622
sg1091
g13
(g14
g15
NtRp2623
(dp2624
g18
I1
sg19
I0
sg20
I17
sg21
I0
sg22
I0
sg23
I4
sg24
I0
sbssg122
S'\xc4\x88\x8d\xdd\xa1\xf5H \xfeB\xa4<!8\x8c\x9e'
p2625
ssS'flipped_helpers_errors_helper'
p2626
(dp2627
g42
(dp2628
g44
S'flipped_helpers_errors_helper.html'
p2629
sg46
S'flipped/helpers/errors_helper'
p2630
sg48
g13
(g14
g15
NtRp2631
(dp2632
g18
I1
sg19
I0
sg20
I5
sg21
I0
sg22
I0
sg23
I0
sg24
I0
sbssg51
S'\x91\x04\x1c\xf86c\xad\xf7\xe3\xf13\xf5n8eP'
p2633
ssS'teach_views_teacher_tags_teacher_tag_view'
p2634
(dp2635
g55
(dp2636
g1087
S'teach_views_teacher_tags_teacher_tag_view.html'
p2637
sg1089
S'teach/views/teacher_tags/teacher_tag_view'
p2638
sg1091
g13
(g14
g15
NtRp2639
(dp2640
g18
I1
sg19
I20
sg20
I55
sg21
I0
sg22
I2
sg23
I30
sg24
I18
sbssg64
S'\xd6\xdf\xb7\xf7\xc0\x9b\xae\x8c\x81\x0f\x89C\xb0k\xaf\xd5'
p2641
ssS'create_models_questions_tests_test_question_history_model'
p2642
(dp2643
g42
(dp2644
g1012
S'create_models_questions_tests_test_question_history_model.html'
p2645
sg1014
S'create/models/questions/tests/test_question_history_model'
p2646
sg1016
g13
(g14
g15
NtRp2647
(dp2648
g18
I1
sg19
I2
sg20
I73
sg21
I0
sg22
I0
sg23
I0
sg24
I0
sbssg51
S'i\xd4 \xdcI\x9f\xbc\x0c|\x95\x15wW\xb4\xa9\x15'
p2649
ssS'create_views_tags_tests_test_create_tag_view'
p2650
(dp2651
g440
(dp2652
g44
S'create_views_tags_tests_test_create_tag_view.html'
p2653
sg46
S'create/views/tags/tests/test_create_tag_view'
p2654
sg48
g13
(g14
g15
NtRp2655
(dp2656
g18
I1
sg19
I0
sg20
I33
sg21
I0
sg22
I0
sg23
I0
sg24
I0
sbssg449
S'\\\x91{\x1a ;Qg\xbd\x81\xe2\xaf\xa41\xac\x1b'
p2657
ssS'create_views_questions_tests___init__'
p2658
(dp2659
g42
(dp2660
g462
S'create_views_questions_tests___init__.html'
p2661
sg464
S'create/views/questions/tests/__init__'
p2662
sg466
g13
(g14
g15
NtRp2663
(dp2664
g18
I1
sg19
I0
sg20
I0
sg21
I0
sg22
I0
sg23
I0
sg24
I0
sbssg51
S'\x19g\xdfM\x1a\x019\xaf\x1baIeR\xe5u\xa7'
p2665
ssS'flipped___init__'
p2666
(dp2667
g42
(dp2668
g462
S'flipped___init__.html'
p2669
sg464
S'flipped/__init__'
p2670
sg466
g13
(g14
g15
NtRp2671
(dp2672
g18
I1
sg19
I0
sg20
I0
sg21
I0
sg22
I0
sg23
I0
sg24
I0
sbssg51
S'\x19g\xdfM\x1a\x019\xaf\x1baIeR\xe5u\xa7'
p2673
ssS'user_system_views_roles___init__'
p2674
(dp2675
g42
(dp2676
g462
S'user_system_views_roles___init__.html'
p2677
sg464
S'user_system/views/roles/__init__'
p2678
sg466
g13
(g14
g15
NtRp2679
(dp2680
g18
I1
sg19
I0
sg20
I1
sg21
I0
sg22
I0
sg23
I0
sg24
I0
sbssg51
S'\xeb\x15\r\x85I\x9e<\xbc\x15\xd1P\xef\x16\x8c\xe0l'
p2681
ssS'create_models_daily_quest_templates_tests_test_daily_quest_template_model'
p2682
(dp2683
g242
(dp2684
g244
S'create_models_daily_quest_templates_tests_test_daily_quest_template_model.html'
p2685
sg246
S'create/models/daily_quest_templates/tests/test_daily_quest_template_model'
p2686
sg248
g13
(g14
g15
NtRp2687
(dp2688
g18
I1
sg19
I0
sg20
I37
sg21
I0
sg22
I0
sg23
I0
sg24
I0
sbssg251
S'\x01\x04)\xffw\x13\x9aqx\xb2\x9f\x02\xb0\x90\xf3\xa5'
p2689
ssS'teach_views_summaries___init__'
p2690
(dp2691
g310
(dp2692
g188
S'teach_views_summaries___init__.html'
p2693
sg190
S'teach/views/summaries/__init__'
p2694
sg192
g13
(g14
g15
NtRp2695
(dp2696
g18
I1
sg19
I0
sg20
I6
sg21
I0
sg22
I0
sg23
I0
sg24
I0
sbssg316
S'\xf1\xa7@\xae\xc1+T\x8d\tr\xacb\x91s,\xbf'
p2697
ssS'user_system_models_users_user_profile_history_model'
p2698
(dp2699
g116
(dp2700
g31
S'user_system_models_users_user_profile_history_model.html'
p2701
sg33
S'user_system/models/users/user_profile_history_model'
p2702
sg35
g13
(g14
g15
NtRp2703
(dp2704
g18
I1
sg19
I4
sg20
I72
sg21
I0
sg22
I2
sg23
I12
sg24
I2
sbssg122
S'\x9a\x0c\xe2p\x8b\xee\x01\x87\xfd\x81\xb4\x9bzp\x90\xb6'
p2705
ssS'user_system_models_roles_role_model'
p2706
(dp2707
g42
(dp2708
g44
S'user_system_models_roles_role_model.html'
p2709
sg46
S'user_system/models/roles/role_model'
p2710
sg48
g13
(g14
g15
NtRp2711
(dp2712
g18
I1
sg19
I0
sg20
I16
sg21
I0
sg22
I0
sg23
I0
sg24
I0
sbssg51
S'\x180j\xc8\x05 \xa05\xa7\xffj\x1dJ\x8a6\xcb'
p2713
ssS'user_system_views_users_user_view'
p2714
(dp2715
g42
(dp2716
g389
S'user_system_views_users_user_view.html'
p2717
sg391
S'user_system/views/users/user_view'
p2718
sg393
g13
(g14
g15
NtRp2719
(dp2720
g18
I1
sg19
I66
sg20
I191
sg21
I0
sg22
I0
sg23
I110
sg24
I44
sbssg51
S'\xc15\x8d)\x8f\xca@r\xd5%m#\x11{\x13\x9b'
p2721
ssS'teach_models_daily_quest_templates_tests_test_daily_quest_template_model'
p2722
(dp2723
g55
(dp2724
g57
S'teach_models_daily_quest_templates_tests_test_daily_quest_template_model.html'
p2725
sg59
S'teach/models/daily_quest_templates/tests/test_daily_quest_template_model'
p2726
sg61
g13
(g14
g15
NtRp2727
(dp2728
g18
I1
sg19
I0
sg20
I37
sg21
I0
sg22
I0
sg23
I0
sg24
I0
sbssg64
S'\x01\x04)\xffw\x13\x9aqx\xb2\x9f\x02\xb0\x90\xf3\xa5'
p2729
ssS'user_system_views_apps___init__'
p2730
(dp2731
g42
(dp2732
g462
S'user_system_views_apps___init__.html'
p2733
sg464
S'user_system/views/apps/__init__'
p2734
sg466
g13
(g14
g15
NtRp2735
(dp2736
g18
I1
sg19
I0
sg20
I1
sg21
I0
sg22
I0
sg23
I0
sg24
I0
sbssg51
S'?:\xf2A\xfa^]\xc5NR\xc9\x13\xb0\xe4\xfa\x9e'
p2737
ssS'user_system_views_users_tests_test_get_users_list_view'
p2738
(dp2739
g42
(dp2740
g93
S'user_system_views_users_tests_test_get_users_list_view.html'
p2741
sg95
S'user_system/views/users/tests/test_get_users_list_view'
p2742
sg97
g13
(g14
g15
NtRp2743
(dp2744
g18
I1
sg19
I0
sg20
I34
sg21
I0
sg22
I0
sg23
I0
sg24
I0
sbssg51
S'\xf5\xe3\x1a\x14e\xf8\xc2\xf0\xa8^$\xf7\x9dv\xb8f'
p2745
ssS'create_models_questions_question_type_model'
p2746
(dp2747
g42
(dp2748
g44
S'create_models_questions_question_type_model.html'
p2749
sg46
S'create/models/questions/question_type_model'
p2750
sg48
g13
(g14
g15
NtRp2751
(dp2752
g18
I1
sg19
I0
sg20
I19
sg21
I0
sg22
I0
sg23
I0
sg24
I0
sbssg51
S'\xb9\xe7I\x93\x8b\xa8\xa8H\x80\x02_\xf9\x87\xa2\xe7\xa5'
p2753
ssS'user_system_views_apps_app_view'
p2754
(dp2755
g42
(dp2756
S'html_filename'
p2757
S'user_system_views_apps_app_view.html'
p2758
sS'name'
p2759
S'user_system/views/apps/app_view'
p2760
sS'nums'
p2761
g13
(g14
g15
NtRp2762
(dp2763
g18
I1
sg19
I0
sg20
I13
sg21
I0
sg22
I0
sg23
I0
sg24
I0
sbssg51
S'\xf7n\xffX\xe7\xd2\xb6\xa5\xc5\xe5\x96\x13\xf4\x9c\xac\x1e'
p2764
ssS'teach_views_summaries_student_list_summary'
p2765
(dp2766
g310
(dp2767
g389
S'teach_views_summaries_student_list_summary.html'
p2768
sg391
S'teach/views/summaries/student_list_summary'
p2769
sg393
g13
(g14
g15
NtRp2770
(dp2771
g18
I1
sg19
I26
sg20
I81
sg21
I0
sg22
I0
sg23
I63
sg24
I26
sbssg316
S'i\x1e\xd7\x9f\xceE"\x92\xc3\xfd\xd9\xdd\xac%\xe7\x10'
p2772
ssS'user_system_models_schools_tests_test_classroom_model'
p2773
(dp2774
g232
(dp2775
g177
S'user_system_models_schools_tests_test_classroom_model.html'
p2776
sg179
S'user_system/models/schools/tests/test_classroom_model'
p2777
sg181
g13
(g14
g15
NtRp2778
(dp2779
g18
I1
sg19
I0
sg20
I31
sg21
I0
sg22
I0
sg23
I0
sg24
I0
sbssg238
S'\xfd\xfd\xa2\x92;\xc3\xaa\x06D\x93\xddbD\xda\xa2\x1e'
p2780
ssS'user_system_views_schools_school_view'
p2781
(dp2782
g116
(dp2783
g31
S'user_system_views_schools_school_view.html'
p2784
sg33
S'user_system/views/schools/school_view'
p2785
sg35
g13
(g14
g15
NtRp2786
(dp2787
g18
I1
sg19
I0
sg20
I16
sg21
I0
sg22
I0
sg23
I0
sg24
I0
sbssg122
S'\xc8\x0b\xef\x9e86\xe5\x19\xaa\x9e\x93+\x03\xfb\x98\x99'
p2788
ssS'learn_models_points_point_type_model'
p2789
(dp2790
g310
(dp2791
g646
S'learn_models_points_point_type_model.html'
p2792
sg648
S'learn/models/points/point_type_model'
p2793
sg650
g13
(g14
g15
NtRp2794
(dp2795
g18
I1
sg19
I0
sg20
I20
sg21
I0
sg22
I0
sg23
I0
sg24
I0
sbssg316
S'\x84\x1b\x18\n\xa9\xae\xe5\xd57\xa7}h\xdaD\x19+'
p2796
ssS'user_system_models_roles_tests_test_role_app_model'
p2797
(dp2798
g42
(dp2799
g44
S'user_system_models_roles_tests_test_role_app_model.html'
p2800
sg46
S'user_system/models/roles/tests/test_role_app_model'
p2801
sg48
g13
(g14
g15
NtRp2802
(dp2803
g18
I1
sg19
I0
sg20
I21
sg21
I0
sg22
I0
sg23
I0
sg24
I0
sbssg51
S"\x80\xd7v\xbb\xe5d.\xeb\xfd\xc4\x04\xb2\x04'\xc6V"
p2804
ssS'user_system_views_schools_grade_view'
p2805
(dp2806
g116
(dp2807
g31
S'user_system_views_schools_grade_view.html'
p2808
sg33
S'user_system/views/schools/grade_view'
p2809
sg35
g13
(g14
g15
NtRp2810
(dp2811
g18
I1
sg19
I0
sg20
I16
sg21
I0
sg22
I0
sg23
I0
sg24
I0
sbssg122
S'_i&b\x01\x08$\xe7\xbe\nW\x92\x80\x97\xf1Q'
p2812
ssS'create_serializers_question_datasets_question_dataset_serializer'
p2813
(dp2814
g144
(dp2815
g146
S'create_serializers_question_datasets_question_dataset_serializer.html'
p2816
sg148
S'create/serializers/question_datasets/question_dataset_serializer'
p2817
sg150
g13
(g14
g15
NtRp2818
(dp2819
g18
I1
sg19
I0
sg20
I6
sg21
I0
sg22
I0
sg23
I0
sg24
I0
sbssg153
S'\x1e}6\x82\x0c\x96\xdb\x00{jK\xdb\xc0\x8c\x97\xcd'
p2820
ssS'privilege_models_privileges_user_privilege_model'
p2821
(dp2822
g300
(dp2823
g93
S'privilege_models_privileges_user_privilege_model.html'
p2824
sg95
S'privilege/models/privileges/user_privilege_model'
p2825
sg97
g13
(g14
g15
NtRp2826
(dp2827
g18
I1
sg19
I0
sg20
I17
sg21
I0
sg22
I0
sg23
I1
sg24
I0
sbssg306
S'\xe4\xbfo\xb6Sy\xef\x85\xf2\xf3=\xf3\xc3\xc0\xc9\xc6'
p2828
ssS'create_views_questions_question_template_view'
p2829
(dp2830
g103
(dp2831
g105
S'create_views_questions_question_template_view.html'
p2832
sg107
S'create/views/questions/question_template_view'
p2833
sg109
g13
(g14
g15
NtRp2834
(dp2835
g18
I1
sg19
I40
sg20
I115
sg21
I0
sg22
I0
sg23
I86
sg24
I40
sbssg112
S'\x15\xd2EN\xe9c\xe5\x17\xc5Fh\x02\x1a\xd3\xc4*'
p2836
ssS'create_serializers_quests_quest_serializer'
p2837
(dp2838
g103
(dp2839
g31
S'create_serializers_quests_quest_serializer.html'
p2840
sg33
S'create/serializers/quests/quest_serializer'
p2841
sg35
g13
(g14
g15
NtRp2842
(dp2843
g18
I1
sg19
I0
sg20
I50
sg21
I0
sg22
I0
sg23
I15
sg24
I0
sbssg112
S'\x96:\xdf\x9a\x02\xee\xf5\x97F[z\x16p\x8f\x08\xb2'
p2844
ssS'create_views_summary_create_summary_view'
p2845
(dp2846
g1645
(dp2847
g1125
S'create_views_summary_create_summary_view.html'
p2848
sg1127
S'create/views/summary/create_summary_view'
p2849
sg1129
g13
(g14
g15
NtRp2850
(dp2851
g18
I1
sg19
I0
sg20
I59
sg21
I0
sg22
I0
sg23
I48
sg24
I0
sbssg1651
S"'\xfe\xf4\x8c\xed2\xc3\x18\xf6\x85\x1f\xb0\xf0G\xb7\x8f"
p2852
ssS'create_serializers_books_book_serializer'
p2853
(dp2854
g362
(dp2855
g93
S'create_serializers_books_book_serializer.html'
p2856
sg95
S'create/serializers/books/book_serializer'
p2857
sg97
g13
(g14
g15
NtRp2858
(dp2859
g18
I1
sg19
I0
sg20
I25
sg21
I0
sg22
I0
sg23
I0
sg24
I0
sbssg368
S"o\r\r\x1e8\xe6\xa9\xd1\x83X.\xcf1\x98\xa3'"
p2860
ssS'user_system_models_schools_tests___init__'
p2861
(dp2862
g206
(dp2863
S'html_filename'
p2864
S'user_system_models_schools_tests___init__.html'
p2865
sS'name'
p2866
S'user_system/models/schools/tests/__init__'
p2867
sS'nums'
p2868
g13
(g14
g15
NtRp2869
(dp2870
g18
I1
sg19
I0
sg20
I0
sg21
I0
sg22
I0
sg23
I0
sg24
I0
sbssg215
S'\x19g\xdfM\x1a\x019\xaf\x1baIeR\xe5u\xa7'
p2871
ssS'api_logging_mixins'
p2872
(dp2873
g440
(dp2874
g44
S'api_logging_mixins.html'
p2875
sg46
S'api_logging/mixins'
p2876
sg48
g13
(g14
g15
NtRp2877
(dp2878
g18
I1
sg19
I4
sg20
I26
sg21
I0
sg22
I2
sg23
I2
sg24
I2
sbssg449
S'w\xa7\xcf,\xf7\x87[\xb0\xc5\xb2\x1f\xa5+\x1dSF'
p2879
ssS'privilege_serializers_privileges___init__'
p2880
(dp2881
g300
(dp2882
g93
S'privilege_serializers_privileges___init__.html'
p2883
sg95
S'privilege/serializers/privileges/__init__'
p2884
sg97
g13
(g14
g15
NtRp2885
(dp2886
g18
I1
sg19
I0
sg20
I2
sg21
I0
sg22
I0
sg23
I0
sg24
I0
sbssg306
S'\x1f\xd4u<\xf4\x9bW\xb0\xa9\xd2\xc1\x06\x14`C\xc6'
p2887
ssS'create___init__'
p2888
(dp2889
g42
(dp2890
g462
S'create___init__.html'
p2891
sg464
S'create/__init__'
p2892
sg466
g13
(g14
g15
NtRp2893
(dp2894
g18
I1
sg19
I0
sg20
I0
sg21
I0
sg22
I0
sg23
I0
sg24
I0
sbssg51
S'\x19g\xdfM\x1a\x019\xaf\x1baIeR\xe5u\xa7'
p2895
ssS'user_system_serializers_schools_school_serializer'
p2896
(dp2897
g116
(dp2898
g31
S'user_system_serializers_schools_school_serializer.html'
p2899
sg33
S'user_system/serializers/schools/school_serializer'
p2900
sg35
g13
(g14
g15
NtRp2901
(dp2902
g18
I1
sg19
I0
sg20
I9
sg21
I0
sg22
I0
sg23
I0
sg24
I0
sbssg122
S'_\x0c\x17V\x00H\x8f\xc9x\xe5I\xcb\t\x08\xb9/'
p2903
ssS'user_system_models_users_tests_test_user_profile_update_request_model'
p2904
(dp2905
g116
(dp2906
g646
S'user_system_models_users_tests_test_user_profile_update_request_model.html'
p2907
sg648
S'user_system/models/users/tests/test_user_profile_update_request_model'
p2908
sg650
g13
(g14
g15
NtRp2909
(dp2910
g18
I1
sg19
I0
sg20
I56
sg21
I0
sg22
I0
sg23
I0
sg24
I0
sbssg122
S'U\ng\x0eY\xe2\xc0a\x07f\xb4\x9bFP\x14\x86'
p2911
ssS'user_system_views_users_tests_test_add_role_view'
p2912
(dp2913
g42
(dp2914
g44
S'user_system_views_users_tests_test_add_role_view.html'
p2915
sg46
S'user_system/views/users/tests/test_add_role_view'
p2916
sg48
g13
(g14
g15
NtRp2917
(dp2918
g18
I1
sg19
I0
sg20
I36
sg21
I0
sg22
I0
sg23
I0
sg24
I0
sbssg51
S'\x0eh\xf7\xba\x08_N\xdeM\xdf\x03\xbd\x8c\x8a\x89\xd0'
p2919
ssS'learn_urls'
p2920
(dp2921
g55
(dp2922
g177
S'learn_urls.html'
p2923
sg179
S'learn/urls'
p2924
sg181
g13
(g14
g15
NtRp2925
(dp2926
g18
I1
sg19
I0
sg20
I8
sg21
I0
sg22
I0
sg23
I0
sg24
I0
sbssg64
S'\x1a\xcd\x95\xa0\xd8s\xf6\xb3\x9e\xd7H\xe5*M\xbdG'
p2927
ssS'api_logging___init__'
p2928
(dp2929
g579
(dp2930
g745
S'api_logging___init__.html'
p2931
sg747
S'api_logging/__init__'
p2932
sg749
g13
(g14
g15
NtRp2933
(dp2934
g18
I1
sg19
I0
sg20
I0
sg21
I0
sg22
I0
sg23
I0
sg24
I0
sbssg585
S'\x19g\xdfM\x1a\x019\xaf\x1baIeR\xe5u\xa7'
p2935
ssS'create_views_questions_question_view'
p2936
(dp2937
g42
(dp2938
g257
S'create_views_questions_question_view.html'
p2939
sg259
S'create/views/questions/question_view'
p2940
sg261
g13
(g14
g15
NtRp2941
(dp2942
g18
I1
sg19
I34
sg20
I113
sg21
I0
sg22
I1
sg23
I40
sg24
I21
sbssg51
S'x\x1b\xf3\x9b\x13Z\xdalU\x8bJ\x89\xb3qc\x8d'
p2943
ssS'create_views_quests_tests_test_add_question_view'
p2944
(dp2945
g6
(dp2946
g8
S'create_views_quests_tests_test_add_question_view.html'
p2947
sg10
S'create/views/quests/tests/test_add_question_view'
p2948
sg12
g13
(g14
g15
NtRp2949
(dp2950
g18
I1
sg19
I0
sg20
I0
sg21
I0
sg22
I0
sg23
I0
sg24
I0
sbssg25
S'\x19g\xdfM\x1a\x019\xaf\x1baIeR\xe5u\xa7'
p2951
ssS'create_models_daily_quest_copies___init__'
p2952
(dp2953
g427
(dp2954
g1545
S'create_models_daily_quest_copies___init__.html'
p2955
sg1547
S'create/models/daily_quest_copies/__init__'
p2956
sg1549
g13
(g14
g15
NtRp2957
(dp2958
g18
I1
sg19
I0
sg20
I1
sg21
I0
sg22
I0
sg23
I0
sg24
I0
sbssg436
S'\xee\xef\xb8!Z;\x9e_\xb5g4\xe9\xac@l\xe6'
p2959
ssS'create_models_books_tests___init__'
p2960
(dp2961
g362
(dp2962
g793
S'create_models_books_tests___init__.html'
p2963
sg795
S'create/models/books/tests/__init__'
p2964
sg797
g13
(g14
g15
NtRp2965
(dp2966
g18
I1
sg19
I0
sg20
I0
sg21
I0
sg22
I0
sg23
I0
sg24
I0
sbssg368
S'\x19g\xdfM\x1a\x019\xaf\x1baIeR\xe5u\xa7'
p2967
ssS'privilege_models_privileges___init__'
p2968
(dp2969
g300
(dp2970
g93
S'privilege_models_privileges___init__.html'
p2971
sg95
S'privilege/models/privileges/__init__'
p2972
sg97
g13
(g14
g15
NtRp2973
(dp2974
g18
I1
sg19
I0
sg20
I2
sg21
I0
sg22
I0
sg23
I0
sg24
I0
sbssg306
S'\x14\x97Z\xa7<\xbd\xe6Z\xa0jIA\xc0I\xfd"'
p2975
ssS'user_system_managers_streak_manager'
p2976
(dp2977
g310
(dp2978
g389
S'user_system_managers_streak_manager.html'
p2979
sg391
S'user_system/managers/streak_manager'
p2980
sg393
g13
(g14
g15
NtRp2981
(dp2982
g18
I1
sg19
I30
sg20
I66
sg21
I0
sg22
I2
sg23
I48
sg24
I28
sbssg316
S'9\x9e\xa2\xbd\x80\x8b\xa4\xb3N>\xb8ZsW\xe8\xd0'
p2983
ssS'learn_views_student_news_feed_student_news_feed_view'
p2984
(dp2985
g310
(dp2986
g1106
S'learn_views_student_news_feed_student_news_feed_view.html'
p2987
sg1108
S'learn/views/student_news_feed/student_news_feed_view'
p2988
sg1110
g13
(g14
g15
NtRp2989
(dp2990
g18
I1
sg19
I10
sg20
I38
sg21
I0
sg22
I0
sg23
I22
sg24
I10
sbssg316
S'\xd4\xf5w\x10\xf0\xf4l\x18\x16\xdf\xaf\xd1\x9eM\x0e\xb5'
p2991
ssS'user_system_models_schools_tests_test_academic_year_model'
p2992
(dp2993
g206
(dp2994
g1462
S'user_system_models_schools_tests_test_academic_year_model.html'
p2995
sg1464
S'user_system/models/schools/tests/test_academic_year_model'
p2996
sg1466
g13
(g14
g15
NtRp2997
(dp2998
g18
I1
sg19
I0
sg20
I28
sg21
I0
sg22
I0
sg23
I0
sg24
I0
sbssg215
S'{=\xee\xbc8\xbd\xa7\xdd\x0f!3\xf8\xf0os\xe2'
p2999
ssS'learn_serializers_daily_quests_daily_quest_question_history_serializer'
p3000
(dp3001
g310
(dp3002
g177
S'learn_serializers_daily_quests_daily_quest_question_history_serializer.html'
p3003
sg179
S'learn/serializers/daily_quests/daily_quest_question_history_serializer'
p3004
sg181
g13
(g14
g15
NtRp3005
(dp3006
g18
I1
sg19
I0
sg20
I8
sg21
I0
sg22
I0
sg23
I0
sg24
I0
sbssg316
S'q$\xc8~\x9a\xbb\x03\x1a\x12[aG\x9a\x87\xc6\x0c'
p3007
ssS'api_logging_serializers_modal_loggings___init__'
p3008
(dp3009
g310
(dp3010
g177
S'api_logging_serializers_modal_loggings___init__.html'
p3011
sg179
S'api_logging/serializers/modal_loggings/__init__'
p3012
sg181
g13
(g14
g15
NtRp3013
(dp3014
g18
I1
sg19
I0
sg20
I1
sg21
I0
sg22
I0
sg23
I0
sg24
I0
sbssg316
S'\xff)\x01pU0i\x848\xea\xfc\x08\x0b\x0bS\xa4'
p3015
ssS'user_system_models_schools_grade_model'
p3016
(dp3017
g232
(dp3018
g177
S'user_system_models_schools_grade_model.html'
p3019
sg179
S'user_system/models/schools/grade_model'
p3020
sg181
g13
(g14
g15
NtRp3021
(dp3022
g18
I1
sg19
I0
sg20
I29
sg21
I0
sg22
I0
sg23
I2
sg24
I0
sbssg238
S'\xfdv\xccR\xe0u\x91\x0f\x7f\x03\xcb\xc4y\xc19k'
p3023
ssS'user_system_serializers_schools___init__'
p3024
(dp3025
g55
(dp3026
g31
S'user_system_serializers_schools___init__.html'
p3027
sg33
S'user_system/serializers/schools/__init__'
p3028
sg35
g13
(g14
g15
NtRp3029
(dp3030
g18
I1
sg19
I0
sg20
I5
sg21
I0
sg22
I0
sg23
I0
sg24
I0
sbssg64
S'8yN\xa2\x98\xe3%\xd4\xe2\xfd\xf2@\xcc\xa7\x02\xdb'
p3031
ssS'create_serializers_questions_question_choice_serializer'
p3032
(dp3033
g42
(dp3034
g177
S'create_serializers_questions_question_choice_serializer.html'
p3035
sg179
S'create/serializers/questions/question_choice_serializer'
p3036
sg181
g13
(g14
g15
NtRp3037
(dp3038
g18
I1
sg19
I0
sg20
I10
sg21
I0
sg22
I0
sg23
I0
sg24
I0
sbssg51
S'\xe4\xc0O\xa2\x80M\x05Wf\xdeO=\xf7\xaaT\x95'
p3039
ssS'create_serializers_questions_question_template_serializer'
p3040
(dp3041
g103
(dp3042
g1200
S'create_serializers_questions_question_template_serializer.html'
p3043
sg1202
S'create/serializers/questions/question_template_serializer'
p3044
sg1204
g13
(g14
g15
NtRp3045
(dp3046
g18
I1
sg19
I0
sg20
I43
sg21
I0
sg22
I0
sg23
I9
sg24
I0
sbssg112
S'\x1a\x149\xdb\xb8\xc7\xfc\xb6\xbc\x8b\xfe\x8e~N\xb9J'
p3047
ssS'teach_views_summaries_top_answered_questions_summary_view'
p3048
(dp3049
g310
(dp3050
g389
S'teach_views_summaries_top_answered_questions_summary_view.html'
p3051
sg391
S'teach/views/summaries/top_answered_questions_summary_view'
p3052
sg393
g13
(g14
g15
NtRp3053
(dp3054
g18
I1
sg19
I34
sg20
I77
sg21
I0
sg22
I0
sg23
I54
sg24
I34
sbssg316
S'>\x87\t^\xa4\x99f`\xcc^\xb6\xcb\x8e\xec\nc'
p3055
ssS'user_system_models_apps___init__'
p3056
(dp3057
g42
(dp3058
g462
S'user_system_models_apps___init__.html'
p3059
sg464
S'user_system/models/apps/__init__'
p3060
sg466
g13
(g14
g15
NtRp3061
(dp3062
g18
I1
sg19
I0
sg20
I1
sg21
I0
sg22
I0
sg23
I0
sg24
I0
sbssg51
S'\n\xe9\xce\x15)\x8d\xc6\xdd\xe0\x9b\x990[\xae\x8cl'
p3063
ssS'create_views_books_book_view'
p3064
(dp3065
g362
(dp3066
g8
S'create_views_books_book_view.html'
p3067
sg10
S'create/views/books/book_view'
p3068
sg12
g13
(g14
g15
NtRp3069
(dp3070
g18
I1
sg19
I34
sg20
I124
sg21
I0
sg22
I3
sg23
I8
sg24
I5
sbssg368
S'%\x96\xb2\x15\x98\xef\x0fL\xc0&\xf9\x18\x91-\xb28'
p3071
ssS'create_models_quests___init__'
p3072
(dp3073
g103
(dp3074
g635
S'create_models_quests___init__.html'
p3075
sg637
S'create/models/quests/__init__'
p3076
sg639
g13
(g14
g15
NtRp3077
(dp3078
g18
I1
sg19
I0
sg20
I2
sg21
I0
sg22
I0
sg23
I0
sg24
I0
sbssg112
S'\x1e\x87\x83\xe2\x04\x1d\xcd:`\x99V\x85#\xca\x12^'
p3079
ssS'privilege_serializers_privileges_privilege_serializer'
p3080
(dp3081
g300
(dp3082
g93
S'privilege_serializers_privileges_privilege_serializer.html'
p3083
sg95
S'privilege/serializers/privileges/privilege_serializer'
p3084
sg97
g13
(g14
g15
NtRp3085
(dp3086
g18
I1
sg19
I0
sg20
I7
sg21
I0
sg22
I0
sg23
I0
sg24
I0
sbssg306
S'?v\x87\xf3\x00\x8cw`\xd8\x0b\xeb\x98\x18\xbd\x1dR'
p3087
ssS'user_system_views_signups_hardcoded_tests_test_test_account_view'
p3088
(dp3089
g42
(dp3090
g44
S'user_system_views_signups_hardcoded_tests_test_test_account_view.html'
p3091
sg46
S'user_system/views/signups/hardcoded/tests/test_test_account_view'
p3092
sg48
g13
(g14
g15
NtRp3093
(dp3094
g18
I1
sg19
I0
sg20
I24
sg21
I0
sg22
I0
sg23
I0
sg24
I0
sbssg51
S'@\xc3::\xf8h\x1aT\x9f\x83\xee1\xb7\x9a\xe0\xf9'
p3095
ssS'api_logging_models_query_stat_query_stat_model'
p3096
(dp3097
g255
(dp3098
g257
S'api_logging_models_query_stat_query_stat_model.html'
p3099
sg259
S'api_logging/models/query_stat/query_stat_model'
p3100
sg261
g13
(g14
g15
NtRp3101
(dp3102
g18
I1
sg19
I0
sg20
I9
sg21
I0
sg22
I0
sg23
I0
sg24
I0
sbssg264
S'\xc4\xa8]S\xe4!\r\xe0\xeb\xc1\x8bT[ !B'
p3103
ssS'create_models_tags_concept_model'
p3104
(dp3105
g399
(dp3106
g44
S'create_models_tags_concept_model.html'
p3107
sg46
S'create/models/tags/concept_model'
p3108
sg48
g13
(g14
g15
NtRp3109
(dp3110
g18
I1
sg19
I0
sg20
I10
sg21
I0
sg22
I0
sg23
I0
sg24
I0
sbssg405
S'@vb\xbd\xcay\xb1b\x9e\xaf\xc0v/\xd6\x13\xd3'
p3111
ssS'create_models_tags_tests___init__'
p3112
(dp3113
g399
(dp3114
S'html_filename'
p3115
S'create_models_tags_tests___init__.html'
p3116
sS'name'
p3117
S'create/models/tags/tests/__init__'
p3118
sS'nums'
p3119
g13
(g14
g15
NtRp3120
(dp3121
g18
I1
sg19
I0
sg20
I1
sg21
I0
sg22
I0
sg23
I0
sg24
I0
sbssg405
S'\xbc\xd6\xeb\xb3\xba\xcaz\xf7{\xd4B\xb5}l\xdf\x96'
p3122
ssS'create_serializers_books_book_subchapter_serializer'
p3123
(dp3124
g362
(dp3125
g1200
S'create_serializers_books_book_subchapter_serializer.html'
p3126
sg1202
S'create/serializers/books/book_subchapter_serializer'
p3127
sg1204
g13
(g14
g15
NtRp3128
(dp3129
g18
I1
sg19
I0
sg20
I18
sg21
I0
sg22
I0
sg23
I3
sg24
I0
sbssg368
S'89\x89\x89\xd8\x94\xd2l\x98G]\xad\xe1\xf7\x93\xfc'
p3130
ssS'user_system_views_signups_verify_email_view'
p3131
(dp3132
g42
(dp3133
g44
S'user_system_views_signups_verify_email_view.html'
p3134
sg46
S'user_system/views/signups/verify_email_view'
p3135
sg48
g13
(g14
g15
NtRp3136
(dp3137
g18
I1
sg19
I6
sg20
I26
sg21
I0
sg22
I0
sg23
I0
sg24
I0
sbssg51
S"B+;\xbf\xb1A\x1f\n\x94\x0e\xeb\xd0\xf1Y'l"
p3138
ssS'user_system_models_schools_semester_model'
p3139
(dp3140
g206
(dp3141
g1462
S'user_system_models_schools_semester_model.html'
p3142
sg1464
S'user_system/models/schools/semester_model'
p3143
sg1466
g13
(g14
g15
NtRp3144
(dp3145
g18
I1
sg19
I0
sg20
I23
sg21
I0
sg22
I0
sg23
I0
sg24
I0
sbssg215
S'\x9f&7d<%\x13 \xcaht\xc4\xd4N\xee&'
p3146
ssS'create_views_daily_quest_copies_daily_quest_copy_view'
p3147
(dp3148
g427
(dp3149
g1545
S'create_views_daily_quest_copies_daily_quest_copy_view.html'
p3150
sg1547
S'create/views/daily_quest_copies/daily_quest_copy_view'
p3151
sg1549
g13
(g14
g15
NtRp3152
(dp3153
g18
I1
sg19
I0
sg20
I14
sg21
I0
sg22
I0
sg23
I0
sg24
I0
sbssg436
S'?\x95&\\\xae\xf0@\xfc\x96\xc15\xc9\x13\xf6_R'
p3154
ssS'flipped_helpers_parameters_helper'
p3155
(dp3156
g42
(dp3157
g31
S'flipped_helpers_parameters_helper.html'
p3158
sg33
S'flipped/helpers/parameters_helper'
p3159
sg35
g13
(g14
g15
NtRp3160
(dp3161
g18
I1
sg19
I14
sg20
I22
sg21
I0
sg22
I1
sg23
I4
sg24
I3
sbssg51
S'v\xe1\xf5\xb3r\x1f\xae\xee\x872U\xa1I\xf8\xef\x00'
p3162
ssS'user_system_models___init__'
p3163
(dp3164
g42
(dp3165
g2864
S'user_system_models___init__.html'
p3166
sg2866
S'user_system/models/__init__'
p3167
sg2868
g13
(g14
g15
NtRp3168
(dp3169
g18
I1
sg19
I0
sg20
I4
sg21
I0
sg22
I0
sg23
I0
sg24
I0
sbssg51
S"\xe9'\xed1xn\xd7\xe4\x91\x8ei\xc0\x0f\x1b\x9eY"
p3170
ssS'create_models_questions_tests_test_question_model'
p3171
(dp3172
g42
(dp3173
g1235
S'create_models_questions_tests_test_question_model.html'
p3174
sg1237
S'create/models/questions/tests/test_question_model'
p3175
sg1239
g13
(g14
g15
NtRp3176
(dp3177
g18
I1
sg19
I8
sg20
I58
sg21
I0
sg22
I0
sg23
I0
sg24
I0
sbssg51
S'l\x9e\xee!<,L\xbf\xa0\xe6\r\xd7W\xc9tu'
p3178
ssS'user_system_models_users_tests_test_user_profile_history_model'
p3179
(dp3180
g116
(dp3181
g31
S'user_system_models_users_tests_test_user_profile_history_model.html'
p3182
sg33
S'user_system/models/users/tests/test_user_profile_history_model'
p3183
sg35
g13
(g14
g15
NtRp3184
(dp3185
g18
I1
sg19
I0
sg20
I54
sg21
I0
sg22
I0
sg23
I0
sg24
I0
sbssg122
S'<IT\xa7\x05\xe0ML\xb0gu{\xd2>\xc8$'
p3186
ssS'learn_views___init__'
p3187
(dp3188
g55
(dp3189
g177
S'learn_views___init__.html'
p3190
sg179
S'learn/views/__init__'
p3191
sg181
g13
(g14
g15
NtRp3192
(dp3193
g18
I1
sg19
I0
sg20
I2
sg21
I0
sg22
I0
sg23
I0
sg24
I0
sbssg64
S"?\xc0'\xcb\x1c\xf1\xaa\xf0\x9d\xc7\x0e\xf1\xda\x0eU\x17"
p3194
ssS'create_serializers_questions___init__'
p3195
(dp3196
g42
(dp3197
g177
S'create_serializers_questions___init__.html'
p3198
sg179
S'create/serializers/questions/__init__'
p3199
sg181
g13
(g14
g15
NtRp3200
(dp3201
g18
I1
sg19
I0
sg20
I5
sg21
I0
sg22
I0
sg23
I0
sg24
I0
sbssg51
S'\xe6(4O\xf6\xd4\xe4\x154\xe9\xa1;\x0cD\x90\t'
p3202
ssS'user_system_views_signups_hardcoded_tests___init__'
p3203
(dp3204
g42
(dp3205
g462
S'user_system_views_signups_hardcoded_tests___init__.html'
p3206
sg464
S'user_system/views/signups/hardcoded/tests/__init__'
p3207
sg466
g13
(g14
g15
NtRp3208
(dp3209
g18
I1
sg19
I0
sg20
I0
sg21
I0
sg22
I0
sg23
I0
sg24
I0
sbssg51
S'\x19g\xdfM\x1a\x019\xaf\x1baIeR\xe5u\xa7'
p3210
ssS'create_serializers_questions_question_serializer'
p3211
(dp3212
g42
(dp3213
g93
S'create_serializers_questions_question_serializer.html'
p3214
sg95
S'create/serializers/questions/question_serializer'
p3215
sg97
g13
(g14
g15
NtRp3216
(dp3217
g18
I1
sg19
I0
sg20
I59
sg21
I0
sg22
I0
sg23
I11
sg24
I0
sbssg51
S'\xd6f\xc4\xe6\x97\xe4~\xa4n\xcc+|\xcc\xdayh'
p3218
ssS'user_system_views___init__'
p3219
(dp3220
g42
(dp3221
g31
S'user_system_views___init__.html'
p3222
sg33
S'user_system/views/__init__'
p3223
sg35
g13
(g14
g15
NtRp3224
(dp3225
g18
I1
sg19
I0
sg20
I5
sg21
I0
sg22
I0
sg23
I0
sg24
I0
sbssg51
S'&v35\x98Nv\xc2>un\xb1\x9a\x93\xd2\xea'
p3226
ssS'user_system_views_users_user_profile_update_request_view'
p3227
(dp3228
g116
(dp3229
S'html_filename'
p3230
S'user_system_views_users_user_profile_update_request_view.html'
p3231
sS'name'
p3232
S'user_system/views/users/user_profile_update_request_view'
p3233
sS'nums'
p3234
g13
(g14
g15
NtRp3235
(dp3236
g18
I1
sg19
I24
sg20
I70
sg21
I0
sg22
I0
sg23
I51
sg24
I24
sbssg122
S"\x04\xfd\x81?\x1e<^\xb0%\xad\xa6'\xcf\xa1\xc3)"
p3237
ssS'teach_admin'
p3238
(dp3239
g55
(dp3240
g177
S'teach_admin.html'
p3241
sg179
S'teach/admin'
p3242
sg181
g13
(g14
g15
NtRp3243
(dp3244
g18
I1
sg19
I0
sg20
I6
sg21
I0
sg22
I0
sg23
I0
sg24
I0
sbssg64
S'\xa5$\xa3\xb8$\xe4Z\x9b\xcbO\x9f\xc1\x02b\x95N'
p3245
ssS'user_system_views_roles_user_role_view'
p3246
(dp3247
g42
(dp3248
g44
S'user_system_views_roles_user_role_view.html'
p3249
sg46
S'user_system/views/roles/user_role_view'
p3250
sg48
g13
(g14
g15
NtRp3251
(dp3252
g18
I1
sg19
I8
sg20
I31
sg21
I0
sg22
I0
sg23
I0
sg24
I0
sbssg51
S'S@\xea\xb7\xd6\xe1\x1b\x1dU\x18a\x9d\x80\xe3A\xb9'
p3253
ssS'create_models_questions_tests_test_question_history_remark_model'
p3254
(dp3255
g605
(dp3256
g607
S'create_models_questions_tests_test_question_history_remark_model.html'
p3257
sg609
S'create/models/questions/tests/test_question_history_remark_model'
p3258
sg611
g13
(g14
g15
NtRp3259
(dp3260
g18
I1
sg19
I0
sg20
I30
sg21
I0
sg22
I0
sg23
I0
sg24
I0
sbssg614
S'K>pG_\xbd\x15\x8b\xd8\x05\xd4\x15\xb3\x9b\xcaP'
p3261
ssS'api_logging_serializers___init__'
p3262
(dp3263
g310
(dp3264
g177
S'api_logging_serializers___init__.html'
p3265
sg179
S'api_logging/serializers/__init__'
p3266
sg181
g13
(g14
g15
NtRp3267
(dp3268
g18
I1
sg19
I0
sg20
I2
sg21
I0
sg22
I0
sg23
I0
sg24
I0
sbssg316
S'\x02\xac\xc4\x02\x172\x90\xf3=\xcb\x89>\x99\xbc\x19\xd9'
p3269
ssS'user_system_models_users_tests_test_user_facebook_model'
p3270
(dp3271
g42
(dp3272
g44
S'user_system_models_users_tests_test_user_facebook_model.html'
p3273
sg46
S'user_system/models/users/tests/test_user_facebook_model'
p3274
sg48
g13
(g14
g15
NtRp3275
(dp3276
g18
I1
sg19
I0
sg20
I29
sg21
I0
sg22
I0
sg23
I0
sg24
I0
sbssg51
S'B\xac\x06Z\x1f7\xba2\x81\xd7\xb4\x17\xaf\x84u+'
p3277
ssS'user_system_models_users_user_credentials_model'
p3278
(dp3279
S'index'
p3280
(dp3281
g2101
S'user_system_models_users_user_credentials_model.html'
p3282
sg2103
S'user_system/models/users/user_credentials_model'
p3283
sg2105
g13
(g14
g15
NtRp3284
(dp3285
g18
I1
sg19
I0
sg20
I7
sg21
I0
sg22
I0
sg23
I0
sg24
I0
sbssS'hash'
p3286
S'g\x10U/\x1f\x83\x0bO\x95o\x9c9\xefV\x81\x8e'
p3287
ssS'create_serializers_books___init__'
p3288
(dp3289
g362
(dp3290
g793
S'create_serializers_books___init__.html'
p3291
sg795
S'create/serializers/books/__init__'
p3292
sg797
g13
(g14
g15
NtRp3293
(dp3294
g18
I1
sg19
I0
sg20
I0
sg21
I0
sg22
I0
sg23
I0
sg24
I0
sbssg368
S'\x19g\xdfM\x1a\x019\xaf\x1baIeR\xe5u\xa7'
p3295
ssS'create_models_questions_tests_test_question_template_model'
p3296
(dp3297
g103
(dp3298
g1012
S'create_models_questions_tests_test_question_template_model.html'
p3299
sg1014
S'create/models/questions/tests/test_question_template_model'
p3300
sg1016
g13
(g14
g15
NtRp3301
(dp3302
g18
I1
sg19
I8
sg20
I74
sg21
I0
sg22
I0
sg23
I0
sg24
I0
sbssg112
S"~\xca\x9c'\x89\x11\x82V\xb3v\x0c4]\x9c\xce4"
p3303
ssS'create_views_quests_tests_test_add_question_template_view'
p3304
(dp3305
g6
(dp3306
g8
S'create_views_quests_tests_test_add_question_template_view.html'
p3307
sg10
S'create/views/quests/tests/test_add_question_template_view'
p3308
sg12
g13
(g14
g15
NtRp3309
(dp3310
g18
I1
sg19
I0
sg20
I0
sg21
I0
sg22
I0
sg23
I0
sg24
I0
sbssg25
S'\x19g\xdfM\x1a\x019\xaf\x1baIeR\xe5u\xa7'
p3311
ssS'learn_models_points_tests___init__'
p3312
(dp3313
g310
(dp3314
g177
S'learn_models_points_tests___init__.html'
p3315
sg179
S'learn/models/points/tests/__init__'
p3316
sg181
g13
(g14
g15
NtRp3317
(dp3318
g18
I1
sg19
I0
sg20
I1
sg21
I0
sg22
I0
sg23
I0
sg24
I0
sbssg316
S'\xbc\xd6\xeb\xb3\xba\xcaz\xf7{\xd4B\xb5}l\xdf\x96'
p3319
ssS'create_views_tags_tests_test_hide_tag_view'
p3320
(dp3321
g440
(dp3322
g44
S'create_views_tags_tests_test_hide_tag_view.html'
p3323
sg46
S'create/views/tags/tests/test_hide_tag_view'
p3324
sg48
g13
(g14
g15
NtRp3325
(dp3326
g18
I1
sg19
I0
sg20
I25
sg21
I0
sg22
I0
sg23
I0
sg24
I0
sbssg449
S'\x8a\x07\xe0\xe1Q\x820\x05R\x14E\xd0\xdf\x8e\xc5\x8a'
p3327
ssS'learn_views_daily_quests___init__'
p3328
(dp3329
g55
(dp3330
g57
S'learn_views_daily_quests___init__.html'
p3331
sg59
S'learn/views/daily_quests/__init__'
p3332
sg61
g13
(g14
g15
NtRp3333
(dp3334
g18
I1
sg19
I0
sg20
I1
sg21
I0
sg22
I0
sg23
I0
sg24
I0
sbssg64
S'\xa3\x08\xf3\xbaF\xd5u\x88\x12\xa3V\x05K\xe5\xd0\xa9'
p3335
ssS'create_views_books_tests___init__'
p3336
(dp3337
g955
(dp3338
S'html_filename'
p3339
S'create_views_books_tests___init__.html'
p3340
sS'name'
p3341
S'create/views/books/tests/__init__'
p3342
sS'nums'
p3343
g13
(g14
g15
NtRp3344
(dp3345
g18
I1
sg19
I0
sg20
I0
sg21
I0
sg22
I0
sg23
I0
sg24
I0
sbssg961
S'\x19g\xdfM\x1a\x019\xaf\x1baIeR\xe5u\xa7'
p3346
ssS'user_system_models_users_tests_test_user_streak_history_model'
p3347
(dp3348
S'index'
p3349
(dp3350
g1270
S'user_system_models_users_tests_test_user_streak_history_model.html'
p3351
sg1272
S'user_system/models/users/tests/test_user_streak_history_model'
p3352
sg1274
g13
(g14
g15
NtRp3353
(dp3354
g18
I1
sg19
I0
sg20
I19
sg21
I0
sg22
I0
sg23
I0
sg24
I0
sbssS'hash'
p3355
S'\xc7I1\x11\xc9\xbf7\xee\x1c\x16@\x10JP\xaf\xfc'
p3356
sssS'version'
p3357
S'3.7.1'
p3358
sS'settings'
p3359
S'\x961E{\x0c29\xd1#\x83\xd3j9"\xd8\x10'
p3360
sS'format'
p3361
I1
s.