(dp1
S'files'
p2
(dp3
S'create_views_quests_tests_test_add_tag_view'
p4
(dp5
S'index'
p6
(dp7
S'html_filename'
p8
S'create_views_quests_tests_test_add_tag_view.html'
p9
sS'name'
p10
S'create/views/quests/tests/test_add_tag_view'
p11
sS'nums'
p12
ccopy_reg
_reconstructor
p13
(ccoverage.results
Numbers
p14
c__builtin__
object
p15
NtRp16
(dp17
S'n_files'
p18
I1
sS'n_branches'
p19
I0
sS'n_statements'
p20
I35
sS'n_excluded'
p21
I0
sS'n_partial_branches'
p22
I0
sS'n_missing'
p23
I0
sS'n_missing_branches'
p24
I0
sbssS'hash'
p25
S'o\xbe\xf1\xf9\x80\xe5|\xbab\xcc\xe2F=\x1e\xacp'
p26
ssS'user_system_models_users_teacher_profile_model'
p27
(dp28
S'index'
p29
(dp30
S'html_filename'
p31
S'user_system_models_users_teacher_profile_model.html'
p32
sS'name'
p33
S'user_system/models/users/teacher_profile_model'
p34
sS'nums'
p35
g13
(g14
g15
NtRp36
(dp37
g18
I1
sg19
I0
sg20
I27
sg21
I0
sg22
I0
sg23
I0
sg24
I0
sbssS'hash'
p38
S'x\x9e\x06\xe6\x8d\x87\xed\xaf\x91\x87\x16\xfc"\x96\xf2\xfc'
p39
ssS'user_system_views_signups_facebook_signup_view'
p40
(dp41
S'index'
p42
(dp43
S'html_filename'
p44
S'user_system_views_signups_facebook_signup_view.html'
p45
sS'name'
p46
S'user_system/views/signups/facebook_signup_view'
p47
sS'nums'
p48
g13
(g14
g15
NtRp49
(dp50
g18
I1
sg19
I8
sg20
I38
sg21
I0
sg22
I0
sg23
I0
sg24
I0
sbssS'hash'
p51
S'\x04E\'\x17r8\x14\xf6 \x98\xb5\xa0sx"@'
p52
ssS'teach_models_teacher_tags___init__'
p53
(dp54
S'index'
p55
(dp56
S'html_filename'
p57
S'teach_models_teacher_tags___init__.html'
p58
sS'name'
p59
S'teach/models/teacher_tags/__init__'
p60
sS'nums'
p61
g13
(g14
g15
NtRp62
(dp63
g18
I1
sg19
I0
sg20
I1
sg21
I0
sg22
I0
sg23
I0
sg24
I0
sbssS'hash'
p64
S"\x15#y\x16\x1a\x9d\xc6mE\xccg]\x07\xb9'\xe0"
p65
ssS'user_system_models_roles_tests_test_role_app_model'
p66
(dp67
g42
(dp68
g44
S'user_system_models_roles_tests_test_role_app_model.html'
p69
sg46
S'user_system/models/roles/tests/test_role_app_model'
p70
sg48
g13
(g14
g15
NtRp71
(dp72
g18
I1
sg19
I0
sg20
I21
sg21
I0
sg22
I0
sg23
I0
sg24
I0
sbssg51
S"\x80\xd7v\xbb\xe5d.\xeb\xfd\xc4\x04\xb2\x04'\xc6V"
p73
ssS'teach_models_teacher_chapters___init__'
p74
(dp75
g55
(dp76
g57
S'teach_models_teacher_chapters___init__.html'
p77
sg59
S'teach/models/teacher_chapters/__init__'
p78
sg61
g13
(g14
g15
NtRp79
(dp80
g18
I1
sg19
I0
sg20
I1
sg21
I0
sg22
I0
sg23
I0
sg24
I0
sbssg64
S'\xfa\xce(\x03\x8d\xd7\xc1h\xedT\xf9d\xae\x03w^'
p81
ssS'user_system_views_logins_facebook_login_view'
p82
(dp83
g42
(dp84
g44
S'user_system_views_logins_facebook_login_view.html'
p85
sg46
S'user_system/views/logins/facebook_login_view'
p86
sg48
g13
(g14
g15
NtRp87
(dp88
g18
I1
sg19
I4
sg20
I24
sg21
I0
sg22
I0
sg23
I0
sg24
I0
sbssg51
S',\xf8~\x8d\x9b\xfe\xa6wQ5\x92t\x15\xe5\x95\x8d'
p89
ssS'create_serializers_questions_question_history_serializer'
p90
(dp91
g42
(dp92
S'html_filename'
p93
S'create_serializers_questions_question_history_serializer.html'
p94
sS'name'
p95
S'create/serializers/questions/question_history_serializer'
p96
sS'nums'
p97
g13
(g14
g15
NtRp98
(dp99
g18
I1
sg19
I2
sg20
I30
sg21
I0
sg22
I0
sg23
I11
sg24
I2
sbssg51
S'\x86\x8d\x01\x05\xb2\xf0\xd7\xa2"}\x93\x9c\xb3$\x08\x86'
p100
ssS'create_serializers_quests_quest_history_serializer'
p101
(dp102
S'index'
p103
(dp104
S'html_filename'
p105
S'create_serializers_quests_quest_history_serializer.html'
p106
sS'name'
p107
S'create/serializers/quests/quest_history_serializer'
p108
sS'nums'
p109
g13
(g14
g15
NtRp110
(dp111
g18
I1
sg19
I0
sg20
I38
sg21
I0
sg22
I0
sg23
I15
sg24
I0
sbssS'hash'
p112
S'\x0c\x10\x81\x11\xc3\xff\x01\x8d<#\xe5~\x84\xec\x18\xfd'
p113
ssS'user_system_models_users_tests_test_student_profile_request_model'
p114
(dp115
S'index'
p116
(dp117
g31
S'user_system_models_users_tests_test_student_profile_request_model.html'
p118
sg33
S'user_system/models/users/tests/test_student_profile_request_model'
p119
sg35
g13
(g14
g15
NtRp120
(dp121
g18
I1
sg19
I0
sg20
I42
sg21
I0
sg22
I0
sg23
I0
sg24
I0
sbssS'hash'
p122
S'\x0c4FG\x9bD\x9e\xaa\xb9a\xd6\xee\xc6&0T'
p123
ssS'create_views_books_tests_test_add_chapter_view'
p124
(dp125
S'index'
p126
(dp127
g44
S'create_views_books_tests_test_add_chapter_view.html'
p128
sg46
S'create/views/books/tests/test_add_chapter_view'
p129
sg48
g13
(g14
g15
NtRp130
(dp131
g18
I1
sg19
I0
sg20
I69
sg21
I0
sg22
I0
sg23
I0
sg24
I0
sbssS'hash'
p132
S'\xea\xcd\x81\xff\xe6p74\xe3\xab\xc2R\x1aZ#Y'
p133
ssS'teach_models_teacher_chapters_tests_test_teacher_chapter_model'
p134
(dp135
g55
(dp136
g57
S'teach_models_teacher_chapters_tests_test_teacher_chapter_model.html'
p137
sg59
S'teach/models/teacher_chapters/tests/test_teacher_chapter_model'
p138
sg61
g13
(g14
g15
NtRp139
(dp140
g18
I1
sg19
I0
sg20
I28
sg21
I0
sg22
I0
sg23
I0
sg24
I0
sbssg64
S'm\xb2B\x1a\x04\xa5\x94N\xbe\xb6\xfa\xa9\x16J\x10\x92'
p141
ssS'create_serializers_question_datasets___init__'
p142
(dp143
S'index'
p144
(dp145
S'html_filename'
p146
S'create_serializers_question_datasets___init__.html'
p147
sS'name'
p148
S'create/serializers/question_datasets/__init__'
p149
sS'nums'
p150
g13
(g14
g15
NtRp151
(dp152
g18
I1
sg19
I0
sg20
I1
sg21
I0
sg22
I0
sg23
I0
sg24
I0
sbssS'hash'
p153
S'Z\xf8\x02Tc\xc1C;<_\x87\xc6\xc2H\xa6\xdc'
p154
ssS'user_system_models_users_user_profile_model'
p155
(dp156
g42
(dp157
g93
S'user_system_models_users_user_profile_model.html'
p158
sg95
S'user_system/models/users/user_profile_model'
p159
sg97
g13
(g14
g15
NtRp160
(dp161
g18
I1
sg19
I48
sg20
I181
sg21
I0
sg22
I0
sg23
I43
sg24
I16
sbssg51
S'\x9a\x0c\x9di8\t\xcfZ\xb2AL*\x8f\xa9O\xaa'
p162
ssS'create_models_question_datasets_tests_test_question_dataset_model'
p163
(dp164
g144
(dp165
g146
S'create_models_question_datasets_tests_test_question_dataset_model.html'
p166
sg148
S'create/models/question_datasets/tests/test_question_dataset_model'
p167
sg150
g13
(g14
g15
NtRp168
(dp169
g18
I1
sg19
I2
sg20
I39
sg21
I0
sg22
I0
sg23
I0
sg24
I0
sbssg153
S'!\t\x88\xfc\x0f\xaa\x0c\x88\xe3\xf9\x04\xd1\\0w\xf1'
p170
ssS'user_system_models_users___init__'
p171
(dp172
g42
(dp173
g93
S'user_system_models_users___init__.html'
p174
sg95
S'user_system/models/users/__init__'
p175
sg97
g13
(g14
g15
NtRp176
(dp177
g18
I1
sg19
I0
sg20
I11
sg21
I0
sg22
I0
sg23
I0
sg24
I0
sbssg51
S'\x81\xefKrW:\x98\xa0\xfbl\x17\xe1E\xb8..'
p178
ssS'teach_urls'
p179
(dp180
g55
(dp181
g93
S'teach_urls.html'
p182
sg95
S'teach/urls'
p183
sg97
g13
(g14
g15
NtRp184
(dp185
g18
I1
sg19
I0
sg20
I13
sg21
I0
sg22
I0
sg23
I0
sg24
I0
sbssg64
S'\xa3\xf8jq.\x0b`\xfb7B\x9b\xc0s\x91\x9b\x9a'
p186
ssS'learn_serializers_daily_quests___init__'
p187
(dp188
g55
(dp189
g93
S'learn_serializers_daily_quests___init__.html'
p190
sg95
S'learn/serializers/daily_quests/__init__'
p191
sg97
g13
(g14
g15
NtRp192
(dp193
g18
I1
sg19
I0
sg20
I2
sg21
I0
sg22
I0
sg23
I0
sg24
I0
sbssg64
S'\x8e\x0b\xa4\xc1x\xdb]\xcc\xf6 \x7f\xbeO\x91\xca@'
p194
ssS'user_system_models_schools___init__'
p195
(dp196
S'index'
p197
(dp198
S'html_filename'
p199
S'user_system_models_schools___init__.html'
p200
sS'name'
p201
S'user_system/models/schools/__init__'
p202
sS'nums'
p203
g13
(g14
g15
NtRp204
(dp205
g18
I1
sg19
I0
sg20
I6
sg21
I0
sg22
I0
sg23
I0
sg24
I0
sbssS'hash'
p206
S'\xbe\xc9\xb2f\x05\x1f\xe6\xee\xef\x01#\xe8\x16\xc2\x83\xdb'
p207
ssS'create_views_questions_tests_test_remove_tag_view'
p208
(dp209
S'index'
p210
(dp211
S'html_filename'
p212
S'create_views_questions_tests_test_remove_tag_view.html'
p213
sS'name'
p214
S'create/views/questions/tests/test_remove_tag_view'
p215
sS'nums'
p216
g13
(g14
g15
NtRp217
(dp218
g18
I1
sg19
I0
sg20
I36
sg21
I0
sg22
I0
sg23
I0
sg24
I0
sbssS'hash'
p219
S'\xbdV1EN\xfe\x8e;\xe4\x92\x91r\xd6Q\x03\x80'
p220
ssS'user_system_models_users_tests_test_student_profile_model'
p221
(dp222
S'index'
p223
(dp224
g93
S'user_system_models_users_tests_test_student_profile_model.html'
p225
sg95
S'user_system/models/users/tests/test_student_profile_model'
p226
sg97
g13
(g14
g15
NtRp227
(dp228
g18
I1
sg19
I0
sg20
I48
sg21
I0
sg22
I0
sg23
I0
sg24
I0
sbssS'hash'
p229
S'\n_\xb5B0\x1dR\x0b\x16i\x1fy.Z\x14#'
p230
ssS'create_views_daily_quest_templates___init__'
p231
(dp232
S'index'
p233
(dp234
S'html_filename'
p235
S'create_views_daily_quest_templates___init__.html'
p236
sS'name'
p237
S'create/views/daily_quest_templates/__init__'
p238
sS'nums'
p239
g13
(g14
g15
NtRp240
(dp241
g18
I1
sg19
I0
sg20
I1
sg21
I0
sg22
I0
sg23
I0
sg24
I0
sbssS'hash'
p242
S'\xc1b\x1f\x95\xabR`C\xe80\xb9tNC\r3'
p243
ssS'learn___init__'
p244
(dp245
g55
(dp246
g57
S'learn___init__.html'
p247
sg59
S'learn/__init__'
p248
sg61
g13
(g14
g15
NtRp249
(dp250
g18
I1
sg19
I0
sg20
I0
sg21
I0
sg22
I0
sg23
I0
sg24
I0
sbssg64
S'\x19g\xdfM\x1a\x019\xaf\x1baIeR\xe5u\xa7'
p251
ssS'create_serializers_quests___init__'
p252
(dp253
g103
(dp254
g31
S'create_serializers_quests___init__.html'
p255
sg33
S'create/serializers/quests/__init__'
p256
sg35
g13
(g14
g15
NtRp257
(dp258
g18
I1
sg19
I0
sg20
I2
sg21
I0
sg22
I0
sg23
I0
sg24
I0
sbssg112
S'\xc0,Fh\xaf\xa0(\x8f\xde\x02{\x88!\x04\x7f\xb6'
p259
ssS'teach_views_teacher_chapters___init__'
p260
(dp261
g55
(dp262
g57
S'teach_views_teacher_chapters___init__.html'
p263
sg59
S'teach/views/teacher_chapters/__init__'
p264
sg61
g13
(g14
g15
NtRp265
(dp266
g18
I1
sg19
I0
sg20
I1
sg21
I0
sg22
I0
sg23
I0
sg24
I0
sbssg64
S'\x10AP\xc9\nC\xd2REz\xf6\xe5\xd2(\xee`'
p267
ssS'user_system_models_users_student_profile_request_model'
p268
(dp269
g116
(dp270
g31
S'user_system_models_users_student_profile_request_model.html'
p271
sg33
S'user_system/models/users/student_profile_request_model'
p272
sg35
g13
(g14
g15
NtRp273
(dp274
g18
I1
sg19
I0
sg20
I45
sg21
I0
sg22
I0
sg23
I0
sg24
I0
sbssg122
S'\xeeZA}\xa0\xf5\x88k0a2\x9fS\xf3}\x05'
p275
ssS'user_system_views_users_teacher_mapping_view'
p276
(dp277
S'index'
p278
(dp279
g93
S'user_system_views_users_teacher_mapping_view.html'
p280
sg95
S'user_system/views/users/teacher_mapping_view'
p281
sg97
g13
(g14
g15
NtRp282
(dp283
g18
I1
sg19
I0
sg20
I14
sg21
I0
sg22
I0
sg23
I0
sg24
I0
sbssS'hash'
p284
S'B\x04t\x93Z\x86Q.\x17\xf9\xa0*\xf6\x86\xcf\x10'
p285
ssS'create_views_tags_tests_test_search_tag_view'
p286
(dp287
S'index'
p288
(dp289
g93
S'create_views_tags_tests_test_search_tag_view.html'
p290
sg95
S'create/views/tags/tests/test_search_tag_view'
p291
sg97
g13
(g14
g15
NtRp292
(dp293
g18
I1
sg19
I0
sg20
I22
sg21
I0
sg22
I0
sg23
I2
sg24
I0
sbssS'hash'
p294
S'\xe9\x8ch\xa7\xe3\xb7<\xee\xb7\xe7x6CT\xf5\x02'
p295
ssS'create_views_questions_tests_test_hide_question_view'
p296
(dp297
g42
(dp298
g44
S'create_views_questions_tests_test_hide_question_view.html'
p299
sg46
S'create/views/questions/tests/test_hide_question_view'
p300
sg48
g13
(g14
g15
NtRp301
(dp302
g18
I1
sg19
I0
sg20
I30
sg21
I0
sg22
I0
sg23
I0
sg24
I0
sbssg51
S'\xb3\x10S\x8a\x9b\xecw\xaa\xd3\x81\x1b\xf2\xab\xb2QG'
p303
ssS'user_system_serializers_users_student_profile_request_serializer'
p304
(dp305
g116
(dp306
g31
S'user_system_serializers_users_student_profile_request_serializer.html'
p307
sg33
S'user_system/serializers/users/student_profile_request_serializer'
p308
sg35
g13
(g14
g15
NtRp309
(dp310
g18
I1
sg19
I0
sg20
I8
sg21
I0
sg22
I0
sg23
I0
sg24
I0
sbssg122
S'\xa9VJ\x07M\x02\xee$\t\xc8O\xc43$\x1a-'
p311
ssS'create_views_question_datasets_question_dataset_view'
p312
(dp313
g144
(dp314
g146
S'create_views_question_datasets_question_dataset_view.html'
p315
sg148
S'create/views/question_datasets/question_dataset_view'
p316
sg150
g13
(g14
g15
NtRp317
(dp318
g18
I1
sg19
I4
sg20
I20
sg21
I0
sg22
I0
sg23
I5
sg24
I4
sbssg153
S'\x01\xfb\xf2\x86m\xd4\xf9\xc3\xe6\xb6\x11\x96u;\x1ez'
p319
ssS'teach_models_campaigns___init__'
p320
(dp321
g116
(dp322
g31
S'teach_models_campaigns___init__.html'
p323
sg33
S'teach/models/campaigns/__init__'
p324
sg35
g13
(g14
g15
NtRp325
(dp326
g18
I1
sg19
I0
sg20
I1
sg21
I0
sg22
I0
sg23
I0
sg24
I0
sbssg122
S'\xba\x82\x818\x88\xe0\xf2#\xe9\x89\xffso\xdc\xe6\xd4'
p327
ssS'create_serializers_books_book_chapter_serializer'
p328
(dp329
S'index'
p330
(dp331
g57
S'create_serializers_books_book_chapter_serializer.html'
p332
sg59
S'create/serializers/books/book_chapter_serializer'
p333
sg61
g13
(g14
g15
NtRp334
(dp335
g18
I1
sg19
I0
sg20
I23
sg21
I0
sg22
I0
sg23
I3
sg24
I0
sbssS'hash'
p336
S'\xf1~, f\x89\xad\xc8p\xcc\xd4E_\x0b3\x06'
p337
ssS'api_logging_models_api_logging_api_logging_model'
p338
(dp339
g278
(dp340
g93
S'api_logging_models_api_logging_api_logging_model.html'
p341
sg95
S'api_logging/models/api_logging/api_logging_model'
p342
sg97
g13
(g14
g15
NtRp343
(dp344
g18
I1
sg19
I0
sg20
I21
sg21
I0
sg22
I0
sg23
I0
sg24
I0
sbssg284
S'\x0c\x96WFX%\xe9\xcf+\xcf\xc2s\xa7a1\xbd'
p345
ssS'user_system_urls'
p346
(dp347
g42
(dp348
g93
S'user_system_urls.html'
p349
sg95
S'user_system/urls'
p350
sg97
g13
(g14
g15
NtRp351
(dp352
g18
I1
sg19
I0
sg20
I17
sg21
I0
sg22
I0
sg23
I0
sg24
I0
sbssg51
S'SKXe\xb2\x8f\xd8\xdc\xf3\x99\xa6\x9e.\x82\x96\xe9'
p353
ssS'create_models_tags_tests_test_tag_type_model'
p354
(dp355
S'index'
p356
(dp357
g44
S'create_models_tags_tests_test_tag_type_model.html'
p358
sg46
S'create/models/tags/tests/test_tag_type_model'
p359
sg48
g13
(g14
g15
NtRp360
(dp361
g18
I1
sg19
I0
sg20
I17
sg21
I0
sg22
I0
sg23
I0
sg24
I0
sbssS'hash'
p362
S'?6\xfcg\xce\x11\x1a7E\xaf\xb2\x02\t"\xddA'
p363
ssS'create_models_quests_quest_history_model'
p364
(dp365
g103
(dp366
g8
S'create_models_quests_quest_history_model.html'
p367
sg10
S'create/models/quests/quest_history_model'
p368
sg12
g13
(g14
g15
NtRp369
(dp370
g18
I1
sg19
I8
sg20
I75
sg21
I0
sg22
I3
sg23
I4
sg24
I3
sbssg112
S'@\xe7\xfa\x02?w\xe7\x93\xa3\x85\x0f\x0fz\xf0\xdbR'
p371
ssS'create_models_daily_quest_copies_daily_quest_copy_model'
p372
(dp373
S'index'
p374
(dp375
S'html_filename'
p376
S'create_models_daily_quest_copies_daily_quest_copy_model.html'
p377
sS'name'
p378
S'create/models/daily_quest_copies/daily_quest_copy_model'
p379
sS'nums'
p380
g13
(g14
g15
NtRp381
(dp382
g18
I1
sg19
I6
sg20
I47
sg21
I0
sg22
I0
sg23
I14
sg24
I6
sbssS'hash'
p383
S'\x90\xa7\xba\xee\x88\xf84\xf7\xd1B\x9b9@\\\x80P'
p384
ssS'create_views_tags_tests___init__'
p385
(dp386
S'index'
p387
(dp388
S'html_filename'
p389
S'create_views_tags_tests___init__.html'
p390
sS'name'
p391
S'create/views/tags/tests/__init__'
p392
sS'nums'
p393
g13
(g14
g15
NtRp394
(dp395
g18
I1
sg19
I0
sg20
I0
sg21
I0
sg22
I0
sg23
I0
sg24
I0
sbssS'hash'
p396
S'\x19g\xdfM\x1a\x019\xaf\x1baIeR\xe5u\xa7'
p397
ssS'user_system_models_apps_app_model'
p398
(dp399
g42
(dp400
g44
S'user_system_models_apps_app_model.html'
p401
sg46
S'user_system/models/apps/app_model'
p402
sg48
g13
(g14
g15
NtRp403
(dp404
g18
I1
sg19
I0
sg20
I16
sg21
I0
sg22
I0
sg23
I0
sg24
I0
sbssg51
S',\x89\x9d;<\xa3\xdc\x92@\xa5\x9c\x7fcg\x05?'
p405
ssS'user_system_views_apps_tests___init__'
p406
(dp407
g42
(dp408
S'html_filename'
p409
S'user_system_views_apps_tests___init__.html'
p410
sS'name'
p411
S'user_system/views/apps/tests/__init__'
p412
sS'nums'
p413
g13
(g14
g15
NtRp414
(dp415
g18
I1
sg19
I0
sg20
I0
sg21
I0
sg22
I0
sg23
I0
sg24
I0
sbssg51
S'\x19g\xdfM\x1a\x019\xaf\x1baIeR\xe5u\xa7'
p416
ssS'create_views_books___init__'
p417
(dp418
g330
(dp419
S'html_filename'
p420
S'create_views_books___init__.html'
p421
sS'name'
p422
S'create/views/books/__init__'
p423
sS'nums'
p424
g13
(g14
g15
NtRp425
(dp426
g18
I1
sg19
I0
sg20
I3
sg21
I0
sg22
I0
sg23
I0
sg24
I0
sbssg336
S'\xce\x13\xc8S|wF\xe3\x148\xa0?ez,\xc4'
p427
ssS'create_models_books_book_chapter_model'
p428
(dp429
g330
(dp430
g31
S'create_models_books_book_chapter_model.html'
p431
sg33
S'create/models/books/book_chapter_model'
p432
sg35
g13
(g14
g15
NtRp433
(dp434
g18
I1
sg19
I8
sg20
I58
sg21
I0
sg22
I1
sg23
I3
sg24
I3
sbssg336
S'5h\xa3E\x99\xf4H\x97\xbf\x08?=+K\xe7\xad'
p435
ssS'user_system_admin'
p436
(dp437
g42
(dp438
g93
S'user_system_admin.html'
p439
sg95
S'user_system/admin'
p440
sg97
g13
(g14
g15
NtRp441
(dp442
g18
I1
sg19
I0
sg20
I25
sg21
I0
sg22
I0
sg23
I0
sg24
I0
sbssg51
S',\xc1@k;\x98\x80\xb5\xbc\xab\x11\xf3\xdc\x0b\xd1U'
p443
ssS'user_system_serializers_users_teacher_profile_serializer'
p444
(dp445
g116
(dp446
g31
S'user_system_serializers_users_teacher_profile_serializer.html'
p447
sg33
S'user_system/serializers/users/teacher_profile_serializer'
p448
sg35
g13
(g14
g15
NtRp449
(dp450
g18
I1
sg19
I4
sg20
I20
sg21
I0
sg22
I0
sg23
I9
sg24
I4
sbssg122
S'\xe2\xa5\xba\xd6e\xc2\x88\xab\xaes\x15\x08\xa9ta\xd6'
p451
ssS'user_system_models_users_tests___init__'
p452
(dp453
g42
(dp454
g409
S'user_system_models_users_tests___init__.html'
p455
sg411
S'user_system/models/users/tests/__init__'
p456
sg413
g13
(g14
g15
NtRp457
(dp458
g18
I1
sg19
I0
sg20
I0
sg21
I0
sg22
I0
sg23
I0
sg24
I0
sbssg51
S'\x19g\xdfM\x1a\x019\xaf\x1baIeR\xe5u\xa7'
p459
ssS'user_system_models_users_user_profile_picture_model'
p460
(dp461
g116
(dp462
g31
S'user_system_models_users_user_profile_picture_model.html'
p463
sg33
S'user_system/models/users/user_profile_picture_model'
p464
sg35
g13
(g14
g15
NtRp465
(dp466
g18
I1
sg19
I0
sg20
I18
sg21
I0
sg22
I0
sg23
I0
sg24
I0
sbssg122
S'$E\xff\xf5f,\xb2\xc7\xb4\x9b*\x0es|s\xcc'
p467
ssS'teach_models_teacher_tags_teacher_tag_model'
p468
(dp469
g55
(dp470
g57
S'teach_models_teacher_tags_teacher_tag_model.html'
p471
sg59
S'teach/models/teacher_tags/teacher_tag_model'
p472
sg61
g13
(g14
g15
NtRp473
(dp474
g18
I1
sg19
I0
sg20
I30
sg21
I0
sg22
I0
sg23
I0
sg24
I0
sbssg64
S'\\\xb6A\xa8\xa7\x93\x16K\xceQ>\xe8t\xdb<#'
p475
ssS'teach_models_daily_quest_templates_daily_quest_template_model'
p476
(dp477
g55
(dp478
g93
S'teach_models_daily_quest_templates_daily_quest_template_model.html'
p479
sg95
S'teach/models/daily_quest_templates/daily_quest_template_model'
p480
sg97
g13
(g14
g15
NtRp481
(dp482
g18
I1
sg19
I0
sg20
I32
sg21
I0
sg22
I0
sg23
I1
sg24
I0
sbssg64
S"\xf8\xcd\xe9T\xea\x98\xb1\xcb\xd1\xfe\xdca\xa4b'`"
p483
ssS'create_views_books_tests_test_add_subchapter_view'
p484
(dp485
S'index'
p486
(dp487
g44
S'create_views_books_tests_test_add_subchapter_view.html'
p488
sg46
S'create/views/books/tests/test_add_subchapter_view'
p489
sg48
g13
(g14
g15
NtRp490
(dp491
g18
I1
sg19
I0
sg20
I60
sg21
I0
sg22
I0
sg23
I0
sg24
I0
sbssS'hash'
p492
S"\xcc^2\xc4\xf2\xb1\xdc\xe8\xf0t\xb6\xcc\x1f\xce\xf1'"
p493
ssS'create_models_quests_quest_model'
p494
(dp495
g103
(dp496
S'html_filename'
p497
S'create_models_quests_quest_model.html'
p498
sS'name'
p499
S'create/models/quests/quest_model'
p500
sS'nums'
p501
g13
(g14
g15
NtRp502
(dp503
g18
I1
sg19
I4
sg20
I59
sg21
I0
sg22
I0
sg23
I13
sg24
I4
sbssg112
S'^g\x1e\x82\xee1[\xc0\xbe\x04\xca\xb1`M\xe7\xe9'
p504
ssS'user_system_views_users_tests_test_remove_role_view'
p505
(dp506
g42
(dp507
g44
S'user_system_views_users_tests_test_remove_role_view.html'
p508
sg46
S'user_system/views/users/tests/test_remove_role_view'
p509
sg48
g13
(g14
g15
NtRp510
(dp511
g18
I1
sg19
I0
sg20
I42
sg21
I0
sg22
I0
sg23
I0
sg24
I0
sbssg51
S'\xfb\x9b\xa3\xe5\x90\xe7q99\x19\x10"<@L\x8c'
p512
ssS'learn_views_daily_quests_daily_quest_view'
p513
(dp514
g55
(dp515
g93
S'learn_views_daily_quests_daily_quest_view.html'
p516
sg95
S'learn/views/daily_quests/daily_quest_view'
p517
sg97
g13
(g14
g15
NtRp518
(dp519
g18
I1
sg19
I16
sg20
I61
sg21
I0
sg22
I0
sg23
I40
sg24
I16
sbssg64
S'\xceiA\x93\xcd>Y\x85L\x07Oz\x9aw\xae;'
p520
ssS'create_models_tags_tests_test_tag_history_model'
p521
(dp522
S'index'
p523
(dp524
g57
S'create_models_tags_tests_test_tag_history_model.html'
p525
sg59
S'create/models/tags/tests/test_tag_history_model'
p526
sg61
g13
(g14
g15
NtRp527
(dp528
g18
I1
sg19
I0
sg20
I58
sg21
I0
sg22
I0
sg23
I0
sg24
I0
sbssS'hash'
p529
S"\x05Y\xa9\xba\xf0\xa8\xd2*7_\xcb]\xfb*#'"
p530
ssS'teach_views_teacher_news_feed___init__'
p531
(dp532
g278
(dp533
g93
S'teach_views_teacher_news_feed___init__.html'
p534
sg95
S'teach/views/teacher_news_feed/__init__'
p535
sg97
g13
(g14
g15
NtRp536
(dp537
g18
I1
sg19
I0
sg20
I1
sg21
I0
sg22
I0
sg23
I0
sg24
I0
sbssg284
S'\xe8\xcd\xf3\x9f\xa3=;`\xf0oZ\xcb!\x98\xac\x1c'
p538
ssS'create_views_daily_quest_templates_daily_quest_template_view'
p539
(dp540
g233
(dp541
g235
S'create_views_daily_quest_templates_daily_quest_template_view.html'
p542
sg237
S'create/views/daily_quest_templates/daily_quest_template_view'
p543
sg239
g13
(g14
g15
NtRp544
(dp545
g18
I1
sg19
I4
sg20
I20
sg21
I0
sg22
I0
sg23
I5
sg24
I4
sbssg242
S'*(w\xa3\x82\x06\xe8D\x8c\xaa+3\xbc\xe3\xa5\x1d'
p546
ssS'create_models_questions_question_history_remark_model'
p547
(dp548
S'index'
p549
(dp550
S'html_filename'
p551
S'create_models_questions_question_history_remark_model.html'
p552
sS'name'
p553
S'create/models/questions/question_history_remark_model'
p554
sS'nums'
p555
g13
(g14
g15
NtRp556
(dp557
g18
I1
sg19
I0
sg20
I27
sg21
I0
sg22
I0
sg23
I0
sg24
I0
sbssS'hash'
p558
S'\xac"G5\x1c\xf2\xef\xa9\x1dUd\xce4.\xac\xa4'
p559
ssS'learn_serializers___init__'
p560
(dp561
g55
(dp562
g57
S'learn_serializers___init__.html'
p563
sg59
S'learn/serializers/__init__'
p564
sg61
g13
(g14
g15
NtRp565
(dp566
g18
I1
sg19
I0
sg20
I1
sg21
I0
sg22
I0
sg23
I0
sg24
I0
sbssg64
S'cLP\xd9\xc0\x91mD\xa3\xd2\xbczr\xdak\xf4'
p567
ssS'user_system_views_schools___init__'
p568
(dp569
g116
(dp570
g31
S'user_system_views_schools___init__.html'
p571
sg33
S'user_system/views/schools/__init__'
p572
sg35
g13
(g14
g15
NtRp573
(dp574
g18
I1
sg19
I0
sg20
I2
sg21
I0
sg22
I0
sg23
I0
sg24
I0
sbssg122
S'\x85\xe2\x7f\xa7\xac\x16HY\x8b\x10\x9b\xc0r\x17|\x8c'
p575
ssS'create_views_quests___init__'
p576
(dp577
g103
(dp578
S'html_filename'
p579
S'create_views_quests___init__.html'
p580
sS'name'
p581
S'create/views/quests/__init__'
p582
sS'nums'
p583
g13
(g14
g15
NtRp584
(dp585
g18
I1
sg19
I0
sg20
I1
sg21
I0
sg22
I0
sg23
I0
sg24
I0
sbssg112
S'\x8d\x97\x8c^6\xf0o\xc3_\x8dRQ}\xd2]a'
p586
ssS'user_system_models_schools_tests_test_course_model'
p587
(dp588
g223
(dp589
g93
S'user_system_models_schools_tests_test_course_model.html'
p590
sg95
S'user_system/models/schools/tests/test_course_model'
p591
sg97
g13
(g14
g15
NtRp592
(dp593
g18
I1
sg19
I0
sg20
I26
sg21
I0
sg22
I0
sg23
I0
sg24
I0
sbssg229
S'5(h\xed\xfd\xee\x1b%Kox\xfa?w\xc6D'
p594
ssS'create_models_question_datasets_tests___init__'
p595
(dp596
g144
(dp597
g146
S'create_models_question_datasets_tests___init__.html'
p598
sg148
S'create/models/question_datasets/tests/__init__'
p599
sg150
g13
(g14
g15
NtRp600
(dp601
g18
I1
sg19
I0
sg20
I0
sg21
I0
sg22
I0
sg23
I0
sg24
I0
sbssg153
S'\x19g\xdfM\x1a\x019\xaf\x1baIeR\xe5u\xa7'
p602
ssS'api_logging_models_modal_logging_modal_model'
p603
(dp604
g278
(dp605
g93
S'api_logging_models_modal_logging_modal_model.html'
p606
sg95
S'api_logging/models/modal_logging/modal_model'
p607
sg97
g13
(g14
g15
NtRp608
(dp609
g18
I1
sg19
I0
sg20
I19
sg21
I0
sg22
I0
sg23
I5
sg24
I0
sbssg284
S'\x0f\x1e\xac\x00_hQ\xcb\xa2\xa8\xf4@\xb9\x97\x9c\x1e'
p610
ssS'user_system_views_signups_hardcoded_test_account_view'
p611
(dp612
g42
(dp613
g44
S'user_system_views_signups_hardcoded_test_account_view.html'
p614
sg46
S'user_system/views/signups/hardcoded/test_account_view'
p615
sg48
g13
(g14
g15
NtRp616
(dp617
g18
I1
sg19
I2
sg20
I18
sg21
I0
sg22
I0
sg23
I0
sg24
I0
sbssg51
S"\xb4\xf1\xfdH\x8f\xf1QX7'\\\xd3\xab.\xbc\x80"
p618
ssS'user_system_views_users_create_student_view'
p619
(dp620
g278
(dp621
g93
S'user_system_views_users_create_student_view.html'
p622
sg95
S'user_system/views/users/create_student_view'
p623
sg97
g13
(g14
g15
NtRp624
(dp625
g18
I1
sg19
I2
sg20
I37
sg21
I0
sg22
I0
sg23
I24
sg24
I2
sbssg284
S'\x8e\xce\xac\xe9\xe3J4\xbb\x88$\xefFS\x06Ow'
p626
ssS'teach_serializers_teacher_tags___init__'
p627
(dp628
g55
(dp629
g57
S'teach_serializers_teacher_tags___init__.html'
p630
sg59
S'teach/serializers/teacher_tags/__init__'
p631
sg61
g13
(g14
g15
NtRp632
(dp633
g18
I1
sg19
I0
sg20
I1
sg21
I0
sg22
I0
sg23
I0
sg24
I0
sbssg64
S'Q\xc1\xe2\xf5*\x8fJ\xddv\xe7\x91\xd1S\xf5\xa9\xa3'
p634
ssS'learn_models_daily_quests_tests___init__'
p635
(dp636
g55
(dp637
g57
S'learn_models_daily_quests_tests___init__.html'
p638
sg59
S'learn/models/daily_quests/tests/__init__'
p639
sg61
g13
(g14
g15
NtRp640
(dp641
g18
I1
sg19
I0
sg20
I1
sg21
I0
sg22
I0
sg23
I0
sg24
I0
sbssg64
S'\xbc\xd6\xeb\xb3\xba\xcaz\xf7{\xd4B\xb5}l\xdf\x96'
p642
ssS'user_system_views_signups___init__'
p643
(dp644
g42
(dp645
g409
S'user_system_views_signups___init__.html'
p646
sg411
S'user_system/views/signups/__init__'
p647
sg413
g13
(g14
g15
NtRp648
(dp649
g18
I1
sg19
I0
sg20
I4
sg21
I0
sg22
I0
sg23
I0
sg24
I0
sbssg51
S'\x02\x1d\x90mQ#+\xc5\x93\xdb\xa4Hs\xcf\xa8\x97'
p650
ssS'create_views_tags_tag_view'
p651
(dp652
g387
(dp653
g105
S'create_views_tags_tag_view.html'
p654
sg107
S'create/views/tags/tag_view'
p655
sg109
g13
(g14
g15
NtRp656
(dp657
g18
I1
sg19
I32
sg20
I92
sg21
I0
sg22
I8
sg23
I13
sg24
I16
sbssg396
S'\xd5\xd6\xf9\xa6U<\xf82\xe0xx\x06}\xa5\xeb\xe7'
p658
ssS'api_logging_managers'
p659
(dp660
g523
(dp661
g44
S'api_logging_managers.html'
p662
sg46
S'api_logging/managers'
p663
sg48
g13
(g14
g15
NtRp664
(dp665
g18
I1
sg19
I0
sg20
I4
sg21
I0
sg22
I0
sg23
I0
sg24
I0
sbssg529
S'\xef\xaf\x98\xcd63\x10\x1c\xc1\xfcP\x12\xc1\xe7\xa5\xc7'
p666
ssS'teach_models_campaigns_campaign_model'
p667
(dp668
g116
(dp669
g93
S'teach_models_campaigns_campaign_model.html'
p670
sg95
S'teach/models/campaigns/campaign_model'
p671
sg97
g13
(g14
g15
NtRp672
(dp673
g18
I1
sg19
I0
sg20
I40
sg21
I0
sg22
I0
sg23
I0
sg24
I0
sbssg122
S'>\xc8\xe2\xfb\xdd\xc1"@\xea/\xe1\xbb\xf1\xa4\x80\x0f'
p674
ssS'create_views_tags_tests_test_add_prerequisite_view'
p675
(dp676
g288
(dp677
g44
S'create_views_tags_tests_test_add_prerequisite_view.html'
p678
sg46
S'create/views/tags/tests/test_add_prerequisite_view'
p679
sg48
g13
(g14
g15
NtRp680
(dp681
g18
I1
sg19
I0
sg20
I26
sg21
I0
sg22
I0
sg23
I0
sg24
I0
sbssg294
S'\xd2\xef\x02\xe1{\xbc\x9b\xf3\x8b\xbd\xf0\xd2\xe7\xcc\xb5\xa4'
p682
ssS'create_models_tags___init__'
p683
(dp684
g356
(dp685
S'html_filename'
p686
S'create_models_tags___init__.html'
p687
sS'name'
p688
S'create/models/tags/__init__'
p689
sS'nums'
p690
g13
(g14
g15
NtRp691
(dp692
g18
I1
sg19
I0
sg20
I5
sg21
I0
sg22
I0
sg23
I0
sg24
I0
sbssg362
S'\xcck\xb0R5)\xa8c\xdb\xa6\xfb\xec\x18 \xde}'
p693
ssS'teach_models_campaigns_tests___init__'
p694
(dp695
g116
(dp696
g31
S'teach_models_campaigns_tests___init__.html'
p697
sg33
S'teach/models/campaigns/tests/__init__'
p698
sg35
g13
(g14
g15
NtRp699
(dp700
g18
I1
sg19
I0
sg20
I0
sg21
I0
sg22
I0
sg23
I0
sg24
I0
sbssg122
S'\x19g\xdfM\x1a\x019\xaf\x1baIeR\xe5u\xa7'
p701
ssS'learn_views_student_news_feed___init__'
p702
(dp703
g278
(dp704
g93
S'learn_views_student_news_feed___init__.html'
p705
sg95
S'learn/views/student_news_feed/__init__'
p706
sg97
g13
(g14
g15
NtRp707
(dp708
g18
I1
sg19
I0
sg20
I1
sg21
I0
sg22
I0
sg23
I0
sg24
I0
sbssg284
S'\xc5\x87\xccQ|\xa2\xee\x11p\x84\xfe\xed\xe3W\xfa\x07'
p709
ssS'create_models_daily_quests___init__'
p710
(dp711
S'index'
p712
(dp713
S'html_filename'
p714
S'create_models_daily_quests___init__.html'
p715
sS'name'
p716
S'create/models/daily_quests/__init__'
p717
sS'nums'
p718
g13
(g14
g15
NtRp719
(dp720
g18
I1
sg19
I0
sg20
I1
sg21
I0
sg22
I0
sg23
I0
sg24
I0
sbssS'hash'
p721
S'\x94\x0eB\xb3\x8e\xc6\x81\xc0\x16\x84P.\x11:\x8e\xc9'
p722
ssS'teach_views_teacher_chapters_teacher_chapter_view'
p723
(dp724
g55
(dp725
g31
S'teach_views_teacher_chapters_teacher_chapter_view.html'
p726
sg33
S'teach/views/teacher_chapters/teacher_chapter_view'
p727
sg35
g13
(g14
g15
NtRp728
(dp729
g18
I1
sg19
I12
sg20
I44
sg21
I0
sg22
I0
sg23
I25
sg24
I12
sbssg64
S'Z\xc5\n\xdb\xe5!2~7\xe3i\xa7j\xd4\x10\x8c'
p730
ssS'create_serializers_tags_concept_serializer'
p731
(dp732
g330
(dp733
S'html_filename'
p734
S'create_serializers_tags_concept_serializer.html'
p735
sS'name'
p736
S'create/serializers/tags/concept_serializer'
p737
sS'nums'
p738
g13
(g14
g15
NtRp739
(dp740
g18
I1
sg19
I0
sg20
I6
sg21
I0
sg22
I0
sg23
I0
sg24
I0
sbssg336
S'\xf1\xe0\xc7%%\xbd\xfc@\x12\x02\x96\xbb\x0c\xbf\x9fq'
p741
ssS'create_serializers_questions_question_history_remark_serializer'
p742
(dp743
g549
(dp744
g551
S'create_serializers_questions_question_history_remark_serializer.html'
p745
sg553
S'create/serializers/questions/question_history_remark_serializer'
p746
sg555
g13
(g14
g15
NtRp747
(dp748
g18
I1
sg19
I0
sg20
I6
sg21
I0
sg22
I0
sg23
I0
sg24
I0
sbssg558
S'\xb53\t\x11\xa6\x1b\xf7!D"\xc8\xa3\xcb41\x9d'
p749
ssS'user_system_models_roles_tests___init__'
p750
(dp751
g42
(dp752
g409
S'user_system_models_roles_tests___init__.html'
p753
sg411
S'user_system/models/roles/tests/__init__'
p754
sg413
g13
(g14
g15
NtRp755
(dp756
g18
I1
sg19
I0
sg20
I0
sg21
I0
sg22
I0
sg23
I0
sg24
I0
sbssg51
S'\x19g\xdfM\x1a\x019\xaf\x1baIeR\xe5u\xa7'
p757
ssS'create_serializers_tags___init__'
p758
(dp759
S'index'
p760
(dp761
S'html_filename'
p762
S'create_serializers_tags___init__.html'
p763
sS'name'
p764
S'create/serializers/tags/__init__'
p765
sS'nums'
p766
g13
(g14
g15
NtRp767
(dp768
g18
I1
sg19
I0
sg20
I0
sg21
I0
sg22
I0
sg23
I0
sg24
I0
sbssS'hash'
p769
S'\x19g\xdfM\x1a\x019\xaf\x1baIeR\xe5u\xa7'
p770
ssS'flipped_helpers_time_helper'
p771
(dp772
g116
(dp773
g93
S'flipped_helpers_time_helper.html'
p774
sg95
S'flipped/helpers/time_helper'
p775
sg97
g13
(g14
g15
NtRp776
(dp777
g18
I1
sg19
I2
sg20
I26
sg21
I0
sg22
I0
sg23
I17
sg24
I2
sbssg122
S'\xc4\x9dt\xafh9\xf1\xa5\xbe\xbd\xe6\xb9G\xd0\xcf\xad'
p778
ssS'create_serializers_daily_quests___init__'
p779
(dp780
g712
(dp781
g235
S'create_serializers_daily_quests___init__.html'
p782
sg237
S'create/serializers/daily_quests/__init__'
p783
sg239
g13
(g14
g15
NtRp784
(dp785
g18
I1
sg19
I0
sg20
I1
sg21
I0
sg22
I0
sg23
I0
sg24
I0
sbssg721
S'N\xb8\x18\x1c\x0c\xc7\xca\x91\xa0|\xe1\x02L\xeeC\xbe'
p786
ssS'api_logging_views_LoggingView'
p787
(dp788
g278
(dp789
g93
S'api_logging_views_LoggingView.html'
p790
sg95
S'api_logging/views/LoggingView'
p791
sg97
g13
(g14
g15
NtRp792
(dp793
g18
I1
sg19
I8
sg20
I41
sg21
I0
sg22
I0
sg23
I27
sg24
I8
sbssg284
S'\xe3\xefQ\x1e\x9e\xec\xea\xa7\xc5\x05\xb9\x90\xf6\xf3\x88\x9b'
p794
ssS'create_models_questions_tests_test_question_type_model'
p795
(dp796
g42
(dp797
g44
S'create_models_questions_tests_test_question_type_model.html'
p798
sg46
S'create/models/questions/tests/test_question_type_model'
p799
sg48
g13
(g14
g15
NtRp800
(dp801
g18
I1
sg19
I0
sg20
I17
sg21
I0
sg22
I0
sg23
I0
sg24
I0
sbssg51
S'e\x1b\x19\xbb)\x89\xff\xfa\xe5\xca\xde\x08\x08CUL'
p802
ssS'teach_models___init__'
p803
(dp804
g55
(dp805
g31
S'teach_models___init__.html'
p806
sg33
S'teach/models/__init__'
p807
sg35
g13
(g14
g15
NtRp808
(dp809
g18
I1
sg19
I0
sg20
I4
sg21
I0
sg22
I0
sg23
I0
sg24
I0
sbssg64
S'\x18\xb4\x9a\xf6\x89\xe4oR\x81\xdbb\xf7E\xf9\x92\xb7'
p810
ssS'create_models_tags_skill_model'
p811
(dp812
g356
(dp813
g44
S'create_models_tags_skill_model.html'
p814
sg46
S'create/models/tags/skill_model'
p815
sg48
g13
(g14
g15
NtRp816
(dp817
g18
I1
sg19
I0
sg20
I10
sg21
I0
sg22
I0
sg23
I0
sg24
I0
sbssg362
S'B&\x06S\xb6\x85A\xdbx\xd4\xc7#]\x13\xe1\xca'
p818
ssS'learn_tests'
p819
(dp820
g55
(dp821
g57
S'learn_tests.html'
p822
sg59
S'learn/tests'
p823
sg61
g13
(g14
g15
NtRp824
(dp825
g18
I1
sg19
I0
sg20
I1
sg21
I0
sg22
I0
sg23
I0
sg24
I0
sbssg64
S'\xe3\x7f\x86\xaa\x99\xac\xc8\x80\xdblE4\x0f\xe7\x1d\xfc'
p826
ssS'learn_models_daily_quests_daily_quest_model'
p827
(dp828
g55
(dp829
g93
S'learn_models_daily_quests_daily_quest_model.html'
p830
sg95
S'learn/models/daily_quests/daily_quest_model'
p831
sg97
g13
(g14
g15
NtRp832
(dp833
g18
I1
sg19
I20
sg20
I113
sg21
I0
sg22
I0
sg23
I47
sg24
I20
sbssg64
S'4*B\xbf\x9aTr!R%\xf6\xe3 \x0eZ\x99'
p834
ssS'api_logging_views___init__'
p835
(dp836
g278
(dp837
g93
S'api_logging_views___init__.html'
p838
sg95
S'api_logging/views/__init__'
p839
sg97
g13
(g14
g15
NtRp840
(dp841
g18
I1
sg19
I0
sg20
I3
sg21
I0
sg22
I0
sg23
I0
sg24
I0
sbssg284
S'_Q\x0f\x0cLb\xd8Cm\xa7\x81g\xaa\x95\xbdd'
p842
ssS'create_models_books___init__'
p843
(dp844
g330
(dp845
g734
S'create_models_books___init__.html'
p846
sg736
S'create/models/books/__init__'
p847
sg738
g13
(g14
g15
NtRp848
(dp849
g18
I1
sg19
I0
sg20
I4
sg21
I0
sg22
I0
sg23
I0
sg24
I0
sbssg336
S'\xba\x14\x87u\xc0\x80\x96\x82s\x8d\x8bU)\x1c\xc3\x91'
p850
ssS'flipped_helpers___init__'
p851
(dp852
g42
(dp853
g93
S'flipped_helpers___init__.html'
p854
sg95
S'flipped/helpers/__init__'
p855
sg97
g13
(g14
g15
NtRp856
(dp857
g18
I1
sg19
I0
sg20
I5
sg21
I0
sg22
I0
sg23
I0
sg24
I0
sbssg51
S'\x95\xcd\x9a\xf9\xe3\xd8\xff\x94\x81\xae\x9c\x14\xc0P\x95~'
p858
ssS'create_models_quests_tests_test_quest_model'
p859
(dp860
g103
(dp861
g497
S'create_models_quests_tests_test_quest_model.html'
p862
sg499
S'create/models/quests/tests/test_quest_model'
p863
sg501
g13
(g14
g15
NtRp864
(dp865
g18
I1
sg19
I4
sg20
I48
sg21
I0
sg22
I0
sg23
I0
sg24
I0
sbssg112
S'\xcdF\x98\xd0k\x14\x9e\xe4\x90\x96\x03\xddNdiH'
p866
ssS'learn_models_daily_quests_tests_test_daily_quest_model'
p867
(dp868
g55
(dp869
g93
S'learn_models_daily_quests_tests_test_daily_quest_model.html'
p870
sg95
S'learn/models/daily_quests/tests/test_daily_quest_model'
p871
sg97
g13
(g14
g15
NtRp872
(dp873
g18
I1
sg19
I2
sg20
I59
sg21
I0
sg22
I0
sg23
I0
sg24
I0
sbssg64
S'\xf0jj\xb6D\xd2\xa2\x84\xdcX\x98H!\xb1=\x1b'
p874
ssS'create_views_books_tests_test_get_book_by_id_view'
p875
(dp876
S'index'
p877
(dp878
g93
S'create_views_books_tests_test_get_book_by_id_view.html'
p879
sg95
S'create/views/books/tests/test_get_book_by_id_view'
p880
sg97
g13
(g14
g15
NtRp881
(dp882
g18
I1
sg19
I0
sg20
I20
sg21
I0
sg22
I0
sg23
I4
sg24
I0
sbssS'hash'
p883
S'Q|\ngP*\x9a\x9d\xaf\xf3[\x95I\xe2\x9d&'
p884
ssS'user_system_views_apps_tests_test_get_app_by_id_view'
p885
(dp886
g42
(dp887
g44
S'user_system_views_apps_tests_test_get_app_by_id_view.html'
p888
sg46
S'user_system/views/apps/tests/test_get_app_by_id_view'
p889
sg48
g13
(g14
g15
NtRp890
(dp891
g18
I1
sg19
I0
sg20
I17
sg21
I0
sg22
I0
sg23
I0
sg24
I0
sbssg51
S"\xa2\x1eG%r{-~\xc5=\x8aj\x99X!'"
p892
ssS'teach_views_daily_quest_templates_daily_quest_template_view'
p893
(dp894
g55
(dp895
g93
S'teach_views_daily_quest_templates_daily_quest_template_view.html'
p896
sg95
S'teach/views/daily_quest_templates/daily_quest_template_view'
p897
sg97
g13
(g14
g15
NtRp898
(dp899
g18
I1
sg19
I18
sg20
I54
sg21
I0
sg22
I0
sg23
I33
sg24
I18
sbssg64
S'\x06\x9c2z\x06\xb6\xc0\xbf\x8b\xe2\x9b_E\xe0P\x1a'
p900
ssS'api_logging_views_summary___init__'
p901
(dp902
g278
(dp903
g93
S'api_logging_views_summary___init__.html'
p904
sg95
S'api_logging/views/summary/__init__'
p905
sg97
g13
(g14
g15
NtRp906
(dp907
g18
I1
sg19
I0
sg20
I1
sg21
I0
sg22
I0
sg23
I0
sg24
I0
sbssg284
S'\x04\x12bh\x96\xc5j\x88dm\x0e\xd7\xe1\x94Lq'
p908
ssS'create_models_books_tests_test_book_subchapter_model'
p909
(dp910
g330
(dp911
S'html_filename'
p912
S'create_models_books_tests_test_book_subchapter_model.html'
p913
sS'name'
p914
S'create/models/books/tests/test_book_subchapter_model'
p915
sS'nums'
p916
g13
(g14
g15
NtRp917
(dp918
g18
I1
sg19
I0
sg20
I42
sg21
I0
sg22
I0
sg23
I0
sg24
I0
sbssg336
S'\xe3*\xba\x94d#\xcd\t\xc9\xb8\x05w\nz\xb8\xc0'
p919
ssS'learn_models_daily_quests___init__'
p920
(dp921
g55
(dp922
S'html_filename'
p923
S'learn_models_daily_quests___init__.html'
p924
sS'name'
p925
S'learn/models/daily_quests/__init__'
p926
sS'nums'
p927
g13
(g14
g15
NtRp928
(dp929
g18
I1
sg19
I0
sg20
I2
sg21
I0
sg22
I0
sg23
I0
sg24
I0
sbssg64
S's\x11\xbfV}\xab\xfcdH\xcf4Q\xc5\x86\xa3\xb4'
p930
ssS'create_models_daily_quest_templates_tests___init__'
p931
(dp932
g233
(dp933
g235
S'create_models_daily_quest_templates_tests___init__.html'
p934
sg237
S'create/models/daily_quest_templates/tests/__init__'
p935
sg239
g13
(g14
g15
NtRp936
(dp937
g18
I1
sg19
I0
sg20
I0
sg21
I0
sg22
I0
sg23
I0
sg24
I0
sbssg242
S'\x19g\xdfM\x1a\x019\xaf\x1baIeR\xe5u\xa7'
p938
ssS'create_models_tags_tag_model'
p939
(dp940
g356
(dp941
g93
S'create_models_tags_tag_model.html'
p942
sg95
S'create/models/tags/tag_model'
p943
sg97
g13
(g14
g15
NtRp944
(dp945
g18
I1
sg19
I0
sg20
I37
sg21
I0
sg22
I0
sg23
I1
sg24
I0
sbssg362
S')2)\xc9\x1e\x94\xa0\xf0+\xe6<hL?B<'
p946
ssS'create_views_tags___init__'
p947
(dp948
g387
(dp949
g389
S'create_views_tags___init__.html'
p950
sg391
S'create/views/tags/__init__'
p951
sg393
g13
(g14
g15
NtRp952
(dp953
g18
I1
sg19
I0
sg20
I1
sg21
I0
sg22
I0
sg23
I0
sg24
I0
sbssg396
S'|r<\xaap\x01\xb1\xbc"\xe5\xbb\xd8\x87\xa5\xd2H'
p954
ssS'create_serializers_tags_skill_serializer'
p955
(dp956
g330
(dp957
g734
S'create_serializers_tags_skill_serializer.html'
p958
sg736
S'create/serializers/tags/skill_serializer'
p959
sg738
g13
(g14
g15
NtRp960
(dp961
g18
I1
sg19
I0
sg20
I6
sg21
I0
sg22
I0
sg23
I0
sg24
I0
sbssg336
S'\x1b\x10O\xca\xd5i\\\x06C\x00q}\xf43\xcb\xa6'
p962
ssS'create_views_questions_question_history_remark_view'
p963
(dp964
g549
(dp965
g551
S'create_views_questions_question_history_remark_view.html'
p966
sg553
S'create/views/questions/question_history_remark_view'
p967
sg555
g13
(g14
g15
NtRp968
(dp969
g18
I1
sg19
I0
sg20
I14
sg21
I0
sg22
I0
sg23
I0
sg24
I0
sbssg558
S'{4O\x0e\xb3\xad\xc8\xb72\x8f\x1f\x11\xc0\x9e\xa0\xd6'
p970
ssS'create_serializers_tags_tag_type_serializer'
p971
(dp972
g330
(dp973
g734
S'create_serializers_tags_tag_type_serializer.html'
p974
sg736
S'create/serializers/tags/tag_type_serializer'
p975
sg738
g13
(g14
g15
NtRp976
(dp977
g18
I1
sg19
I0
sg20
I6
sg21
I0
sg22
I0
sg23
I0
sg24
I0
sbssg336
S'\xc3\xfd\x81\x18{\x97,\xb1\xb6\x9f\xee\xf2kZ\x1e\x02'
p978
ssS'learn_models_points_tests_test_point_history_model'
p979
(dp980
g278
(dp981
g93
S'learn_models_points_tests_test_point_history_model.html'
p982
sg95
S'learn/models/points/tests/test_point_history_model'
p983
sg97
g13
(g14
g15
NtRp984
(dp985
g18
I1
sg19
I0
sg20
I22
sg21
I0
sg22
I0
sg23
I0
sg24
I0
sbssg284
S"\x8d\xd7\x96\xe4\x1b\xf6\xc4\xed:B\x13\xa9MA'\x99"
p986
ssS'learn_serializers_daily_quests_daily_quest_serializer'
p987
(dp988
g55
(dp989
g93
S'learn_serializers_daily_quests_daily_quest_serializer.html'
p990
sg95
S'learn/serializers/daily_quests/daily_quest_serializer'
p991
sg97
g13
(g14
g15
NtRp992
(dp993
g18
I1
sg19
I2
sg20
I61
sg21
I0
sg22
I0
sg23
I27
sg24
I2
sbssg64
S'\x00\xdc)#U\xf8\x03\xc2\xa7T\x0b\xa9\x13\xa3ds'
p994
ssS'user_system_models_users_tests_test_user_profile_picture_model'
p995
(dp996
g116
(dp997
g31
S'user_system_models_users_tests_test_user_profile_picture_model.html'
p998
sg33
S'user_system/models/users/tests/test_user_profile_picture_model'
p999
sg35
g13
(g14
g15
NtRp1000
(dp1001
g18
I1
sg19
I0
sg20
I21
sg21
I0
sg22
I0
sg23
I0
sg24
I0
sbssg122
S'\xbc/\x93\xf6\x8a\x1eC\x99t\xd0\xdc\x96\xf8\x970\xc9'
p1002
ssS'teach_views_teacher_news_feed_teacher_news_feed_view'
p1003
(dp1004
g278
(dp1005
g93
S'teach_views_teacher_news_feed_teacher_news_feed_view.html'
p1006
sg95
S'teach/views/teacher_news_feed/teacher_news_feed_view'
p1007
sg97
g13
(g14
g15
NtRp1008
(dp1009
g18
I1
sg19
I2
sg20
I40
sg21
I0
sg22
I0
sg23
I20
sg24
I2
sbssg284
S'\xb5\x1f\xeb\x1ec\xf1\x9e\x91\xdap\xb3%\xa2\xeb\x9a\xd8'
p1010
ssS'user_system_serializers_schools_organization_serializer'
p1011
(dp1012
g55
(dp1013
g57
S'user_system_serializers_schools_organization_serializer.html'
p1014
sg59
S'user_system/serializers/schools/organization_serializer'
p1015
sg61
g13
(g14
g15
NtRp1016
(dp1017
g18
I1
sg19
I0
sg20
I7
sg21
I0
sg22
I0
sg23
I0
sg24
I0
sbssg64
S'90~\xe3\x8f\x8e\xd9m\xb4\nInn\x03(\xdb'
p1018
ssS'create_models_books_book_subchapter_model'
p1019
(dp1020
g330
(dp1021
S'html_filename'
p1022
S'create_models_books_book_subchapter_model.html'
p1023
sS'name'
p1024
S'create/models/books/book_subchapter_model'
p1025
sS'nums'
p1026
g13
(g14
g15
NtRp1027
(dp1028
g18
I1
sg19
I2
sg20
I45
sg21
I0
sg22
I0
sg23
I0
sg24
I0
sbssg336
S'\xbc\xee\x91\x7f;\xa9\x15\xeaau\xef\x82\x07"\x02\xd3'
p1029
ssS'teach_views_summaries_leaderboard_view'
p1030
(dp1031
g278
(dp1032
g93
S'teach_views_summaries_leaderboard_view.html'
p1033
sg95
S'teach/views/summaries/leaderboard_view'
p1034
sg97
g13
(g14
g15
NtRp1035
(dp1036
g18
I1
sg19
I52
sg20
I124
sg21
I0
sg22
I0
sg23
I102
sg24
I52
sbssg284
S'\xb1j\x93t9\xd2\xc2L\x9d\x0f\x83\x81\x96\x98\x8f\xa8'
p1037
ssS'api_logging_serializers_modal_loggings_modal_user_history_serializer'
p1038
(dp1039
g278
(dp1040
g93
S'api_logging_serializers_modal_loggings_modal_user_history_serializer.html'
p1041
sg95
S'api_logging/serializers/modal_loggings/modal_user_history_serializer'
p1042
sg97
g13
(g14
g15
NtRp1043
(dp1044
g18
I1
sg19
I0
sg20
I7
sg21
I0
sg22
I0
sg23
I0
sg24
I0
sbssg284
S'\xc2\x8f\x89\xe8$\x9c~\x81\xa9\xca\xf8h\x80\xb7hp'
p1045
ssS'learn_models_points___init__'
p1046
(dp1047
g278
(dp1048
g93
S'learn_models_points___init__.html'
p1049
sg95
S'learn/models/points/__init__'
p1050
sg97
g13
(g14
g15
NtRp1051
(dp1052
g18
I1
sg19
I0
sg20
I2
sg21
I0
sg22
I0
sg23
I0
sg24
I0
sbssg284
S'\x1d_\xe1\xcei\x14zD\xd7\x8e\xa1\xf55\x1f\xd1\xd5'
p1053
ssS'api_logging_models___init__'
p1054
(dp1055
g278
(dp1056
g93
S'api_logging_models___init__.html'
p1057
sg95
S'api_logging/models/__init__'
p1058
sg97
g13
(g14
g15
NtRp1059
(dp1060
g18
I1
sg19
I0
sg20
I3
sg21
I0
sg22
I0
sg23
I0
sg24
I0
sbssg284
S'\x9d\r\xed\xba\xe8h@\xa4\xfa(\xf2\xdf\xf5IZ\x9c'
p1061
ssS'teach_serializers___init__'
p1062
(dp1063
g55
(dp1064
g57
S'teach_serializers___init__.html'
p1065
sg59
S'teach/serializers/__init__'
p1066
sg61
g13
(g14
g15
NtRp1067
(dp1068
g18
I1
sg19
I0
sg20
I3
sg21
I0
sg22
I0
sg23
I0
sg24
I0
sbssg64
S'3\x13\x12&\xcb\xecC\xee\xa8lR\x1a\x1d\xb9M\xba'
p1069
ssS'user_system_views_signups_tests___init__'
p1070
(dp1071
g42
(dp1072
g409
S'user_system_views_signups_tests___init__.html'
p1073
sg411
S'user_system/views/signups/tests/__init__'
p1074
sg413
g13
(g14
g15
NtRp1075
(dp1076
g18
I1
sg19
I0
sg20
I1
sg21
I0
sg22
I0
sg23
I0
sg24
I0
sbssg51
S'\xbc\xd6\xeb\xb3\xba\xcaz\xf7{\xd4B\xb5}l\xdf\x96'
p1077
ssS'create_models_daily_quests_tests___init__'
p1078
(dp1079
g712
(dp1080
g714
S'create_models_daily_quests_tests___init__.html'
p1081
sg716
S'create/models/daily_quests/tests/__init__'
p1082
sg718
g13
(g14
g15
NtRp1083
(dp1084
g18
I1
sg19
I0
sg20
I1
sg21
I0
sg22
I0
sg23
I0
sg24
I0
sbssg721
S'\xbc\xd6\xeb\xb3\xba\xcaz\xf7{\xd4B\xb5}l\xdf\x96'
p1085
ssS'api_logging_models_api_logging___init__'
p1086
(dp1087
g278
(dp1088
g93
S'api_logging_models_api_logging___init__.html'
p1089
sg95
S'api_logging/models/api_logging/__init__'
p1090
sg97
g13
(g14
g15
NtRp1091
(dp1092
g18
I1
sg19
I0
sg20
I1
sg21
I0
sg22
I0
sg23
I0
sg24
I0
sbssg284
S'C\xe8\xcf\x97-\xc6\xd3j\xcb\x90*\xea\xd3w\x83\xe0'
p1093
ssS'create_serializers_daily_quests_daily_quest_serializer'
p1094
(dp1095
g233
(dp1096
S'html_filename'
p1097
S'create_serializers_daily_quests_daily_quest_serializer.html'
p1098
sS'name'
p1099
S'create/serializers/daily_quests/daily_quest_serializer'
p1100
sS'nums'
p1101
g13
(g14
g15
NtRp1102
(dp1103
g18
I1
sg19
I0
sg20
I12
sg21
I0
sg22
I0
sg23
I3
sg24
I0
sbssg242
S' $!\xf6\xe6\x92\x9f\x9f\xafy\xe9\x8b\x1c\xf4\xb6\x01'
p1104
ssS'user_system_views_signups_email_signup_view'
p1105
(dp1106
g42
(dp1107
g44
S'user_system_views_signups_email_signup_view.html'
p1108
sg46
S'user_system/views/signups/email_signup_view'
p1109
sg48
g13
(g14
g15
NtRp1110
(dp1111
g18
I1
sg19
I8
sg20
I44
sg21
I0
sg22
I0
sg23
I0
sg24
I0
sbssg51
S'&G\xd1\xc4{\x9b\xbf\x14\x92F\xbe\x13\xeer\x84\x1b'
p1112
ssS'teach_views_teacher_tags___init__'
p1113
(dp1114
g55
(dp1115
g57
S'teach_views_teacher_tags___init__.html'
p1116
sg59
S'teach/views/teacher_tags/__init__'
p1117
sg61
g13
(g14
g15
NtRp1118
(dp1119
g18
I1
sg19
I0
sg20
I1
sg21
I0
sg22
I0
sg23
I0
sg24
I0
sbssg64
S'cp\x00\xdc\x00\xe5M\x9f\x1f\xaa\xb2Y\xd9%\x1d"'
p1120
ssS'flipped_helpers_success_response_helper'
p1121
(dp1122
g42
(dp1123
g44
S'flipped_helpers_success_response_helper.html'
p1124
sg46
S'flipped/helpers/success_response_helper'
p1125
sg48
g13
(g14
g15
NtRp1126
(dp1127
g18
I1
sg19
I2
sg20
I4
sg21
I0
sg22
I0
sg23
I0
sg24
I0
sbssg51
S"'Bp\xbe\xd9\xfa\x92\xa4;\xb6\t\xa8\xfe<\x9d\xa5"
p1128
ssS'create_models_questions_question_model'
p1129
(dp1130
g42
(dp1131
S'html_filename'
p1132
S'create_models_questions_question_model.html'
p1133
sS'name'
p1134
S'create/models/questions/question_model'
p1135
sS'nums'
p1136
g13
(g14
g15
NtRp1137
(dp1138
g18
I1
sg19
I0
sg20
I48
sg21
I0
sg22
I0
sg23
I0
sg24
I0
sbssg51
S'\tGy\xb6\x10\x17dQ\xd7\xd8N>\xd5\x96R\x82'
p1139
ssS'user_system_models_roles___init__'
p1140
(dp1141
g42
(dp1142
g409
S'user_system_models_roles___init__.html'
p1143
sg411
S'user_system/models/roles/__init__'
p1144
sg413
g13
(g14
g15
NtRp1145
(dp1146
g18
I1
sg19
I0
sg20
I2
sg21
I0
sg22
I0
sg23
I0
sg24
I0
sbssg51
S'\xa3\xc2\r\x1b\x1bC\x85\xa5\xads\x7fl\xab`*1'
p1147
ssS'create_models_questions_question_history_model'
p1148
(dp1149
g42
(dp1150
g93
S'create_models_questions_question_history_model.html'
p1151
sg95
S'create/models/questions/question_history_model'
p1152
sg97
g13
(g14
g15
NtRp1153
(dp1154
g18
I1
sg19
I8
sg20
I68
sg21
I0
sg22
I2
sg23
I3
sg24
I2
sbssg51
S'\xa1\xd6Y\x9f\x01\xba\xc3\xd6\xfa\xbdR\xc6\x05\xe7\xf7\xfd'
p1155
ssS'user_system_views_signups_tests_test_facebook_signup_view'
p1156
(dp1157
g42
(dp1158
g44
S'user_system_views_signups_tests_test_facebook_signup_view.html'
p1159
sg46
S'user_system/views/signups/tests/test_facebook_signup_view'
p1160
sg48
g13
(g14
g15
NtRp1161
(dp1162
g18
I1
sg19
I0
sg20
I60
sg21
I0
sg22
I0
sg23
I0
sg24
I0
sbssg51
S'\x93<\xc8]\x14\t\xa8/\xdd\xd1\xa4]\xfbp!\xbd'
p1163
ssS'user_system_models_users_tests_test_teacher_mapping_model'
p1164
(dp1165
g29
(dp1166
S'html_filename'
p1167
S'user_system_models_users_tests_test_teacher_mapping_model.html'
p1168
sS'name'
p1169
S'user_system/models/users/tests/test_teacher_mapping_model'
p1170
sS'nums'
p1171
g13
(g14
g15
NtRp1172
(dp1173
g18
I1
sg19
I0
sg20
I22
sg21
I0
sg22
I0
sg23
I0
sg24
I0
sbssg38
S"\xbb\xd7\xe2\xf2\x7f\x9b\xc5j\xd6'(\xda\xa5\x14\\\x12"
p1174
ssS'create_views_books_tests_test_remove_tag_from_subchapter_view'
p1175
(dp1176
S'index'
p1177
(dp1178
g44
S'create_views_books_tests_test_remove_tag_from_subchapter_view.html'
p1179
sg46
S'create/views/books/tests/test_remove_tag_from_subchapter_view'
p1180
sg48
g13
(g14
g15
NtRp1181
(dp1182
g18
I1
sg19
I0
sg20
I40
sg21
I0
sg22
I0
sg23
I0
sg24
I0
sbssS'hash'
p1183
S"(Vo#\xdd\x9a\xbc\x11\xff\xd6'\xd7\xeb\xca\x1aM"
p1184
ssS'teach_views_summaries_class_ranking_view'
p1185
(dp1186
g278
(dp1187
g93
S'teach_views_summaries_class_ranking_view.html'
p1188
sg95
S'teach/views/summaries/class_ranking_view'
p1189
sg97
g13
(g14
g15
NtRp1190
(dp1191
g18
I1
sg19
I24
sg20
I79
sg21
I0
sg22
I0
sg23
I57
sg24
I24
sbssg284
S'j\x19/\x1fg\x83\xa1h]\xc3\xd9\xfd\xa8ae\x1a'
p1192
ssS'teach_serializers_teacher_chapters___init__'
p1193
(dp1194
g55
(dp1195
g57
S'teach_serializers_teacher_chapters___init__.html'
p1196
sg59
S'teach/serializers/teacher_chapters/__init__'
p1197
sg61
g13
(g14
g15
NtRp1198
(dp1199
g18
I1
sg19
I0
sg20
I1
sg21
I0
sg22
I0
sg23
I0
sg24
I0
sbssg64
S'\xfe\x88\xda\x10\xec!\x99\xb7-\x8d\x90E\xe18K\xb1'
p1200
ssS'api_logging_admin'
p1201
(dp1202
g523
(dp1203
g93
S'api_logging_admin.html'
p1204
sg95
S'api_logging/admin'
p1205
sg97
g13
(g14
g15
NtRp1206
(dp1207
g18
I1
sg19
I0
sg20
I10
sg21
I0
sg22
I0
sg23
I0
sg24
I0
sbssg529
S'T\x93\x03\xbcO>\xd1\xd6\xf4\xd3\x15r{\xad0B'
p1208
ssS'user_system_models_users_user_streak_history_model'
p1209
(dp1210
g278
(dp1211
g93
S'user_system_models_users_user_streak_history_model.html'
p1212
sg95
S'user_system/models/users/user_streak_history_model'
p1213
sg97
g13
(g14
g15
NtRp1214
(dp1215
g18
I1
sg19
I0
sg20
I28
sg21
I0
sg22
I0
sg23
I3
sg24
I0
sbssg284
S'S$\x96\xe6\xc9!\xd3a\xb7\xb2\x86\x8e:R\xa9Z'
p1216
ssS'create_models_tags_tests_test_concept_model'
p1217
(dp1218
g356
(dp1219
g44
S'create_models_tags_tests_test_concept_model.html'
p1220
sg46
S'create/models/tags/tests/test_concept_model'
p1221
sg48
g13
(g14
g15
NtRp1222
(dp1223
g18
I1
sg19
I0
sg20
I12
sg21
I0
sg22
I0
sg23
I0
sg24
I0
sbssg362
S'@\x95\xd9\xf7\xa5\xc4\x0c\xb1\xad\xa4\xf5p\x95\x06!N'
p1224
ssS'create_models_questions_tests_test_question_choice_model'
p1225
(dp1226
g42
(dp1227
S'html_filename'
p1228
S'create_models_questions_tests_test_question_choice_model.html'
p1229
sS'name'
p1230
S'create/models/questions/tests/test_question_choice_model'
p1231
sS'nums'
p1232
g13
(g14
g15
NtRp1233
(dp1234
g18
I1
sg19
I0
sg20
I46
sg21
I0
sg22
I0
sg23
I0
sg24
I0
sbssg51
S'$\x08N\xfb\nW\n\xecG\x9a[\xb7\xe2\xc1\xbd\x06'
p1235
ssS'user_system_views_users_tests_test_get_user_by_id_view'
p1236
(dp1237
g42
(dp1238
g93
S'user_system_views_users_tests_test_get_user_by_id_view.html'
p1239
sg95
S'user_system/views/users/tests/test_get_user_by_id_view'
p1240
sg97
g13
(g14
g15
NtRp1241
(dp1242
g18
I1
sg19
I0
sg20
I26
sg21
I0
sg22
I0
sg23
I5
sg24
I0
sbssg51
S'\x15\xb8\xed\x1f\xd6I\x84gS\xbc\xe4\xa2v\x97X\x8a'
p1243
ssS'create_models___init__'
p1244
(dp1245
g42
(dp1246
g57
S'create_models___init__.html'
p1247
sg59
S'create/models/__init__'
p1248
sg61
g13
(g14
g15
NtRp1249
(dp1250
g18
I1
sg19
I0
sg20
I6
sg21
I0
sg22
I0
sg23
I0
sg24
I0
sbssg51
S'\x1a\xde\xff\xb8/\x08R\x8e\xff\x13\x8b\xeb`\xfd\x98\xf8'
p1251
ssS'create_serializers_tags_tag_history_serializer'
p1252
(dp1253
S'index'
p1254
(dp1255
g105
S'create_serializers_tags_tag_history_serializer.html'
p1256
sg107
S'create/serializers/tags/tag_history_serializer'
p1257
sg109
g13
(g14
g15
NtRp1258
(dp1259
g18
I1
sg19
I0
sg20
I14
sg21
I0
sg22
I0
sg23
I0
sg24
I0
sbssS'hash'
p1260
S'\xc1"\xf9l4\xe66\x8a\xd0)r!\x05Y+\xd2'
p1261
ssS'create_serializers_daily_quest_templates___init__'
p1262
(dp1263
g233
(dp1264
g235
S'create_serializers_daily_quest_templates___init__.html'
p1265
sg237
S'create/serializers/daily_quest_templates/__init__'
p1266
sg239
g13
(g14
g15
NtRp1267
(dp1268
g18
I1
sg19
I0
sg20
I1
sg21
I0
sg22
I0
sg23
I0
sg24
I0
sbssg242
S'\xa2\xd34\x1b\xe2+\x16\xa9un\x8f\xa5\xe6\xc4\\p'
p1269
ssS'user_system_views_roles_tests___init__'
p1270
(dp1271
g42
(dp1272
g409
S'user_system_views_roles_tests___init__.html'
p1273
sg411
S'user_system/views/roles/tests/__init__'
p1274
sg413
g13
(g14
g15
NtRp1275
(dp1276
g18
I1
sg19
I0
sg20
I0
sg21
I0
sg22
I0
sg23
I0
sg24
I0
sbssg51
S'\x19g\xdfM\x1a\x019\xaf\x1baIeR\xe5u\xa7'
p1277
ssS'api_logging_models_modal_logging___init__'
p1278
(dp1279
g278
(dp1280
g93
S'api_logging_models_modal_logging___init__.html'
p1281
sg95
S'api_logging/models/modal_logging/__init__'
p1282
sg97
g13
(g14
g15
NtRp1283
(dp1284
g18
I1
sg19
I0
sg20
I2
sg21
I0
sg22
I0
sg23
I0
sg24
I0
sbssg284
S"+\x16\xa4\xd1\xf5m\xa9\x9e*\xd0\xa23O'}-"
p1285
ssS'user_system_serializers___init__'
p1286
(dp1287
g42
(dp1288
g57
S'user_system_serializers___init__.html'
p1289
sg59
S'user_system/serializers/__init__'
p1290
sg61
g13
(g14
g15
NtRp1291
(dp1292
g18
I1
sg19
I0
sg20
I3
sg21
I0
sg22
I0
sg23
I0
sg24
I0
sbssg51
S'\x85\x12\xbd.\x85L4\xea\t4\x9c\xcf\xb5 \x81\xb4'
p1293
ssS'teach_models_daily_quest_templates_tests___init__'
p1294
(dp1295
g55
(dp1296
g57
S'teach_models_daily_quest_templates_tests___init__.html'
p1297
sg59
S'teach/models/daily_quest_templates/tests/__init__'
p1298
sg61
g13
(g14
g15
NtRp1299
(dp1300
g18
I1
sg19
I0
sg20
I0
sg21
I0
sg22
I0
sg23
I0
sg24
I0
sbssg64
S'\x19g\xdfM\x1a\x019\xaf\x1baIeR\xe5u\xa7'
p1301
ssS'user_system_serializers_schools_grade_serializer'
p1302
(dp1303
g116
(dp1304
g31
S'user_system_serializers_schools_grade_serializer.html'
p1305
sg33
S'user_system/serializers/schools/grade_serializer'
p1306
sg35
g13
(g14
g15
NtRp1307
(dp1308
g18
I1
sg19
I0
sg20
I9
sg21
I0
sg22
I0
sg23
I0
sg24
I0
sbssg122
S"()\x18t._h'\x1c\x9bV\x14KS\xf6,"
p1309
ssS'create_models_questions_tests___init__'
p1310
(dp1311
g42
(dp1312
g409
S'create_models_questions_tests___init__.html'
p1313
sg411
S'create/models/questions/tests/__init__'
p1314
sg413
g13
(g14
g15
NtRp1315
(dp1316
g18
I1
sg19
I0
sg20
I0
sg21
I0
sg22
I0
sg23
I0
sg24
I0
sbssg51
S'\x19g\xdfM\x1a\x019\xaf\x1baIeR\xe5u\xa7'
p1317
ssS'teach_views___init__'
p1318
(dp1319
g55
(dp1320
g93
S'teach_views___init__.html'
p1321
sg95
S'teach/views/__init__'
p1322
sg97
g13
(g14
g15
NtRp1323
(dp1324
g18
I1
sg19
I0
sg20
I3
sg21
I0
sg22
I0
sg23
I0
sg24
I0
sbssg64
S'\xddN\x8bL\xe7O\xba\x93\x86:\xc2\x15\x13gc6'
p1325
ssS'teach_models_teacher_tags_tests_test_teacher_tag_model'
p1326
(dp1327
g55
(dp1328
g57
S'teach_models_teacher_tags_tests_test_teacher_tag_model.html'
p1329
sg59
S'teach/models/teacher_tags/tests/test_teacher_tag_model'
p1330
sg61
g13
(g14
g15
NtRp1331
(dp1332
g18
I1
sg19
I0
sg20
I30
sg21
I0
sg22
I0
sg23
I0
sg24
I0
sbssg64
S'\xf3\x06\xd8\xd6\x93V\xab\xdc\x87\x05\xf6vJ\xa9`\xe6'
p1333
ssS'user_system_models_schools_academic_year_model'
p1334
(dp1335
g197
(dp1336
g1167
S'user_system_models_schools_academic_year_model.html'
p1337
sg1169
S'user_system/models/schools/academic_year_model'
p1338
sg1171
g13
(g14
g15
NtRp1339
(dp1340
g18
I1
sg19
I0
sg20
I23
sg21
I0
sg22
I0
sg23
I0
sg24
I0
sbssg206
S'\xf1Zl\xd3\xdd4\xdcX&\xdf\xf0<.\x11FY'
p1341
ssS'learn_models___init__'
p1342
(dp1343
g55
(dp1344
g93
S'learn_models___init__.html'
p1345
sg95
S'learn/models/__init__'
p1346
sg97
g13
(g14
g15
NtRp1347
(dp1348
g18
I1
sg19
I0
sg20
I2
sg21
I0
sg22
I0
sg23
I0
sg24
I0
sbssg64
S'J\x07\xbfU\xe2\xd2\xed\xadY\xe2o$\x84\x86bd'
p1349
ssS'user_system_models_users_student_profile_model'
p1350
(dp1351
g223
(dp1352
g93
S'user_system_models_users_student_profile_model.html'
p1353
sg95
S'user_system/models/users/student_profile_model'
p1354
sg97
g13
(g14
g15
NtRp1355
(dp1356
g18
I1
sg19
I2
sg20
I41
sg21
I0
sg22
I0
sg23
I0
sg24
I0
sbssg229
S'q\x83gLh\x1e\xeb\xb5+w&@\xe2"=\xb8'
p1357
ssS'user_system_models_schools_organization_model'
p1358
(dp1359
g197
(dp1360
g93
S'user_system_models_schools_organization_model.html'
p1361
sg95
S'user_system/models/schools/organization_model'
p1362
sg97
g13
(g14
g15
NtRp1363
(dp1364
g18
I1
sg19
I0
sg20
I28
sg21
I0
sg22
I0
sg23
I1
sg24
I0
sbssg206
S'\x1b?-+\t\x91D=\x17\r\x10s=\xfd\xea\r'
p1365
ssS'create_views_books_tests_test_hide_book_view'
p1366
(dp1367
g877
(dp1368
g44
S'create_views_books_tests_test_hide_book_view.html'
p1369
sg46
S'create/views/books/tests/test_hide_book_view'
p1370
sg48
g13
(g14
g15
NtRp1371
(dp1372
g18
I1
sg19
I0
sg20
I25
sg21
I0
sg22
I0
sg23
I0
sg24
I0
sbssg883
S'\xe1\x17\x16\xca\x8a\xc5c\x1b\xce\xab\xb8\xf9G\x03\x9dQ'
p1373
ssS'teach_serializers_teacher_tags_teacher_tag_serializer'
p1374
(dp1375
g55
(dp1376
g31
S'teach_serializers_teacher_tags_teacher_tag_serializer.html'
p1377
sg33
S'teach/serializers/teacher_tags/teacher_tag_serializer'
p1378
sg35
g13
(g14
g15
NtRp1379
(dp1380
g18
I1
sg19
I2
sg20
I26
sg21
I0
sg22
I0
sg23
I9
sg24
I2
sbssg64
S'\x07C\xdf\xcd\x92\x1eS\x1a#\x8e\x9d\x88Dj\n\x12'
p1381
ssS'create_models_daily_quests_tests_test_daily_quest_model'
p1382
(dp1383
g712
(dp1384
g235
S'create_models_daily_quests_tests_test_daily_quest_model.html'
p1385
sg237
S'create/models/daily_quests/tests/test_daily_quest_model'
p1386
sg239
g13
(g14
g15
NtRp1387
(dp1388
g18
I1
sg19
I2
sg20
I51
sg21
I0
sg22
I0
sg23
I0
sg24
I0
sbssg721
S'\x16\x87\xb8\xd4K\xb4\x87\xf9\x84\xc4V\x94\x17\xf6\x1a\xf0'
p1389
ssS'create_admin'
p1390
(dp1391
g42
(dp1392
g57
S'create_admin.html'
p1393
sg59
S'create/admin'
p1394
sg61
g13
(g14
g15
NtRp1395
(dp1396
g18
I1
sg19
I0
sg20
I20
sg21
I0
sg22
I0
sg23
I0
sg24
I0
sbssg51
S'\x03\xe6\xc2\xd5\xa8\xb1\x92\xa5/8\x0fZCN\r\x08'
p1397
ssS'create_views_questions_tests_test_get_question_list_view'
p1398
(dp1399
g42
(dp1400
g93
S'create_views_questions_tests_test_get_question_list_view.html'
p1401
sg95
S'create/views/questions/tests/test_get_question_list_view'
p1402
sg97
g13
(g14
g15
NtRp1403
(dp1404
g18
I1
sg19
I0
sg20
I32
sg21
I0
sg22
I0
sg23
I7
sg24
I0
sbssg51
S"\x9d'6\r\xef\x1f+]\xcf\x96\xafA\xf2\xc0\xf0\xdf"
p1405
ssS'user_system_views_logins___init__'
p1406
(dp1407
g42
(dp1408
g409
S'user_system_views_logins___init__.html'
p1409
sg411
S'user_system/views/logins/__init__'
p1410
sg413
g13
(g14
g15
NtRp1411
(dp1412
g18
I1
sg19
I0
sg20
I2
sg21
I0
sg22
I0
sg23
I0
sg24
I0
sbssg51
S'\xa0\xd3\xaas\xc2\xb93+ED.\xe5\xfe\xf2\xad\x87'
p1413
ssS'create_views_daily_quest_copies___init__'
p1414
(dp1415
g374
(dp1416
S'html_filename'
p1417
S'create_views_daily_quest_copies___init__.html'
p1418
sS'name'
p1419
S'create/views/daily_quest_copies/__init__'
p1420
sS'nums'
p1421
g13
(g14
g15
NtRp1422
(dp1423
g18
I1
sg19
I0
sg20
I1
sg21
I0
sg22
I0
sg23
I0
sg24
I0
sbssg383
S"'\xb6_z\x90s\x92\xdd\xc7\xb2\x87d\xba\xe24X"
p1424
ssS'create_views_quests_tests_test_hide_quest_view'
p1425
(dp1426
g6
(dp1427
g8
S'create_views_quests_tests_test_hide_quest_view.html'
p1428
sg10
S'create/views/quests/tests/test_hide_quest_view'
p1429
sg12
g13
(g14
g15
NtRp1430
(dp1431
g18
I1
sg19
I0
sg20
I26
sg21
I0
sg22
I0
sg23
I0
sg24
I0
sbssg25
S'G\xcb\xcf\xbb~*\xa2i\xd2\xff\x81\x81\xf0)G\xda'
p1432
ssS'create_views_books_tests_test_add_tag_to_subchapter_view'
p1433
(dp1434
g1177
(dp1435
g44
S'create_views_books_tests_test_add_tag_to_subchapter_view.html'
p1436
sg46
S'create/views/books/tests/test_add_tag_to_subchapter_view'
p1437
sg48
g13
(g14
g15
NtRp1438
(dp1439
g18
I1
sg19
I0
sg20
I40
sg21
I0
sg22
I0
sg23
I0
sg24
I0
sbssg1183
S'\xb78\xf4p\xcd\xec\xca\xaa\x93\xb9\xda\xa8Yo37'
p1440
ssS'api_logging_models_modal_logging_modal_user_history_model'
p1441
(dp1442
g278
(dp1443
g93
S'api_logging_models_modal_logging_modal_user_history_model.html'
p1444
sg95
S'api_logging/models/modal_logging/modal_user_history_model'
p1445
sg97
g13
(g14
g15
NtRp1446
(dp1447
g18
I1
sg19
I0
sg20
I15
sg21
I0
sg22
I0
sg23
I3
sg24
I0
sbssg284
S'\xabX\xd42<$9z\xc1]\xc12\xe9\xd8\xbf\xd2'
p1448
ssS'create_views_daily_quests_daily_quest_view'
p1449
(dp1450
g233
(dp1451
g235
S'create_views_daily_quests_daily_quest_view.html'
p1452
sg237
S'create/views/daily_quests/daily_quest_view'
p1453
sg239
g13
(g14
g15
NtRp1454
(dp1455
g18
I1
sg19
I8
sg20
I34
sg21
I0
sg22
I0
sg23
I17
sg24
I8
sbssg242
S'\x9b\xbe99\x1cP\x1d\xd8iT&I;\xb4\xbbf'
p1456
ssS'user_system_managers_user_manager'
p1457
(dp1458
g278
(dp1459
g93
S'user_system_managers_user_manager.html'
p1460
sg95
S'user_system/managers/user_manager'
p1461
sg97
g13
(g14
g15
NtRp1462
(dp1463
g18
I1
sg19
I18
sg20
I46
sg21
I0
sg22
I0
sg23
I37
sg24
I18
sbssg284
S'\xac\xa0\xe1\xde\xdcl\x13`\xfe\xfc\xff\xb5\x18=(\xf4'
p1464
ssS'create_models_quests_tests___init__'
p1465
(dp1466
g103
(dp1467
g579
S'create_models_quests_tests___init__.html'
p1468
sg581
S'create/models/quests/tests/__init__'
p1469
sg583
g13
(g14
g15
NtRp1470
(dp1471
g18
I1
sg19
I0
sg20
I1
sg21
I0
sg22
I0
sg23
I0
sg24
I0
sbssg112
S'\xbc\xd6\xeb\xb3\xba\xcaz\xf7{\xd4B\xb5}l\xdf\x96'
p1472
ssS'create_views_questions___init__'
p1473
(dp1474
g42
(dp1475
g551
S'create_views_questions___init__.html'
p1476
sg553
S'create/views/questions/__init__'
p1477
sg555
g13
(g14
g15
NtRp1478
(dp1479
g18
I1
sg19
I0
sg20
I3
sg21
I0
sg22
I0
sg23
I0
sg24
I0
sbssg51
S'h\x154\xc5\xe58\xa8\xc8\xa9\xa6\xbea?\xcf?i'
p1480
ssS'user_system_views_users_create_teacher_view'
p1481
(dp1482
g278
(dp1483
g93
S'user_system_views_users_create_teacher_view.html'
p1484
sg95
S'user_system/views/users/create_teacher_view'
p1485
sg97
g13
(g14
g15
NtRp1486
(dp1487
g18
I1
sg19
I2
sg20
I34
sg21
I0
sg22
I0
sg23
I21
sg24
I2
sbssg284
S'=\xee\xed^jo\xc1\xebz\xedP\xf9\x91n\xec\x8d'
p1488
ssS'user_system_models_apps_tests___init__'
p1489
(dp1490
g42
(dp1491
g409
S'user_system_models_apps_tests___init__.html'
p1492
sg411
S'user_system/models/apps/tests/__init__'
p1493
sg413
g13
(g14
g15
NtRp1494
(dp1495
g18
I1
sg19
I0
sg20
I0
sg21
I0
sg22
I0
sg23
I0
sg24
I0
sbssg51
S'\x19g\xdfM\x1a\x019\xaf\x1baIeR\xe5u\xa7'
p1496
ssS'create_models_quests_tests_test_quest_history_model'
p1497
(dp1498
g103
(dp1499
g1132
S'create_models_quests_tests_test_quest_history_model.html'
p1500
sg1134
S'create/models/quests/tests/test_quest_history_model'
p1501
sg1136
g13
(g14
g15
NtRp1502
(dp1503
g18
I1
sg19
I8
sg20
I79
sg21
I0
sg22
I0
sg23
I0
sg24
I0
sbssg112
S'##\xeax]g;Ka\xb3\xc0Py,oE'
p1504
ssS'create_views_summary___init__'
p1505
(dp1506
S'index'
p1507
(dp1508
g1022
S'create_views_summary___init__.html'
p1509
sg1024
S'create/views/summary/__init__'
p1510
sg1026
g13
(g14
g15
NtRp1511
(dp1512
g18
I1
sg19
I0
sg20
I1
sg21
I0
sg22
I0
sg23
I0
sg24
I0
sbssS'hash'
p1513
S'#\xb7\xbd\xa1M\xe4\xa0\x05\xf5x\x057hU[\xca'
p1514
ssS'create_models_daily_quest_templates___init__'
p1515
(dp1516
g233
(dp1517
g235
S'create_models_daily_quest_templates___init__.html'
p1518
sg237
S'create/models/daily_quest_templates/__init__'
p1519
sg239
g13
(g14
g15
NtRp1520
(dp1521
g18
I1
sg19
I0
sg20
I1
sg21
I0
sg22
I0
sg23
I0
sg24
I0
sbssg242
S'\x12\x89x\xb9F\xfb=b\x04\xddy\xb4\xccZb\xb8'
p1522
ssS'create_views_tags_tests_test_get_tag_by_id_view'
p1523
(dp1524
g387
(dp1525
g93
S'create_views_tags_tests_test_get_tag_by_id_view.html'
p1526
sg95
S'create/views/tags/tests/test_get_tag_by_id_view'
p1527
sg97
g13
(g14
g15
NtRp1528
(dp1529
g18
I1
sg19
I0
sg20
I20
sg21
I0
sg22
I0
sg23
I4
sg24
I0
sbssg396
S"\xd2uq\xbc\xcfg|\xb4'yX\xf9o\xa0\x04\x97"
p1530
ssS'api_logging_models_user_activities___init__'
p1531
(dp1532
g278
(dp1533
g93
S'api_logging_models_user_activities___init__.html'
p1534
sg95
S'api_logging/models/user_activities/__init__'
p1535
sg97
g13
(g14
g15
NtRp1536
(dp1537
g18
I1
sg19
I0
sg20
I1
sg21
I0
sg22
I0
sg23
I0
sg24
I0
sbssg284
S'\xd9\xe2\xb9\xa8[\x85h\x8ep\xd5\x12TW1\x9d\x1b'
p1538
ssS'user_system_models_users_tests_test_user_profile_model'
p1539
(dp1540
g42
(dp1541
S'html_filename'
p1542
S'user_system_models_users_tests_test_user_profile_model.html'
p1543
sS'name'
p1544
S'user_system/models/users/tests/test_user_profile_model'
p1545
sS'nums'
p1546
g13
(g14
g15
NtRp1547
(dp1548
g18
I1
sg19
I0
sg20
I137
sg21
I0
sg22
I0
sg23
I0
sg24
I0
sbssg51
S'\xbfI\xf8OScg\n\xc9\xb4\xcc\x10\xce\xf0*\xd8'
p1549
ssS'user_system_views_roles_tests_test_user_role_view'
p1550
(dp1551
g42
(dp1552
g44
S'user_system_views_roles_tests_test_user_role_view.html'
p1553
sg46
S'user_system/views/roles/tests/test_user_role_view'
p1554
sg48
g13
(g14
g15
NtRp1555
(dp1556
g18
I1
sg19
I0
sg20
I41
sg21
I0
sg22
I0
sg23
I0
sg24
I0
sbssg51
S'\xaf \x02-\xd3\xa9\xee\x1e7\x87\xa8[\xd9\xd8V\xd8'
p1557
ssS'user_system_views_apps_tests_test_get_apps_list_view'
p1558
(dp1559
g42
(dp1560
g44
S'user_system_views_apps_tests_test_get_apps_list_view.html'
p1561
sg46
S'user_system/views/apps/tests/test_get_apps_list_view'
p1562
sg48
g13
(g14
g15
NtRp1563
(dp1564
g18
I1
sg19
I0
sg20
I18
sg21
I0
sg22
I0
sg23
I0
sg24
I0
sbssg51
S'\x87\xab;"\x01p\xf9\xe5\xa6\xb1\xaej\x8egl\x99'
p1565
ssS'api_logging_models_user_activities_user_activity_model'
p1566
(dp1567
g278
(dp1568
g93
S'api_logging_models_user_activities_user_activity_model.html'
p1569
sg95
S'api_logging/models/user_activities/user_activity_model'
p1570
sg97
g13
(g14
g15
NtRp1571
(dp1572
g18
I1
sg19
I0
sg20
I11
sg21
I0
sg22
I0
sg23
I0
sg24
I0
sbssg284
S'f\xe2(\xd3\xddS\xfd\x1e\xf0d\xb2,\xb2\x8f\x8c\x18'
p1573
ssS'create_views_books_tests_test_create_new_book'
p1574
(dp1575
S'index'
p1576
(dp1577
g44
S'create_views_books_tests_test_create_new_book.html'
p1578
sg46
S'create/views/books/tests/test_create_new_book'
p1579
sg48
g13
(g14
g15
NtRp1580
(dp1581
g18
I1
sg19
I0
sg20
I18
sg21
I0
sg22
I0
sg23
I0
sg24
I0
sbssS'hash'
p1582
S'\xe3\xaew\xf8\xd7\x8f\xc5 \x85\xc1\xb6I\x82X(-'
p1583
ssS'create_serializers_questions_question_type_serializer'
p1584
(dp1585
g42
(dp1586
g409
S'create_serializers_questions_question_type_serializer.html'
p1587
sg411
S'create/serializers/questions/question_type_serializer'
p1588
sg413
g13
(g14
g15
NtRp1589
(dp1590
g18
I1
sg19
I0
sg20
I6
sg21
I0
sg22
I0
sg23
I0
sg24
I0
sbssg51
S'!\x8a\x91KA:\x92\x13/\xdd\xd9\xc2?\x8b\xe1\xc6'
p1591
ssS'create_models_books_tests_test_book_model'
p1592
(dp1593
g330
(dp1594
S'html_filename'
p1595
S'create_models_books_tests_test_book_model.html'
p1596
sS'name'
p1597
S'create/models/books/tests/test_book_model'
p1598
sS'nums'
p1599
g13
(g14
g15
NtRp1600
(dp1601
g18
I1
sg19
I6
sg20
I44
sg21
I0
sg22
I0
sg23
I0
sg24
I0
sbssg336
S'\xff\x88\xcd\xb0\x80\xb2\x9d\xf7\xf9G\xb1.\xaf\xdd\x07\xd7'
p1602
ssS'user_system_serializers_users_teacher_mapping_serializer'
p1603
(dp1604
g278
(dp1605
g93
S'user_system_serializers_users_teacher_mapping_serializer.html'
p1606
sg95
S'user_system/serializers/users/teacher_mapping_serializer'
p1607
sg97
g13
(g14
g15
NtRp1608
(dp1609
g18
I1
sg19
I0
sg20
I7
sg21
I0
sg22
I0
sg23
I0
sg24
I0
sbssg284
S'\x13\xf7\x06\xcfN\x17?&3\xc5\xf6]6uj\xc1'
p1610
ssS'create_models_questions_question_choice_model'
p1611
(dp1612
g42
(dp1613
g1228
S'create_models_questions_question_choice_model.html'
p1614
sg1230
S'create/models/questions/question_choice_model'
p1615
sg1232
g13
(g14
g15
NtRp1616
(dp1617
g18
I1
sg19
I0
sg20
I42
sg21
I0
sg22
I0
sg23
I0
sg24
I0
sbssg51
S'\xd7\xd8\x1f\xbf<\xee\xdd?}\xfe>\x82\\\x97\x15)'
p1618
ssS'flipped_helpers_tests___init__'
p1619
(dp1620
g42
(dp1621
g409
S'flipped_helpers_tests___init__.html'
p1622
sg411
S'flipped/helpers/tests/__init__'
p1623
sg413
g13
(g14
g15
NtRp1624
(dp1625
g18
I1
sg19
I0
sg20
I0
sg21
I0
sg22
I0
sg23
I0
sg24
I0
sbssg51
S'\x19g\xdfM\x1a\x019\xaf\x1baIeR\xe5u\xa7'
p1626
ssS'user_system_models_roles_role_app_model'
p1627
(dp1628
g42
(dp1629
g44
S'user_system_models_roles_role_app_model.html'
p1630
sg46
S'user_system/models/roles/role_app_model'
p1631
sg48
g13
(g14
g15
NtRp1632
(dp1633
g18
I1
sg19
I0
sg20
I18
sg21
I0
sg22
I0
sg23
I0
sg24
I0
sbssg51
S'\x8d\xa3&\x03\x9d\x1cO|\xces.\x11/\x8f`\xcc'
p1634
ssS'create_views_books_book_view'
p1635
(dp1636
g330
(dp1637
g8
S'create_views_books_book_view.html'
p1638
sg10
S'create/views/books/book_view'
p1639
sg12
g13
(g14
g15
NtRp1640
(dp1641
g18
I1
sg19
I34
sg20
I124
sg21
I0
sg22
I3
sg23
I8
sg24
I5
sbssg336
S'%\x96\xb2\x15\x98\xef\x0fL\xc0&\xf9\x18\x91-\xb28'
p1642
ssS'create_views_tags_tests_test_remove_prerequisite_view'
p1643
(dp1644
g288
(dp1645
g44
S'create_views_tags_tests_test_remove_prerequisite_view.html'
p1646
sg46
S'create/views/tags/tests/test_remove_prerequisite_view'
p1647
sg48
g13
(g14
g15
NtRp1648
(dp1649
g18
I1
sg19
I0
sg20
I31
sg21
I0
sg22
I0
sg23
I0
sg24
I0
sbssg294
S'\x8e\x8c~\xff\x85\x94\x8c~T\x7f\x80\x82W\x96\x19\x9c'
p1650
ssS'learn_models_points_tests_test_point_type_model'
p1651
(dp1652
g278
(dp1653
g93
S'learn_models_points_tests_test_point_type_model.html'
p1654
sg95
S'learn/models/points/tests/test_point_type_model'
p1655
sg97
g13
(g14
g15
NtRp1656
(dp1657
g18
I1
sg19
I0
sg20
I18
sg21
I0
sg22
I0
sg23
I0
sg24
I0
sbssg284
S'\x98Y\xdes\x81 \xdfe\xb63\xbc\xa1\xd6`$>'
p1658
ssS'teach_serializers_teacher_chapters_teacher_chapter_serializer'
p1659
(dp1660
g55
(dp1661
g57
S'teach_serializers_teacher_chapters_teacher_chapter_serializer.html'
p1662
sg59
S'teach/serializers/teacher_chapters/teacher_chapter_serializer'
p1663
sg61
g13
(g14
g15
NtRp1664
(dp1665
g18
I1
sg19
I0
sg20
I12
sg21
I0
sg22
I0
sg23
I0
sg24
I0
sbssg64
S'\xac\x9b\xf1Q\x91\xf4J\x03y\xc4\xa7\x9c\x996\x13a'
p1666
ssS'user_system_serializers_app_serializer'
p1667
(dp1668
g42
(dp1669
g409
S'user_system_serializers_app_serializer.html'
p1670
sg411
S'user_system/serializers/app_serializer'
p1671
sg413
g13
(g14
g15
NtRp1672
(dp1673
g18
I1
sg19
I0
sg20
I7
sg21
I0
sg22
I0
sg23
I0
sg24
I0
sbssg51
S'\xc1\x87\xd6\x1b\xbe\x8f\xfb\xdd\x1a\xa9\x92A\xe2\xc3\xe2\xf1'
p1674
ssS'learn_views_daily_quests___init__'
p1675
(dp1676
g55
(dp1677
g57
S'learn_views_daily_quests___init__.html'
p1678
sg59
S'learn/views/daily_quests/__init__'
p1679
sg61
g13
(g14
g15
NtRp1680
(dp1681
g18
I1
sg19
I0
sg20
I1
sg21
I0
sg22
I0
sg23
I0
sg24
I0
sbssg64
S'\xa3\x08\xf3\xbaF\xd5u\x88\x12\xa3V\x05K\xe5\xd0\xa9'
p1682
ssS'create_models_books_book_history_model'
p1683
(dp1684
g330
(dp1685
g93
S'create_models_books_book_history_model.html'
p1686
sg95
S'create/models/books/book_history_model'
p1687
sg97
g13
(g14
g15
NtRp1688
(dp1689
g18
I1
sg19
I4
sg20
I43
sg21
I0
sg22
I1
sg23
I1
sg24
I1
sbssg336
S'\xbf\xd0\x1e\xbc \xdaul\xd6w\x7f2Tu5\xd8'
p1690
ssS'teach_models_teacher_chapters_tests___init__'
p1691
(dp1692
g55
(dp1693
g57
S'teach_models_teacher_chapters_tests___init__.html'
p1694
sg59
S'teach/models/teacher_chapters/tests/__init__'
p1695
sg61
g13
(g14
g15
NtRp1696
(dp1697
g18
I1
sg19
I0
sg20
I0
sg21
I0
sg22
I0
sg23
I0
sg24
I0
sbssg64
S'\x19g\xdfM\x1a\x019\xaf\x1baIeR\xe5u\xa7'
p1698
ssS'create_views_quests_tests_test_remove_tag_view'
p1699
(dp1700
g6
(dp1701
g8
S'create_views_quests_tests_test_remove_tag_view.html'
p1702
sg10
S'create/views/quests/tests/test_remove_tag_view'
p1703
sg12
g13
(g14
g15
NtRp1704
(dp1705
g18
I1
sg19
I0
sg20
I0
sg21
I0
sg22
I0
sg23
I0
sg24
I0
sbssg25
S'\x19g\xdfM\x1a\x019\xaf\x1baIeR\xe5u\xa7'
p1706
ssS'create_models_books_book_model'
p1707
(dp1708
g330
(dp1709
S'html_filename'
p1710
S'create_models_books_book_model.html'
p1711
sS'name'
p1712
S'create/models/books/book_model'
p1713
sS'nums'
p1714
g13
(g14
g15
NtRp1715
(dp1716
g18
I1
sg19
I4
sg20
I37
sg21
I0
sg22
I0
sg23
I0
sg24
I0
sbssg336
S'Z\x88%\xfa\x8c7\x1e\xf9\x06qW\x80O\xe1\x85.'
p1717
ssS'create_views_books_tests_test_remove_chapter_view'
p1718
(dp1719
g126
(dp1720
g44
S'create_views_books_tests_test_remove_chapter_view.html'
p1721
sg46
S'create/views/books/tests/test_remove_chapter_view'
p1722
sg48
g13
(g14
g15
NtRp1723
(dp1724
g18
I1
sg19
I0
sg20
I39
sg21
I0
sg22
I0
sg23
I0
sg24
I0
sbssg132
S'lJ\xdc\xbe\xe2>\x9d\xde\xb5+ia5;\x042'
p1725
ssS'create_models_question_datasets___init__'
p1726
(dp1727
g144
(dp1728
g146
S'create_models_question_datasets___init__.html'
p1729
sg148
S'create/models/question_datasets/__init__'
p1730
sg150
g13
(g14
g15
NtRp1731
(dp1732
g18
I1
sg19
I0
sg20
I1
sg21
I0
sg22
I0
sg23
I0
sg24
I0
sbssg153
S'\xeb\xb7>&t\x02-\xeaaJ,\x8a\xae\xc3\x1a]'
p1733
ssS'user_system_views_users_tests___init__'
p1734
(dp1735
g42
(dp1736
g409
S'user_system_views_users_tests___init__.html'
p1737
sg411
S'user_system/views/users/tests/__init__'
p1738
sg413
g13
(g14
g15
NtRp1739
(dp1740
g18
I1
sg19
I0
sg20
I0
sg21
I0
sg22
I0
sg23
I0
sg24
I0
sbssg51
S'\x19g\xdfM\x1a\x019\xaf\x1baIeR\xe5u\xa7'
p1741
ssS'create_models_tags_tests_test_skill_model'
p1742
(dp1743
g356
(dp1744
g44
S'create_models_tags_tests_test_skill_model.html'
p1745
sg46
S'create/models/tags/tests/test_skill_model'
p1746
sg48
g13
(g14
g15
NtRp1747
(dp1748
g18
I1
sg19
I0
sg20
I12
sg21
I0
sg22
I0
sg23
I0
sg24
I0
sbssg362
S'\x08\x9e\x87e#\x02\x06O\x02l!\x0e\xe8\xeb\xc0.'
p1749
ssS'user_system_views_signups_hardcoded___init__'
p1750
(dp1751
g42
(dp1752
g409
S'user_system_views_signups_hardcoded___init__.html'
p1753
sg411
S'user_system/views/signups/hardcoded/__init__'
p1754
sg413
g13
(g14
g15
NtRp1755
(dp1756
g18
I1
sg19
I0
sg20
I1
sg21
I0
sg22
I0
sg23
I0
sg24
I0
sbssg51
S'?\xfac\x0c\x91\xa4\xd6\xd4\x1d\xe4\x99\xc2[\x83\xfc\xdf'
p1757
ssS'create_models_daily_quest_templates_daily_quest_template_model'
p1758
(dp1759
g233
(dp1760
g235
S'create_models_daily_quest_templates_daily_quest_template_model.html'
p1761
sg237
S'create/models/daily_quest_templates/daily_quest_template_model'
p1762
sg239
g13
(g14
g15
NtRp1763
(dp1764
g18
I1
sg19
I0
sg20
I29
sg21
I0
sg22
I0
sg23
I0
sg24
I0
sbssg242
S'm:\xfa\nsk\x85\xa8p\x96\xc3\xca\xa1c\xb0+'
p1765
ssS'create_models_books_tests_test_book_chapter_model'
p1766
(dp1767
g330
(dp1768
g1595
S'create_models_books_tests_test_book_chapter_model.html'
p1769
sg1597
S'create/models/books/tests/test_book_chapter_model'
p1770
sg1599
g13
(g14
g15
NtRp1771
(dp1772
g18
I1
sg19
I8
sg20
I55
sg21
I0
sg22
I0
sg23
I0
sg24
I0
sbssg336
S'\xc4\x1a\xd7\x12s\xd3V\xef\xac\xa7%\x0c\xdc\x17\x05c'
p1773
ssS'user_system_views_signups_tests_test_verify_email_view'
p1774
(dp1775
g42
(dp1776
g44
S'user_system_views_signups_tests_test_verify_email_view.html'
p1777
sg46
S'user_system/views/signups/tests/test_verify_email_view'
p1778
sg48
g13
(g14
g15
NtRp1779
(dp1780
g18
I1
sg19
I0
sg20
I51
sg21
I0
sg22
I0
sg23
I0
sg24
I0
sbssg51
S'\x81\xacj\x9d\x1f\xa9o\xcc\x1e\xa3\xe59^YT\x9e'
p1781
ssS'teach_models_daily_quest_templates___init__'
p1782
(dp1783
g55
(dp1784
g57
S'teach_models_daily_quest_templates___init__.html'
p1785
sg59
S'teach/models/daily_quest_templates/__init__'
p1786
sg61
g13
(g14
g15
NtRp1787
(dp1788
g18
I1
sg19
I0
sg20
I1
sg21
I0
sg22
I0
sg23
I0
sg24
I0
sbssg64
S'\x12\x89x\xb9F\xfb=b\x04\xddy\xb4\xccZb\xb8'
p1789
ssS'teach_serializers_daily_quest_templates_daily_quest_template_serializer'
p1790
(dp1791
g55
(dp1792
g93
S'teach_serializers_daily_quest_templates_daily_quest_template_serializer.html'
p1793
sg95
S'teach/serializers/daily_quest_templates/daily_quest_template_serializer'
p1794
sg97
g13
(g14
g15
NtRp1795
(dp1796
g18
I1
sg19
I0
sg20
I12
sg21
I0
sg22
I0
sg23
I0
sg24
I0
sbssg64
S"\xd9\x0bcm\x95?'mB\xf9\xdd\xa1\xfc>:="
p1797
ssS'create_views_questions_tests_test_add_tag_view'
p1798
(dp1799
g210
(dp1800
g212
S'create_views_questions_tests_test_add_tag_view.html'
p1801
sg214
S'create/views/questions/tests/test_add_tag_view'
p1802
sg216
g13
(g14
g15
NtRp1803
(dp1804
g18
I1
sg19
I0
sg20
I35
sg21
I0
sg22
I0
sg23
I0
sg24
I0
sbssg219
S'\x8e\x13\xdd\xbd\xba\r&,-|&W-a`\x7f'
p1805
ssS'create_views_quests_quest_view'
p1806
(dp1807
g103
(dp1808
g923
S'create_views_quests_quest_view.html'
p1809
sg925
S'create/views/quests/quest_view'
p1810
sg927
g13
(g14
g15
NtRp1811
(dp1812
g18
I1
sg19
I84
sg20
I249
sg21
I0
sg22
I0
sg23
I178
sg24
I78
sbssg112
S'(\xa2UK\xe2}\xa8\xe0\xc9 3#\xec\x01\xfd\x16'
p1813
ssS'api_logging_models'
p1814
(dp1815
g523
(dp1816
g686
S'api_logging_models.html'
p1817
sg688
S'api_logging/models'
p1818
sg690
g13
(g14
g15
NtRp1819
(dp1820
g18
I1
sg19
I0
sg20
I21
sg21
I0
sg22
I0
sg23
I0
sg24
I0
sbssg529
S'\x0c\x96WFX%\xe9\xcf+\xcf\xc2s\xa7a1\xbd'
p1821
ssS'user_system_models_schools_tests_test_grade_model'
p1822
(dp1823
g223
(dp1824
g31
S'user_system_models_schools_tests_test_grade_model.html'
p1825
sg33
S'user_system/models/schools/tests/test_grade_model'
p1826
sg35
g13
(g14
g15
NtRp1827
(dp1828
g18
I1
sg19
I0
sg20
I24
sg21
I0
sg22
I0
sg23
I0
sg24
I0
sbssg229
S'\x1e|\xb0\x10\x05\x9c\xb5\xe9\xbc\xff\x8a\xaan\xdf\xd4\xb2'
p1829
ssS'user_system_models_apps_tests_test_app_model'
p1830
(dp1831
g42
(dp1832
g44
S'user_system_models_apps_tests_test_app_model.html'
p1833
sg46
S'user_system/models/apps/tests/test_app_model'
p1834
sg48
g13
(g14
g15
NtRp1835
(dp1836
g18
I1
sg19
I0
sg20
I18
sg21
I0
sg22
I0
sg23
I0
sg24
I0
sbssg51
S'\xfb\xfc\xe0#\xe2\n\x8e\x9e\x94\xa8\x83\xc5\xb1U\xa3a'
p1837
ssS'create_models_daily_quests_daily_quest_model'
p1838
(dp1839
g712
(dp1840
g1417
S'create_models_daily_quests_daily_quest_model.html'
p1841
sg1419
S'create/models/daily_quests/daily_quest_model'
p1842
sg1421
g13
(g14
g15
NtRp1843
(dp1844
g18
I1
sg19
I2
sg20
I48
sg21
I0
sg22
I0
sg23
I6
sg24
I2
sbssg721
S'\xae\'/"f\x1014\xdd\x0e\x85\xf4\x91\x02\\`'
p1845
ssS'user_system_views_signups_tests_test_email_signup_view'
p1846
(dp1847
g42
(dp1848
g44
S'user_system_views_signups_tests_test_email_signup_view.html'
p1849
sg46
S'user_system/views/signups/tests/test_email_signup_view'
p1850
sg48
g13
(g14
g15
NtRp1851
(dp1852
g18
I1
sg19
I0
sg20
I51
sg21
I0
sg22
I0
sg23
I0
sg24
I0
sbssg51
S'\xa3\xb2\xaf-\x99\xe3]\xcc\xe6\x8b\xeb\xf63=I\xb4'
p1853
ssS'user_system_models_schools_tests_test_organization_model'
p1854
(dp1855
g197
(dp1856
g44
S'user_system_models_schools_tests_test_organization_model.html'
p1857
sg46
S'user_system/models/schools/tests/test_organization_model'
p1858
sg48
g13
(g14
g15
NtRp1859
(dp1860
g18
I1
sg19
I0
sg20
I24
sg21
I0
sg22
I0
sg23
I0
sg24
I0
sbssg206
S'\xeb?\x1b\x02\xc8gO\x05\xad\x0f\xa1K\xb3\xd7\xb7t'
p1861
ssS'create_serializers_books_book_subchapter_serializer'
p1862
(dp1863
g330
(dp1864
g1097
S'create_serializers_books_book_subchapter_serializer.html'
p1865
sg1099
S'create/serializers/books/book_subchapter_serializer'
p1866
sg1101
g13
(g14
g15
NtRp1867
(dp1868
g18
I1
sg19
I0
sg20
I18
sg21
I0
sg22
I0
sg23
I3
sg24
I0
sbssg336
S'89\x89\x89\xd8\x94\xd2l\x98G]\xad\xe1\xf7\x93\xfc'
p1869
ssS'create_views_books_book_subchapter_view'
p1870
(dp1871
g1177
(dp1872
g44
S'create_views_books_book_subchapter_view.html'
p1873
sg46
S'create/views/books/book_subchapter_view'
p1874
sg48
g13
(g14
g15
NtRp1875
(dp1876
g18
I1
sg19
I8
sg20
I46
sg21
I0
sg22
I0
sg23
I0
sg24
I0
sbssg1183
S'\x0e\xa6\x19V\xf0\xf3;\xa2\x8d \xd8i\xb7*D\x87'
p1877
ssS'user_system_models_roles_tests_test_role_model'
p1878
(dp1879
g42
(dp1880
g44
S'user_system_models_roles_tests_test_role_model.html'
p1881
sg46
S'user_system/models/roles/tests/test_role_model'
p1882
sg48
g13
(g14
g15
NtRp1883
(dp1884
g18
I1
sg19
I0
sg20
I20
sg21
I0
sg22
I0
sg23
I0
sg24
I0
sbssg51
S'\xef\xba\x956\x96\xbc:\xa0\x0f\x00\x84\x80\x0elh\xed'
p1885
ssS'user_system_views_signups_verify_email_view'
p1886
(dp1887
g42
(dp1888
g44
S'user_system_views_signups_verify_email_view.html'
p1889
sg46
S'user_system/views/signups/verify_email_view'
p1890
sg48
g13
(g14
g15
NtRp1891
(dp1892
g18
I1
sg19
I6
sg20
I26
sg21
I0
sg22
I0
sg23
I0
sg24
I0
sbssg51
S"B+;\xbf\xb1A\x1f\n\x94\x0e\xeb\xd0\xf1Y'l"
p1893
ssS'user_system_views_logins_email_login_view'
p1894
(dp1895
g42
(dp1896
g93
S'user_system_views_logins_email_login_view.html'
p1897
sg95
S'user_system/views/logins/email_login_view'
p1898
sg97
g13
(g14
g15
NtRp1899
(dp1900
g18
I1
sg19
I8
sg20
I35
sg21
I0
sg22
I0
sg23
I0
sg24
I0
sbssg51
S'\x9e\xe3\x8e\xf9o\x8aYC\xa2\xcb\xe7\xbd\x94\xe1O\x1a'
p1901
ssS'user_system_serializers_users_list_user_serializer'
p1902
(dp1903
g42
(dp1904
g44
S'user_system_serializers_users_list_user_serializer.html'
p1905
sg46
S'user_system/serializers/users/list_user_serializer'
p1906
sg48
g13
(g14
g15
NtRp1907
(dp1908
g18
I1
sg19
I0
sg20
I18
sg21
I0
sg22
I0
sg23
I0
sg24
I0
sbssg51
S'\xdfK>6\xe0\x8d\xcd\xd4/O\xef\xaa\xd0\x9efX'
p1909
ssS'user_system_models_users_tests_test_teacher_profile_model'
p1910
(dp1911
g29
(dp1912
g1167
S'user_system_models_users_tests_test_teacher_profile_model.html'
p1913
sg1169
S'user_system/models/users/tests/test_teacher_profile_model'
p1914
sg1171
g13
(g14
g15
NtRp1915
(dp1916
g18
I1
sg19
I0
sg20
I32
sg21
I0
sg22
I0
sg23
I0
sg24
I0
sbssg38
S'\xe7n\x9a\x17\x9d0\x01\xa6\x0f\x18\x10l\x8ckmy'
p1917
ssS'create_views_quests_tests_test_remove_question_template_view'
p1918
(dp1919
g6
(dp1920
g8
S'create_views_quests_tests_test_remove_question_template_view.html'
p1921
sg10
S'create/views/quests/tests/test_remove_question_template_view'
p1922
sg12
g13
(g14
g15
NtRp1923
(dp1924
g18
I1
sg19
I0
sg20
I0
sg21
I0
sg22
I0
sg23
I0
sg24
I0
sbssg25
S'\x19g\xdfM\x1a\x019\xaf\x1baIeR\xe5u\xa7'
p1925
ssS'user_system_serializers_users_user_profile_update_request_serializer'
p1926
(dp1927
g116
(dp1928
S'html_filename'
p1929
S'user_system_serializers_users_user_profile_update_request_serializer.html'
p1930
sS'name'
p1931
S'user_system/serializers/users/user_profile_update_request_serializer'
p1932
sS'nums'
p1933
g13
(g14
g15
NtRp1934
(dp1935
g18
I1
sg19
I0
sg20
I20
sg21
I0
sg22
I0
sg23
I2
sg24
I0
sbssg122
S'\x19EO\xe6\xb5\xdbWY\xb8\xd9\x1cP&\xe3\xc4\xca'
p1936
ssS'create_views_books_tests_test_get_books_list_view'
p1937
(dp1938
g877
(dp1939
g93
S'create_views_books_tests_test_get_books_list_view.html'
p1940
sg95
S'create/views/books/tests/test_get_books_list_view'
p1941
sg97
g13
(g14
g15
NtRp1942
(dp1943
g18
I1
sg19
I0
sg20
I21
sg21
I0
sg22
I0
sg23
I7
sg24
I0
sbssg883
S"\x8f\xb3n\xed5\x0b\x8b\xac^\x81N\xd6\x93'=\x97"
p1944
ssS'user_system_serializers_schools_classroom_serializer'
p1945
(dp1946
g116
(dp1947
g31
S'user_system_serializers_schools_classroom_serializer.html'
p1948
sg33
S'user_system/serializers/schools/classroom_serializer'
p1949
sg35
g13
(g14
g15
NtRp1950
(dp1951
g18
I1
sg19
I0
sg20
I13
sg21
I0
sg22
I0
sg23
I2
sg24
I0
sbssg122
S'\\\x02 #\xfc|[\xb1g\x7f\x83+\xb6\xaa\x13\x01'
p1952
ssS'create_models_daily_quest_copies_tests___init__'
p1953
(dp1954
g374
(dp1955
g1417
S'create_models_daily_quest_copies_tests___init__.html'
p1956
sg1419
S'create/models/daily_quest_copies/tests/__init__'
p1957
sg1421
g13
(g14
g15
NtRp1958
(dp1959
g18
I1
sg19
I0
sg20
I0
sg21
I0
sg22
I0
sg23
I0
sg24
I0
sbssg383
S'\x19g\xdfM\x1a\x019\xaf\x1baIeR\xe5u\xa7'
p1960
ssS'api_logging_views_summary_user_activity_summary_view'
p1961
(dp1962
g278
(dp1963
g93
S'api_logging_views_summary_user_activity_summary_view.html'
p1964
sg95
S'api_logging/views/summary/user_activity_summary_view'
p1965
sg97
g13
(g14
g15
NtRp1966
(dp1967
g18
I1
sg19
I8
sg20
I27
sg21
I0
sg22
I0
sg23
I13
sg24
I8
sbssg284
S'\x99\xfc\\\x0e\x10\x840(\x94\xd3(k\x9f\xb4\xd9M'
p1968
ssS'create_urls'
p1969
(dp1970
g42
(dp1971
g57
S'create_urls.html'
p1972
sg59
S'create/urls'
p1973
sg61
g13
(g14
g15
NtRp1974
(dp1975
g18
I1
sg19
I0
sg20
I22
sg21
I0
sg22
I0
sg23
I0
sg24
I0
sbssg51
S"k/4\x8e_h\xf3)p'\x8e\x80v\x1e\xbdg"
p1976
ssS'create_views_tags_tests_test_get_tags_list_view'
p1977
(dp1978
g387
(dp1979
g93
S'create_views_tags_tests_test_get_tags_list_view.html'
p1980
sg95
S'create/views/tags/tests/test_get_tags_list_view'
p1981
sg97
g13
(g14
g15
NtRp1982
(dp1983
g18
I1
sg19
I0
sg20
I21
sg21
I0
sg22
I0
sg23
I7
sg24
I0
sbssg396
S'\x05\xa0\x8d\x97a\nbx\x0b\xca\x18\xe92\xdb\x88\x88'
p1984
ssS'create_serializers_tags_tag_serializer'
p1985
(dp1986
g330
(dp1987
g93
S'create_serializers_tags_tag_serializer.html'
p1988
sg95
S'create/serializers/tags/tag_serializer'
p1989
sg97
g13
(g14
g15
NtRp1990
(dp1991
g18
I1
sg19
I0
sg20
I38
sg21
I0
sg22
I0
sg23
I6
sg24
I0
sbssg336
S'\xf3>\xf0c\xa9\xa3\xbfV(qxGx\x00r\xf7'
p1992
ssS'user_system_models_users_teacher_mapping_model'
p1993
(dp1994
g29
(dp1995
g93
S'user_system_models_users_teacher_mapping_model.html'
p1996
sg95
S'user_system/models/users/teacher_mapping_model'
p1997
sg97
g13
(g14
g15
NtRp1998
(dp1999
g18
I1
sg19
I4
sg20
I25
sg21
I0
sg22
I0
sg23
I6
sg24
I4
sbssg38
S'\xf1"\xa4\xe2\xde\xb3\x8bY\x01H\x9c\xb0\x92\x93\xbd\xec'
p2000
ssS'create_models_questions___init__'
p2001
(dp2002
g42
(dp2003
g551
S'create_models_questions___init__.html'
p2004
sg553
S'create/models/questions/__init__'
p2005
sg555
g13
(g14
g15
NtRp2006
(dp2007
g18
I1
sg19
I0
sg20
I6
sg21
I0
sg22
I0
sg23
I0
sg24
I0
sbssg51
S'\xd4\xfd\xae\xf0N\xdd-\x07$U\xac\xf1\xc2\x0f\xa5H'
p2008
ssS'create_models_tags_tag_type_model'
p2009
(dp2010
g356
(dp2011
g44
S'create_models_tags_tag_type_model.html'
p2012
sg46
S'create/models/tags/tag_type_model'
p2013
sg48
g13
(g14
g15
NtRp2014
(dp2015
g18
I1
sg19
I0
sg20
I15
sg21
I0
sg22
I0
sg23
I0
sg24
I0
sbssg362
S'\x89\x07\x8e\xc7^0\x96Do\xbf\xa5\xca5\xe4\x92\xeb'
p2016
ssS'create_serializers___init__'
p2017
(dp2018
g42
(dp2019
g57
S'create_serializers___init__.html'
p2020
sg59
S'create/serializers/__init__'
p2021
sg61
g13
(g14
g15
NtRp2022
(dp2023
g18
I1
sg19
I0
sg20
I6
sg21
I0
sg22
I0
sg23
I0
sg24
I0
sbssg51
S'\x97\xc3"\xfe\x83V\xc1w\xa6r\x02s qES'
p2024
ssS'create_serializers_books_book_history_serializer'
p2025
(dp2026
g877
(dp2027
g93
S'create_serializers_books_book_history_serializer.html'
p2028
sg95
S'create/serializers/books/book_history_serializer'
p2029
sg97
g13
(g14
g15
NtRp2030
(dp2031
g18
I1
sg19
I0
sg20
I14
sg21
I0
sg22
I0
sg23
I3
sg24
I0
sbssg883
S'\xc9F\x1b\x8a\xa3\xc3DG\x19\xb0\xa4\xe9\x82\xbdZK'
p2032
ssS'teach_views_daily_quest_templates___init__'
p2033
(dp2034
g55
(dp2035
g57
S'teach_views_daily_quest_templates___init__.html'
p2036
sg59
S'teach/views/daily_quest_templates/__init__'
p2037
sg61
g13
(g14
g15
NtRp2038
(dp2039
g18
I1
sg19
I0
sg20
I1
sg21
I0
sg22
I0
sg23
I0
sg24
I0
sbssg64
S'\xc1b\x1f\x95\xabR`C\xe80\xb9tNC\r3'
p2040
ssS'teach___init__'
p2041
(dp2042
g55
(dp2043
g57
S'teach___init__.html'
p2044
sg59
S'teach/__init__'
p2045
sg61
g13
(g14
g15
NtRp2046
(dp2047
g18
I1
sg19
I0
sg20
I0
sg21
I0
sg22
I0
sg23
I0
sg24
I0
sbssg64
S'\x19g\xdfM\x1a\x019\xaf\x1baIeR\xe5u\xa7'
p2048
ssS'user_system_views_users___init__'
p2049
(dp2050
g42
(dp2051
g93
S'user_system_views_users___init__.html'
p2052
sg95
S'user_system/views/users/__init__'
p2053
sg97
g13
(g14
g15
NtRp2054
(dp2055
g18
I1
sg19
I0
sg20
I6
sg21
I0
sg22
I0
sg23
I0
sg24
I0
sbssg51
S'YNj\xa9zR_\xf0?\x10V\x89y\x81\xbb\xeb'
p2056
ssS'user_system_views_logins_tests_test_facebook_login_view'
p2057
(dp2058
g42
(dp2059
g44
S'user_system_views_logins_tests_test_facebook_login_view.html'
p2060
sg46
S'user_system/views/logins/tests/test_facebook_login_view'
p2061
sg48
g13
(g14
g15
NtRp2062
(dp2063
g18
I1
sg19
I0
sg20
I51
sg21
I0
sg22
I0
sg23
I0
sg24
I0
sbssg51
S'\x8eg\xfbA\xbdf+\x81\xe9\x8a\x16\x82\xe9\xe3\xc0\xf4'
p2064
ssS'flipped_helpers_tests_test_email_helper'
p2065
(dp2066
g42
(dp2067
g44
S'flipped_helpers_tests_test_email_helper.html'
p2068
sg46
S'flipped/helpers/tests/test_email_helper'
p2069
sg48
g13
(g14
g15
NtRp2070
(dp2071
g18
I1
sg19
I0
sg20
I13
sg21
I0
sg22
I0
sg23
I0
sg24
I0
sbssg51
S'\x13\xee\xcb^E:3A\xff)v\x7f\xd3\xa7\xa2\xaa'
p2072
ssS'user_system_serializers_users___init__'
p2073
(dp2074
g42
(dp2075
g93
S'user_system_serializers_users___init__.html'
p2076
sg95
S'user_system/serializers/users/__init__'
p2077
sg97
g13
(g14
g15
NtRp2078
(dp2079
g18
I1
sg19
I0
sg20
I7
sg21
I0
sg22
I0
sg23
I0
sg24
I0
sbssg51
S'8\xb4\xd8m\x9aA\xf2,\xb1\xe4\xb3\xe2#\xab\xd0#'
p2080
ssS'user_system_models_schools_tests_test_semester_model'
p2081
(dp2082
g197
(dp2083
g1167
S'user_system_models_schools_tests_test_semester_model.html'
p2084
sg1169
S'user_system/models/schools/tests/test_semester_model'
p2085
sg1171
g13
(g14
g15
NtRp2086
(dp2087
g18
I1
sg19
I0
sg20
I29
sg21
I0
sg22
I0
sg23
I0
sg24
I0
sbssg206
S'\xe9\xd9\xdc\\\xb9\x93\xb1\x93Q\x02\xe9\xb7Y,\xa6w'
p2088
ssS'create_views_quests_tests___init__'
p2089
(dp2090
g6
(dp2091
g8
S'create_views_quests_tests___init__.html'
p2092
sg10
S'create/views/quests/tests/__init__'
p2093
sg12
g13
(g14
g15
NtRp2094
(dp2095
g18
I1
sg19
I0
sg20
I0
sg21
I0
sg22
I0
sg23
I0
sg24
I0
sbssg25
S'\x19g\xdfM\x1a\x019\xaf\x1baIeR\xe5u\xa7'
p2096
ssS'user_system_serializers_schools_course_serializer'
p2097
(dp2098
g116
(dp2099
g31
S'user_system_serializers_schools_course_serializer.html'
p2100
sg33
S'user_system/serializers/schools/course_serializer'
p2101
sg35
g13
(g14
g15
NtRp2102
(dp2103
g18
I1
sg19
I0
sg20
I16
sg21
I0
sg22
I0
sg23
I2
sg24
I0
sbssg122
S'\xb0\xa8O3\x01\xce\xfe3\x12\x94\xc0\xc4\xe0@\xafJ'
p2104
ssS'user_system_views_users_tests_test_delete_user_view'
p2105
(dp2106
g42
(dp2107
g44
S'user_system_views_users_tests_test_delete_user_view.html'
p2108
sg46
S'user_system/views/users/tests/test_delete_user_view'
p2109
sg48
g13
(g14
g15
NtRp2110
(dp2111
g18
I1
sg19
I0
sg20
I22
sg21
I0
sg22
I0
sg23
I0
sg24
I0
sbssg51
S'\xe4S$\xa1t\xc6\xbe\xc7\xb9^Y\x05{\x92KQ'
p2112
ssS'learn_models_daily_quests_daily_quest_question_history_model'
p2113
(dp2114
S'index'
p2115
(dp2116
g93
S'learn_models_daily_quests_daily_quest_question_history_model.html'
p2117
sg95
S'learn/models/daily_quests/daily_quest_question_history_model'
p2118
sg97
g13
(g14
g15
NtRp2119
(dp2120
g18
I1
sg19
I6
sg20
I65
sg21
I0
sg22
I0
sg23
I31
sg24
I6
sbssS'hash'
p2121
S'\x7f\x15\xd1PlNw\x07\xca4\x8e\x83\r\xa6\x12\x02'
p2122
ssS'user_system_models_users_user_profile_update_request_model'
p2123
(dp2124
g116
(dp2125
g1929
S'user_system_models_users_user_profile_update_request_model.html'
p2126
sg1931
S'user_system/models/users/user_profile_update_request_model'
p2127
sg1933
g13
(g14
g15
NtRp2128
(dp2129
g18
I1
sg19
I0
sg20
I58
sg21
I0
sg22
I0
sg23
I2
sg24
I0
sbssg122
S"\x1c\xaa'\xd2w+\xbb\x17#\xe75\x1e\x8d\xad\xa6\xa7"
p2130
ssS'create_models_tags_tag_history_model'
p2131
(dp2132
g523
(dp2133
g212
S'create_models_tags_tag_history_model.html'
p2134
sg214
S'create/models/tags/tag_history_model'
p2135
sg216
g13
(g14
g15
NtRp2136
(dp2137
g18
I1
sg19
I0
sg20
I37
sg21
I0
sg22
I0
sg23
I0
sg24
I0
sbssg529
S'\xae\xc8g\xc1\xf5l<\x1f\x9c\xaf\x17\xf98\r\xa1\xe2'
p2138
ssS'create_serializers_daily_quest_copies___init__'
p2139
(dp2140
g374
(dp2141
g1417
S'create_serializers_daily_quest_copies___init__.html'
p2142
sg1419
S'create/serializers/daily_quest_copies/__init__'
p2143
sg1421
g13
(g14
g15
NtRp2144
(dp2145
g18
I1
sg19
I0
sg20
I1
sg21
I0
sg22
I0
sg23
I0
sg24
I0
sbssg383
S'\nX]\x85Nc\xb8\xc0\xe1\xaf\xa0\xda_\x9e\xb9u'
p2146
ssS'user_system_models_schools_course_model'
p2147
(dp2148
g223
(dp2149
g31
S'user_system_models_schools_course_model.html'
p2150
sg33
S'user_system/models/schools/course_model'
p2151
sg35
g13
(g14
g15
NtRp2152
(dp2153
g18
I1
sg19
I6
sg20
I37
sg21
I0
sg22
I0
sg23
I13
sg24
I6
sbssg229
S'o\xf1\xa2\xb4\xf9\x80\x19bT\x08l\xe7\xd2\x83%2'
p2154
ssS'create_models_daily_quest_copies_tests_test_daily_quest_copy_model'
p2155
(dp2156
g374
(dp2157
g497
S'create_models_daily_quest_copies_tests_test_daily_quest_copy_model.html'
p2158
sg499
S'create/models/daily_quest_copies/tests/test_daily_quest_copy_model'
p2159
sg501
g13
(g14
g15
NtRp2160
(dp2161
g18
I1
sg19
I4
sg20
I45
sg21
I0
sg22
I0
sg23
I0
sg24
I0
sbssg383
S'\xcd\xeeU\x8a\xd7\x95\x9e5E\xd0\xaf\xd07\x80\x85\xe0'
p2162
ssS'teach_models_teacher_chapters_teacher_chapter_model'
p2163
(dp2164
g55
(dp2165
S'html_filename'
p2166
S'teach_models_teacher_chapters_teacher_chapter_model.html'
p2167
sS'name'
p2168
S'teach/models/teacher_chapters/teacher_chapter_model'
p2169
sS'nums'
p2170
g13
(g14
g15
NtRp2171
(dp2172
g18
I1
sg19
I0
sg20
I23
sg21
I0
sg22
I0
sg23
I0
sg24
I0
sbssg64
S'\x97T&\xd0\x81q\xc2M\xc3\x03\x01U\xf5S!h'
p2173
ssS'create_models_questions_question_template_model'
p2174
(dp2175
g103
(dp2176
S'html_filename'
p2177
S'create_models_questions_question_template_model.html'
p2178
sS'name'
p2179
S'create/models/questions/question_template_model'
p2180
sS'nums'
p2181
g13
(g14
g15
NtRp2182
(dp2183
g18
I1
sg19
I0
sg20
I40
sg21
I0
sg22
I0
sg23
I0
sg24
I0
sbssg112
S'\x845gz\x1d\x17\x1dv\x81\n\x96G\x99pE\\'
p2184
ssS'create_views_questions_tests_test_get_question_by_id_view'
p2185
(dp2186
g42
(dp2187
g93
S'create_views_questions_tests_test_get_question_by_id_view.html'
p2188
sg95
S'create/views/questions/tests/test_get_question_by_id_view'
p2189
sg97
g13
(g14
g15
NtRp2190
(dp2191
g18
I1
sg19
I0
sg20
I24
sg21
I0
sg22
I0
sg23
I4
sg24
I0
sbssg51
S'\xc7\x7f\x80&d\x07\xb4\x15\x01\xb0\x1a\xfeb|G\xfe'
p2192
ssS'teach_models_teacher_tags_tests___init__'
p2193
(dp2194
g55
(dp2195
g57
S'teach_models_teacher_tags_tests___init__.html'
p2196
sg59
S'teach/models/teacher_tags/tests/__init__'
p2197
sg61
g13
(g14
g15
NtRp2198
(dp2199
g18
I1
sg19
I0
sg20
I0
sg21
I0
sg22
I0
sg23
I0
sg24
I0
sbssg64
S'\x19g\xdfM\x1a\x019\xaf\x1baIeR\xe5u\xa7'
p2200
ssS'api_logging_urls'
p2201
(dp2202
g278
(dp2203
g93
S'api_logging_urls.html'
p2204
sg95
S'api_logging/urls'
p2205
sg97
g13
(g14
g15
NtRp2206
(dp2207
g18
I1
sg19
I0
sg20
I13
sg21
I0
sg22
I0
sg23
I0
sg24
I0
sbssg284
S'`K\xc5_\x82\xb4\x1c^\xd6\x98+\xe6\xf0/\x97\x06'
p2208
ssS'api_logging_serializers_LoggingSerializer'
p2209
(dp2210
g278
(dp2211
g93
S'api_logging_serializers_LoggingSerializer.html'
p2212
sg95
S'api_logging/serializers/LoggingSerializer'
p2213
sg97
g13
(g14
g15
NtRp2214
(dp2215
g18
I1
sg19
I0
sg20
I12
sg21
I0
sg22
I0
sg23
I0
sg24
I0
sbssg284
S'1\xdb}\x8eJ\x1a\xe6@D\xcc}\xf4\x11(\x11\xb0'
p2216
ssS'create_views_books_tests_test_remove_subchapter_view'
p2217
(dp2218
S'index'
p2219
(dp2220
g44
S'create_views_books_tests_test_remove_subchapter_view.html'
p2221
sg46
S'create/views/books/tests/test_remove_subchapter_view'
p2222
sg48
g13
(g14
g15
NtRp2223
(dp2224
g18
I1
sg19
I0
sg20
I44
sg21
I0
sg22
I0
sg23
I0
sg24
I0
sbssS'hash'
p2225
S'\x0b\xddi\xaa_d\x8c\xf3b\xa2\x12\xbc\xce\xa5\xbf\x8b'
p2226
ssS'teach_views_summaries_daily_quest_daily_summary_view'
p2227
(dp2228
g278
(dp2229
g93
S'teach_views_summaries_daily_quest_daily_summary_view.html'
p2230
sg95
S'teach/views/summaries/daily_quest_daily_summary_view'
p2231
sg97
g13
(g14
g15
NtRp2232
(dp2233
g18
I1
sg19
I12
sg20
I61
sg21
I0
sg22
I0
sg23
I39
sg24
I12
sbssg284
S'\x06\\F.\x8c\xd3M\x8e\xc5\xc9\xd5<\x13V\xd6C'
p2234
ssS'learn_models_points_point_history_model'
p2235
(dp2236
g278
(dp2237
g93
S'learn_models_points_point_history_model.html'
p2238
sg95
S'learn/models/points/point_history_model'
p2239
sg97
g13
(g14
g15
NtRp2240
(dp2241
g18
I1
sg19
I0
sg20
I16
sg21
I0
sg22
I0
sg23
I0
sg24
I0
sbssg284
S'\xa8\xbaH\x19\x11\xbeT\xe2N=\xfe\xed\x9d\xd4\x83\x1e'
p2242
ssS'user_system___init__'
p2243
(dp2244
g42
(dp2245
g409
S'user_system___init__.html'
p2246
sg411
S'user_system/__init__'
p2247
sg413
g13
(g14
g15
NtRp2248
(dp2249
g18
I1
sg19
I0
sg20
I0
sg21
I0
sg22
I0
sg23
I0
sg24
I0
sbssg51
S'\x19g\xdfM\x1a\x019\xaf\x1baIeR\xe5u\xa7'
p2250
ssS'create_models_question_datasets_question_dataset_model'
p2251
(dp2252
g144
(dp2253
g146
S'create_models_question_datasets_question_dataset_model.html'
p2254
sg148
S'create/models/question_datasets/question_dataset_model'
p2255
sg150
g13
(g14
g15
NtRp2256
(dp2257
g18
I1
sg19
I0
sg20
I25
sg21
I0
sg22
I0
sg23
I0
sg24
I0
sbssg153
S'\x9e\x8d\xc6\xe6\xe4\x9f#\xfdc\xc9q\r\x17Y\x8e\xb1'
p2258
ssS'create_views_question_datasets___init__'
p2259
(dp2260
g144
(dp2261
g146
S'create_views_question_datasets___init__.html'
p2262
sg148
S'create/views/question_datasets/__init__'
p2263
sg150
g13
(g14
g15
NtRp2264
(dp2265
g18
I1
sg19
I0
sg20
I1
sg21
I0
sg22
I0
sg23
I0
sg24
I0
sbssg153
S'\x87x\xd1\xbe\x15\xd3\xbc\x99\x86\x08\xf8\x06S\xcf\x00\x87'
p2266
ssS'teach_serializers_daily_quest_templates___init__'
p2267
(dp2268
g55
(dp2269
g57
S'teach_serializers_daily_quest_templates___init__.html'
p2270
sg59
S'teach/serializers/daily_quest_templates/__init__'
p2271
sg61
g13
(g14
g15
NtRp2272
(dp2273
g18
I1
sg19
I0
sg20
I1
sg21
I0
sg22
I0
sg23
I0
sg24
I0
sbssg64
S'\xa2\xd34\x1b\xe2+\x16\xa9un\x8f\xa5\xe6\xc4\\p'
p2274
ssS'create_views_daily_quests___init__'
p2275
(dp2276
g233
(dp2277
g235
S'create_views_daily_quests___init__.html'
p2278
sg237
S'create/views/daily_quests/__init__'
p2279
sg239
g13
(g14
g15
NtRp2280
(dp2281
g18
I1
sg19
I0
sg20
I1
sg21
I0
sg22
I0
sg23
I0
sg24
I0
sbssg242
S'\xa3\x08\xf3\xbaF\xd5u\x88\x12\xa3V\x05K\xe5\xd0\xa9'
p2282
ssS'flipped_helpers_email_helper'
p2283
(dp2284
g42
(dp2285
g44
S'flipped_helpers_email_helper.html'
p2286
sg46
S'flipped/helpers/email_helper'
p2287
sg48
g13
(g14
g15
NtRp2288
(dp2289
g18
I1
sg19
I2
sg20
I9
sg21
I0
sg22
I0
sg23
I0
sg24
I0
sbssg51
S"\xeal\t\x03)\xcc\xc4\x0b\r\xe2&\x83a'I\xad"
p2290
ssS'flipped_urls'
p2291
(dp2292
g42
(dp2293
g93
S'flipped_urls.html'
p2294
sg95
S'flipped/urls'
p2295
sg97
g13
(g14
g15
NtRp2296
(dp2297
g18
I1
sg19
I0
sg20
I9
sg21
I0
sg22
I0
sg23
I0
sg24
I0
sbssg51
S'\xd1N\xba,\x18\n\x07\xff\xef\x82\xde\xab\x83\x94\xf4['
p2298
ssS'teach_views_summaries_daily_quest_summary_view'
p2299
(dp2300
g278
(dp2301
g93
S'teach_views_summaries_daily_quest_summary_view.html'
p2302
sg95
S'teach/views/summaries/daily_quest_summary_view'
p2303
sg97
g13
(g14
g15
NtRp2304
(dp2305
g18
I1
sg19
I24
sg20
I72
sg21
I0
sg22
I0
sg23
I52
sg24
I24
sbssg284
S'\xdf\xb6.EW\xea\xa0\x93\x8c\xc2f\x1cAG8\xa4'
p2306
ssS'user_system_views_users_student_profile_request_view'
p2307
(dp2308
g116
(dp2309
g31
S'user_system_views_users_student_profile_request_view.html'
p2310
sg33
S'user_system/views/users/student_profile_request_view'
p2311
sg35
g13
(g14
g15
NtRp2312
(dp2313
g18
I1
sg19
I0
sg20
I14
sg21
I0
sg22
I0
sg23
I0
sg24
I0
sbssg122
S'\x87:\xd0\xef\x04\xf3-q\r\xe7\xec \xceS\xee<'
p2314
ssS'user_system_views_logins_tests___init__'
p2315
(dp2316
g42
(dp2317
g409
S'user_system_views_logins_tests___init__.html'
p2318
sg411
S'user_system/views/logins/tests/__init__'
p2319
sg413
g13
(g14
g15
NtRp2320
(dp2321
g18
I1
sg19
I0
sg20
I1
sg21
I0
sg22
I0
sg23
I0
sg24
I0
sbssg51
S'\xbc\xd6\xeb\xb3\xba\xcaz\xf7{\xd4B\xb5}l\xdf\x96'
p2322
ssS'api_logging_views_modal_loggings___init__'
p2323
(dp2324
g278
(dp2325
g93
S'api_logging_views_modal_loggings___init__.html'
p2326
sg95
S'api_logging/views/modal_loggings/__init__'
p2327
sg97
g13
(g14
g15
NtRp2328
(dp2329
g18
I1
sg19
I0
sg20
I1
sg21
I0
sg22
I0
sg23
I0
sg24
I0
sbssg284
S'\xf1\x0fWK\x0c\x9eD\xe8\x12\xaf\x93\xfa\xd7q\xa8\x91'
p2330
ssS'user_system_views_users_tests_test_get_users_by_signup_type_view'
p2331
(dp2332
g42
(dp2333
g93
S'user_system_views_users_tests_test_get_users_by_signup_type_view.html'
p2334
sg95
S'user_system/views/users/tests/test_get_users_by_signup_type_view'
p2335
sg97
g13
(g14
g15
NtRp2336
(dp2337
g18
I1
sg19
I0
sg20
I44
sg21
I0
sg22
I0
sg23
I2
sg24
I0
sbssg51
S'\xcf\xb2Ma\xa3^:\x83{I\x829\xf7\x19\xa7\xe9'
p2338
ssS'user_system_serializers_users_user_serializer'
p2339
(dp2340
g42
(dp2341
g93
S'user_system_serializers_users_user_serializer.html'
p2342
sg95
S'user_system/serializers/users/user_serializer'
p2343
sg97
g13
(g14
g15
NtRp2344
(dp2345
g18
I1
sg19
I8
sg20
I46
sg21
I0
sg22
I0
sg23
I14
sg24
I8
sbssg51
S'\xcaG\xfa\x1a\x04\xebv\x03g\x9d\xbeM?\xff#\x0b'
p2346
ssS'create_serializers_daily_quest_copies_daily_quest_copy_serializer'
p2347
(dp2348
g374
(dp2349
g1417
S'create_serializers_daily_quest_copies_daily_quest_copy_serializer.html'
p2350
sg1419
S'create/serializers/daily_quest_copies/daily_quest_copy_serializer'
p2351
sg1421
g13
(g14
g15
NtRp2352
(dp2353
g18
I1
sg19
I0
sg20
I18
sg21
I0
sg22
I0
sg23
I3
sg24
I0
sbssg383
S'\xb6\xc6tAeANu\xae\n4T\xc1.\xe2\xfd'
p2354
ssS'create_models_books_tests_test_book_history_model'
p2355
(dp2356
g330
(dp2357
g2166
S'create_models_books_tests_test_book_history_model.html'
p2358
sg2168
S'create/models/books/tests/test_book_history_model'
p2359
sg2170
g13
(g14
g15
NtRp2360
(dp2361
g18
I1
sg19
I0
sg20
I65
sg21
I0
sg22
I0
sg23
I0
sg24
I0
sbssg336
S'\xf0\xc1p\xea=_t.\xc9\xf6\xbe\xe8~&\xe5\xa7'
p2362
ssS'create_views_quests_tests_test_remove_question_view'
p2363
(dp2364
g6
(dp2365
g8
S'create_views_quests_tests_test_remove_question_view.html'
p2366
sg10
S'create/views/quests/tests/test_remove_question_view'
p2367
sg12
g13
(g14
g15
NtRp2368
(dp2369
g18
I1
sg19
I0
sg20
I0
sg21
I0
sg22
I0
sg23
I0
sg24
I0
sbssg25
S'\x19g\xdfM\x1a\x019\xaf\x1baIeR\xe5u\xa7'
p2370
ssS'create_serializers_daily_quest_templates_daily_quest_template_serializer'
p2371
(dp2372
g233
(dp2373
g235
S'create_serializers_daily_quest_templates_daily_quest_template_serializer.html'
p2374
sg237
S'create/serializers/daily_quest_templates/daily_quest_template_serializer'
p2375
sg239
g13
(g14
g15
NtRp2376
(dp2377
g18
I1
sg19
I0
sg20
I8
sg21
I0
sg22
I0
sg23
I0
sg24
I0
sbssg242
S'-b,\x8cFu\xd2b\x8b\rw5\xa4\xf7\xc3\xf2'
p2378
ssS'user_system_managers___init__'
p2379
(dp2380
g278
(dp2381
g93
S'user_system_managers___init__.html'
p2382
sg95
S'user_system/managers/__init__'
p2383
sg97
g13
(g14
g15
NtRp2384
(dp2385
g18
I1
sg19
I0
sg20
I2
sg21
I0
sg22
I0
sg23
I0
sg24
I0
sbssg284
S'\xf1\xb0\xc3\xd3B\x8d\xdf\x12\x1bW\x06\xa4\xe7\x13A '
p2386
ssS'teach_models_campaigns_tests_test_campaign_model'
p2387
(dp2388
g116
(dp2389
g31
S'teach_models_campaigns_tests_test_campaign_model.html'
p2390
sg33
S'teach/models/campaigns/tests/test_campaign_model'
p2391
sg35
g13
(g14
g15
NtRp2392
(dp2393
g18
I1
sg19
I0
sg20
I43
sg21
I0
sg22
I0
sg23
I0
sg24
I0
sbssg122
S"\x1b\xbbi{\xe8\xa9o\xd3w\xfb'\x1e\xca\x1b\xd9\xc7"
p2394
ssS'api_logging_views_modal_loggings_modal_user_history_view'
p2395
(dp2396
g278
(dp2397
g93
S'api_logging_views_modal_loggings_modal_user_history_view.html'
p2398
sg95
S'api_logging/views/modal_loggings/modal_user_history_view'
p2399
sg97
g13
(g14
g15
NtRp2400
(dp2401
g18
I1
sg19
I0
sg20
I12
sg21
I0
sg22
I0
sg23
I0
sg24
I0
sbssg284
S'\xb4\xa3\xa1!\x95\x8a\x06\xf5\x19\x1c=\xe2B\xa3b\t'
p2402
ssS'user_system_views_logins_tests_test_email_login_view'
p2403
(dp2404
g42
(dp2405
g44
S'user_system_views_logins_tests_test_email_login_view.html'
p2406
sg46
S'user_system/views/logins/tests/test_email_login_view'
p2407
sg48
g13
(g14
g15
NtRp2408
(dp2409
g18
I1
sg19
I0
sg20
I61
sg21
I0
sg22
I0
sg23
I0
sg24
I0
sbssg51
S'\x926\xe8\xcdL\xf3U\xc1C\x1b\x0f\xaf\xf0c\x9b\xd0'
p2410
ssS'create_views_books_book_chapter_view'
p2411
(dp2412
g523
(dp2413
g93
S'create_views_books_book_chapter_view.html'
p2414
sg95
S'create/views/books/book_chapter_view'
p2415
sg97
g13
(g14
g15
NtRp2416
(dp2417
g18
I1
sg19
I12
sg20
I44
sg21
I0
sg22
I0
sg23
I22
sg24
I12
sbssg529
S'\x0b3\xd8 \xe1\x08#79\x0c\x7f\x1f6\xad0\xe9'
p2418
ssS'create_views___init__'
p2419
(dp2420
g42
(dp2421
g57
S'create_views___init__.html'
p2422
sg59
S'create/views/__init__'
p2423
sg61
g13
(g14
g15
NtRp2424
(dp2425
g18
I1
sg19
I0
sg20
I7
sg21
I0
sg22
I0
sg23
I0
sg24
I0
sbssg51
S'\x8f\x98\x9b$~\xde\xc2\xfc\x97/\x14^\xe8\xf8\x10M'
p2426
ssS'user_system_serializers_users_student_profile_serializer'
p2427
(dp2428
g116
(dp2429
g376
S'user_system_serializers_users_student_profile_serializer.html'
p2430
sg378
S'user_system/serializers/users/student_profile_serializer'
p2431
sg380
g13
(g14
g15
NtRp2432
(dp2433
g18
I1
sg19
I0
sg20
I10
sg21
I0
sg22
I0
sg23
I0
sg24
I0
sbssg122
S'\xb4\n*\x1b\x86\xd1\\\xa2k\xeb\xd8\xeaW\x0c\xd8x'
p2434
ssS'flipped_helpers_errors_helper'
p2435
(dp2436
g42
(dp2437
g44
S'flipped_helpers_errors_helper.html'
p2438
sg46
S'flipped/helpers/errors_helper'
p2439
sg48
g13
(g14
g15
NtRp2440
(dp2441
g18
I1
sg19
I0
sg20
I5
sg21
I0
sg22
I0
sg23
I0
sg24
I0
sbssg51
S'\x91\x04\x1c\xf86c\xad\xf7\xe3\xf13\xf5n8eP'
p2442
ssS'teach_views_teacher_tags_teacher_tag_view'
p2443
(dp2444
g55
(dp2445
g93
S'teach_views_teacher_tags_teacher_tag_view.html'
p2446
sg95
S'teach/views/teacher_tags/teacher_tag_view'
p2447
sg97
g13
(g14
g15
NtRp2448
(dp2449
g18
I1
sg19
I20
sg20
I55
sg21
I0
sg22
I2
sg23
I30
sg24
I18
sbssg64
S'\xec\x1aQ\x839\x80#\xe5\xca\x98\xf6\xec\x84\x17\xa3\xeb'
p2450
ssS'create_models_questions_tests_test_question_history_model'
p2451
(dp2452
g42
(dp2453
g923
S'create_models_questions_tests_test_question_history_model.html'
p2454
sg925
S'create/models/questions/tests/test_question_history_model'
p2455
sg927
g13
(g14
g15
NtRp2456
(dp2457
g18
I1
sg19
I2
sg20
I73
sg21
I0
sg22
I0
sg23
I0
sg24
I0
sbssg51
S'i\xd4 \xdcI\x9f\xbc\x0c|\x95\x15wW\xb4\xa9\x15'
p2458
ssS'create_views_tags_tests_test_create_tag_view'
p2459
(dp2460
g387
(dp2461
g44
S'create_views_tags_tests_test_create_tag_view.html'
p2462
sg46
S'create/views/tags/tests/test_create_tag_view'
p2463
sg48
g13
(g14
g15
NtRp2464
(dp2465
g18
I1
sg19
I0
sg20
I33
sg21
I0
sg22
I0
sg23
I0
sg24
I0
sbssg396
S'\\\x91{\x1a ;Qg\xbd\x81\xe2\xaf\xa41\xac\x1b'
p2466
ssS'create_views_questions_tests___init__'
p2467
(dp2468
g42
(dp2469
g409
S'create_views_questions_tests___init__.html'
p2470
sg411
S'create/views/questions/tests/__init__'
p2471
sg413
g13
(g14
g15
NtRp2472
(dp2473
g18
I1
sg19
I0
sg20
I0
sg21
I0
sg22
I0
sg23
I0
sg24
I0
sbssg51
S'\x19g\xdfM\x1a\x019\xaf\x1baIeR\xe5u\xa7'
p2474
ssS'flipped___init__'
p2475
(dp2476
g42
(dp2477
g409
S'flipped___init__.html'
p2478
sg411
S'flipped/__init__'
p2479
sg413
g13
(g14
g15
NtRp2480
(dp2481
g18
I1
sg19
I0
sg20
I0
sg21
I0
sg22
I0
sg23
I0
sg24
I0
sbssg51
S'\x19g\xdfM\x1a\x019\xaf\x1baIeR\xe5u\xa7'
p2482
ssS'user_system_views_roles___init__'
p2483
(dp2484
g42
(dp2485
g409
S'user_system_views_roles___init__.html'
p2486
sg411
S'user_system/views/roles/__init__'
p2487
sg413
g13
(g14
g15
NtRp2488
(dp2489
g18
I1
sg19
I0
sg20
I1
sg21
I0
sg22
I0
sg23
I0
sg24
I0
sbssg51
S'\xeb\x15\r\x85I\x9e<\xbc\x15\xd1P\xef\x16\x8c\xe0l'
p2490
ssS'create_models_daily_quest_templates_tests_test_daily_quest_template_model'
p2491
(dp2492
g233
(dp2493
g235
S'create_models_daily_quest_templates_tests_test_daily_quest_template_model.html'
p2494
sg237
S'create/models/daily_quest_templates/tests/test_daily_quest_template_model'
p2495
sg239
g13
(g14
g15
NtRp2496
(dp2497
g18
I1
sg19
I0
sg20
I37
sg21
I0
sg22
I0
sg23
I0
sg24
I0
sbssg242
S'\x01\x04)\xffw\x13\x9aqx\xb2\x9f\x02\xb0\x90\xf3\xa5'
p2498
ssS'teach_views_summaries___init__'
p2499
(dp2500
g278
(dp2501
g93
S'teach_views_summaries___init__.html'
p2502
sg95
S'teach/views/summaries/__init__'
p2503
sg97
g13
(g14
g15
NtRp2504
(dp2505
g18
I1
sg19
I0
sg20
I6
sg21
I0
sg22
I0
sg23
I0
sg24
I0
sbssg284
S'b,:y.\x8bl\x94oEKh\xbc\x8c=\xde'
p2506
ssS'user_system_models_users_user_profile_history_model'
p2507
(dp2508
g116
(dp2509
g31
S'user_system_models_users_user_profile_history_model.html'
p2510
sg33
S'user_system/models/users/user_profile_history_model'
p2511
sg35
g13
(g14
g15
NtRp2512
(dp2513
g18
I1
sg19
I4
sg20
I72
sg21
I0
sg22
I2
sg23
I12
sg24
I2
sbssg122
S'\x9a\x0c\xe2p\x8b\xee\x01\x87\xfd\x81\xb4\x9bzp\x90\xb6'
p2514
ssS'user_system_models_roles_role_model'
p2515
(dp2516
g42
(dp2517
g44
S'user_system_models_roles_role_model.html'
p2518
sg46
S'user_system/models/roles/role_model'
p2519
sg48
g13
(g14
g15
NtRp2520
(dp2521
g18
I1
sg19
I0
sg20
I16
sg21
I0
sg22
I0
sg23
I0
sg24
I0
sbssg51
S'\x180j\xc8\x05 \xa05\xa7\xffj\x1dJ\x8a6\xcb'
p2522
ssS'user_system_views_users_user_view'
p2523
(dp2524
g42
(dp2525
g93
S'user_system_views_users_user_view.html'
p2526
sg95
S'user_system/views/users/user_view'
p2527
sg97
g13
(g14
g15
NtRp2528
(dp2529
g18
I1
sg19
I66
sg20
I186
sg21
I0
sg22
I0
sg23
I108
sg24
I44
sbssg51
S'S`\xa9\xa5\xad\x9d\x84\x8fOl!#\x8a<\x9c\xed'
p2530
ssS'teach_models_daily_quest_templates_tests_test_daily_quest_template_model'
p2531
(dp2532
g55
(dp2533
g57
S'teach_models_daily_quest_templates_tests_test_daily_quest_template_model.html'
p2534
sg59
S'teach/models/daily_quest_templates/tests/test_daily_quest_template_model'
p2535
sg61
g13
(g14
g15
NtRp2536
(dp2537
g18
I1
sg19
I0
sg20
I37
sg21
I0
sg22
I0
sg23
I0
sg24
I0
sbssg64
S'\x01\x04)\xffw\x13\x9aqx\xb2\x9f\x02\xb0\x90\xf3\xa5'
p2538
ssS'user_system_views_apps___init__'
p2539
(dp2540
g42
(dp2541
g409
S'user_system_views_apps___init__.html'
p2542
sg411
S'user_system/views/apps/__init__'
p2543
sg413
g13
(g14
g15
NtRp2544
(dp2545
g18
I1
sg19
I0
sg20
I1
sg21
I0
sg22
I0
sg23
I0
sg24
I0
sbssg51
S'?:\xf2A\xfa^]\xc5NR\xc9\x13\xb0\xe4\xfa\x9e'
p2546
ssS'user_system_views_users_tests_test_get_users_list_view'
p2547
(dp2548
g42
(dp2549
g93
S'user_system_views_users_tests_test_get_users_list_view.html'
p2550
sg95
S'user_system/views/users/tests/test_get_users_list_view'
p2551
sg97
g13
(g14
g15
NtRp2552
(dp2553
g18
I1
sg19
I0
sg20
I32
sg21
I0
sg22
I0
sg23
I5
sg24
I0
sbssg51
S'\x04\xab\x18\xb9\x078\xba\xd0L\xc1\xd2\x97\x00\x1b@\xa5'
p2554
ssS'create_models_questions_question_type_model'
p2555
(dp2556
g42
(dp2557
g44
S'create_models_questions_question_type_model.html'
p2558
sg46
S'create/models/questions/question_type_model'
p2559
sg48
g13
(g14
g15
NtRp2560
(dp2561
g18
I1
sg19
I0
sg20
I19
sg21
I0
sg22
I0
sg23
I0
sg24
I0
sbssg51
S'\xb9\xe7I\x93\x8b\xa8\xa8H\x80\x02_\xf9\x87\xa2\xe7\xa5'
p2562
ssS'user_system_views_apps_app_view'
p2563
(dp2564
g42
(dp2565
S'html_filename'
p2566
S'user_system_views_apps_app_view.html'
p2567
sS'name'
p2568
S'user_system/views/apps/app_view'
p2569
sS'nums'
p2570
g13
(g14
g15
NtRp2571
(dp2572
g18
I1
sg19
I0
sg20
I13
sg21
I0
sg22
I0
sg23
I0
sg24
I0
sbssg51
S'\xf7n\xffX\xe7\xd2\xb6\xa5\xc5\xe5\x96\x13\xf4\x9c\xac\x1e'
p2573
ssS'teach_views_summaries_student_list_summary'
p2574
(dp2575
g278
(dp2576
g93
S'teach_views_summaries_student_list_summary.html'
p2577
sg95
S'teach/views/summaries/student_list_summary'
p2578
sg97
g13
(g14
g15
NtRp2579
(dp2580
g18
I1
sg19
I26
sg20
I81
sg21
I0
sg22
I0
sg23
I63
sg24
I26
sbssg284
S'i\x1e\xd7\x9f\xceE"\x92\xc3\xfd\xd9\xdd\xac%\xe7\x10'
p2581
ssS'user_system_models_schools_tests_test_classroom_model'
p2582
(dp2583
g223
(dp2584
g93
S'user_system_models_schools_tests_test_classroom_model.html'
p2585
sg95
S'user_system/models/schools/tests/test_classroom_model'
p2586
sg97
g13
(g14
g15
NtRp2587
(dp2588
g18
I1
sg19
I0
sg20
I31
sg21
I0
sg22
I0
sg23
I0
sg24
I0
sbssg229
S'\xfd\xfd\xa2\x92;\xc3\xaa\x06D\x93\xddbD\xda\xa2\x1e'
p2589
ssS'user_system_views_schools_school_view'
p2590
(dp2591
g116
(dp2592
g31
S'user_system_views_schools_school_view.html'
p2593
sg33
S'user_system/views/schools/school_view'
p2594
sg35
g13
(g14
g15
NtRp2595
(dp2596
g18
I1
sg19
I0
sg20
I16
sg21
I0
sg22
I0
sg23
I0
sg24
I0
sbssg122
S'\xc8\x0b\xef\x9e86\xe5\x19\xaa\x9e\x93+\x03\xfb\x98\x99'
p2597
ssS'learn_models_points_point_type_model'
p2598
(dp2599
g278
(dp2600
g93
S'learn_models_points_point_type_model.html'
p2601
sg95
S'learn/models/points/point_type_model'
p2602
sg97
g13
(g14
g15
NtRp2603
(dp2604
g18
I1
sg19
I0
sg20
I20
sg21
I0
sg22
I0
sg23
I1
sg24
I0
sbssg284
S'\xad\xfd\x0c\x14\x83w\xaf\xea\xd4a\x02\x0f\xd3s.\xea'
p2605
ssS'user_system_models_users_user_facebook_model'
p2606
(dp2607
g42
(dp2608
g44
S'user_system_models_users_user_facebook_model.html'
p2609
sg46
S'user_system/models/users/user_facebook_model'
p2610
sg48
g13
(g14
g15
NtRp2611
(dp2612
g18
I1
sg19
I0
sg20
I22
sg21
I0
sg22
I0
sg23
I0
sg24
I0
sbssg51
S'!d\xff\xbcl0O(`\x1b1\xf7\xb3*{X'
p2613
ssS'user_system_views_schools_grade_view'
p2614
(dp2615
g116
(dp2616
g31
S'user_system_views_schools_grade_view.html'
p2617
sg33
S'user_system/views/schools/grade_view'
p2618
sg35
g13
(g14
g15
NtRp2619
(dp2620
g18
I1
sg19
I0
sg20
I16
sg21
I0
sg22
I0
sg23
I0
sg24
I0
sbssg122
S'_i&b\x01\x08$\xe7\xbe\nW\x92\x80\x97\xf1Q'
p2621
ssS'create_serializers_question_datasets_question_dataset_serializer'
p2622
(dp2623
g144
(dp2624
g146
S'create_serializers_question_datasets_question_dataset_serializer.html'
p2625
sg148
S'create/serializers/question_datasets/question_dataset_serializer'
p2626
sg150
g13
(g14
g15
NtRp2627
(dp2628
g18
I1
sg19
I0
sg20
I6
sg21
I0
sg22
I0
sg23
I0
sg24
I0
sbssg153
S'\x1e}6\x82\x0c\x96\xdb\x00{jK\xdb\xc0\x8c\x97\xcd'
p2629
ssS'create_views_questions_question_template_view'
p2630
(dp2631
g103
(dp2632
g105
S'create_views_questions_question_template_view.html'
p2633
sg107
S'create/views/questions/question_template_view'
p2634
sg109
g13
(g14
g15
NtRp2635
(dp2636
g18
I1
sg19
I40
sg20
I115
sg21
I0
sg22
I0
sg23
I86
sg24
I40
sbssg112
S'\x15\xd2EN\xe9c\xe5\x17\xc5Fh\x02\x1a\xd3\xc4*'
p2637
ssS'create_serializers_quests_quest_serializer'
p2638
(dp2639
g103
(dp2640
g31
S'create_serializers_quests_quest_serializer.html'
p2641
sg33
S'create/serializers/quests/quest_serializer'
p2642
sg35
g13
(g14
g15
NtRp2643
(dp2644
g18
I1
sg19
I0
sg20
I50
sg21
I0
sg22
I0
sg23
I15
sg24
I0
sbssg112
S'\x96:\xdf\x9a\x02\xee\xf5\x97F[z\x16p\x8f\x08\xb2'
p2645
ssS'create_views_summary_create_summary_view'
p2646
(dp2647
g1507
(dp2648
g1022
S'create_views_summary_create_summary_view.html'
p2649
sg1024
S'create/views/summary/create_summary_view'
p2650
sg1026
g13
(g14
g15
NtRp2651
(dp2652
g18
I1
sg19
I0
sg20
I59
sg21
I0
sg22
I0
sg23
I48
sg24
I0
sbssg1513
S"'\xfe\xf4\x8c\xed2\xc3\x18\xf6\x85\x1f\xb0\xf0G\xb7\x8f"
p2653
ssS'create_serializers_books_book_serializer'
p2654
(dp2655
g330
(dp2656
g93
S'create_serializers_books_book_serializer.html'
p2657
sg95
S'create/serializers/books/book_serializer'
p2658
sg97
g13
(g14
g15
NtRp2659
(dp2660
g18
I1
sg19
I0
sg20
I25
sg21
I0
sg22
I0
sg23
I3
sg24
I0
sbssg336
S'SE\xfe\x82\xc5\xd7\xd2\xb9\x05\xaa\x07\x18[\xe2\x95\x91'
p2661
ssS'user_system_models_schools_tests___init__'
p2662
(dp2663
g197
(dp2664
S'html_filename'
p2665
S'user_system_models_schools_tests___init__.html'
p2666
sS'name'
p2667
S'user_system/models/schools/tests/__init__'
p2668
sS'nums'
p2669
g13
(g14
g15
NtRp2670
(dp2671
g18
I1
sg19
I0
sg20
I0
sg21
I0
sg22
I0
sg23
I0
sg24
I0
sbssg206
S'\x19g\xdfM\x1a\x019\xaf\x1baIeR\xe5u\xa7'
p2672
ssS'api_logging_mixins'
p2673
(dp2674
g387
(dp2675
g44
S'api_logging_mixins.html'
p2676
sg46
S'api_logging/mixins'
p2677
sg48
g13
(g14
g15
NtRp2678
(dp2679
g18
I1
sg19
I4
sg20
I26
sg21
I0
sg22
I2
sg23
I2
sg24
I2
sbssg396
S'w\xa7\xcf,\xf7\x87[\xb0\xc5\xb2\x1f\xa5+\x1dSF'
p2680
ssS'create___init__'
p2681
(dp2682
g42
(dp2683
g409
S'create___init__.html'
p2684
sg411
S'create/__init__'
p2685
sg413
g13
(g14
g15
NtRp2686
(dp2687
g18
I1
sg19
I0
sg20
I0
sg21
I0
sg22
I0
sg23
I0
sg24
I0
sbssg51
S'\x19g\xdfM\x1a\x019\xaf\x1baIeR\xe5u\xa7'
p2688
ssS'user_system_serializers_schools_school_serializer'
p2689
(dp2690
g116
(dp2691
g31
S'user_system_serializers_schools_school_serializer.html'
p2692
sg33
S'user_system/serializers/schools/school_serializer'
p2693
sg35
g13
(g14
g15
NtRp2694
(dp2695
g18
I1
sg19
I0
sg20
I9
sg21
I0
sg22
I0
sg23
I0
sg24
I0
sbssg122
S'_\x0c\x17V\x00H\x8f\xc9x\xe5I\xcb\t\x08\xb9/'
p2696
ssS'user_system_models_users_tests_test_user_profile_update_request_model'
p2697
(dp2698
g116
(dp2699
g1929
S'user_system_models_users_tests_test_user_profile_update_request_model.html'
p2700
sg1931
S'user_system/models/users/tests/test_user_profile_update_request_model'
p2701
sg1933
g13
(g14
g15
NtRp2702
(dp2703
g18
I1
sg19
I0
sg20
I50
sg21
I0
sg22
I0
sg23
I0
sg24
I0
sbssg122
S'91\xd6p\x9f4\x8ebb\xe9\xbd1pu\x9b\x7f'
p2704
ssS'user_system_views_users_tests_test_add_role_view'
p2705
(dp2706
g42
(dp2707
g44
S'user_system_views_users_tests_test_add_role_view.html'
p2708
sg46
S'user_system/views/users/tests/test_add_role_view'
p2709
sg48
g13
(g14
g15
NtRp2710
(dp2711
g18
I1
sg19
I0
sg20
I36
sg21
I0
sg22
I0
sg23
I0
sg24
I0
sbssg51
S'\x0eh\xf7\xba\x08_N\xdeM\xdf\x03\xbd\x8c\x8a\x89\xd0'
p2712
ssS'learn_urls'
p2713
(dp2714
g55
(dp2715
g93
S'learn_urls.html'
p2716
sg95
S'learn/urls'
p2717
sg97
g13
(g14
g15
NtRp2718
(dp2719
g18
I1
sg19
I0
sg20
I8
sg21
I0
sg22
I0
sg23
I0
sg24
I0
sbssg64
S'\x1a\xcd\x95\xa0\xd8s\xf6\xb3\x9e\xd7H\xe5*M\xbdG'
p2720
ssS'api_logging___init__'
p2721
(dp2722
g523
(dp2723
g686
S'api_logging___init__.html'
p2724
sg688
S'api_logging/__init__'
p2725
sg690
g13
(g14
g15
NtRp2726
(dp2727
g18
I1
sg19
I0
sg20
I0
sg21
I0
sg22
I0
sg23
I0
sg24
I0
sbssg529
S'\x19g\xdfM\x1a\x019\xaf\x1baIeR\xe5u\xa7'
p2728
ssS'create_views_questions_question_view'
p2729
(dp2730
g42
(dp2731
g714
S'create_views_questions_question_view.html'
p2732
sg716
S'create/views/questions/question_view'
p2733
sg718
g13
(g14
g15
NtRp2734
(dp2735
g18
I1
sg19
I34
sg20
I112
sg21
I0
sg22
I1
sg23
I40
sg24
I21
sbssg51
S"_'M\x9d\x0e\r\xae\x93=\xce\xd2\x1b>\x8eV\xe4"
p2736
ssS'create_views_quests_tests_test_add_question_view'
p2737
(dp2738
g6
(dp2739
g8
S'create_views_quests_tests_test_add_question_view.html'
p2740
sg10
S'create/views/quests/tests/test_add_question_view'
p2741
sg12
g13
(g14
g15
NtRp2742
(dp2743
g18
I1
sg19
I0
sg20
I0
sg21
I0
sg22
I0
sg23
I0
sg24
I0
sbssg25
S'\x19g\xdfM\x1a\x019\xaf\x1baIeR\xe5u\xa7'
p2744
ssS'create_models_daily_quest_copies___init__'
p2745
(dp2746
g374
(dp2747
g1417
S'create_models_daily_quest_copies___init__.html'
p2748
sg1419
S'create/models/daily_quest_copies/__init__'
p2749
sg1421
g13
(g14
g15
NtRp2750
(dp2751
g18
I1
sg19
I0
sg20
I1
sg21
I0
sg22
I0
sg23
I0
sg24
I0
sbssg383
S'\xee\xef\xb8!Z;\x9e_\xb5g4\xe9\xac@l\xe6'
p2752
ssS'create_models_books_tests___init__'
p2753
(dp2754
g330
(dp2755
g734
S'create_models_books_tests___init__.html'
p2756
sg736
S'create/models/books/tests/__init__'
p2757
sg738
g13
(g14
g15
NtRp2758
(dp2759
g18
I1
sg19
I0
sg20
I0
sg21
I0
sg22
I0
sg23
I0
sg24
I0
sbssg336
S'\x19g\xdfM\x1a\x019\xaf\x1baIeR\xe5u\xa7'
p2760
ssS'user_system_managers_streak_manager'
p2761
(dp2762
g278
(dp2763
g93
S'user_system_managers_streak_manager.html'
p2764
sg95
S'user_system/managers/streak_manager'
p2765
sg97
g13
(g14
g15
NtRp2766
(dp2767
g18
I1
sg19
I18
sg20
I44
sg21
I0
sg22
I2
sg23
I28
sg24
I16
sbssg284
S'\xf9\x03\xee\xd1Q\x8e\xe1\xf1\xcf\xb80\xf3\xd6\xf7\x82+'
p2768
ssS'learn_views_student_news_feed_student_news_feed_view'
p2769
(dp2770
g278
(dp2771
g93
S'learn_views_student_news_feed_student_news_feed_view.html'
p2772
sg95
S'learn/views/student_news_feed/student_news_feed_view'
p2773
sg97
g13
(g14
g15
NtRp2774
(dp2775
g18
I1
sg19
I10
sg20
I38
sg21
I0
sg22
I0
sg23
I22
sg24
I10
sbssg284
S'\x92\x80%\x91\x88\x85wF\xb9\\0B\xe5\xb6\x820'
p2776
ssS'user_system_models_schools_tests_test_academic_year_model'
p2777
(dp2778
g197
(dp2779
g1167
S'user_system_models_schools_tests_test_academic_year_model.html'
p2780
sg1169
S'user_system/models/schools/tests/test_academic_year_model'
p2781
sg1171
g13
(g14
g15
NtRp2782
(dp2783
g18
I1
sg19
I0
sg20
I28
sg21
I0
sg22
I0
sg23
I0
sg24
I0
sbssg206
S'{=\xee\xbc8\xbd\xa7\xdd\x0f!3\xf8\xf0os\xe2'
p2784
ssS'learn_serializers_daily_quests_daily_quest_question_history_serializer'
p2785
(dp2786
g278
(dp2787
g93
S'learn_serializers_daily_quests_daily_quest_question_history_serializer.html'
p2788
sg95
S'learn/serializers/daily_quests/daily_quest_question_history_serializer'
p2789
sg97
g13
(g14
g15
NtRp2790
(dp2791
g18
I1
sg19
I0
sg20
I8
sg21
I0
sg22
I0
sg23
I0
sg24
I0
sbssg284
S'q$\xc8~\x9a\xbb\x03\x1a\x12[aG\x9a\x87\xc6\x0c'
p2792
ssS'api_logging_serializers_modal_loggings___init__'
p2793
(dp2794
g278
(dp2795
g93
S'api_logging_serializers_modal_loggings___init__.html'
p2796
sg95
S'api_logging/serializers/modal_loggings/__init__'
p2797
sg97
g13
(g14
g15
NtRp2798
(dp2799
g18
I1
sg19
I0
sg20
I1
sg21
I0
sg22
I0
sg23
I0
sg24
I0
sbssg284
S'\xff)\x01pU0i\x848\xea\xfc\x08\x0b\x0bS\xa4'
p2800
ssS'user_system_models_schools_grade_model'
p2801
(dp2802
g223
(dp2803
g93
S'user_system_models_schools_grade_model.html'
p2804
sg95
S'user_system/models/schools/grade_model'
p2805
sg97
g13
(g14
g15
NtRp2806
(dp2807
g18
I1
sg19
I0
sg20
I29
sg21
I0
sg22
I0
sg23
I2
sg24
I0
sbssg229
S'\xfdv\xccR\xe0u\x91\x0f\x7f\x03\xcb\xc4y\xc19k'
p2808
ssS'user_system_serializers_schools___init__'
p2809
(dp2810
g55
(dp2811
g31
S'user_system_serializers_schools___init__.html'
p2812
sg33
S'user_system/serializers/schools/__init__'
p2813
sg35
g13
(g14
g15
NtRp2814
(dp2815
g18
I1
sg19
I0
sg20
I5
sg21
I0
sg22
I0
sg23
I0
sg24
I0
sbssg64
S'8yN\xa2\x98\xe3%\xd4\xe2\xfd\xf2@\xcc\xa7\x02\xdb'
p2816
ssS'create_serializers_questions_question_choice_serializer'
p2817
(dp2818
g42
(dp2819
g93
S'create_serializers_questions_question_choice_serializer.html'
p2820
sg95
S'create/serializers/questions/question_choice_serializer'
p2821
sg97
g13
(g14
g15
NtRp2822
(dp2823
g18
I1
sg19
I0
sg20
I10
sg21
I0
sg22
I0
sg23
I0
sg24
I0
sbssg51
S'\xe4\xc0O\xa2\x80M\x05Wf\xdeO=\xf7\xaaT\x95'
p2824
ssS'create_serializers_questions_question_template_serializer'
p2825
(dp2826
g103
(dp2827
g1097
S'create_serializers_questions_question_template_serializer.html'
p2828
sg1099
S'create/serializers/questions/question_template_serializer'
p2829
sg1101
g13
(g14
g15
NtRp2830
(dp2831
g18
I1
sg19
I0
sg20
I43
sg21
I0
sg22
I0
sg23
I9
sg24
I0
sbssg112
S'\x1a\x149\xdb\xb8\xc7\xfc\xb6\xbc\x8b\xfe\x8e~N\xb9J'
p2832
ssS'teach_views_summaries_top_answered_questions_summary_view'
p2833
(dp2834
g278
(dp2835
g93
S'teach_views_summaries_top_answered_questions_summary_view.html'
p2836
sg95
S'teach/views/summaries/top_answered_questions_summary_view'
p2837
sg97
g13
(g14
g15
NtRp2838
(dp2839
g18
I1
sg19
I14
sg20
I48
sg21
I0
sg22
I0
sg23
I29
sg24
I14
sbssg284
S'\xe5\x99\xa8\xb3a\x83\xdbJ_\xa7\xc2\xbf\xe0\x13\x9c\xe7'
p2840
ssS'user_system_models_apps___init__'
p2841
(dp2842
g42
(dp2843
g409
S'user_system_models_apps___init__.html'
p2844
sg411
S'user_system/models/apps/__init__'
p2845
sg413
g13
(g14
g15
NtRp2846
(dp2847
g18
I1
sg19
I0
sg20
I1
sg21
I0
sg22
I0
sg23
I0
sg24
I0
sbssg51
S'\n\xe9\xce\x15)\x8d\xc6\xdd\xe0\x9b\x990[\xae\x8cl'
p2848
ssS'create_models_tags_tests_test_tag_model'
p2849
(dp2850
g356
(dp2851
S'html_filename'
p2852
S'create_models_tags_tests_test_tag_model.html'
p2853
sS'name'
p2854
S'create/models/tags/tests/test_tag_model'
p2855
sS'nums'
p2856
g13
(g14
g15
NtRp2857
(dp2858
g18
I1
sg19
I6
sg20
I52
sg21
I0
sg22
I0
sg23
I0
sg24
I0
sbssg362
S'1\x992\xc0\xbb\xb6d *5\xfa\xd2\xdc1\xb2\x92'
p2859
ssS'create_models_quests___init__'
p2860
(dp2861
g103
(dp2862
g579
S'create_models_quests___init__.html'
p2863
sg581
S'create/models/quests/__init__'
p2864
sg583
g13
(g14
g15
NtRp2865
(dp2866
g18
I1
sg19
I0
sg20
I2
sg21
I0
sg22
I0
sg23
I0
sg24
I0
sbssg112
S'\x1e\x87\x83\xe2\x04\x1d\xcd:`\x99V\x85#\xca\x12^'
p2867
ssS'user_system_views_signups_hardcoded_tests_test_test_account_view'
p2868
(dp2869
g42
(dp2870
g44
S'user_system_views_signups_hardcoded_tests_test_test_account_view.html'
p2871
sg46
S'user_system/views/signups/hardcoded/tests/test_test_account_view'
p2872
sg48
g13
(g14
g15
NtRp2873
(dp2874
g18
I1
sg19
I0
sg20
I24
sg21
I0
sg22
I0
sg23
I0
sg24
I0
sbssg51
S'@\xc3::\xf8h\x1aT\x9f\x83\xee1\xb7\x9a\xe0\xf9'
p2875
ssS'create_models_tags_concept_model'
p2876
(dp2877
g356
(dp2878
g44
S'create_models_tags_concept_model.html'
p2879
sg46
S'create/models/tags/concept_model'
p2880
sg48
g13
(g14
g15
NtRp2881
(dp2882
g18
I1
sg19
I0
sg20
I10
sg21
I0
sg22
I0
sg23
I0
sg24
I0
sbssg362
S'@vb\xbd\xcay\xb1b\x9e\xaf\xc0v/\xd6\x13\xd3'
p2883
ssS'create_models_tags_tests___init__'
p2884
(dp2885
g356
(dp2886
S'html_filename'
p2887
S'create_models_tags_tests___init__.html'
p2888
sS'name'
p2889
S'create/models/tags/tests/__init__'
p2890
sS'nums'
p2891
g13
(g14
g15
NtRp2892
(dp2893
g18
I1
sg19
I0
sg20
I1
sg21
I0
sg22
I0
sg23
I0
sg24
I0
sbssg362
S'\xbc\xd6\xeb\xb3\xba\xcaz\xf7{\xd4B\xb5}l\xdf\x96'
p2894
ssS'learn_admin'
p2895
(dp2896
g55
(dp2897
g93
S'learn_admin.html'
p2898
sg95
S'learn/admin'
p2899
sg97
g13
(g14
g15
NtRp2900
(dp2901
g18
I1
sg19
I0
sg20
I6
sg21
I0
sg22
I0
sg23
I0
sg24
I0
sbssg64
S'\x01\xff=[_\x13,\xf8ES\x17G)\x1e\xfb\x10'
p2902
ssS'user_system_models_schools_classroom_model'
p2903
(dp2904
g223
(dp2905
g93
S'user_system_models_schools_classroom_model.html'
p2906
sg95
S'user_system/models/schools/classroom_model'
p2907
sg97
g13
(g14
g15
NtRp2908
(dp2909
g18
I1
sg19
I2
sg20
I24
sg21
I0
sg22
I0
sg23
I0
sg24
I0
sbssg229
S'\xb4}\xd2\xf3\xe4P\x96mC/hd\x0c\x17\x97m'
p2910
ssS'user_system_models_schools_semester_model'
p2911
(dp2912
g197
(dp2913
g1167
S'user_system_models_schools_semester_model.html'
p2914
sg1169
S'user_system/models/schools/semester_model'
p2915
sg1171
g13
(g14
g15
NtRp2916
(dp2917
g18
I1
sg19
I0
sg20
I23
sg21
I0
sg22
I0
sg23
I0
sg24
I0
sbssg206
S'\x9f&7d<%\x13 \xcaht\xc4\xd4N\xee&'
p2918
ssS'create_views_daily_quest_copies_daily_quest_copy_view'
p2919
(dp2920
g374
(dp2921
g1417
S'create_views_daily_quest_copies_daily_quest_copy_view.html'
p2922
sg1419
S'create/views/daily_quest_copies/daily_quest_copy_view'
p2923
sg1421
g13
(g14
g15
NtRp2924
(dp2925
g18
I1
sg19
I0
sg20
I14
sg21
I0
sg22
I0
sg23
I0
sg24
I0
sbssg383
S'?\x95&\\\xae\xf0@\xfc\x96\xc15\xc9\x13\xf6_R'
p2926
ssS'flipped_helpers_parameters_helper'
p2927
(dp2928
g42
(dp2929
g31
S'flipped_helpers_parameters_helper.html'
p2930
sg33
S'flipped/helpers/parameters_helper'
p2931
sg35
g13
(g14
g15
NtRp2932
(dp2933
g18
I1
sg19
I14
sg20
I22
sg21
I0
sg22
I1
sg23
I4
sg24
I3
sbssg51
S'v\xe1\xf5\xb3r\x1f\xae\xee\x872U\xa1I\xf8\xef\x00'
p2934
ssS'user_system_models___init__'
p2935
(dp2936
g42
(dp2937
g2665
S'user_system_models___init__.html'
p2938
sg2667
S'user_system/models/__init__'
p2939
sg2669
g13
(g14
g15
NtRp2940
(dp2941
g18
I1
sg19
I0
sg20
I4
sg21
I0
sg22
I0
sg23
I0
sg24
I0
sbssg51
S"\xe9'\xed1xn\xd7\xe4\x91\x8ei\xc0\x0f\x1b\x9eY"
p2942
ssS'create_models_questions_tests_test_question_model'
p2943
(dp2944
g42
(dp2945
g1132
S'create_models_questions_tests_test_question_model.html'
p2946
sg1134
S'create/models/questions/tests/test_question_model'
p2947
sg1136
g13
(g14
g15
NtRp2948
(dp2949
g18
I1
sg19
I8
sg20
I58
sg21
I0
sg22
I0
sg23
I0
sg24
I0
sbssg51
S'l\x9e\xee!<,L\xbf\xa0\xe6\r\xd7W\xc9tu'
p2950
ssS'user_system_models_users_tests_test_user_profile_history_model'
p2951
(dp2952
g116
(dp2953
g31
S'user_system_models_users_tests_test_user_profile_history_model.html'
p2954
sg33
S'user_system/models/users/tests/test_user_profile_history_model'
p2955
sg35
g13
(g14
g15
NtRp2956
(dp2957
g18
I1
sg19
I0
sg20
I54
sg21
I0
sg22
I0
sg23
I0
sg24
I0
sbssg122
S'<IT\xa7\x05\xe0ML\xb0gu{\xd2>\xc8$'
p2958
ssS'learn_views___init__'
p2959
(dp2960
g55
(dp2961
g93
S'learn_views___init__.html'
p2962
sg95
S'learn/views/__init__'
p2963
sg97
g13
(g14
g15
NtRp2964
(dp2965
g18
I1
sg19
I0
sg20
I2
sg21
I0
sg22
I0
sg23
I0
sg24
I0
sbssg64
S"?\xc0'\xcb\x1c\xf1\xaa\xf0\x9d\xc7\x0e\xf1\xda\x0eU\x17"
p2966
ssS'create_serializers_questions___init__'
p2967
(dp2968
g42
(dp2969
g93
S'create_serializers_questions___init__.html'
p2970
sg95
S'create/serializers/questions/__init__'
p2971
sg97
g13
(g14
g15
NtRp2972
(dp2973
g18
I1
sg19
I0
sg20
I5
sg21
I0
sg22
I0
sg23
I0
sg24
I0
sbssg51
S'\xe6(4O\xf6\xd4\xe4\x154\xe9\xa1;\x0cD\x90\t'
p2974
ssS'user_system_views_signups_hardcoded_tests___init__'
p2975
(dp2976
g42
(dp2977
g409
S'user_system_views_signups_hardcoded_tests___init__.html'
p2978
sg411
S'user_system/views/signups/hardcoded/tests/__init__'
p2979
sg413
g13
(g14
g15
NtRp2980
(dp2981
g18
I1
sg19
I0
sg20
I0
sg21
I0
sg22
I0
sg23
I0
sg24
I0
sbssg51
S'\x19g\xdfM\x1a\x019\xaf\x1baIeR\xe5u\xa7'
p2982
ssS'create_serializers_questions_question_serializer'
p2983
(dp2984
g42
(dp2985
g93
S'create_serializers_questions_question_serializer.html'
p2986
sg95
S'create/serializers/questions/question_serializer'
p2987
sg97
g13
(g14
g15
NtRp2988
(dp2989
g18
I1
sg19
I0
sg20
I59
sg21
I0
sg22
I0
sg23
I17
sg24
I0
sbssg51
S'\xd0\x83Z\xc0\xb7\xb8\x80\x10d$\x13\xa4g2AE'
p2990
ssS'user_system_views___init__'
p2991
(dp2992
g42
(dp2993
g31
S'user_system_views___init__.html'
p2994
sg33
S'user_system/views/__init__'
p2995
sg35
g13
(g14
g15
NtRp2996
(dp2997
g18
I1
sg19
I0
sg20
I5
sg21
I0
sg22
I0
sg23
I0
sg24
I0
sbssg51
S'&v35\x98Nv\xc2>un\xb1\x9a\x93\xd2\xea'
p2998
ssS'user_system_views_users_user_profile_update_request_view'
p2999
(dp3000
g116
(dp3001
g1929
S'user_system_views_users_user_profile_update_request_view.html'
p3002
sg1931
S'user_system/views/users/user_profile_update_request_view'
p3003
sg1933
g13
(g14
g15
NtRp3004
(dp3005
g18
I1
sg19
I20
sg20
I61
sg21
I0
sg22
I0
sg23
I42
sg24
I20
sbssg122
S'\xd2\xb5\x7f4\xf7\x92\x8d4iq{\xc4\x98\xaet\n'
p3006
ssS'teach_admin'
p3007
(dp3008
g55
(dp3009
g93
S'teach_admin.html'
p3010
sg95
S'teach/admin'
p3011
sg97
g13
(g14
g15
NtRp3012
(dp3013
g18
I1
sg19
I0
sg20
I6
sg21
I0
sg22
I0
sg23
I0
sg24
I0
sbssg64
S'\xa5$\xa3\xb8$\xe4Z\x9b\xcbO\x9f\xc1\x02b\x95N'
p3014
ssS'user_system_views_roles_user_role_view'
p3015
(dp3016
g42
(dp3017
g44
S'user_system_views_roles_user_role_view.html'
p3018
sg46
S'user_system/views/roles/user_role_view'
p3019
sg48
g13
(g14
g15
NtRp3020
(dp3021
g18
I1
sg19
I8
sg20
I31
sg21
I0
sg22
I0
sg23
I0
sg24
I0
sbssg51
S'S@\xea\xb7\xd6\xe1\x1b\x1dU\x18a\x9d\x80\xe3A\xb9'
p3022
ssS'create_models_questions_tests_test_question_history_remark_model'
p3023
(dp3024
g549
(dp3025
g551
S'create_models_questions_tests_test_question_history_remark_model.html'
p3026
sg553
S'create/models/questions/tests/test_question_history_remark_model'
p3027
sg555
g13
(g14
g15
NtRp3028
(dp3029
g18
I1
sg19
I0
sg20
I30
sg21
I0
sg22
I0
sg23
I0
sg24
I0
sbssg558
S'K>pG_\xbd\x15\x8b\xd8\x05\xd4\x15\xb3\x9b\xcaP'
p3030
ssS'api_logging_serializers___init__'
p3031
(dp3032
g278
(dp3033
g93
S'api_logging_serializers___init__.html'
p3034
sg95
S'api_logging/serializers/__init__'
p3035
sg97
g13
(g14
g15
NtRp3036
(dp3037
g18
I1
sg19
I0
sg20
I2
sg21
I0
sg22
I0
sg23
I0
sg24
I0
sbssg284
S'\x02\xac\xc4\x02\x172\x90\xf3=\xcb\x89>\x99\xbc\x19\xd9'
p3038
ssS'user_system_models_users_tests_test_user_facebook_model'
p3039
(dp3040
g42
(dp3041
g44
S'user_system_models_users_tests_test_user_facebook_model.html'
p3042
sg46
S'user_system/models/users/tests/test_user_facebook_model'
p3043
sg48
g13
(g14
g15
NtRp3044
(dp3045
g18
I1
sg19
I0
sg20
I29
sg21
I0
sg22
I0
sg23
I0
sg24
I0
sbssg51
S'B\xac\x06Z\x1f7\xba2\x81\xd7\xb4\x17\xaf\x84u+'
p3046
ssS'user_system_models_users_user_credentials_model'
p3047
(dp3048
S'index'
p3049
(dp3050
g1929
S'user_system_models_users_user_credentials_model.html'
p3051
sg1931
S'user_system/models/users/user_credentials_model'
p3052
sg1933
g13
(g14
g15
NtRp3053
(dp3054
g18
I1
sg19
I0
sg20
I7
sg21
I0
sg22
I0
sg23
I0
sg24
I0
sbssS'hash'
p3055
S'g\x10U/\x1f\x83\x0bO\x95o\x9c9\xefV\x81\x8e'
p3056
ssS'create_serializers_books___init__'
p3057
(dp3058
g330
(dp3059
g734
S'create_serializers_books___init__.html'
p3060
sg736
S'create/serializers/books/__init__'
p3061
sg738
g13
(g14
g15
NtRp3062
(dp3063
g18
I1
sg19
I0
sg20
I0
sg21
I0
sg22
I0
sg23
I0
sg24
I0
sbssg336
S'\x19g\xdfM\x1a\x019\xaf\x1baIeR\xe5u\xa7'
p3064
ssS'create_models_questions_tests_test_question_template_model'
p3065
(dp3066
g103
(dp3067
g923
S'create_models_questions_tests_test_question_template_model.html'
p3068
sg925
S'create/models/questions/tests/test_question_template_model'
p3069
sg927
g13
(g14
g15
NtRp3070
(dp3071
g18
I1
sg19
I8
sg20
I74
sg21
I0
sg22
I0
sg23
I0
sg24
I0
sbssg112
S"~\xca\x9c'\x89\x11\x82V\xb3v\x0c4]\x9c\xce4"
p3072
ssS'create_views_quests_tests_test_add_question_template_view'
p3073
(dp3074
g6
(dp3075
g8
S'create_views_quests_tests_test_add_question_template_view.html'
p3076
sg10
S'create/views/quests/tests/test_add_question_template_view'
p3077
sg12
g13
(g14
g15
NtRp3078
(dp3079
g18
I1
sg19
I0
sg20
I0
sg21
I0
sg22
I0
sg23
I0
sg24
I0
sbssg25
S'\x19g\xdfM\x1a\x019\xaf\x1baIeR\xe5u\xa7'
p3080
ssS'learn_models_points_tests___init__'
p3081
(dp3082
g278
(dp3083
g93
S'learn_models_points_tests___init__.html'
p3084
sg95
S'learn/models/points/tests/__init__'
p3085
sg97
g13
(g14
g15
NtRp3086
(dp3087
g18
I1
sg19
I0
sg20
I1
sg21
I0
sg22
I0
sg23
I0
sg24
I0
sbssg284
S'\xbc\xd6\xeb\xb3\xba\xcaz\xf7{\xd4B\xb5}l\xdf\x96'
p3088
ssS'create_views_tags_tests_test_hide_tag_view'
p3089
(dp3090
g387
(dp3091
g44
S'create_views_tags_tests_test_hide_tag_view.html'
p3092
sg46
S'create/views/tags/tests/test_hide_tag_view'
p3093
sg48
g13
(g14
g15
NtRp3094
(dp3095
g18
I1
sg19
I0
sg20
I25
sg21
I0
sg22
I0
sg23
I0
sg24
I0
sbssg396
S'\x8a\x07\xe0\xe1Q\x820\x05R\x14E\xd0\xdf\x8e\xc5\x8a'
p3096
ssS'create_views_books_tests___init__'
p3097
(dp3098
g877
(dp3099
S'html_filename'
p3100
S'create_views_books_tests___init__.html'
p3101
sS'name'
p3102
S'create/views/books/tests/__init__'
p3103
sS'nums'
p3104
g13
(g14
g15
NtRp3105
(dp3106
g18
I1
sg19
I0
sg20
I0
sg21
I0
sg22
I0
sg23
I0
sg24
I0
sbssg883
S'\x19g\xdfM\x1a\x019\xaf\x1baIeR\xe5u\xa7'
p3107
sssS'version'
p3108
S'3.7.1'
p3109
sS'settings'
p3110
S'\x961E{\x0c29\xd1#\x83\xd3j9"\xd8\x10'
p3111
sS'format'
p3112
I1
s.