(dp1
S'files'
p2
(dp3
S'create_views_quests_tests_test_add_tag_view'
p4
(dp5
S'index'
p6
(dp7
S'html_filename'
p8
S'create_views_quests_tests_test_add_tag_view.html'
p9
sS'name'
p10
S'create/views/quests/tests/test_add_tag_view'
p11
sS'nums'
p12
ccopy_reg
_reconstructor
p13
(ccoverage.results
Numbers
p14
c__builtin__
object
p15
NtRp16
(dp17
S'n_files'
p18
I1
sS'n_branches'
p19
I0
sS'n_statements'
p20
I35
sS'n_excluded'
p21
I0
sS'n_partial_branches'
p22
I0
sS'n_missing'
p23
I0
sS'n_missing_branches'
p24
I0
sbssS'hash'
p25
S'o\xbe\xf1\xf9\x80\xe5|\xbab\xcc\xe2F=\x1e\xacp'
p26
ssS'user_system_models_users_teacher_profile_model'
p27
(dp28
S'index'
p29
(dp30
S'html_filename'
p31
S'user_system_models_users_teacher_profile_model.html'
p32
sS'name'
p33
S'user_system/models/users/teacher_profile_model'
p34
sS'nums'
p35
g13
(g14
g15
NtRp36
(dp37
g18
I1
sg19
I0
sg20
I27
sg21
I0
sg22
I0
sg23
I0
sg24
I0
sbssS'hash'
p38
S'x\x9e\x06\xe6\x8d\x87\xed\xaf\x91\x87\x16\xfc"\x96\xf2\xfc'
p39
ssS'user_system_views_signups_facebook_signup_view'
p40
(dp41
S'index'
p42
(dp43
S'html_filename'
p44
S'user_system_views_signups_facebook_signup_view.html'
p45
sS'name'
p46
S'user_system/views/signups/facebook_signup_view'
p47
sS'nums'
p48
g13
(g14
g15
NtRp49
(dp50
g18
I1
sg19
I8
sg20
I38
sg21
I0
sg22
I0
sg23
I0
sg24
I0
sbssS'hash'
p51
S'\x04E\'\x17r8\x14\xf6 \x98\xb5\xa0sx"@'
p52
ssS'teach_models_teacher_tags___init__'
p53
(dp54
S'index'
p55
(dp56
S'html_filename'
p57
S'teach_models_teacher_tags___init__.html'
p58
sS'name'
p59
S'teach/models/teacher_tags/__init__'
p60
sS'nums'
p61
g13
(g14
g15
NtRp62
(dp63
g18
I1
sg19
I0
sg20
I1
sg21
I0
sg22
I0
sg23
I0
sg24
I0
sbssS'hash'
p64
S"\x15#y\x16\x1a\x9d\xc6mE\xccg]\x07\xb9'\xe0"
p65
ssS'user_system_models_roles_tests_test_role_app_model'
p66
(dp67
g42
(dp68
g44
S'user_system_models_roles_tests_test_role_app_model.html'
p69
sg46
S'user_system/models/roles/tests/test_role_app_model'
p70
sg48
g13
(g14
g15
NtRp71
(dp72
g18
I1
sg19
I0
sg20
I21
sg21
I0
sg22
I0
sg23
I0
sg24
I0
sbssg51
S"\x80\xd7v\xbb\xe5d.\xeb\xfd\xc4\x04\xb2\x04'\xc6V"
p73
ssS'teach_models_teacher_chapters___init__'
p74
(dp75
g55
(dp76
g57
S'teach_models_teacher_chapters___init__.html'
p77
sg59
S'teach/models/teacher_chapters/__init__'
p78
sg61
g13
(g14
g15
NtRp79
(dp80
g18
I1
sg19
I0
sg20
I1
sg21
I0
sg22
I0
sg23
I0
sg24
I0
sbssg64
S'\xfa\xce(\x03\x8d\xd7\xc1h\xedT\xf9d\xae\x03w^'
p81
ssS'user_system_views_logins_facebook_login_view'
p82
(dp83
g42
(dp84
g44
S'user_system_views_logins_facebook_login_view.html'
p85
sg46
S'user_system/views/logins/facebook_login_view'
p86
sg48
g13
(g14
g15
NtRp87
(dp88
g18
I1
sg19
I4
sg20
I24
sg21
I0
sg22
I0
sg23
I0
sg24
I0
sbssg51
S',\xf8~\x8d\x9b\xfe\xa6wQ5\x92t\x15\xe5\x95\x8d'
p89
ssS'create_serializers_questions_question_history_serializer'
p90
(dp91
g42
(dp92
S'html_filename'
p93
S'create_serializers_questions_question_history_serializer.html'
p94
sS'name'
p95
S'create/serializers/questions/question_history_serializer'
p96
sS'nums'
p97
g13
(g14
g15
NtRp98
(dp99
g18
I1
sg19
I2
sg20
I30
sg21
I0
sg22
I1
sg23
I2
sg24
I1
sbssg51
S'C\x93,\xa4\xac3\xb6\xb8\xca\x076\xae\x14\x15\xc0J'
p100
ssS'create_serializers_quests_quest_history_serializer'
p101
(dp102
S'index'
p103
(dp104
S'html_filename'
p105
S'create_serializers_quests_quest_history_serializer.html'
p106
sS'name'
p107
S'create/serializers/quests/quest_history_serializer'
p108
sS'nums'
p109
g13
(g14
g15
NtRp110
(dp111
g18
I1
sg19
I0
sg20
I38
sg21
I0
sg22
I0
sg23
I15
sg24
I0
sbssS'hash'
p112
S'\x0c\x10\x81\x11\xc3\xff\x01\x8d<#\xe5~\x84\xec\x18\xfd'
p113
ssS'user_system_models_users_tests_test_student_profile_request_model'
p114
(dp115
S'index'
p116
(dp117
g31
S'user_system_models_users_tests_test_student_profile_request_model.html'
p118
sg33
S'user_system/models/users/tests/test_student_profile_request_model'
p119
sg35
g13
(g14
g15
NtRp120
(dp121
g18
I1
sg19
I0
sg20
I42
sg21
I0
sg22
I0
sg23
I0
sg24
I0
sbssS'hash'
p122
S'\x0c4FG\x9bD\x9e\xaa\xb9a\xd6\xee\xc6&0T'
p123
ssS'create_views_books_tests_test_add_chapter_view'
p124
(dp125
S'index'
p126
(dp127
g44
S'create_views_books_tests_test_add_chapter_view.html'
p128
sg46
S'create/views/books/tests/test_add_chapter_view'
p129
sg48
g13
(g14
g15
NtRp130
(dp131
g18
I1
sg19
I0
sg20
I69
sg21
I0
sg22
I0
sg23
I0
sg24
I0
sbssS'hash'
p132
S'\xea\xcd\x81\xff\xe6p74\xe3\xab\xc2R\x1aZ#Y'
p133
ssS'teach_models_teacher_chapters_tests_test_teacher_chapter_model'
p134
(dp135
g55
(dp136
g57
S'teach_models_teacher_chapters_tests_test_teacher_chapter_model.html'
p137
sg59
S'teach/models/teacher_chapters/tests/test_teacher_chapter_model'
p138
sg61
g13
(g14
g15
NtRp139
(dp140
g18
I1
sg19
I0
sg20
I28
sg21
I0
sg22
I0
sg23
I0
sg24
I0
sbssg64
S'm\xb2B\x1a\x04\xa5\x94N\xbe\xb6\xfa\xa9\x16J\x10\x92'
p141
ssS'create_serializers_question_datasets___init__'
p142
(dp143
S'index'
p144
(dp145
S'html_filename'
p146
S'create_serializers_question_datasets___init__.html'
p147
sS'name'
p148
S'create/serializers/question_datasets/__init__'
p149
sS'nums'
p150
g13
(g14
g15
NtRp151
(dp152
g18
I1
sg19
I0
sg20
I1
sg21
I0
sg22
I0
sg23
I0
sg24
I0
sbssS'hash'
p153
S'Z\xf8\x02Tc\xc1C;<_\x87\xc6\xc2H\xa6\xdc'
p154
ssS'user_system_models_users_user_profile_model'
p155
(dp156
g42
(dp157
S'html_filename'
p158
S'user_system_models_users_user_profile_model.html'
p159
sS'name'
p160
S'user_system/models/users/user_profile_model'
p161
sS'nums'
p162
g13
(g14
g15
NtRp163
(dp164
g18
I1
sg19
I48
sg20
I178
sg21
I0
sg22
I0
sg23
I24
sg24
I6
sbssg51
S'\xf2\xb8\xecp\xaf\xff\n\xe3b\x06\xe8\xc3p\xf9\xe4W'
p165
ssS'create_models_question_datasets_tests_test_question_dataset_model'
p166
(dp167
g144
(dp168
g146
S'create_models_question_datasets_tests_test_question_dataset_model.html'
p169
sg148
S'create/models/question_datasets/tests/test_question_dataset_model'
p170
sg150
g13
(g14
g15
NtRp171
(dp172
g18
I1
sg19
I2
sg20
I39
sg21
I0
sg22
I0
sg23
I0
sg24
I0
sbssg153
S'!\t\x88\xfc\x0f\xaa\x0c\x88\xe3\xf9\x04\xd1\\0w\xf1'
p173
ssS'user_system_models_users___init__'
p174
(dp175
g42
(dp176
S'html_filename'
p177
S'user_system_models_users___init__.html'
p178
sS'name'
p179
S'user_system/models/users/__init__'
p180
sS'nums'
p181
g13
(g14
g15
NtRp182
(dp183
g18
I1
sg19
I0
sg20
I11
sg21
I0
sg22
I0
sg23
I0
sg24
I0
sbssg51
S'\x81\xefKrW:\x98\xa0\xfbl\x17\xe1E\xb8..'
p184
ssS'teach_urls'
p185
(dp186
g55
(dp187
S'html_filename'
p188
S'teach_urls.html'
p189
sS'name'
p190
S'teach/urls'
p191
sS'nums'
p192
g13
(g14
g15
NtRp193
(dp194
g18
I1
sg19
I0
sg20
I13
sg21
I0
sg22
I0
sg23
I0
sg24
I0
sbssg64
S'1\xa6\x90\x84\xbf\x9b\x9at\x1f4\xf1\x1b\x92\x03\xff%'
p195
ssS'learn_serializers_daily_quests___init__'
p196
(dp197
g55
(dp198
g177
S'learn_serializers_daily_quests___init__.html'
p199
sg179
S'learn/serializers/daily_quests/__init__'
p200
sg181
g13
(g14
g15
NtRp201
(dp202
g18
I1
sg19
I0
sg20
I2
sg21
I0
sg22
I0
sg23
I0
sg24
I0
sbssg64
S'\x8e\x0b\xa4\xc1x\xdb]\xcc\xf6 \x7f\xbeO\x91\xca@'
p203
ssS'user_system_models_schools___init__'
p204
(dp205
S'index'
p206
(dp207
S'html_filename'
p208
S'user_system_models_schools___init__.html'
p209
sS'name'
p210
S'user_system/models/schools/__init__'
p211
sS'nums'
p212
g13
(g14
g15
NtRp213
(dp214
g18
I1
sg19
I0
sg20
I6
sg21
I0
sg22
I0
sg23
I0
sg24
I0
sbssS'hash'
p215
S'\xbe\xc9\xb2f\x05\x1f\xe6\xee\xef\x01#\xe8\x16\xc2\x83\xdb'
p216
ssS'create_views_questions_tests_test_remove_tag_view'
p217
(dp218
S'index'
p219
(dp220
S'html_filename'
p221
S'create_views_questions_tests_test_remove_tag_view.html'
p222
sS'name'
p223
S'create/views/questions/tests/test_remove_tag_view'
p224
sS'nums'
p225
g13
(g14
g15
NtRp226
(dp227
g18
I1
sg19
I0
sg20
I36
sg21
I0
sg22
I0
sg23
I0
sg24
I0
sbssS'hash'
p228
S'\xbdV1EN\xfe\x8e;\xe4\x92\x91r\xd6Q\x03\x80'
p229
ssS'user_system_models_users_tests_test_student_profile_model'
p230
(dp231
S'index'
p232
(dp233
g177
S'user_system_models_users_tests_test_student_profile_model.html'
p234
sg179
S'user_system/models/users/tests/test_student_profile_model'
p235
sg181
g13
(g14
g15
NtRp236
(dp237
g18
I1
sg19
I0
sg20
I48
sg21
I0
sg22
I0
sg23
I0
sg24
I0
sbssS'hash'
p238
S'\n_\xb5B0\x1dR\x0b\x16i\x1fy.Z\x14#'
p239
ssS'create_views_daily_quest_templates___init__'
p240
(dp241
S'index'
p242
(dp243
S'html_filename'
p244
S'create_views_daily_quest_templates___init__.html'
p245
sS'name'
p246
S'create/views/daily_quest_templates/__init__'
p247
sS'nums'
p248
g13
(g14
g15
NtRp249
(dp250
g18
I1
sg19
I0
sg20
I1
sg21
I0
sg22
I0
sg23
I0
sg24
I0
sbssS'hash'
p251
S'\xc1b\x1f\x95\xabR`C\xe80\xb9tNC\r3'
p252
ssS'learn___init__'
p253
(dp254
g55
(dp255
g57
S'learn___init__.html'
p256
sg59
S'learn/__init__'
p257
sg61
g13
(g14
g15
NtRp258
(dp259
g18
I1
sg19
I0
sg20
I0
sg21
I0
sg22
I0
sg23
I0
sg24
I0
sbssg64
S'\x19g\xdfM\x1a\x019\xaf\x1baIeR\xe5u\xa7'
p260
ssS'create_serializers_quests___init__'
p261
(dp262
g103
(dp263
g31
S'create_serializers_quests___init__.html'
p264
sg33
S'create/serializers/quests/__init__'
p265
sg35
g13
(g14
g15
NtRp266
(dp267
g18
I1
sg19
I0
sg20
I2
sg21
I0
sg22
I0
sg23
I0
sg24
I0
sbssg112
S'\xc0,Fh\xaf\xa0(\x8f\xde\x02{\x88!\x04\x7f\xb6'
p268
ssS'teach_views_teacher_chapters___init__'
p269
(dp270
g55
(dp271
g57
S'teach_views_teacher_chapters___init__.html'
p272
sg59
S'teach/views/teacher_chapters/__init__'
p273
sg61
g13
(g14
g15
NtRp274
(dp275
g18
I1
sg19
I0
sg20
I1
sg21
I0
sg22
I0
sg23
I0
sg24
I0
sbssg64
S'\x10AP\xc9\nC\xd2REz\xf6\xe5\xd2(\xee`'
p276
ssS'user_system_models_users_student_profile_request_model'
p277
(dp278
g116
(dp279
g31
S'user_system_models_users_student_profile_request_model.html'
p280
sg33
S'user_system/models/users/student_profile_request_model'
p281
sg35
g13
(g14
g15
NtRp282
(dp283
g18
I1
sg19
I0
sg20
I45
sg21
I0
sg22
I0
sg23
I0
sg24
I0
sbssg122
S'\xeeZA}\xa0\xf5\x88k0a2\x9fS\xf3}\x05'
p284
ssS'privilege_models___init__'
p285
(dp286
S'index'
p287
(dp288
g93
S'privilege_models___init__.html'
p289
sg95
S'privilege/models/__init__'
p290
sg97
g13
(g14
g15
NtRp291
(dp292
g18
I1
sg19
I0
sg20
I1
sg21
I0
sg22
I0
sg23
I0
sg24
I0
sbssS'hash'
p293
S'\x13V\xca}S\xd3\x98Rp?\xb0\xe1\x904>b'
p294
ssS'user_system_views_users_teacher_mapping_view'
p295
(dp296
S'index'
p297
(dp298
g177
S'user_system_views_users_teacher_mapping_view.html'
p299
sg179
S'user_system/views/users/teacher_mapping_view'
p300
sg181
g13
(g14
g15
NtRp301
(dp302
g18
I1
sg19
I0
sg20
I14
sg21
I0
sg22
I0
sg23
I0
sg24
I0
sbssS'hash'
p303
S'B\x04t\x93Z\x86Q.\x17\xf9\xa0*\xf6\x86\xcf\x10'
p304
ssS'create_views_tags_tests_test_search_tag_view'
p305
(dp306
S'index'
p307
(dp308
g93
S'create_views_tags_tests_test_search_tag_view.html'
p309
sg95
S'create/views/tags/tests/test_search_tag_view'
p310
sg97
g13
(g14
g15
NtRp311
(dp312
g18
I1
sg19
I0
sg20
I22
sg21
I0
sg22
I0
sg23
I0
sg24
I0
sbssS'hash'
p313
S'\rh\xcb\xb3g\x15\x9c\xe3hR\xc5r\xb9\x9c\xb2\x1f'
p314
ssS'create_views_questions_tests_test_hide_question_view'
p315
(dp316
g42
(dp317
g44
S'create_views_questions_tests_test_hide_question_view.html'
p318
sg46
S'create/views/questions/tests/test_hide_question_view'
p319
sg48
g13
(g14
g15
NtRp320
(dp321
g18
I1
sg19
I0
sg20
I30
sg21
I0
sg22
I0
sg23
I0
sg24
I0
sbssg51
S'\xb3\x10S\x8a\x9b\xecw\xaa\xd3\x81\x1b\xf2\xab\xb2QG'
p322
ssS'user_system_serializers_users_student_profile_request_serializer'
p323
(dp324
g116
(dp325
g31
S'user_system_serializers_users_student_profile_request_serializer.html'
p326
sg33
S'user_system/serializers/users/student_profile_request_serializer'
p327
sg35
g13
(g14
g15
NtRp328
(dp329
g18
I1
sg19
I0
sg20
I8
sg21
I0
sg22
I0
sg23
I0
sg24
I0
sbssg122
S'\xa9VJ\x07M\x02\xee$\t\xc8O\xc43$\x1a-'
p330
ssS'user_system_models_users_tests_test_teacher_profile_model'
p331
(dp332
g29
(dp333
S'html_filename'
p334
S'user_system_models_users_tests_test_teacher_profile_model.html'
p335
sS'name'
p336
S'user_system/models/users/tests/test_teacher_profile_model'
p337
sS'nums'
p338
g13
(g14
g15
NtRp339
(dp340
g18
I1
sg19
I0
sg20
I32
sg21
I0
sg22
I0
sg23
I0
sg24
I0
sbssg38
S'\xe7n\x9a\x17\x9d0\x01\xa6\x0f\x18\x10l\x8ckmy'
p341
ssS'teach_models_campaigns___init__'
p342
(dp343
g116
(dp344
g31
S'teach_models_campaigns___init__.html'
p345
sg33
S'teach/models/campaigns/__init__'
p346
sg35
g13
(g14
g15
NtRp347
(dp348
g18
I1
sg19
I0
sg20
I1
sg21
I0
sg22
I0
sg23
I0
sg24
I0
sbssg122
S'\xba\x82\x818\x88\xe0\xf2#\xe9\x89\xffso\xdc\xe6\xd4'
p349
ssS'create_serializers_books_book_chapter_serializer'
p350
(dp351
S'index'
p352
(dp353
g57
S'create_serializers_books_book_chapter_serializer.html'
p354
sg59
S'create/serializers/books/book_chapter_serializer'
p355
sg61
g13
(g14
g15
NtRp356
(dp357
g18
I1
sg19
I0
sg20
I23
sg21
I0
sg22
I0
sg23
I3
sg24
I0
sbssS'hash'
p358
S'\xf1~, f\x89\xad\xc8p\xcc\xd4E_\x0b3\x06'
p359
ssS'api_logging_models_api_logging_api_logging_model'
p360
(dp361
g297
(dp362
g177
S'api_logging_models_api_logging_api_logging_model.html'
p363
sg179
S'api_logging/models/api_logging/api_logging_model'
p364
sg181
g13
(g14
g15
NtRp365
(dp366
g18
I1
sg19
I0
sg20
I21
sg21
I0
sg22
I0
sg23
I0
sg24
I0
sbssg303
S'\x0c\x96WFX%\xe9\xcf+\xcf\xc2s\xa7a1\xbd'
p367
ssS'privilege_models_privileges_tests_test_user_privilege_model'
p368
(dp369
g287
(dp370
g93
S'privilege_models_privileges_tests_test_user_privilege_model.html'
p371
sg95
S'privilege/models/privileges/tests/test_user_privilege_model'
p372
sg97
g13
(g14
g15
NtRp373
(dp374
g18
I1
sg19
I0
sg20
I19
sg21
I0
sg22
I0
sg23
I0
sg24
I0
sbssg293
S'\xcd\xf2\x96G\xfe\xbc/\xb5\x15\xceNf\x0f\x0b5\xd4'
p375
ssS'user_system_urls'
p376
(dp377
g42
(dp378
g177
S'user_system_urls.html'
p379
sg179
S'user_system/urls'
p380
sg181
g13
(g14
g15
NtRp381
(dp382
g18
I1
sg19
I0
sg20
I17
sg21
I0
sg22
I0
sg23
I0
sg24
I0
sbssg51
S'SKXe\xb2\x8f\xd8\xdc\xf3\x99\xa6\x9e.\x82\x96\xe9'
p383
ssS'create_models_tags_tests_test_tag_type_model'
p384
(dp385
S'index'
p386
(dp387
g44
S'create_models_tags_tests_test_tag_type_model.html'
p388
sg46
S'create/models/tags/tests/test_tag_type_model'
p389
sg48
g13
(g14
g15
NtRp390
(dp391
g18
I1
sg19
I0
sg20
I17
sg21
I0
sg22
I0
sg23
I0
sg24
I0
sbssS'hash'
p392
S'?6\xfcg\xce\x11\x1a7E\xaf\xb2\x02\t"\xddA'
p393
ssS'create_models_quests_quest_history_model'
p394
(dp395
g103
(dp396
g8
S'create_models_quests_quest_history_model.html'
p397
sg10
S'create/models/quests/quest_history_model'
p398
sg12
g13
(g14
g15
NtRp399
(dp400
g18
I1
sg19
I8
sg20
I75
sg21
I0
sg22
I3
sg23
I4
sg24
I3
sbssg112
S'@\xe7\xfa\x02?w\xe7\x93\xa3\x85\x0f\x0fz\xf0\xdbR'
p401
ssS'learn_models_daily_quests_tests_test_daily_quest_question_history_model'
p402
(dp403
S'index'
p404
(dp405
S'html_filename'
p406
S'learn_models_daily_quests_tests_test_daily_quest_question_history_model.html'
p407
sS'name'
p408
S'learn/models/daily_quests/tests/test_daily_quest_question_history_model'
p409
sS'nums'
p410
g13
(g14
g15
NtRp411
(dp412
g18
I1
sg19
I0
sg20
I128
sg21
I0
sg22
I0
sg23
I0
sg24
I0
sbssS'hash'
p413
S'\xf72\xe2!\x02\xf1\xf2\xa8\xe4\xba\xb1`\xe2\xf8\xd2('
p414
ssS'create_models_daily_quest_copies_daily_quest_copy_model'
p415
(dp416
S'index'
p417
(dp418
S'html_filename'
p419
S'create_models_daily_quest_copies_daily_quest_copy_model.html'
p420
sS'name'
p421
S'create/models/daily_quest_copies/daily_quest_copy_model'
p422
sS'nums'
p423
g13
(g14
g15
NtRp424
(dp425
g18
I1
sg19
I6
sg20
I47
sg21
I0
sg22
I0
sg23
I14
sg24
I6
sbssS'hash'
p426
S'\x90\xa7\xba\xee\x88\xf84\xf7\xd1B\x9b9@\\\x80P'
p427
ssS'user_system_models_roles_role_app_model'
p428
(dp429
g42
(dp430
g44
S'user_system_models_roles_role_app_model.html'
p431
sg46
S'user_system/models/roles/role_app_model'
p432
sg48
g13
(g14
g15
NtRp433
(dp434
g18
I1
sg19
I0
sg20
I18
sg21
I0
sg22
I0
sg23
I0
sg24
I0
sbssg51
S'\x8d\xa3&\x03\x9d\x1cO|\xces.\x11/\x8f`\xcc'
p435
ssS'user_system_models_apps_app_model'
p436
(dp437
g42
(dp438
g44
S'user_system_models_apps_app_model.html'
p439
sg46
S'user_system/models/apps/app_model'
p440
sg48
g13
(g14
g15
NtRp441
(dp442
g18
I1
sg19
I0
sg20
I16
sg21
I0
sg22
I0
sg23
I0
sg24
I0
sbssg51
S',\x89\x9d;<\xa3\xdc\x92@\xa5\x9c\x7fcg\x05?'
p443
ssS'user_system_views_apps_tests___init__'
p444
(dp445
g42
(dp446
S'html_filename'
p447
S'user_system_views_apps_tests___init__.html'
p448
sS'name'
p449
S'user_system/views/apps/tests/__init__'
p450
sS'nums'
p451
g13
(g14
g15
NtRp452
(dp453
g18
I1
sg19
I0
sg20
I0
sg21
I0
sg22
I0
sg23
I0
sg24
I0
sbssg51
S'\x19g\xdfM\x1a\x019\xaf\x1baIeR\xe5u\xa7'
p454
ssS'privilege___init__'
p455
(dp456
g287
(dp457
g93
S'privilege___init__.html'
p458
sg95
S'privilege/__init__'
p459
sg97
g13
(g14
g15
NtRp460
(dp461
g18
I1
sg19
I0
sg20
I0
sg21
I0
sg22
I0
sg23
I0
sg24
I0
sbssg293
S'\x19g\xdfM\x1a\x019\xaf\x1baIeR\xe5u\xa7'
p462
ssS'create_views_books___init__'
p463
(dp464
g352
(dp465
S'html_filename'
p466
S'create_views_books___init__.html'
p467
sS'name'
p468
S'create/views/books/__init__'
p469
sS'nums'
p470
g13
(g14
g15
NtRp471
(dp472
g18
I1
sg19
I0
sg20
I3
sg21
I0
sg22
I0
sg23
I0
sg24
I0
sbssg358
S'\xce\x13\xc8S|wF\xe3\x148\xa0?ez,\xc4'
p473
ssS'create_models_books_book_chapter_model'
p474
(dp475
g352
(dp476
g31
S'create_models_books_book_chapter_model.html'
p477
sg33
S'create/models/books/book_chapter_model'
p478
sg35
g13
(g14
g15
NtRp479
(dp480
g18
I1
sg19
I8
sg20
I58
sg21
I0
sg22
I1
sg23
I3
sg24
I3
sbssg358
S'5h\xa3E\x99\xf4H\x97\xbf\x08?=+K\xe7\xad'
p481
ssS'user_system_admin'
p482
(dp483
g42
(dp484
g177
S'user_system_admin.html'
p485
sg179
S'user_system/admin'
p486
sg181
g13
(g14
g15
NtRp487
(dp488
g18
I1
sg19
I0
sg20
I25
sg21
I0
sg22
I0
sg23
I0
sg24
I0
sbssg51
S',\xc1@k;\x98\x80\xb5\xbc\xab\x11\xf3\xdc\x0b\xd1U'
p489
ssS'user_system_serializers_users_teacher_profile_serializer'
p490
(dp491
g116
(dp492
g31
S'user_system_serializers_users_teacher_profile_serializer.html'
p493
sg33
S'user_system/serializers/users/teacher_profile_serializer'
p494
sg35
g13
(g14
g15
NtRp495
(dp496
g18
I1
sg19
I4
sg20
I20
sg21
I0
sg22
I0
sg23
I9
sg24
I4
sbssg122
S'\xe2\xa5\xba\xd6e\xc2\x88\xab\xaes\x15\x08\xa9ta\xd6'
p497
ssS'user_system_models_users_tests___init__'
p498
(dp499
g42
(dp500
g447
S'user_system_models_users_tests___init__.html'
p501
sg449
S'user_system/models/users/tests/__init__'
p502
sg451
g13
(g14
g15
NtRp503
(dp504
g18
I1
sg19
I0
sg20
I0
sg21
I0
sg22
I0
sg23
I0
sg24
I0
sbssg51
S'\x19g\xdfM\x1a\x019\xaf\x1baIeR\xe5u\xa7'
p505
ssS'user_system_models_users_user_profile_picture_model'
p506
(dp507
g116
(dp508
g31
S'user_system_models_users_user_profile_picture_model.html'
p509
sg33
S'user_system/models/users/user_profile_picture_model'
p510
sg35
g13
(g14
g15
NtRp511
(dp512
g18
I1
sg19
I0
sg20
I18
sg21
I0
sg22
I0
sg23
I0
sg24
I0
sbssg122
S'$E\xff\xf5f,\xb2\xc7\xb4\x9b*\x0es|s\xcc'
p513
ssS'teach_models_teacher_tags_teacher_tag_model'
p514
(dp515
g55
(dp516
g57
S'teach_models_teacher_tags_teacher_tag_model.html'
p517
sg59
S'teach/models/teacher_tags/teacher_tag_model'
p518
sg61
g13
(g14
g15
NtRp519
(dp520
g18
I1
sg19
I0
sg20
I30
sg21
I0
sg22
I0
sg23
I0
sg24
I0
sbssg64
S'\\\xb6A\xa8\xa7\x93\x16K\xceQ>\xe8t\xdb<#'
p521
ssS'teach_models_daily_quest_templates_daily_quest_template_model'
p522
(dp523
g55
(dp524
g406
S'teach_models_daily_quest_templates_daily_quest_template_model.html'
p525
sg408
S'teach/models/daily_quest_templates/daily_quest_template_model'
p526
sg410
g13
(g14
g15
NtRp527
(dp528
g18
I1
sg19
I0
sg20
I32
sg21
I0
sg22
I0
sg23
I0
sg24
I0
sbssg64
S'\xd8?/FZ\xe7\xb6\xa6E&6\x86\xa5\x93\x7f='
p529
ssS'create_views_books_tests_test_add_subchapter_view'
p530
(dp531
S'index'
p532
(dp533
g44
S'create_views_books_tests_test_add_subchapter_view.html'
p534
sg46
S'create/views/books/tests/test_add_subchapter_view'
p535
sg48
g13
(g14
g15
NtRp536
(dp537
g18
I1
sg19
I0
sg20
I60
sg21
I0
sg22
I0
sg23
I0
sg24
I0
sbssS'hash'
p538
S"\xcc^2\xc4\xf2\xb1\xdc\xe8\xf0t\xb6\xcc\x1f\xce\xf1'"
p539
ssS'create_models_quests_quest_model'
p540
(dp541
g103
(dp542
S'html_filename'
p543
S'create_models_quests_quest_model.html'
p544
sS'name'
p545
S'create/models/quests/quest_model'
p546
sS'nums'
p547
g13
(g14
g15
NtRp548
(dp549
g18
I1
sg19
I4
sg20
I59
sg21
I0
sg22
I0
sg23
I13
sg24
I4
sbssg112
S'^g\x1e\x82\xee1[\xc0\xbe\x04\xca\xb1`M\xe7\xe9'
p550
ssS'user_system_views_users_tests_test_remove_role_view'
p551
(dp552
g42
(dp553
g44
S'user_system_views_users_tests_test_remove_role_view.html'
p554
sg46
S'user_system/views/users/tests/test_remove_role_view'
p555
sg48
g13
(g14
g15
NtRp556
(dp557
g18
I1
sg19
I0
sg20
I42
sg21
I0
sg22
I0
sg23
I0
sg24
I0
sbssg51
S'\xfb\x9b\xa3\xe5\x90\xe7q99\x19\x10"<@L\x8c'
p558
ssS'create_models_tags_tests_test_tag_history_model'
p559
(dp560
S'index'
p561
(dp562
g57
S'create_models_tags_tests_test_tag_history_model.html'
p563
sg59
S'create/models/tags/tests/test_tag_history_model'
p564
sg61
g13
(g14
g15
NtRp565
(dp566
g18
I1
sg19
I0
sg20
I58
sg21
I0
sg22
I0
sg23
I0
sg24
I0
sbssS'hash'
p567
S"\x05Y\xa9\xba\xf0\xa8\xd2*7_\xcb]\xfb*#'"
p568
ssS'teach_views_teacher_news_feed___init__'
p569
(dp570
g297
(dp571
g177
S'teach_views_teacher_news_feed___init__.html'
p572
sg179
S'teach/views/teacher_news_feed/__init__'
p573
sg181
g13
(g14
g15
NtRp574
(dp575
g18
I1
sg19
I0
sg20
I1
sg21
I0
sg22
I0
sg23
I0
sg24
I0
sbssg303
S'\xe8\xcd\xf3\x9f\xa3=;`\xf0oZ\xcb!\x98\xac\x1c'
p576
ssS'create_views_daily_quest_templates_daily_quest_template_view'
p577
(dp578
g242
(dp579
g244
S'create_views_daily_quest_templates_daily_quest_template_view.html'
p580
sg246
S'create/views/daily_quest_templates/daily_quest_template_view'
p581
sg248
g13
(g14
g15
NtRp582
(dp583
g18
I1
sg19
I4
sg20
I20
sg21
I0
sg22
I0
sg23
I5
sg24
I4
sbssg251
S'*(w\xa3\x82\x06\xe8D\x8c\xaa+3\xbc\xe3\xa5\x1d'
p584
ssS'create_models_questions_question_history_remark_model'
p585
(dp586
S'index'
p587
(dp588
S'html_filename'
p589
S'create_models_questions_question_history_remark_model.html'
p590
sS'name'
p591
S'create/models/questions/question_history_remark_model'
p592
sS'nums'
p593
g13
(g14
g15
NtRp594
(dp595
g18
I1
sg19
I0
sg20
I27
sg21
I0
sg22
I0
sg23
I0
sg24
I0
sbssS'hash'
p596
S'\xac"G5\x1c\xf2\xef\xa9\x1dUd\xce4.\xac\xa4'
p597
ssS'learn_serializers___init__'
p598
(dp599
g55
(dp600
g57
S'learn_serializers___init__.html'
p601
sg59
S'learn/serializers/__init__'
p602
sg61
g13
(g14
g15
NtRp603
(dp604
g18
I1
sg19
I0
sg20
I1
sg21
I0
sg22
I0
sg23
I0
sg24
I0
sbssg64
S'cLP\xd9\xc0\x91mD\xa3\xd2\xbczr\xdak\xf4'
p605
ssS'user_system_views_schools___init__'
p606
(dp607
g116
(dp608
g31
S'user_system_views_schools___init__.html'
p609
sg33
S'user_system/views/schools/__init__'
p610
sg35
g13
(g14
g15
NtRp611
(dp612
g18
I1
sg19
I0
sg20
I2
sg21
I0
sg22
I0
sg23
I0
sg24
I0
sbssg122
S'\x85\xe2\x7f\xa7\xac\x16HY\x8b\x10\x9b\xc0r\x17|\x8c'
p613
ssS'create_views_quests___init__'
p614
(dp615
g103
(dp616
S'html_filename'
p617
S'create_views_quests___init__.html'
p618
sS'name'
p619
S'create/views/quests/__init__'
p620
sS'nums'
p621
g13
(g14
g15
NtRp622
(dp623
g18
I1
sg19
I0
sg20
I1
sg21
I0
sg22
I0
sg23
I0
sg24
I0
sbssg112
S'\x8d\x97\x8c^6\xf0o\xc3_\x8dRQ}\xd2]a'
p624
ssS'user_system_models_schools_tests_test_course_model'
p625
(dp626
g232
(dp627
S'html_filename'
p628
S'user_system_models_schools_tests_test_course_model.html'
p629
sS'name'
p630
S'user_system/models/schools/tests/test_course_model'
p631
sS'nums'
p632
g13
(g14
g15
NtRp633
(dp634
g18
I1
sg19
I8
sg20
I50
sg21
I0
sg22
I0
sg23
I0
sg24
I0
sbssg238
S'\xd7va\xe6uR6*v\xca\x885\xf3]$1'
p635
ssS'create_models_question_datasets_tests___init__'
p636
(dp637
g144
(dp638
g146
S'create_models_question_datasets_tests___init__.html'
p639
sg148
S'create/models/question_datasets/tests/__init__'
p640
sg150
g13
(g14
g15
NtRp641
(dp642
g18
I1
sg19
I0
sg20
I0
sg21
I0
sg22
I0
sg23
I0
sg24
I0
sbssg153
S'\x19g\xdfM\x1a\x019\xaf\x1baIeR\xe5u\xa7'
p643
ssS'api_logging_models_modal_logging_modal_model'
p644
(dp645
g297
(dp646
g177
S'api_logging_models_modal_logging_modal_model.html'
p647
sg179
S'api_logging/models/modal_logging/modal_model'
p648
sg181
g13
(g14
g15
NtRp649
(dp650
g18
I1
sg19
I0
sg20
I19
sg21
I0
sg22
I0
sg23
I5
sg24
I0
sbssg303
S'\x0f\x1e\xac\x00_hQ\xcb\xa2\xa8\xf4@\xb9\x97\x9c\x1e'
p651
ssS'user_system_views_signups_hardcoded_test_account_view'
p652
(dp653
g42
(dp654
g44
S'user_system_views_signups_hardcoded_test_account_view.html'
p655
sg46
S'user_system/views/signups/hardcoded/test_account_view'
p656
sg48
g13
(g14
g15
NtRp657
(dp658
g18
I1
sg19
I2
sg20
I18
sg21
I0
sg22
I0
sg23
I0
sg24
I0
sbssg51
S"\xb4\xf1\xfdH\x8f\xf1QX7'\\\xd3\xab.\xbc\x80"
p659
ssS'user_system_views_users_create_student_view'
p660
(dp661
g297
(dp662
g177
S'user_system_views_users_create_student_view.html'
p663
sg179
S'user_system/views/users/create_student_view'
p664
sg181
g13
(g14
g15
NtRp665
(dp666
g18
I1
sg19
I2
sg20
I37
sg21
I0
sg22
I0
sg23
I24
sg24
I2
sbssg303
S'\x8e\xce\xac\xe9\xe3J4\xbb\x88$\xefFS\x06Ow'
p667
ssS'teach_serializers_teacher_tags___init__'
p668
(dp669
g55
(dp670
g57
S'teach_serializers_teacher_tags___init__.html'
p671
sg59
S'teach/serializers/teacher_tags/__init__'
p672
sg61
g13
(g14
g15
NtRp673
(dp674
g18
I1
sg19
I0
sg20
I1
sg21
I0
sg22
I0
sg23
I0
sg24
I0
sbssg64
S'Q\xc1\xe2\xf5*\x8fJ\xddv\xe7\x91\xd1S\xf5\xa9\xa3'
p675
ssS'learn_models_daily_quests_tests___init__'
p676
(dp677
g55
(dp678
g57
S'learn_models_daily_quests_tests___init__.html'
p679
sg59
S'learn/models/daily_quests/tests/__init__'
p680
sg61
g13
(g14
g15
NtRp681
(dp682
g18
I1
sg19
I0
sg20
I1
sg21
I0
sg22
I0
sg23
I0
sg24
I0
sbssg64
S'\xbc\xd6\xeb\xb3\xba\xcaz\xf7{\xd4B\xb5}l\xdf\x96'
p683
ssS'user_system_views_signups___init__'
p684
(dp685
g42
(dp686
g447
S'user_system_views_signups___init__.html'
p687
sg449
S'user_system/views/signups/__init__'
p688
sg451
g13
(g14
g15
NtRp689
(dp690
g18
I1
sg19
I0
sg20
I4
sg21
I0
sg22
I0
sg23
I0
sg24
I0
sbssg51
S'\x02\x1d\x90mQ#+\xc5\x93\xdb\xa4Hs\xcf\xa8\x97'
p691
ssS'create_views_tags_tag_view'
p692
(dp693
S'index'
p694
(dp695
g105
S'create_views_tags_tag_view.html'
p696
sg107
S'create/views/tags/tag_view'
p697
sg109
g13
(g14
g15
NtRp698
(dp699
g18
I1
sg19
I32
sg20
I92
sg21
I0
sg22
I8
sg23
I13
sg24
I16
sbssS'hash'
p700
S'\xd5\xd6\xf9\xa6U<\xf82\xe0xx\x06}\xa5\xeb\xe7'
p701
ssS'learn_models_daily_quests_daily_quest_model'
p702
(dp703
g55
(dp704
S'html_filename'
p705
S'learn_models_daily_quests_daily_quest_model.html'
p706
sS'name'
p707
S'learn/models/daily_quests/daily_quest_model'
p708
sS'nums'
p709
g13
(g14
g15
NtRp710
(dp711
g18
I1
sg19
I22
sg20
I123
sg21
I0
sg22
I0
sg23
I34
sg24
I20
sbssg64
S'U\x02\x1d\xb4\xdb\xad\x91$<[\xd5\xd9\xb5\x0e\xb6\xcd'
p712
ssS'teach_models_campaigns_campaign_model'
p713
(dp714
g116
(dp715
g177
S'teach_models_campaigns_campaign_model.html'
p716
sg179
S'teach/models/campaigns/campaign_model'
p717
sg181
g13
(g14
g15
NtRp718
(dp719
g18
I1
sg19
I0
sg20
I40
sg21
I0
sg22
I0
sg23
I0
sg24
I0
sbssg122
S'>\xc8\xe2\xfb\xdd\xc1"@\xea/\xe1\xbb\xf1\xa4\x80\x0f'
p720
ssS'create_views_tags_tests_test_add_prerequisite_view'
p721
(dp722
g307
(dp723
g44
S'create_views_tags_tests_test_add_prerequisite_view.html'
p724
sg46
S'create/views/tags/tests/test_add_prerequisite_view'
p725
sg48
g13
(g14
g15
NtRp726
(dp727
g18
I1
sg19
I0
sg20
I26
sg21
I0
sg22
I0
sg23
I0
sg24
I0
sbssg313
S'\xd2\xef\x02\xe1{\xbc\x9b\xf3\x8b\xbd\xf0\xd2\xe7\xcc\xb5\xa4'
p728
ssS'create_models_tags___init__'
p729
(dp730
g386
(dp731
S'html_filename'
p732
S'create_models_tags___init__.html'
p733
sS'name'
p734
S'create/models/tags/__init__'
p735
sS'nums'
p736
g13
(g14
g15
NtRp737
(dp738
g18
I1
sg19
I0
sg20
I5
sg21
I0
sg22
I0
sg23
I0
sg24
I0
sbssg392
S'\xcck\xb0R5)\xa8c\xdb\xa6\xfb\xec\x18 \xde}'
p739
ssS'teach_models_campaigns_tests___init__'
p740
(dp741
g116
(dp742
g31
S'teach_models_campaigns_tests___init__.html'
p743
sg33
S'teach/models/campaigns/tests/__init__'
p744
sg35
g13
(g14
g15
NtRp745
(dp746
g18
I1
sg19
I0
sg20
I0
sg21
I0
sg22
I0
sg23
I0
sg24
I0
sbssg122
S'\x19g\xdfM\x1a\x019\xaf\x1baIeR\xe5u\xa7'
p747
ssS'learn_views_student_news_feed___init__'
p748
(dp749
g297
(dp750
g177
S'learn_views_student_news_feed___init__.html'
p751
sg179
S'learn/views/student_news_feed/__init__'
p752
sg181
g13
(g14
g15
NtRp753
(dp754
g18
I1
sg19
I0
sg20
I1
sg21
I0
sg22
I0
sg23
I0
sg24
I0
sbssg303
S'\xc5\x87\xccQ|\xa2\xee\x11p\x84\xfe\xed\xe3W\xfa\x07'
p755
ssS'create_models_daily_quests___init__'
p756
(dp757
S'index'
p758
(dp759
S'html_filename'
p760
S'create_models_daily_quests___init__.html'
p761
sS'name'
p762
S'create/models/daily_quests/__init__'
p763
sS'nums'
p764
g13
(g14
g15
NtRp765
(dp766
g18
I1
sg19
I0
sg20
I1
sg21
I0
sg22
I0
sg23
I0
sg24
I0
sbssS'hash'
p767
S'\x94\x0eB\xb3\x8e\xc6\x81\xc0\x16\x84P.\x11:\x8e\xc9'
p768
ssS'teach_views_teacher_chapters_teacher_chapter_view'
p769
(dp770
g55
(dp771
g31
S'teach_views_teacher_chapters_teacher_chapter_view.html'
p772
sg33
S'teach/views/teacher_chapters/teacher_chapter_view'
p773
sg35
g13
(g14
g15
NtRp774
(dp775
g18
I1
sg19
I12
sg20
I44
sg21
I0
sg22
I0
sg23
I25
sg24
I12
sbssg64
S'Z\xc5\n\xdb\xe5!2~7\xe3i\xa7j\xd4\x10\x8c'
p776
ssS'create_serializers_tags_concept_serializer'
p777
(dp778
g352
(dp779
S'html_filename'
p780
S'create_serializers_tags_concept_serializer.html'
p781
sS'name'
p782
S'create/serializers/tags/concept_serializer'
p783
sS'nums'
p784
g13
(g14
g15
NtRp785
(dp786
g18
I1
sg19
I0
sg20
I6
sg21
I0
sg22
I0
sg23
I0
sg24
I0
sbssg358
S'\xf1\xe0\xc7%%\xbd\xfc@\x12\x02\x96\xbb\x0c\xbf\x9fq'
p787
ssS'create_serializers_questions_question_history_remark_serializer'
p788
(dp789
g587
(dp790
g589
S'create_serializers_questions_question_history_remark_serializer.html'
p791
sg591
S'create/serializers/questions/question_history_remark_serializer'
p792
sg593
g13
(g14
g15
NtRp793
(dp794
g18
I1
sg19
I0
sg20
I6
sg21
I0
sg22
I0
sg23
I0
sg24
I0
sbssg596
S'\xb53\t\x11\xa6\x1b\xf7!D"\xc8\xa3\xcb41\x9d'
p795
ssS'user_system_models_roles_tests___init__'
p796
(dp797
g42
(dp798
g447
S'user_system_models_roles_tests___init__.html'
p799
sg449
S'user_system/models/roles/tests/__init__'
p800
sg451
g13
(g14
g15
NtRp801
(dp802
g18
I1
sg19
I0
sg20
I0
sg21
I0
sg22
I0
sg23
I0
sg24
I0
sbssg51
S'\x19g\xdfM\x1a\x019\xaf\x1baIeR\xe5u\xa7'
p803
ssS'create_serializers_tags___init__'
p804
(dp805
S'index'
p806
(dp807
S'html_filename'
p808
S'create_serializers_tags___init__.html'
p809
sS'name'
p810
S'create/serializers/tags/__init__'
p811
sS'nums'
p812
g13
(g14
g15
NtRp813
(dp814
g18
I1
sg19
I0
sg20
I0
sg21
I0
sg22
I0
sg23
I0
sg24
I0
sbssS'hash'
p815
S'\x19g\xdfM\x1a\x019\xaf\x1baIeR\xe5u\xa7'
p816
ssS'privilege_urls'
p817
(dp818
g287
(dp819
g93
S'privilege_urls.html'
p820
sg95
S'privilege/urls'
p821
sg97
g13
(g14
g15
NtRp822
(dp823
g18
I1
sg19
I0
sg20
I7
sg21
I0
sg22
I0
sg23
I0
sg24
I0
sbssg293
S'\x86\xbf\xcdE\x8fy\xc9\xd5\x13I\x11#-J.\xe8'
p824
ssS'flipped_helpers_time_helper'
p825
(dp826
g116
(dp827
g177
S'flipped_helpers_time_helper.html'
p828
sg179
S'flipped/helpers/time_helper'
p829
sg181
g13
(g14
g15
NtRp830
(dp831
g18
I1
sg19
I2
sg20
I26
sg21
I0
sg22
I0
sg23
I17
sg24
I2
sbssg122
S'\xc4\x9dt\xafh9\xf1\xa5\xbe\xbd\xe6\xb9G\xd0\xcf\xad'
p832
ssS'user_system_serializers_users_teacher_mapping_serializer'
p833
(dp834
g297
(dp835
g177
S'user_system_serializers_users_teacher_mapping_serializer.html'
p836
sg179
S'user_system/serializers/users/teacher_mapping_serializer'
p837
sg181
g13
(g14
g15
NtRp838
(dp839
g18
I1
sg19
I0
sg20
I7
sg21
I0
sg22
I0
sg23
I0
sg24
I0
sbssg303
S'\x13\xf7\x06\xcfN\x17?&3\xc5\xf6]6uj\xc1'
p840
ssS'api_logging_views_LoggingView'
p841
(dp842
g297
(dp843
g177
S'api_logging_views_LoggingView.html'
p844
sg179
S'api_logging/views/LoggingView'
p845
sg181
g13
(g14
g15
NtRp846
(dp847
g18
I1
sg19
I8
sg20
I41
sg21
I0
sg22
I0
sg23
I27
sg24
I8
sbssg303
S'\xe3\xefQ\x1e\x9e\xec\xea\xa7\xc5\x05\xb9\x90\xf6\xf3\x88\x9b'
p848
ssS'create_models_questions_tests_test_question_type_model'
p849
(dp850
g42
(dp851
g44
S'create_models_questions_tests_test_question_type_model.html'
p852
sg46
S'create/models/questions/tests/test_question_type_model'
p853
sg48
g13
(g14
g15
NtRp854
(dp855
g18
I1
sg19
I0
sg20
I17
sg21
I0
sg22
I0
sg23
I0
sg24
I0
sbssg51
S'e\x1b\x19\xbb)\x89\xff\xfa\xe5\xca\xde\x08\x08CUL'
p856
ssS'teach_models___init__'
p857
(dp858
g55
(dp859
g31
S'teach_models___init__.html'
p860
sg33
S'teach/models/__init__'
p861
sg35
g13
(g14
g15
NtRp862
(dp863
g18
I1
sg19
I0
sg20
I4
sg21
I0
sg22
I0
sg23
I0
sg24
I0
sbssg64
S'\x18\xb4\x9a\xf6\x89\xe4oR\x81\xdbb\xf7E\xf9\x92\xb7'
p864
ssS'create_models_tags_skill_model'
p865
(dp866
g386
(dp867
g44
S'create_models_tags_skill_model.html'
p868
sg46
S'create/models/tags/skill_model'
p869
sg48
g13
(g14
g15
NtRp870
(dp871
g18
I1
sg19
I0
sg20
I10
sg21
I0
sg22
I0
sg23
I0
sg24
I0
sbssg392
S'B&\x06S\xb6\x85A\xdbx\xd4\xc7#]\x13\xe1\xca'
p872
ssS'learn_tests'
p873
(dp874
g55
(dp875
g57
S'learn_tests.html'
p876
sg59
S'learn/tests'
p877
sg61
g13
(g14
g15
NtRp878
(dp879
g18
I1
sg19
I0
sg20
I1
sg21
I0
sg22
I0
sg23
I0
sg24
I0
sbssg64
S'\xe3\x7f\x86\xaa\x99\xac\xc8\x80\xdblE4\x0f\xe7\x1d\xfc'
p880
ssS'api_logging_managers'
p881
(dp882
g561
(dp883
g44
S'api_logging_managers.html'
p884
sg46
S'api_logging/managers'
p885
sg48
g13
(g14
g15
NtRp886
(dp887
g18
I1
sg19
I0
sg20
I4
sg21
I0
sg22
I0
sg23
I0
sg24
I0
sbssg567
S'\xef\xaf\x98\xcd63\x10\x1c\xc1\xfcP\x12\xc1\xe7\xa5\xc7'
p888
ssS'api_logging_views___init__'
p889
(dp890
g297
(dp891
g177
S'api_logging_views___init__.html'
p892
sg179
S'api_logging/views/__init__'
p893
sg181
g13
(g14
g15
NtRp894
(dp895
g18
I1
sg19
I0
sg20
I3
sg21
I0
sg22
I0
sg23
I0
sg24
I0
sbssg303
S'_Q\x0f\x0cLb\xd8Cm\xa7\x81g\xaa\x95\xbdd'
p896
ssS'create_models_books___init__'
p897
(dp898
g352
(dp899
g780
S'create_models_books___init__.html'
p900
sg782
S'create/models/books/__init__'
p901
sg784
g13
(g14
g15
NtRp902
(dp903
g18
I1
sg19
I0
sg20
I4
sg21
I0
sg22
I0
sg23
I0
sg24
I0
sbssg358
S'\xba\x14\x87u\xc0\x80\x96\x82s\x8d\x8bU)\x1c\xc3\x91'
p904
ssS'flipped_helpers___init__'
p905
(dp906
g42
(dp907
g177
S'flipped_helpers___init__.html'
p908
sg179
S'flipped/helpers/__init__'
p909
sg181
g13
(g14
g15
NtRp910
(dp911
g18
I1
sg19
I0
sg20
I5
sg21
I0
sg22
I0
sg23
I0
sg24
I0
sbssg51
S'\x95\xcd\x9a\xf9\xe3\xd8\xff\x94\x81\xae\x9c\x14\xc0P\x95~'
p912
ssS'create_models_quests_tests_test_quest_model'
p913
(dp914
g103
(dp915
g543
S'create_models_quests_tests_test_quest_model.html'
p916
sg545
S'create/models/quests/tests/test_quest_model'
p917
sg547
g13
(g14
g15
NtRp918
(dp919
g18
I1
sg19
I4
sg20
I48
sg21
I0
sg22
I0
sg23
I0
sg24
I0
sbssg112
S'\xcdF\x98\xd0k\x14\x9e\xe4\x90\x96\x03\xddNdiH'
p920
ssS'privilege_views_privileges_user_privilege_view'
p921
(dp922
g287
(dp923
g93
S'privilege_views_privileges_user_privilege_view.html'
p924
sg95
S'privilege/views/privileges/user_privilege_view'
p925
sg97
g13
(g14
g15
NtRp926
(dp927
g18
I1
sg19
I10
sg20
I38
sg21
I0
sg22
I0
sg23
I22
sg24
I10
sbssg293
S'\xf699\xa5A\xca\x9e\x91,l\xf8\x8dI[PR'
p928
ssS'learn_models_daily_quests_tests_test_daily_quest_model'
p929
(dp930
g55
(dp931
S'html_filename'
p932
S'learn_models_daily_quests_tests_test_daily_quest_model.html'
p933
sS'name'
p934
S'learn/models/daily_quests/tests/test_daily_quest_model'
p935
sS'nums'
p936
g13
(g14
g15
NtRp937
(dp938
g18
I1
sg19
I2
sg20
I100
sg21
I0
sg22
I0
sg23
I0
sg24
I0
sbssg64
S'\xf75\x1a\xef\x1b\xea\x17!t\r\xb3<q\x90\x973'
p939
ssS'create_views_books_tests_test_get_book_by_id_view'
p940
(dp941
S'index'
p942
(dp943
g93
S'create_views_books_tests_test_get_book_by_id_view.html'
p944
sg95
S'create/views/books/tests/test_get_book_by_id_view'
p945
sg97
g13
(g14
g15
NtRp946
(dp947
g18
I1
sg19
I0
sg20
I20
sg21
I0
sg22
I0
sg23
I0
sg24
I0
sbssS'hash'
p948
S'\xc88x\xaf\x84e\xaa6\x17\xdf\x0e\x8c`\xcaAO'
p949
ssS'user_system_views_apps_tests_test_get_app_by_id_view'
p950
(dp951
g42
(dp952
g44
S'user_system_views_apps_tests_test_get_app_by_id_view.html'
p953
sg46
S'user_system/views/apps/tests/test_get_app_by_id_view'
p954
sg48
g13
(g14
g15
NtRp955
(dp956
g18
I1
sg19
I0
sg20
I17
sg21
I0
sg22
I0
sg23
I0
sg24
I0
sbssg51
S"\xa2\x1eG%r{-~\xc5=\x8aj\x99X!'"
p957
ssS'teach_views_daily_quest_templates_daily_quest_template_view'
p958
(dp959
g55
(dp960
S'html_filename'
p961
S'teach_views_daily_quest_templates_daily_quest_template_view.html'
p962
sS'name'
p963
S'teach/views/daily_quest_templates/daily_quest_template_view'
p964
sS'nums'
p965
g13
(g14
g15
NtRp966
(dp967
g18
I1
sg19
I18
sg20
I54
sg21
I0
sg22
I0
sg23
I33
sg24
I18
sbssg64
S'\x97J\xccM\x9b\xcd1\xaf\x95\xea\xd8\x8d\xdc(\x89['
p968
ssS'api_logging_views_summary___init__'
p969
(dp970
g297
(dp971
g177
S'api_logging_views_summary___init__.html'
p972
sg179
S'api_logging/views/summary/__init__'
p973
sg181
g13
(g14
g15
NtRp974
(dp975
g18
I1
sg19
I0
sg20
I1
sg21
I0
sg22
I0
sg23
I0
sg24
I0
sbssg303
S'\x04\x12bh\x96\xc5j\x88dm\x0e\xd7\xe1\x94Lq'
p976
ssS'privilege_serializers___init__'
p977
(dp978
g287
(dp979
g93
S'privilege_serializers___init__.html'
p980
sg95
S'privilege/serializers/__init__'
p981
sg97
g13
(g14
g15
NtRp982
(dp983
g18
I1
sg19
I0
sg20
I1
sg21
I0
sg22
I0
sg23
I0
sg24
I0
sbssg293
S'\x13V\xca}S\xd3\x98Rp?\xb0\xe1\x904>b'
p984
ssS'create_models_books_tests_test_book_subchapter_model'
p985
(dp986
g352
(dp987
S'html_filename'
p988
S'create_models_books_tests_test_book_subchapter_model.html'
p989
sS'name'
p990
S'create/models/books/tests/test_book_subchapter_model'
p991
sS'nums'
p992
g13
(g14
g15
NtRp993
(dp994
g18
I1
sg19
I0
sg20
I42
sg21
I0
sg22
I0
sg23
I0
sg24
I0
sbssg358
S'\xe3*\xba\x94d#\xcd\t\xc9\xb8\x05w\nz\xb8\xc0'
p995
ssS'learn_models_daily_quests___init__'
p996
(dp997
g55
(dp998
S'html_filename'
p999
S'learn_models_daily_quests___init__.html'
p1000
sS'name'
p1001
S'learn/models/daily_quests/__init__'
p1002
sS'nums'
p1003
g13
(g14
g15
NtRp1004
(dp1005
g18
I1
sg19
I0
sg20
I2
sg21
I0
sg22
I0
sg23
I0
sg24
I0
sbssg64
S's\x11\xbfV}\xab\xfcdH\xcf4Q\xc5\x86\xa3\xb4'
p1006
ssS'create_models_daily_quest_templates_tests___init__'
p1007
(dp1008
g242
(dp1009
g244
S'create_models_daily_quest_templates_tests___init__.html'
p1010
sg246
S'create/models/daily_quest_templates/tests/__init__'
p1011
sg248
g13
(g14
g15
NtRp1012
(dp1013
g18
I1
sg19
I0
sg20
I0
sg21
I0
sg22
I0
sg23
I0
sg24
I0
sbssg251
S'\x19g\xdfM\x1a\x019\xaf\x1baIeR\xe5u\xa7'
p1014
ssS'create_models_tags_tag_model'
p1015
(dp1016
g386
(dp1017
g93
S'create_models_tags_tag_model.html'
p1018
sg95
S'create/models/tags/tag_model'
p1019
sg97
g13
(g14
g15
NtRp1020
(dp1021
g18
I1
sg19
I0
sg20
I37
sg21
I0
sg22
I0
sg23
I0
sg24
I0
sbssg392
S'rJ0\x91]\xe5\xfc\xa8\x8c\x00}RI\x18\xf0\x07'
p1022
ssS'create_views_tags___init__'
p1023
(dp1024
g694
(dp1025
S'html_filename'
p1026
S'create_views_tags___init__.html'
p1027
sS'name'
p1028
S'create/views/tags/__init__'
p1029
sS'nums'
p1030
g13
(g14
g15
NtRp1031
(dp1032
g18
I1
sg19
I0
sg20
I1
sg21
I0
sg22
I0
sg23
I0
sg24
I0
sbssg700
S'|r<\xaap\x01\xb1\xbc"\xe5\xbb\xd8\x87\xa5\xd2H'
p1033
ssS'create_serializers_tags_skill_serializer'
p1034
(dp1035
g352
(dp1036
g780
S'create_serializers_tags_skill_serializer.html'
p1037
sg782
S'create/serializers/tags/skill_serializer'
p1038
sg784
g13
(g14
g15
NtRp1039
(dp1040
g18
I1
sg19
I0
sg20
I6
sg21
I0
sg22
I0
sg23
I0
sg24
I0
sbssg358
S'\x1b\x10O\xca\xd5i\\\x06C\x00q}\xf43\xcb\xa6'
p1041
ssS'create_views_questions_question_history_remark_view'
p1042
(dp1043
g587
(dp1044
g589
S'create_views_questions_question_history_remark_view.html'
p1045
sg591
S'create/views/questions/question_history_remark_view'
p1046
sg593
g13
(g14
g15
NtRp1047
(dp1048
g18
I1
sg19
I0
sg20
I14
sg21
I0
sg22
I0
sg23
I0
sg24
I0
sbssg596
S'{4O\x0e\xb3\xad\xc8\xb72\x8f\x1f\x11\xc0\x9e\xa0\xd6'
p1049
ssS'create_serializers_tags_tag_type_serializer'
p1050
(dp1051
g352
(dp1052
g780
S'create_serializers_tags_tag_type_serializer.html'
p1053
sg782
S'create/serializers/tags/tag_type_serializer'
p1054
sg784
g13
(g14
g15
NtRp1055
(dp1056
g18
I1
sg19
I0
sg20
I6
sg21
I0
sg22
I0
sg23
I0
sg24
I0
sbssg358
S'\xc3\xfd\x81\x18{\x97,\xb1\xb6\x9f\xee\xf2kZ\x1e\x02'
p1057
ssS'learn_models_points_tests_test_point_history_model'
p1058
(dp1059
g297
(dp1060
g177
S'learn_models_points_tests_test_point_history_model.html'
p1061
sg179
S'learn/models/points/tests/test_point_history_model'
p1062
sg181
g13
(g14
g15
NtRp1063
(dp1064
g18
I1
sg19
I0
sg20
I22
sg21
I0
sg22
I0
sg23
I0
sg24
I0
sbssg303
S"\x8d\xd7\x96\xe4\x1b\xf6\xc4\xed:B\x13\xa9MA'\x99"
p1065
ssS'learn_serializers_daily_quests_daily_quest_serializer'
p1066
(dp1067
g55
(dp1068
g177
S'learn_serializers_daily_quests_daily_quest_serializer.html'
p1069
sg179
S'learn/serializers/daily_quests/daily_quest_serializer'
p1070
sg181
g13
(g14
g15
NtRp1071
(dp1072
g18
I1
sg19
I2
sg20
I61
sg21
I0
sg22
I0
sg23
I27
sg24
I2
sbssg64
S'\x00\xdc)#U\xf8\x03\xc2\xa7T\x0b\xa9\x13\xa3ds'
p1073
ssS'user_system_models_users_tests_test_user_profile_picture_model'
p1074
(dp1075
g116
(dp1076
g31
S'user_system_models_users_tests_test_user_profile_picture_model.html'
p1077
sg33
S'user_system/models/users/tests/test_user_profile_picture_model'
p1078
sg35
g13
(g14
g15
NtRp1079
(dp1080
g18
I1
sg19
I0
sg20
I21
sg21
I0
sg22
I0
sg23
I0
sg24
I0
sbssg122
S'\xbc/\x93\xf6\x8a\x1eC\x99t\xd0\xdc\x96\xf8\x970\xc9'
p1081
ssS'teach_views_teacher_news_feed_teacher_news_feed_view'
p1082
(dp1083
g297
(dp1084
g932
S'teach_views_teacher_news_feed_teacher_news_feed_view.html'
p1085
sg934
S'teach/views/teacher_news_feed/teacher_news_feed_view'
p1086
sg936
g13
(g14
g15
NtRp1087
(dp1088
g18
I1
sg19
I2
sg20
I40
sg21
I0
sg22
I0
sg23
I20
sg24
I2
sbssg303
S'\x91\x13LD\x93S\xb7\xc7F\x89y\x9f\x0cO\xb9_'
p1089
ssS'user_system_serializers_schools_organization_serializer'
p1090
(dp1091
g55
(dp1092
g57
S'user_system_serializers_schools_organization_serializer.html'
p1093
sg59
S'user_system/serializers/schools/organization_serializer'
p1094
sg61
g13
(g14
g15
NtRp1095
(dp1096
g18
I1
sg19
I0
sg20
I7
sg21
I0
sg22
I0
sg23
I0
sg24
I0
sbssg64
S'90~\xe3\x8f\x8e\xd9m\xb4\nInn\x03(\xdb'
p1097
ssS'create_models_books_book_subchapter_model'
p1098
(dp1099
g352
(dp1100
S'html_filename'
p1101
S'create_models_books_book_subchapter_model.html'
p1102
sS'name'
p1103
S'create/models/books/book_subchapter_model'
p1104
sS'nums'
p1105
g13
(g14
g15
NtRp1106
(dp1107
g18
I1
sg19
I2
sg20
I45
sg21
I0
sg22
I0
sg23
I0
sg24
I0
sbssg358
S'\xbc\xee\x91\x7f;\xa9\x15\xeaau\xef\x82\x07"\x02\xd3'
p1108
ssS'teach_views_summaries_leaderboard_view'
p1109
(dp1110
g297
(dp1111
g932
S'teach_views_summaries_leaderboard_view.html'
p1112
sg934
S'teach/views/summaries/leaderboard_view'
p1113
sg936
g13
(g14
g15
NtRp1114
(dp1115
g18
I1
sg19
I62
sg20
I155
sg21
I0
sg22
I0
sg23
I125
sg24
I62
sbssg303
S'\x82\xc6\xd6)\x18%mB\x8bR\xb5\x7f\xafO\xa1\x8c'
p1116
ssS'api_logging_serializers_modal_loggings_modal_user_history_serializer'
p1117
(dp1118
g297
(dp1119
g177
S'api_logging_serializers_modal_loggings_modal_user_history_serializer.html'
p1120
sg179
S'api_logging/serializers/modal_loggings/modal_user_history_serializer'
p1121
sg181
g13
(g14
g15
NtRp1122
(dp1123
g18
I1
sg19
I0
sg20
I7
sg21
I0
sg22
I0
sg23
I0
sg24
I0
sbssg303
S'\xc2\x8f\x89\xe8$\x9c~\x81\xa9\xca\xf8h\x80\xb7hp'
p1124
ssS'learn_models_points___init__'
p1125
(dp1126
g297
(dp1127
g177
S'learn_models_points___init__.html'
p1128
sg179
S'learn/models/points/__init__'
p1129
sg181
g13
(g14
g15
NtRp1130
(dp1131
g18
I1
sg19
I0
sg20
I2
sg21
I0
sg22
I0
sg23
I0
sg24
I0
sbssg303
S'\x1d_\xe1\xcei\x14zD\xd7\x8e\xa1\xf55\x1f\xd1\xd5'
p1132
ssS'api_logging_models___init__'
p1133
(dp1134
g297
(dp1135
g177
S'api_logging_models___init__.html'
p1136
sg179
S'api_logging/models/__init__'
p1137
sg181
g13
(g14
g15
NtRp1138
(dp1139
g18
I1
sg19
I0
sg20
I3
sg21
I0
sg22
I0
sg23
I0
sg24
I0
sbssg303
S'\x9d\r\xed\xba\xe8h@\xa4\xfa(\xf2\xdf\xf5IZ\x9c'
p1140
ssS'teach_serializers___init__'
p1141
(dp1142
g55
(dp1143
g57
S'teach_serializers___init__.html'
p1144
sg59
S'teach/serializers/__init__'
p1145
sg61
g13
(g14
g15
NtRp1146
(dp1147
g18
I1
sg19
I0
sg20
I3
sg21
I0
sg22
I0
sg23
I0
sg24
I0
sbssg64
S'3\x13\x12&\xcb\xecC\xee\xa8lR\x1a\x1d\xb9M\xba'
p1148
ssS'user_system_views_signups_tests___init__'
p1149
(dp1150
g42
(dp1151
g447
S'user_system_views_signups_tests___init__.html'
p1152
sg449
S'user_system/views/signups/tests/__init__'
p1153
sg451
g13
(g14
g15
NtRp1154
(dp1155
g18
I1
sg19
I0
sg20
I1
sg21
I0
sg22
I0
sg23
I0
sg24
I0
sbssg51
S'\xbc\xd6\xeb\xb3\xba\xcaz\xf7{\xd4B\xb5}l\xdf\x96'
p1156
ssS'create_models_daily_quests_tests___init__'
p1157
(dp1158
g758
(dp1159
g760
S'create_models_daily_quests_tests___init__.html'
p1160
sg762
S'create/models/daily_quests/tests/__init__'
p1161
sg764
g13
(g14
g15
NtRp1162
(dp1163
g18
I1
sg19
I0
sg20
I1
sg21
I0
sg22
I0
sg23
I0
sg24
I0
sbssg767
S'\xbc\xd6\xeb\xb3\xba\xcaz\xf7{\xd4B\xb5}l\xdf\x96'
p1164
ssS'api_logging_models_api_logging___init__'
p1165
(dp1166
g297
(dp1167
g177
S'api_logging_models_api_logging___init__.html'
p1168
sg179
S'api_logging/models/api_logging/__init__'
p1169
sg181
g13
(g14
g15
NtRp1170
(dp1171
g18
I1
sg19
I0
sg20
I1
sg21
I0
sg22
I0
sg23
I0
sg24
I0
sbssg303
S'C\xe8\xcf\x97-\xc6\xd3j\xcb\x90*\xea\xd3w\x83\xe0'
p1172
ssS'create_serializers_daily_quests_daily_quest_serializer'
p1173
(dp1174
g242
(dp1175
S'html_filename'
p1176
S'create_serializers_daily_quests_daily_quest_serializer.html'
p1177
sS'name'
p1178
S'create/serializers/daily_quests/daily_quest_serializer'
p1179
sS'nums'
p1180
g13
(g14
g15
NtRp1181
(dp1182
g18
I1
sg19
I0
sg20
I12
sg21
I0
sg22
I0
sg23
I3
sg24
I0
sbssg251
S' $!\xf6\xe6\x92\x9f\x9f\xafy\xe9\x8b\x1c\xf4\xb6\x01'
p1183
ssS'user_system_views_signups_email_signup_view'
p1184
(dp1185
g42
(dp1186
g44
S'user_system_views_signups_email_signup_view.html'
p1187
sg46
S'user_system/views/signups/email_signup_view'
p1188
sg48
g13
(g14
g15
NtRp1189
(dp1190
g18
I1
sg19
I8
sg20
I44
sg21
I0
sg22
I0
sg23
I0
sg24
I0
sbssg51
S'&G\xd1\xc4{\x9b\xbf\x14\x92F\xbe\x13\xeer\x84\x1b'
p1191
ssS'teach_views_teacher_tags___init__'
p1192
(dp1193
g55
(dp1194
g57
S'teach_views_teacher_tags___init__.html'
p1195
sg59
S'teach/views/teacher_tags/__init__'
p1196
sg61
g13
(g14
g15
NtRp1197
(dp1198
g18
I1
sg19
I0
sg20
I1
sg21
I0
sg22
I0
sg23
I0
sg24
I0
sbssg64
S'cp\x00\xdc\x00\xe5M\x9f\x1f\xaa\xb2Y\xd9%\x1d"'
p1199
ssS'flipped_helpers_success_response_helper'
p1200
(dp1201
g42
(dp1202
g44
S'flipped_helpers_success_response_helper.html'
p1203
sg46
S'flipped/helpers/success_response_helper'
p1204
sg48
g13
(g14
g15
NtRp1205
(dp1206
g18
I1
sg19
I2
sg20
I4
sg21
I0
sg22
I0
sg23
I0
sg24
I0
sbssg51
S"'Bp\xbe\xd9\xfa\x92\xa4;\xb6\t\xa8\xfe<\x9d\xa5"
p1207
ssS'create_models_questions_question_model'
p1208
(dp1209
g42
(dp1210
S'html_filename'
p1211
S'create_models_questions_question_model.html'
p1212
sS'name'
p1213
S'create/models/questions/question_model'
p1214
sS'nums'
p1215
g13
(g14
g15
NtRp1216
(dp1217
g18
I1
sg19
I0
sg20
I48
sg21
I0
sg22
I0
sg23
I0
sg24
I0
sbssg51
S'\tGy\xb6\x10\x17dQ\xd7\xd8N>\xd5\x96R\x82'
p1218
ssS'user_system_models_roles___init__'
p1219
(dp1220
g42
(dp1221
g447
S'user_system_models_roles___init__.html'
p1222
sg449
S'user_system/models/roles/__init__'
p1223
sg451
g13
(g14
g15
NtRp1224
(dp1225
g18
I1
sg19
I0
sg20
I2
sg21
I0
sg22
I0
sg23
I0
sg24
I0
sbssg51
S'\xa3\xc2\r\x1b\x1bC\x85\xa5\xads\x7fl\xab`*1'
p1226
ssS'create_models_questions_question_history_model'
p1227
(dp1228
g42
(dp1229
g93
S'create_models_questions_question_history_model.html'
p1230
sg95
S'create/models/questions/question_history_model'
p1231
sg97
g13
(g14
g15
NtRp1232
(dp1233
g18
I1
sg19
I8
sg20
I68
sg21
I0
sg22
I2
sg23
I2
sg24
I2
sbssg51
S'\xd0\xe9\x0bm$j\x15\x9b@\x93\xe5C\xa7\x97\xfd\xf4'
p1234
ssS'user_system_views_signups_tests_test_facebook_signup_view'
p1235
(dp1236
g42
(dp1237
g44
S'user_system_views_signups_tests_test_facebook_signup_view.html'
p1238
sg46
S'user_system/views/signups/tests/test_facebook_signup_view'
p1239
sg48
g13
(g14
g15
NtRp1240
(dp1241
g18
I1
sg19
I0
sg20
I60
sg21
I0
sg22
I0
sg23
I0
sg24
I0
sbssg51
S'\x93<\xc8]\x14\t\xa8/\xdd\xd1\xa4]\xfbp!\xbd'
p1242
ssS'user_system_models_users_tests_test_teacher_mapping_model'
p1243
(dp1244
g29
(dp1245
S'html_filename'
p1246
S'user_system_models_users_tests_test_teacher_mapping_model.html'
p1247
sS'name'
p1248
S'user_system/models/users/tests/test_teacher_mapping_model'
p1249
sS'nums'
p1250
g13
(g14
g15
NtRp1251
(dp1252
g18
I1
sg19
I4
sg20
I35
sg21
I0
sg22
I0
sg23
I0
sg24
I0
sbssg38
S'\x96\x93\xca\x00>\xf7\xc8\xe6:\xb8\x7f\xf5q:\xb6\xaa'
p1253
ssS'learn_views_daily_quests_daily_quest_view'
p1254
(dp1255
g55
(dp1256
g177
S'learn_views_daily_quests_daily_quest_view.html'
p1257
sg179
S'learn/views/daily_quests/daily_quest_view'
p1258
sg181
g13
(g14
g15
NtRp1259
(dp1260
g18
I1
sg19
I16
sg20
I61
sg21
I0
sg22
I0
sg23
I40
sg24
I16
sbssg64
S'\xceiA\x93\xcd>Y\x85L\x07Oz\x9aw\xae;'
p1261
ssS'teach_views_summaries_class_ranking_view'
p1262
(dp1263
g297
(dp1264
g961
S'teach_views_summaries_class_ranking_view.html'
p1265
sg963
S'teach/views/summaries/class_ranking_view'
p1266
sg965
g13
(g14
g15
NtRp1267
(dp1268
g18
I1
sg19
I26
sg20
I84
sg21
I0
sg22
I0
sg23
I61
sg24
I26
sbssg303
S'\xc1\xb3\x83\xe8\x85\xc5\xa4\x88\t\xd0(\xe7\xda\xea\x18\x82'
p1269
ssS'privilege_models_privileges_tests___init__'
p1270
(dp1271
g287
(dp1272
g93
S'privilege_models_privileges_tests___init__.html'
p1273
sg95
S'privilege/models/privileges/tests/__init__'
p1274
sg97
g13
(g14
g15
NtRp1275
(dp1276
g18
I1
sg19
I0
sg20
I0
sg21
I0
sg22
I0
sg23
I0
sg24
I0
sbssg293
S'\x19g\xdfM\x1a\x019\xaf\x1baIeR\xe5u\xa7'
p1277
ssS'teach_serializers_teacher_chapters___init__'
p1278
(dp1279
g55
(dp1280
g57
S'teach_serializers_teacher_chapters___init__.html'
p1281
sg59
S'teach/serializers/teacher_chapters/__init__'
p1282
sg61
g13
(g14
g15
NtRp1283
(dp1284
g18
I1
sg19
I0
sg20
I1
sg21
I0
sg22
I0
sg23
I0
sg24
I0
sbssg64
S'\xfe\x88\xda\x10\xec!\x99\xb7-\x8d\x90E\xe18K\xb1'
p1285
ssS'api_logging_admin'
p1286
(dp1287
g561
(dp1288
g177
S'api_logging_admin.html'
p1289
sg179
S'api_logging/admin'
p1290
sg181
g13
(g14
g15
NtRp1291
(dp1292
g18
I1
sg19
I0
sg20
I10
sg21
I0
sg22
I0
sg23
I0
sg24
I0
sbssg567
S'T\x93\x03\xbcO>\xd1\xd6\xf4\xd3\x15r{\xad0B'
p1293
ssS'user_system_models_users_user_streak_history_model'
p1294
(dp1295
g297
(dp1296
g1246
S'user_system_models_users_user_streak_history_model.html'
p1297
sg1248
S'user_system/models/users/user_streak_history_model'
p1298
sg1250
g13
(g14
g15
NtRp1299
(dp1300
g18
I1
sg19
I0
sg20
I28
sg21
I0
sg22
I0
sg23
I0
sg24
I0
sbssg303
S'w\x85uw\r5\x1a\xa5\xea>\xdaqki`p'
p1301
ssS'create_models_tags_tests_test_concept_model'
p1302
(dp1303
g386
(dp1304
g44
S'create_models_tags_tests_test_concept_model.html'
p1305
sg46
S'create/models/tags/tests/test_concept_model'
p1306
sg48
g13
(g14
g15
NtRp1307
(dp1308
g18
I1
sg19
I0
sg20
I12
sg21
I0
sg22
I0
sg23
I0
sg24
I0
sbssg392
S'@\x95\xd9\xf7\xa5\xc4\x0c\xb1\xad\xa4\xf5p\x95\x06!N'
p1309
ssS'privilege_models_privileges_privilege_model'
p1310
(dp1311
g287
(dp1312
g1246
S'privilege_models_privileges_privilege_model.html'
p1313
sg1248
S'privilege/models/privileges/privilege_model'
p1314
sg1250
g13
(g14
g15
NtRp1315
(dp1316
g18
I1
sg19
I0
sg20
I29
sg21
I0
sg22
I0
sg23
I0
sg24
I0
sbssg293
S'\xa3\xbf\x7fn\x8c\xe8#\xf8\xa9\x95#\xc7\xdb\xf0Y\xe6'
p1317
ssS'create_models_questions_tests_test_question_choice_model'
p1318
(dp1319
g42
(dp1320
S'html_filename'
p1321
S'create_models_questions_tests_test_question_choice_model.html'
p1322
sS'name'
p1323
S'create/models/questions/tests/test_question_choice_model'
p1324
sS'nums'
p1325
g13
(g14
g15
NtRp1326
(dp1327
g18
I1
sg19
I0
sg20
I46
sg21
I0
sg22
I0
sg23
I0
sg24
I0
sbssg51
S'$\x08N\xfb\nW\n\xecG\x9a[\xb7\xe2\xc1\xbd\x06'
p1328
ssS'user_system_views_users_tests_test_get_user_by_id_view'
p1329
(dp1330
g42
(dp1331
g93
S'user_system_views_users_tests_test_get_user_by_id_view.html'
p1332
sg95
S'user_system/views/users/tests/test_get_user_by_id_view'
p1333
sg97
g13
(g14
g15
NtRp1334
(dp1335
g18
I1
sg19
I0
sg20
I27
sg21
I0
sg22
I0
sg23
I0
sg24
I0
sbssg51
S'\xd7\x7f\x0c\xb9\xda.\xf1\x82\xb4\xdf*z\x10(o)'
p1336
ssS'create_models___init__'
p1337
(dp1338
g42
(dp1339
g57
S'create_models___init__.html'
p1340
sg59
S'create/models/__init__'
p1341
sg61
g13
(g14
g15
NtRp1342
(dp1343
g18
I1
sg19
I0
sg20
I6
sg21
I0
sg22
I0
sg23
I0
sg24
I0
sbssg51
S'\x1a\xde\xff\xb8/\x08R\x8e\xff\x13\x8b\xeb`\xfd\x98\xf8'
p1344
ssS'create_serializers_tags_tag_history_serializer'
p1345
(dp1346
S'index'
p1347
(dp1348
g105
S'create_serializers_tags_tag_history_serializer.html'
p1349
sg107
S'create/serializers/tags/tag_history_serializer'
p1350
sg109
g13
(g14
g15
NtRp1351
(dp1352
g18
I1
sg19
I0
sg20
I14
sg21
I0
sg22
I0
sg23
I0
sg24
I0
sbssS'hash'
p1353
S'\xc1"\xf9l4\xe66\x8a\xd0)r!\x05Y+\xd2'
p1354
ssS'create_serializers_daily_quest_templates___init__'
p1355
(dp1356
g242
(dp1357
g244
S'create_serializers_daily_quest_templates___init__.html'
p1358
sg246
S'create/serializers/daily_quest_templates/__init__'
p1359
sg248
g13
(g14
g15
NtRp1360
(dp1361
g18
I1
sg19
I0
sg20
I1
sg21
I0
sg22
I0
sg23
I0
sg24
I0
sbssg251
S'\xa2\xd34\x1b\xe2+\x16\xa9un\x8f\xa5\xe6\xc4\\p'
p1362
ssS'user_system_views_roles_tests___init__'
p1363
(dp1364
g42
(dp1365
g447
S'user_system_views_roles_tests___init__.html'
p1366
sg449
S'user_system/views/roles/tests/__init__'
p1367
sg451
g13
(g14
g15
NtRp1368
(dp1369
g18
I1
sg19
I0
sg20
I0
sg21
I0
sg22
I0
sg23
I0
sg24
I0
sbssg51
S'\x19g\xdfM\x1a\x019\xaf\x1baIeR\xe5u\xa7'
p1370
ssS'api_logging_models_modal_logging___init__'
p1371
(dp1372
g297
(dp1373
g177
S'api_logging_models_modal_logging___init__.html'
p1374
sg179
S'api_logging/models/modal_logging/__init__'
p1375
sg181
g13
(g14
g15
NtRp1376
(dp1377
g18
I1
sg19
I0
sg20
I2
sg21
I0
sg22
I0
sg23
I0
sg24
I0
sbssg303
S"+\x16\xa4\xd1\xf5m\xa9\x9e*\xd0\xa23O'}-"
p1378
ssS'user_system_serializers___init__'
p1379
(dp1380
g42
(dp1381
g57
S'user_system_serializers___init__.html'
p1382
sg59
S'user_system/serializers/__init__'
p1383
sg61
g13
(g14
g15
NtRp1384
(dp1385
g18
I1
sg19
I0
sg20
I3
sg21
I0
sg22
I0
sg23
I0
sg24
I0
sbssg51
S'\x85\x12\xbd.\x85L4\xea\t4\x9c\xcf\xb5 \x81\xb4'
p1386
ssS'teach_models_daily_quest_templates_tests___init__'
p1387
(dp1388
g55
(dp1389
g57
S'teach_models_daily_quest_templates_tests___init__.html'
p1390
sg59
S'teach/models/daily_quest_templates/tests/__init__'
p1391
sg61
g13
(g14
g15
NtRp1392
(dp1393
g18
I1
sg19
I0
sg20
I0
sg21
I0
sg22
I0
sg23
I0
sg24
I0
sbssg64
S'\x19g\xdfM\x1a\x019\xaf\x1baIeR\xe5u\xa7'
p1394
ssS'user_system_serializers_schools_grade_serializer'
p1395
(dp1396
g116
(dp1397
g31
S'user_system_serializers_schools_grade_serializer.html'
p1398
sg33
S'user_system/serializers/schools/grade_serializer'
p1399
sg35
g13
(g14
g15
NtRp1400
(dp1401
g18
I1
sg19
I0
sg20
I9
sg21
I0
sg22
I0
sg23
I0
sg24
I0
sbssg122
S"()\x18t._h'\x1c\x9bV\x14KS\xf6,"
p1402
ssS'create_models_questions_tests___init__'
p1403
(dp1404
g42
(dp1405
g447
S'create_models_questions_tests___init__.html'
p1406
sg449
S'create/models/questions/tests/__init__'
p1407
sg451
g13
(g14
g15
NtRp1408
(dp1409
g18
I1
sg19
I0
sg20
I0
sg21
I0
sg22
I0
sg23
I0
sg24
I0
sbssg51
S'\x19g\xdfM\x1a\x019\xaf\x1baIeR\xe5u\xa7'
p1410
ssS'teach_views___init__'
p1411
(dp1412
g55
(dp1413
g177
S'teach_views___init__.html'
p1414
sg179
S'teach/views/__init__'
p1415
sg181
g13
(g14
g15
NtRp1416
(dp1417
g18
I1
sg19
I0
sg20
I3
sg21
I0
sg22
I0
sg23
I0
sg24
I0
sbssg64
S'\xddN\x8bL\xe7O\xba\x93\x86:\xc2\x15\x13gc6'
p1418
ssS'privilege_admin'
p1419
(dp1420
g287
(dp1421
g93
S'privilege_admin.html'
p1422
sg95
S'privilege/admin'
p1423
sg97
g13
(g14
g15
NtRp1424
(dp1425
g18
I1
sg19
I0
sg20
I4
sg21
I0
sg22
I0
sg23
I0
sg24
I0
sbssg293
S'\xa1\x9fb^\xc7l\x00\x1f\x0e\x9c\x06\x08\x99Kx\x94'
p1426
ssS'teach_models_teacher_tags_tests_test_teacher_tag_model'
p1427
(dp1428
g55
(dp1429
g57
S'teach_models_teacher_tags_tests_test_teacher_tag_model.html'
p1430
sg59
S'teach/models/teacher_tags/tests/test_teacher_tag_model'
p1431
sg61
g13
(g14
g15
NtRp1432
(dp1433
g18
I1
sg19
I0
sg20
I30
sg21
I0
sg22
I0
sg23
I0
sg24
I0
sbssg64
S'\xf3\x06\xd8\xd6\x93V\xab\xdc\x87\x05\xf6vJ\xa9`\xe6'
p1434
ssS'user_system_models_schools_academic_year_model'
p1435
(dp1436
g206
(dp1437
g334
S'user_system_models_schools_academic_year_model.html'
p1438
sg336
S'user_system/models/schools/academic_year_model'
p1439
sg338
g13
(g14
g15
NtRp1440
(dp1441
g18
I1
sg19
I0
sg20
I23
sg21
I0
sg22
I0
sg23
I0
sg24
I0
sbssg215
S'\xf1Zl\xd3\xdd4\xdcX&\xdf\xf0<.\x11FY'
p1442
ssS'learn_models___init__'
p1443
(dp1444
g55
(dp1445
g177
S'learn_models___init__.html'
p1446
sg179
S'learn/models/__init__'
p1447
sg181
g13
(g14
g15
NtRp1448
(dp1449
g18
I1
sg19
I0
sg20
I2
sg21
I0
sg22
I0
sg23
I0
sg24
I0
sbssg64
S'J\x07\xbfU\xe2\xd2\xed\xadY\xe2o$\x84\x86bd'
p1450
ssS'user_system_models_users_student_profile_model'
p1451
(dp1452
g232
(dp1453
g177
S'user_system_models_users_student_profile_model.html'
p1454
sg179
S'user_system/models/users/student_profile_model'
p1455
sg181
g13
(g14
g15
NtRp1456
(dp1457
g18
I1
sg19
I2
sg20
I41
sg21
I0
sg22
I0
sg23
I0
sg24
I0
sbssg238
S'q\x83gLh\x1e\xeb\xb5+w&@\xe2"=\xb8'
p1458
ssS'user_system_models_schools_organization_model'
p1459
(dp1460
g206
(dp1461
g628
S'user_system_models_schools_organization_model.html'
p1462
sg630
S'user_system/models/schools/organization_model'
p1463
sg632
g13
(g14
g15
NtRp1464
(dp1465
g18
I1
sg19
I0
sg20
I28
sg21
I0
sg22
I0
sg23
I0
sg24
I0
sbssg215
S']\xd3\xfd\x922s\xeb0\xfd\x8a\x88\xfe"\xbd<h'
p1466
ssS'create_views_books_tests_test_hide_book_view'
p1467
(dp1468
g942
(dp1469
g44
S'create_views_books_tests_test_hide_book_view.html'
p1470
sg46
S'create/views/books/tests/test_hide_book_view'
p1471
sg48
g13
(g14
g15
NtRp1472
(dp1473
g18
I1
sg19
I0
sg20
I25
sg21
I0
sg22
I0
sg23
I0
sg24
I0
sbssg948
S'\xe1\x17\x16\xca\x8a\xc5c\x1b\xce\xab\xb8\xf9G\x03\x9dQ'
p1474
ssS'teach_serializers_teacher_tags_teacher_tag_serializer'
p1475
(dp1476
g55
(dp1477
g31
S'teach_serializers_teacher_tags_teacher_tag_serializer.html'
p1478
sg33
S'teach/serializers/teacher_tags/teacher_tag_serializer'
p1479
sg35
g13
(g14
g15
NtRp1480
(dp1481
g18
I1
sg19
I2
sg20
I26
sg21
I0
sg22
I0
sg23
I9
sg24
I2
sbssg64
S'\x07C\xdf\xcd\x92\x1eS\x1a#\x8e\x9d\x88Dj\n\x12'
p1482
ssS'create_models_daily_quests_tests_test_daily_quest_model'
p1483
(dp1484
g758
(dp1485
g244
S'create_models_daily_quests_tests_test_daily_quest_model.html'
p1486
sg246
S'create/models/daily_quests/tests/test_daily_quest_model'
p1487
sg248
g13
(g14
g15
NtRp1488
(dp1489
g18
I1
sg19
I2
sg20
I51
sg21
I0
sg22
I0
sg23
I0
sg24
I0
sbssg767
S'\x16\x87\xb8\xd4K\xb4\x87\xf9\x84\xc4V\x94\x17\xf6\x1a\xf0'
p1490
ssS'create_admin'
p1491
(dp1492
g42
(dp1493
g57
S'create_admin.html'
p1494
sg59
S'create/admin'
p1495
sg61
g13
(g14
g15
NtRp1496
(dp1497
g18
I1
sg19
I0
sg20
I20
sg21
I0
sg22
I0
sg23
I0
sg24
I0
sbssg51
S'\x03\xe6\xc2\xd5\xa8\xb1\x92\xa5/8\x0fZCN\r\x08'
p1498
ssS'create_views_questions_tests_test_get_question_list_view'
p1499
(dp1500
g42
(dp1501
g93
S'create_views_questions_tests_test_get_question_list_view.html'
p1502
sg95
S'create/views/questions/tests/test_get_question_list_view'
p1503
sg97
g13
(g14
g15
NtRp1504
(dp1505
g18
I1
sg19
I0
sg20
I32
sg21
I0
sg22
I0
sg23
I0
sg24
I0
sbssg51
S'\xa2&\x88;1\\\xa2 \xb4&ejB\xd1%\x06'
p1506
ssS'user_system_views_logins___init__'
p1507
(dp1508
g42
(dp1509
g447
S'user_system_views_logins___init__.html'
p1510
sg449
S'user_system/views/logins/__init__'
p1511
sg451
g13
(g14
g15
NtRp1512
(dp1513
g18
I1
sg19
I0
sg20
I2
sg21
I0
sg22
I0
sg23
I0
sg24
I0
sbssg51
S'\xa0\xd3\xaas\xc2\xb93+ED.\xe5\xfe\xf2\xad\x87'
p1514
ssS'create_views_daily_quest_copies___init__'
p1515
(dp1516
g417
(dp1517
S'html_filename'
p1518
S'create_views_daily_quest_copies___init__.html'
p1519
sS'name'
p1520
S'create/views/daily_quest_copies/__init__'
p1521
sS'nums'
p1522
g13
(g14
g15
NtRp1523
(dp1524
g18
I1
sg19
I0
sg20
I1
sg21
I0
sg22
I0
sg23
I0
sg24
I0
sbssg426
S"'\xb6_z\x90s\x92\xdd\xc7\xb2\x87d\xba\xe24X"
p1525
ssS'create_views_quests_tests_test_hide_quest_view'
p1526
(dp1527
g6
(dp1528
g8
S'create_views_quests_tests_test_hide_quest_view.html'
p1529
sg10
S'create/views/quests/tests/test_hide_quest_view'
p1530
sg12
g13
(g14
g15
NtRp1531
(dp1532
g18
I1
sg19
I0
sg20
I26
sg21
I0
sg22
I0
sg23
I0
sg24
I0
sbssg25
S'G\xcb\xcf\xbb~*\xa2i\xd2\xff\x81\x81\xf0)G\xda'
p1533
ssS'create_views_books_tests_test_add_tag_to_subchapter_view'
p1534
(dp1535
S'index'
p1536
(dp1537
g44
S'create_views_books_tests_test_add_tag_to_subchapter_view.html'
p1538
sg46
S'create/views/books/tests/test_add_tag_to_subchapter_view'
p1539
sg48
g13
(g14
g15
NtRp1540
(dp1541
g18
I1
sg19
I0
sg20
I40
sg21
I0
sg22
I0
sg23
I0
sg24
I0
sbssS'hash'
p1542
S'\xb78\xf4p\xcd\xec\xca\xaa\x93\xb9\xda\xa8Yo37'
p1543
ssS'api_logging_models_modal_logging_modal_user_history_model'
p1544
(dp1545
g297
(dp1546
g177
S'api_logging_models_modal_logging_modal_user_history_model.html'
p1547
sg179
S'api_logging/models/modal_logging/modal_user_history_model'
p1548
sg181
g13
(g14
g15
NtRp1549
(dp1550
g18
I1
sg19
I0
sg20
I15
sg21
I0
sg22
I0
sg23
I3
sg24
I0
sbssg303
S'\xabX\xd42<$9z\xc1]\xc12\xe9\xd8\xbf\xd2'
p1551
ssS'create_views_daily_quests_daily_quest_view'
p1552
(dp1553
g242
(dp1554
g244
S'create_views_daily_quests_daily_quest_view.html'
p1555
sg246
S'create/views/daily_quests/daily_quest_view'
p1556
sg248
g13
(g14
g15
NtRp1557
(dp1558
g18
I1
sg19
I8
sg20
I34
sg21
I0
sg22
I0
sg23
I17
sg24
I8
sbssg251
S'\x9b\xbe99\x1cP\x1d\xd8iT&I;\xb4\xbbf'
p1559
ssS'user_system_managers_user_manager'
p1560
(dp1561
g297
(dp1562
g177
S'user_system_managers_user_manager.html'
p1563
sg179
S'user_system/managers/user_manager'
p1564
sg181
g13
(g14
g15
NtRp1565
(dp1566
g18
I1
sg19
I18
sg20
I46
sg21
I0
sg22
I0
sg23
I37
sg24
I18
sbssg303
S'\xac\xa0\xe1\xde\xdcl\x13`\xfe\xfc\xff\xb5\x18=(\xf4'
p1567
ssS'create_models_quests_tests___init__'
p1568
(dp1569
g103
(dp1570
g617
S'create_models_quests_tests___init__.html'
p1571
sg619
S'create/models/quests/tests/__init__'
p1572
sg621
g13
(g14
g15
NtRp1573
(dp1574
g18
I1
sg19
I0
sg20
I1
sg21
I0
sg22
I0
sg23
I0
sg24
I0
sbssg112
S'\xbc\xd6\xeb\xb3\xba\xcaz\xf7{\xd4B\xb5}l\xdf\x96'
p1575
ssS'create_views_questions___init__'
p1576
(dp1577
g42
(dp1578
g589
S'create_views_questions___init__.html'
p1579
sg591
S'create/views/questions/__init__'
p1580
sg593
g13
(g14
g15
NtRp1581
(dp1582
g18
I1
sg19
I0
sg20
I3
sg21
I0
sg22
I0
sg23
I0
sg24
I0
sbssg51
S'h\x154\xc5\xe58\xa8\xc8\xa9\xa6\xbea?\xcf?i'
p1583
ssS'user_system_views_users_create_teacher_view'
p1584
(dp1585
g297
(dp1586
g177
S'user_system_views_users_create_teacher_view.html'
p1587
sg179
S'user_system/views/users/create_teacher_view'
p1588
sg181
g13
(g14
g15
NtRp1589
(dp1590
g18
I1
sg19
I2
sg20
I34
sg21
I0
sg22
I0
sg23
I21
sg24
I2
sbssg303
S'=\xee\xed^jo\xc1\xebz\xedP\xf9\x91n\xec\x8d'
p1591
ssS'user_system_models_apps_tests___init__'
p1592
(dp1593
g42
(dp1594
g447
S'user_system_models_apps_tests___init__.html'
p1595
sg449
S'user_system/models/apps/tests/__init__'
p1596
sg451
g13
(g14
g15
NtRp1597
(dp1598
g18
I1
sg19
I0
sg20
I0
sg21
I0
sg22
I0
sg23
I0
sg24
I0
sbssg51
S'\x19g\xdfM\x1a\x019\xaf\x1baIeR\xe5u\xa7'
p1599
ssS'privilege_serializers_privileges_user_privilege_serializer'
p1600
(dp1601
g287
(dp1602
g93
S'privilege_serializers_privileges_user_privilege_serializer.html'
p1603
sg95
S'privilege/serializers/privileges/user_privilege_serializer'
p1604
sg97
g13
(g14
g15
NtRp1605
(dp1606
g18
I1
sg19
I0
sg20
I9
sg21
I0
sg22
I0
sg23
I0
sg24
I0
sbssg293
S'#\xe5\xcc\x9as5y,\xa1HiQ\xa2c\xdb2'
p1607
ssS'teach_views_summaries_daily_quest_daily_summary_view'
p1608
(dp1609
g297
(dp1610
g961
S'teach_views_summaries_daily_quest_daily_summary_view.html'
p1611
sg963
S'teach/views/summaries/daily_quest_daily_summary_view'
p1612
sg965
g13
(g14
g15
NtRp1613
(dp1614
g18
I1
sg19
I14
sg20
I63
sg21
I0
sg22
I0
sg23
I41
sg24
I14
sbssg303
S'B\x1d&|\xd4\xaf\xbb\xc5=\x90,y\xe4"\xf5]'
p1615
ssS'create_views_summary___init__'
p1616
(dp1617
S'index'
p1618
(dp1619
g1101
S'create_views_summary___init__.html'
p1620
sg1103
S'create/views/summary/__init__'
p1621
sg1105
g13
(g14
g15
NtRp1622
(dp1623
g18
I1
sg19
I0
sg20
I1
sg21
I0
sg22
I0
sg23
I0
sg24
I0
sbssS'hash'
p1624
S'#\xb7\xbd\xa1M\xe4\xa0\x05\xf5x\x057hU[\xca'
p1625
ssS'create_models_daily_quest_templates___init__'
p1626
(dp1627
g242
(dp1628
g244
S'create_models_daily_quest_templates___init__.html'
p1629
sg246
S'create/models/daily_quest_templates/__init__'
p1630
sg248
g13
(g14
g15
NtRp1631
(dp1632
g18
I1
sg19
I0
sg20
I1
sg21
I0
sg22
I0
sg23
I0
sg24
I0
sbssg251
S'\x12\x89x\xb9F\xfb=b\x04\xddy\xb4\xccZb\xb8'
p1633
ssS'create_views_tags_tests_test_get_tag_by_id_view'
p1634
(dp1635
g694
(dp1636
g93
S'create_views_tags_tests_test_get_tag_by_id_view.html'
p1637
sg95
S'create/views/tags/tests/test_get_tag_by_id_view'
p1638
sg97
g13
(g14
g15
NtRp1639
(dp1640
g18
I1
sg19
I0
sg20
I20
sg21
I0
sg22
I0
sg23
I0
sg24
I0
sbssg700
S'T\xd5\xd7\xd9\xb8\x12\x81xj\xca\x90\xa41\xcf\x02]'
p1641
ssS'api_logging_models_user_activities___init__'
p1642
(dp1643
g297
(dp1644
g177
S'api_logging_models_user_activities___init__.html'
p1645
sg179
S'api_logging/models/user_activities/__init__'
p1646
sg181
g13
(g14
g15
NtRp1647
(dp1648
g18
I1
sg19
I0
sg20
I1
sg21
I0
sg22
I0
sg23
I0
sg24
I0
sbssg303
S'\xd9\xe2\xb9\xa8[\x85h\x8ep\xd5\x12TW1\x9d\x1b'
p1649
ssS'user_system_models_users_tests_test_user_profile_model'
p1650
(dp1651
g42
(dp1652
g158
S'user_system_models_users_tests_test_user_profile_model.html'
p1653
sg160
S'user_system/models/users/tests/test_user_profile_model'
p1654
sg162
g13
(g14
g15
NtRp1655
(dp1656
g18
I1
sg19
I0
sg20
I142
sg21
I0
sg22
I0
sg23
I0
sg24
I0
sbssg51
S'\x00\xb8\xc5\xc0\xcb\xb1\xcaP@!\x086\x84\x1d\xd5\xed'
p1657
ssS'user_system_views_roles_tests_test_user_role_view'
p1658
(dp1659
g42
(dp1660
g44
S'user_system_views_roles_tests_test_user_role_view.html'
p1661
sg46
S'user_system/views/roles/tests/test_user_role_view'
p1662
sg48
g13
(g14
g15
NtRp1663
(dp1664
g18
I1
sg19
I0
sg20
I41
sg21
I0
sg22
I0
sg23
I0
sg24
I0
sbssg51
S'\xaf \x02-\xd3\xa9\xee\x1e7\x87\xa8[\xd9\xd8V\xd8'
p1665
ssS'user_system_views_apps_tests_test_get_apps_list_view'
p1666
(dp1667
g42
(dp1668
g44
S'user_system_views_apps_tests_test_get_apps_list_view.html'
p1669
sg46
S'user_system/views/apps/tests/test_get_apps_list_view'
p1670
sg48
g13
(g14
g15
NtRp1671
(dp1672
g18
I1
sg19
I0
sg20
I18
sg21
I0
sg22
I0
sg23
I0
sg24
I0
sbssg51
S'\x87\xab;"\x01p\xf9\xe5\xa6\xb1\xaej\x8egl\x99'
p1673
ssS'api_logging_models_user_activities_user_activity_model'
p1674
(dp1675
g297
(dp1676
g177
S'api_logging_models_user_activities_user_activity_model.html'
p1677
sg179
S'api_logging/models/user_activities/user_activity_model'
p1678
sg181
g13
(g14
g15
NtRp1679
(dp1680
g18
I1
sg19
I0
sg20
I11
sg21
I0
sg22
I0
sg23
I0
sg24
I0
sbssg303
S'f\xe2(\xd3\xddS\xfd\x1e\xf0d\xb2,\xb2\x8f\x8c\x18'
p1681
ssS'create_models_questions_question_type_model'
p1682
(dp1683
g42
(dp1684
g44
S'create_models_questions_question_type_model.html'
p1685
sg46
S'create/models/questions/question_type_model'
p1686
sg48
g13
(g14
g15
NtRp1687
(dp1688
g18
I1
sg19
I0
sg20
I19
sg21
I0
sg22
I0
sg23
I0
sg24
I0
sbssg51
S'\xb9\xe7I\x93\x8b\xa8\xa8H\x80\x02_\xf9\x87\xa2\xe7\xa5'
p1689
ssS'create_serializers_questions_question_type_serializer'
p1690
(dp1691
g42
(dp1692
g447
S'create_serializers_questions_question_type_serializer.html'
p1693
sg449
S'create/serializers/questions/question_type_serializer'
p1694
sg451
g13
(g14
g15
NtRp1695
(dp1696
g18
I1
sg19
I0
sg20
I6
sg21
I0
sg22
I0
sg23
I0
sg24
I0
sbssg51
S'!\x8a\x91KA:\x92\x13/\xdd\xd9\xc2?\x8b\xe1\xc6'
p1697
ssS'create_models_books_tests_test_book_model'
p1698
(dp1699
g352
(dp1700
S'html_filename'
p1701
S'create_models_books_tests_test_book_model.html'
p1702
sS'name'
p1703
S'create/models/books/tests/test_book_model'
p1704
sS'nums'
p1705
g13
(g14
g15
NtRp1706
(dp1707
g18
I1
sg19
I6
sg20
I44
sg21
I0
sg22
I0
sg23
I0
sg24
I0
sbssg358
S'\xff\x88\xcd\xb0\x80\xb2\x9d\xf7\xf9G\xb1.\xaf\xdd\x07\xd7'
p1708
ssS'create_serializers_daily_quests___init__'
p1709
(dp1710
g758
(dp1711
g244
S'create_serializers_daily_quests___init__.html'
p1712
sg246
S'create/serializers/daily_quests/__init__'
p1713
sg248
g13
(g14
g15
NtRp1714
(dp1715
g18
I1
sg19
I0
sg20
I1
sg21
I0
sg22
I0
sg23
I0
sg24
I0
sbssg767
S'N\xb8\x18\x1c\x0c\xc7\xca\x91\xa0|\xe1\x02L\xeeC\xbe'
p1716
ssS'create_models_questions_question_choice_model'
p1717
(dp1718
g42
(dp1719
g1321
S'create_models_questions_question_choice_model.html'
p1720
sg1323
S'create/models/questions/question_choice_model'
p1721
sg1325
g13
(g14
g15
NtRp1722
(dp1723
g18
I1
sg19
I0
sg20
I42
sg21
I0
sg22
I0
sg23
I0
sg24
I0
sbssg51
S'\xd7\xd8\x1f\xbf<\xee\xdd?}\xfe>\x82\\\x97\x15)'
p1724
ssS'flipped_helpers_tests___init__'
p1725
(dp1726
g42
(dp1727
g447
S'flipped_helpers_tests___init__.html'
p1728
sg449
S'flipped/helpers/tests/__init__'
p1729
sg451
g13
(g14
g15
NtRp1730
(dp1731
g18
I1
sg19
I0
sg20
I0
sg21
I0
sg22
I0
sg23
I0
sg24
I0
sbssg51
S'\x19g\xdfM\x1a\x019\xaf\x1baIeR\xe5u\xa7'
p1732
ssS'create_models_tags_tests_test_tag_model'
p1733
(dp1734
g386
(dp1735
S'html_filename'
p1736
S'create_models_tags_tests_test_tag_model.html'
p1737
sS'name'
p1738
S'create/models/tags/tests/test_tag_model'
p1739
sS'nums'
p1740
g13
(g14
g15
NtRp1741
(dp1742
g18
I1
sg19
I6
sg20
I52
sg21
I0
sg22
I0
sg23
I0
sg24
I0
sbssg392
S'1\x992\xc0\xbb\xb6d *5\xfa\xd2\xdc1\xb2\x92'
p1743
ssS'create_views_tags_tests_test_remove_prerequisite_view'
p1744
(dp1745
g307
(dp1746
g44
S'create_views_tags_tests_test_remove_prerequisite_view.html'
p1747
sg46
S'create/views/tags/tests/test_remove_prerequisite_view'
p1748
sg48
g13
(g14
g15
NtRp1749
(dp1750
g18
I1
sg19
I0
sg20
I31
sg21
I0
sg22
I0
sg23
I0
sg24
I0
sbssg313
S'\x8e\x8c~\xff\x85\x94\x8c~T\x7f\x80\x82W\x96\x19\x9c'
p1751
ssS'learn_models_points_tests_test_point_type_model'
p1752
(dp1753
g297
(dp1754
g628
S'learn_models_points_tests_test_point_type_model.html'
p1755
sg630
S'learn/models/points/tests/test_point_type_model'
p1756
sg632
g13
(g14
g15
NtRp1757
(dp1758
g18
I1
sg19
I0
sg20
I20
sg21
I0
sg22
I0
sg23
I0
sg24
I0
sbssg303
S'\x8a\x938\x82k\xa7\x10\xf1\x95\x07\xc4\xb2\x9d\n\xc6\x1f'
p1759
ssS'teach_serializers_teacher_chapters_teacher_chapter_serializer'
p1760
(dp1761
g55
(dp1762
g57
S'teach_serializers_teacher_chapters_teacher_chapter_serializer.html'
p1763
sg59
S'teach/serializers/teacher_chapters/teacher_chapter_serializer'
p1764
sg61
g13
(g14
g15
NtRp1765
(dp1766
g18
I1
sg19
I0
sg20
I12
sg21
I0
sg22
I0
sg23
I0
sg24
I0
sbssg64
S'\xac\x9b\xf1Q\x91\xf4J\x03y\xc4\xa7\x9c\x996\x13a'
p1767
ssS'user_system_serializers_app_serializer'
p1768
(dp1769
g42
(dp1770
g447
S'user_system_serializers_app_serializer.html'
p1771
sg449
S'user_system/serializers/app_serializer'
p1772
sg451
g13
(g14
g15
NtRp1773
(dp1774
g18
I1
sg19
I0
sg20
I7
sg21
I0
sg22
I0
sg23
I0
sg24
I0
sbssg51
S'\xc1\x87\xd6\x1b\xbe\x8f\xfb\xdd\x1a\xa9\x92A\xe2\xc3\xe2\xf1'
p1775
ssS'user_system_models_apps_tests_test_app_model'
p1776
(dp1777
g42
(dp1778
g44
S'user_system_models_apps_tests_test_app_model.html'
p1779
sg46
S'user_system/models/apps/tests/test_app_model'
p1780
sg48
g13
(g14
g15
NtRp1781
(dp1782
g18
I1
sg19
I0
sg20
I18
sg21
I0
sg22
I0
sg23
I0
sg24
I0
sbssg51
S'\xfb\xfc\xe0#\xe2\n\x8e\x9e\x94\xa8\x83\xc5\xb1U\xa3a'
p1783
ssS'create_models_books_book_history_model'
p1784
(dp1785
g352
(dp1786
g93
S'create_models_books_book_history_model.html'
p1787
sg95
S'create/models/books/book_history_model'
p1788
sg97
g13
(g14
g15
NtRp1789
(dp1790
g18
I1
sg19
I4
sg20
I43
sg21
I0
sg22
I1
sg23
I0
sg24
I1
sbssg358
S'\xd71\x9e\xd0\x9bqR\xb9(!\x9f2\x10O|\xeb'
p1791
ssS'teach_models_teacher_chapters_tests___init__'
p1792
(dp1793
g55
(dp1794
g57
S'teach_models_teacher_chapters_tests___init__.html'
p1795
sg59
S'teach/models/teacher_chapters/tests/__init__'
p1796
sg61
g13
(g14
g15
NtRp1797
(dp1798
g18
I1
sg19
I0
sg20
I0
sg21
I0
sg22
I0
sg23
I0
sg24
I0
sbssg64
S'\x19g\xdfM\x1a\x019\xaf\x1baIeR\xe5u\xa7'
p1799
ssS'create_views_quests_tests_test_remove_tag_view'
p1800
(dp1801
g6
(dp1802
g8
S'create_views_quests_tests_test_remove_tag_view.html'
p1803
sg10
S'create/views/quests/tests/test_remove_tag_view'
p1804
sg12
g13
(g14
g15
NtRp1805
(dp1806
g18
I1
sg19
I0
sg20
I0
sg21
I0
sg22
I0
sg23
I0
sg24
I0
sbssg25
S'\x19g\xdfM\x1a\x019\xaf\x1baIeR\xe5u\xa7'
p1807
ssS'create_models_books_book_model'
p1808
(dp1809
g352
(dp1810
S'html_filename'
p1811
S'create_models_books_book_model.html'
p1812
sS'name'
p1813
S'create/models/books/book_model'
p1814
sS'nums'
p1815
g13
(g14
g15
NtRp1816
(dp1817
g18
I1
sg19
I4
sg20
I37
sg21
I0
sg22
I0
sg23
I0
sg24
I0
sbssg358
S'Z\x88%\xfa\x8c7\x1e\xf9\x06qW\x80O\xe1\x85.'
p1818
ssS'create_views_books_tests_test_remove_chapter_view'
p1819
(dp1820
g126
(dp1821
g44
S'create_views_books_tests_test_remove_chapter_view.html'
p1822
sg46
S'create/views/books/tests/test_remove_chapter_view'
p1823
sg48
g13
(g14
g15
NtRp1824
(dp1825
g18
I1
sg19
I0
sg20
I39
sg21
I0
sg22
I0
sg23
I0
sg24
I0
sbssg132
S'lJ\xdc\xbe\xe2>\x9d\xde\xb5+ia5;\x042'
p1826
ssS'create_models_question_datasets___init__'
p1827
(dp1828
g144
(dp1829
g146
S'create_models_question_datasets___init__.html'
p1830
sg148
S'create/models/question_datasets/__init__'
p1831
sg150
g13
(g14
g15
NtRp1832
(dp1833
g18
I1
sg19
I0
sg20
I1
sg21
I0
sg22
I0
sg23
I0
sg24
I0
sbssg153
S'\xeb\xb7>&t\x02-\xeaaJ,\x8a\xae\xc3\x1a]'
p1834
ssS'privilege_views___init__'
p1835
(dp1836
g287
(dp1837
g93
S'privilege_views___init__.html'
p1838
sg95
S'privilege/views/__init__'
p1839
sg97
g13
(g14
g15
NtRp1840
(dp1841
g18
I1
sg19
I0
sg20
I0
sg21
I0
sg22
I0
sg23
I0
sg24
I0
sbssg293
S'\x19g\xdfM\x1a\x019\xaf\x1baIeR\xe5u\xa7'
p1842
ssS'user_system_views_users_tests___init__'
p1843
(dp1844
g42
(dp1845
g447
S'user_system_views_users_tests___init__.html'
p1846
sg449
S'user_system/views/users/tests/__init__'
p1847
sg451
g13
(g14
g15
NtRp1848
(dp1849
g18
I1
sg19
I0
sg20
I0
sg21
I0
sg22
I0
sg23
I0
sg24
I0
sbssg51
S'\x19g\xdfM\x1a\x019\xaf\x1baIeR\xe5u\xa7'
p1850
ssS'create_models_tags_tests_test_skill_model'
p1851
(dp1852
g386
(dp1853
g44
S'create_models_tags_tests_test_skill_model.html'
p1854
sg46
S'create/models/tags/tests/test_skill_model'
p1855
sg48
g13
(g14
g15
NtRp1856
(dp1857
g18
I1
sg19
I0
sg20
I12
sg21
I0
sg22
I0
sg23
I0
sg24
I0
sbssg392
S'\x08\x9e\x87e#\x02\x06O\x02l!\x0e\xe8\xeb\xc0.'
p1858
ssS'create_views_tags_tests___init__'
p1859
(dp1860
g694
(dp1861
g1026
S'create_views_tags_tests___init__.html'
p1862
sg1028
S'create/views/tags/tests/__init__'
p1863
sg1030
g13
(g14
g15
NtRp1864
(dp1865
g18
I1
sg19
I0
sg20
I0
sg21
I0
sg22
I0
sg23
I0
sg24
I0
sbssg700
S'\x19g\xdfM\x1a\x019\xaf\x1baIeR\xe5u\xa7'
p1866
ssS'user_system_views_signups_hardcoded___init__'
p1867
(dp1868
g42
(dp1869
g447
S'user_system_views_signups_hardcoded___init__.html'
p1870
sg449
S'user_system/views/signups/hardcoded/__init__'
p1871
sg451
g13
(g14
g15
NtRp1872
(dp1873
g18
I1
sg19
I0
sg20
I1
sg21
I0
sg22
I0
sg23
I0
sg24
I0
sbssg51
S'?\xfac\x0c\x91\xa4\xd6\xd4\x1d\xe4\x99\xc2[\x83\xfc\xdf'
p1874
ssS'create_models_daily_quest_templates_daily_quest_template_model'
p1875
(dp1876
g242
(dp1877
g244
S'create_models_daily_quest_templates_daily_quest_template_model.html'
p1878
sg246
S'create/models/daily_quest_templates/daily_quest_template_model'
p1879
sg248
g13
(g14
g15
NtRp1880
(dp1881
g18
I1
sg19
I0
sg20
I29
sg21
I0
sg22
I0
sg23
I0
sg24
I0
sbssg251
S'm:\xfa\nsk\x85\xa8p\x96\xc3\xca\xa1c\xb0+'
p1882
ssS'create_models_books_tests_test_book_chapter_model'
p1883
(dp1884
g352
(dp1885
g1701
S'create_models_books_tests_test_book_chapter_model.html'
p1886
sg1703
S'create/models/books/tests/test_book_chapter_model'
p1887
sg1705
g13
(g14
g15
NtRp1888
(dp1889
g18
I1
sg19
I8
sg20
I55
sg21
I0
sg22
I0
sg23
I0
sg24
I0
sbssg358
S'\xc4\x1a\xd7\x12s\xd3V\xef\xac\xa7%\x0c\xdc\x17\x05c'
p1890
ssS'user_system_views_signups_tests_test_verify_email_view'
p1891
(dp1892
g42
(dp1893
g44
S'user_system_views_signups_tests_test_verify_email_view.html'
p1894
sg46
S'user_system/views/signups/tests/test_verify_email_view'
p1895
sg48
g13
(g14
g15
NtRp1896
(dp1897
g18
I1
sg19
I0
sg20
I51
sg21
I0
sg22
I0
sg23
I0
sg24
I0
sbssg51
S'\x81\xacj\x9d\x1f\xa9o\xcc\x1e\xa3\xe59^YT\x9e'
p1898
ssS'teach_models_daily_quest_templates___init__'
p1899
(dp1900
g55
(dp1901
g57
S'teach_models_daily_quest_templates___init__.html'
p1902
sg59
S'teach/models/daily_quest_templates/__init__'
p1903
sg61
g13
(g14
g15
NtRp1904
(dp1905
g18
I1
sg19
I0
sg20
I1
sg21
I0
sg22
I0
sg23
I0
sg24
I0
sbssg64
S'\x12\x89x\xb9F\xfb=b\x04\xddy\xb4\xccZb\xb8'
p1906
ssS'teach_serializers_daily_quest_templates_daily_quest_template_serializer'
p1907
(dp1908
g55
(dp1909
g177
S'teach_serializers_daily_quest_templates_daily_quest_template_serializer.html'
p1910
sg179
S'teach/serializers/daily_quest_templates/daily_quest_template_serializer'
p1911
sg181
g13
(g14
g15
NtRp1912
(dp1913
g18
I1
sg19
I0
sg20
I12
sg21
I0
sg22
I0
sg23
I0
sg24
I0
sbssg64
S"\xd9\x0bcm\x95?'mB\xf9\xdd\xa1\xfc>:="
p1914
ssS'create_views_questions_tests_test_add_tag_view'
p1915
(dp1916
g219
(dp1917
g221
S'create_views_questions_tests_test_add_tag_view.html'
p1918
sg223
S'create/views/questions/tests/test_add_tag_view'
p1919
sg225
g13
(g14
g15
NtRp1920
(dp1921
g18
I1
sg19
I0
sg20
I35
sg21
I0
sg22
I0
sg23
I0
sg24
I0
sbssg228
S'\x8e\x13\xdd\xbd\xba\r&,-|&W-a`\x7f'
p1922
ssS'create_views_quests_quest_view'
p1923
(dp1924
g103
(dp1925
g999
S'create_views_quests_quest_view.html'
p1926
sg1001
S'create/views/quests/quest_view'
p1927
sg1003
g13
(g14
g15
NtRp1928
(dp1929
g18
I1
sg19
I84
sg20
I249
sg21
I0
sg22
I0
sg23
I178
sg24
I78
sbssg112
S'(\xa2UK\xe2}\xa8\xe0\xc9 3#\xec\x01\xfd\x16'
p1930
ssS'privilege_models_privileges_tests_test_privilege_model'
p1931
(dp1932
g287
(dp1933
g1246
S'privilege_models_privileges_tests_test_privilege_model.html'
p1934
sg1248
S'privilege/models/privileges/tests/test_privilege_model'
p1935
sg1250
g13
(g14
g15
NtRp1936
(dp1937
g18
I1
sg19
I0
sg20
I30
sg21
I0
sg22
I0
sg23
I0
sg24
I0
sbssg293
S'\xe0^\x80\xd5+a\xd9\xc4\xeabB\xc5\x142;\xc9'
p1938
ssS'api_logging_models'
p1939
(dp1940
g561
(dp1941
g732
S'api_logging_models.html'
p1942
sg734
S'api_logging/models'
p1943
sg736
g13
(g14
g15
NtRp1944
(dp1945
g18
I1
sg19
I0
sg20
I21
sg21
I0
sg22
I0
sg23
I0
sg24
I0
sbssg567
S'\x0c\x96WFX%\xe9\xcf+\xcf\xc2s\xa7a1\xbd'
p1946
ssS'user_system_models_schools_tests_test_grade_model'
p1947
(dp1948
g232
(dp1949
g31
S'user_system_models_schools_tests_test_grade_model.html'
p1950
sg33
S'user_system/models/schools/tests/test_grade_model'
p1951
sg35
g13
(g14
g15
NtRp1952
(dp1953
g18
I1
sg19
I0
sg20
I24
sg21
I0
sg22
I0
sg23
I0
sg24
I0
sbssg238
S'\x1e|\xb0\x10\x05\x9c\xb5\xe9\xbc\xff\x8a\xaan\xdf\xd4\xb2'
p1954
ssS'user_system_views_logins_tests_test_facebook_login_view'
p1955
(dp1956
g42
(dp1957
g44
S'user_system_views_logins_tests_test_facebook_login_view.html'
p1958
sg46
S'user_system/views/logins/tests/test_facebook_login_view'
p1959
sg48
g13
(g14
g15
NtRp1960
(dp1961
g18
I1
sg19
I0
sg20
I51
sg21
I0
sg22
I0
sg23
I0
sg24
I0
sbssg51
S'\x8eg\xfbA\xbdf+\x81\xe9\x8a\x16\x82\xe9\xe3\xc0\xf4'
p1962
ssS'create_models_daily_quests_daily_quest_model'
p1963
(dp1964
g758
(dp1965
g1518
S'create_models_daily_quests_daily_quest_model.html'
p1966
sg1520
S'create/models/daily_quests/daily_quest_model'
p1967
sg1522
g13
(g14
g15
NtRp1968
(dp1969
g18
I1
sg19
I2
sg20
I48
sg21
I0
sg22
I0
sg23
I6
sg24
I2
sbssg767
S'\xae\'/"f\x1014\xdd\x0e\x85\xf4\x91\x02\\`'
p1970
ssS'user_system_views_signups_tests_test_email_signup_view'
p1971
(dp1972
g42
(dp1973
g44
S'user_system_views_signups_tests_test_email_signup_view.html'
p1974
sg46
S'user_system/views/signups/tests/test_email_signup_view'
p1975
sg48
g13
(g14
g15
NtRp1976
(dp1977
g18
I1
sg19
I0
sg20
I51
sg21
I0
sg22
I0
sg23
I0
sg24
I0
sbssg51
S'\xa3\xb2\xaf-\x99\xe3]\xcc\xe6\x8b\xeb\xf63=I\xb4'
p1978
ssS'user_system_models_schools_tests_test_organization_model'
p1979
(dp1980
g206
(dp1981
g628
S'user_system_models_schools_tests_test_organization_model.html'
p1982
sg630
S'user_system/models/schools/tests/test_organization_model'
p1983
sg632
g13
(g14
g15
NtRp1984
(dp1985
g18
I1
sg19
I0
sg20
I27
sg21
I0
sg22
I0
sg23
I0
sg24
I0
sbssg215
S"\xa3'h\xadZ,\x82G\xbc\x08wON /j"
p1986
ssS'create_serializers_books_book_subchapter_serializer'
p1987
(dp1988
g352
(dp1989
g1176
S'create_serializers_books_book_subchapter_serializer.html'
p1990
sg1178
S'create/serializers/books/book_subchapter_serializer'
p1991
sg1180
g13
(g14
g15
NtRp1992
(dp1993
g18
I1
sg19
I0
sg20
I18
sg21
I0
sg22
I0
sg23
I3
sg24
I0
sbssg358
S'89\x89\x89\xd8\x94\xd2l\x98G]\xad\xe1\xf7\x93\xfc'
p1994
ssS'create_views_books_book_subchapter_view'
p1995
(dp1996
g1536
(dp1997
g44
S'create_views_books_book_subchapter_view.html'
p1998
sg46
S'create/views/books/book_subchapter_view'
p1999
sg48
g13
(g14
g15
NtRp2000
(dp2001
g18
I1
sg19
I8
sg20
I46
sg21
I0
sg22
I0
sg23
I0
sg24
I0
sbssg1542
S'\x0e\xa6\x19V\xf0\xf3;\xa2\x8d \xd8i\xb7*D\x87'
p2002
ssS'user_system_models_roles_tests_test_role_model'
p2003
(dp2004
g42
(dp2005
g44
S'user_system_models_roles_tests_test_role_model.html'
p2006
sg46
S'user_system/models/roles/tests/test_role_model'
p2007
sg48
g13
(g14
g15
NtRp2008
(dp2009
g18
I1
sg19
I0
sg20
I20
sg21
I0
sg22
I0
sg23
I0
sg24
I0
sbssg51
S'\xef\xba\x956\x96\xbc:\xa0\x0f\x00\x84\x80\x0elh\xed'
p2010
ssS'user_system_views_signups_verify_email_view'
p2011
(dp2012
g42
(dp2013
g44
S'user_system_views_signups_verify_email_view.html'
p2014
sg46
S'user_system/views/signups/verify_email_view'
p2015
sg48
g13
(g14
g15
NtRp2016
(dp2017
g18
I1
sg19
I6
sg20
I26
sg21
I0
sg22
I0
sg23
I0
sg24
I0
sbssg51
S"B+;\xbf\xb1A\x1f\n\x94\x0e\xeb\xd0\xf1Y'l"
p2018
ssS'user_system_views_logins_email_login_view'
p2019
(dp2020
g42
(dp2021
g177
S'user_system_views_logins_email_login_view.html'
p2022
sg179
S'user_system/views/logins/email_login_view'
p2023
sg181
g13
(g14
g15
NtRp2024
(dp2025
g18
I1
sg19
I8
sg20
I35
sg21
I0
sg22
I0
sg23
I0
sg24
I0
sbssg51
S'\x9e\xe3\x8e\xf9o\x8aYC\xa2\xcb\xe7\xbd\x94\xe1O\x1a'
p2026
ssS'user_system_serializers_users_list_user_serializer'
p2027
(dp2028
g42
(dp2029
g44
S'user_system_serializers_users_list_user_serializer.html'
p2030
sg46
S'user_system/serializers/users/list_user_serializer'
p2031
sg48
g13
(g14
g15
NtRp2032
(dp2033
g18
I1
sg19
I0
sg20
I18
sg21
I0
sg22
I0
sg23
I0
sg24
I0
sbssg51
S'\xdfK>6\xe0\x8d\xcd\xd4/O\xef\xaa\xd0\x9efX'
p2034
ssS'create_views_question_datasets_question_dataset_view'
p2035
(dp2036
g144
(dp2037
g146
S'create_views_question_datasets_question_dataset_view.html'
p2038
sg148
S'create/views/question_datasets/question_dataset_view'
p2039
sg150
g13
(g14
g15
NtRp2040
(dp2041
g18
I1
sg19
I4
sg20
I20
sg21
I0
sg22
I0
sg23
I5
sg24
I4
sbssg153
S'\x01\xfb\xf2\x86m\xd4\xf9\xc3\xe6\xb6\x11\x96u;\x1ez'
p2042
ssS'create_views_quests_tests_test_remove_question_template_view'
p2043
(dp2044
g6
(dp2045
g8
S'create_views_quests_tests_test_remove_question_template_view.html'
p2046
sg10
S'create/views/quests/tests/test_remove_question_template_view'
p2047
sg12
g13
(g14
g15
NtRp2048
(dp2049
g18
I1
sg19
I0
sg20
I0
sg21
I0
sg22
I0
sg23
I0
sg24
I0
sbssg25
S'\x19g\xdfM\x1a\x019\xaf\x1baIeR\xe5u\xa7'
p2050
ssS'user_system_serializers_users_user_profile_update_request_serializer'
p2051
(dp2052
g116
(dp2053
S'html_filename'
p2054
S'user_system_serializers_users_user_profile_update_request_serializer.html'
p2055
sS'name'
p2056
S'user_system/serializers/users/user_profile_update_request_serializer'
p2057
sS'nums'
p2058
g13
(g14
g15
NtRp2059
(dp2060
g18
I1
sg19
I0
sg20
I20
sg21
I0
sg22
I0
sg23
I2
sg24
I0
sbssg122
S'\x19EO\xe6\xb5\xdbWY\xb8\xd9\x1cP&\xe3\xc4\xca'
p2061
ssS'create_views_books_tests_test_get_books_list_view'
p2062
(dp2063
g942
(dp2064
g93
S'create_views_books_tests_test_get_books_list_view.html'
p2065
sg95
S'create/views/books/tests/test_get_books_list_view'
p2066
sg97
g13
(g14
g15
NtRp2067
(dp2068
g18
I1
sg19
I0
sg20
I21
sg21
I0
sg22
I0
sg23
I0
sg24
I0
sbssg948
S'\x16\x8f\xf1\x81>\x0f\xb4S\x19\xff\xcd\xc1Y\xe9;\x98'
p2069
ssS'user_system_serializers_schools_classroom_serializer'
p2070
(dp2071
g116
(dp2072
g31
S'user_system_serializers_schools_classroom_serializer.html'
p2073
sg33
S'user_system/serializers/schools/classroom_serializer'
p2074
sg35
g13
(g14
g15
NtRp2075
(dp2076
g18
I1
sg19
I0
sg20
I13
sg21
I0
sg22
I0
sg23
I2
sg24
I0
sbssg122
S'\\\x02 #\xfc|[\xb1g\x7f\x83+\xb6\xaa\x13\x01'
p2077
ssS'create_models_daily_quest_copies_tests___init__'
p2078
(dp2079
g417
(dp2080
g1518
S'create_models_daily_quest_copies_tests___init__.html'
p2081
sg1520
S'create/models/daily_quest_copies/tests/__init__'
p2082
sg1522
g13
(g14
g15
NtRp2083
(dp2084
g18
I1
sg19
I0
sg20
I0
sg21
I0
sg22
I0
sg23
I0
sg24
I0
sbssg426
S'\x19g\xdfM\x1a\x019\xaf\x1baIeR\xe5u\xa7'
p2085
ssS'api_logging_views_summary_user_activity_summary_view'
p2086
(dp2087
g297
(dp2088
g177
S'api_logging_views_summary_user_activity_summary_view.html'
p2089
sg179
S'api_logging/views/summary/user_activity_summary_view'
p2090
sg181
g13
(g14
g15
NtRp2091
(dp2092
g18
I1
sg19
I8
sg20
I27
sg21
I0
sg22
I0
sg23
I13
sg24
I8
sbssg303
S'\x99\xfc\\\x0e\x10\x840(\x94\xd3(k\x9f\xb4\xd9M'
p2093
ssS'create_urls'
p2094
(dp2095
g42
(dp2096
g57
S'create_urls.html'
p2097
sg59
S'create/urls'
p2098
sg61
g13
(g14
g15
NtRp2099
(dp2100
g18
I1
sg19
I0
sg20
I22
sg21
I0
sg22
I0
sg23
I0
sg24
I0
sbssg51
S"k/4\x8e_h\xf3)p'\x8e\x80v\x1e\xbdg"
p2101
ssS'create_views_tags_tests_test_get_tags_list_view'
p2102
(dp2103
g694
(dp2104
g93
S'create_views_tags_tests_test_get_tags_list_view.html'
p2105
sg95
S'create/views/tags/tests/test_get_tags_list_view'
p2106
sg97
g13
(g14
g15
NtRp2107
(dp2108
g18
I1
sg19
I0
sg20
I21
sg21
I0
sg22
I0
sg23
I0
sg24
I0
sbssg700
S'F\xf6yk?\xb2\xc12\x93\x8b\xe6Bx\xa09\x89'
p2109
ssS'create_serializers_tags_tag_serializer'
p2110
(dp2111
g352
(dp2112
g93
S'create_serializers_tags_tag_serializer.html'
p2113
sg95
S'create/serializers/tags/tag_serializer'
p2114
sg97
g13
(g14
g15
NtRp2115
(dp2116
g18
I1
sg19
I0
sg20
I38
sg21
I0
sg22
I0
sg23
I0
sg24
I0
sbssg358
S'\xf7\xa8n\xd6\xf1\xe1\xf8\xaedX\x8e\xfe\ry\xd4\xc3'
p2117
ssS'user_system_models_users_teacher_mapping_model'
p2118
(dp2119
g29
(dp2120
g1246
S'user_system_models_users_teacher_mapping_model.html'
p2121
sg1248
S'user_system/models/users/teacher_mapping_model'
p2122
sg1250
g13
(g14
g15
NtRp2123
(dp2124
g18
I1
sg19
I4
sg20
I25
sg21
I0
sg22
I0
sg23
I0
sg24
I0
sbssg38
S'\xf8\xaf0\xe2\xc1q\x88\xa4\\\xde\x81@\xa4\xe3\xef\x12'
p2125
ssS'create_models_questions___init__'
p2126
(dp2127
g42
(dp2128
g589
S'create_models_questions___init__.html'
p2129
sg591
S'create/models/questions/__init__'
p2130
sg593
g13
(g14
g15
NtRp2131
(dp2132
g18
I1
sg19
I0
sg20
I6
sg21
I0
sg22
I0
sg23
I0
sg24
I0
sbssg51
S'\xd4\xfd\xae\xf0N\xdd-\x07$U\xac\xf1\xc2\x0f\xa5H'
p2133
ssS'create_models_tags_tag_type_model'
p2134
(dp2135
g386
(dp2136
g44
S'create_models_tags_tag_type_model.html'
p2137
sg46
S'create/models/tags/tag_type_model'
p2138
sg48
g13
(g14
g15
NtRp2139
(dp2140
g18
I1
sg19
I0
sg20
I15
sg21
I0
sg22
I0
sg23
I0
sg24
I0
sbssg392
S'\x89\x07\x8e\xc7^0\x96Do\xbf\xa5\xca5\xe4\x92\xeb'
p2141
ssS'create_serializers___init__'
p2142
(dp2143
g42
(dp2144
g57
S'create_serializers___init__.html'
p2145
sg59
S'create/serializers/__init__'
p2146
sg61
g13
(g14
g15
NtRp2147
(dp2148
g18
I1
sg19
I0
sg20
I6
sg21
I0
sg22
I0
sg23
I0
sg24
I0
sbssg51
S'\x97\xc3"\xfe\x83V\xc1w\xa6r\x02s qES'
p2149
ssS'create_serializers_books_book_history_serializer'
p2150
(dp2151
g942
(dp2152
g93
S'create_serializers_books_book_history_serializer.html'
p2153
sg95
S'create/serializers/books/book_history_serializer'
p2154
sg97
g13
(g14
g15
NtRp2155
(dp2156
g18
I1
sg19
I0
sg20
I14
sg21
I0
sg22
I0
sg23
I0
sg24
I0
sbssg948
S'|g\x1e1\xcdq*ob~B\xca\xd92\x8b\x01'
p2157
ssS'teach_views_daily_quest_templates___init__'
p2158
(dp2159
g55
(dp2160
g57
S'teach_views_daily_quest_templates___init__.html'
p2161
sg59
S'teach/views/daily_quest_templates/__init__'
p2162
sg61
g13
(g14
g15
NtRp2163
(dp2164
g18
I1
sg19
I0
sg20
I1
sg21
I0
sg22
I0
sg23
I0
sg24
I0
sbssg64
S'\xc1b\x1f\x95\xabR`C\xe80\xb9tNC\r3'
p2165
ssS'teach___init__'
p2166
(dp2167
g55
(dp2168
g57
S'teach___init__.html'
p2169
sg59
S'teach/__init__'
p2170
sg61
g13
(g14
g15
NtRp2171
(dp2172
g18
I1
sg19
I0
sg20
I0
sg21
I0
sg22
I0
sg23
I0
sg24
I0
sbssg64
S'\x19g\xdfM\x1a\x019\xaf\x1baIeR\xe5u\xa7'
p2173
ssS'user_system_views_users___init__'
p2174
(dp2175
g42
(dp2176
g177
S'user_system_views_users___init__.html'
p2177
sg179
S'user_system/views/users/__init__'
p2178
sg181
g13
(g14
g15
NtRp2179
(dp2180
g18
I1
sg19
I0
sg20
I6
sg21
I0
sg22
I0
sg23
I0
sg24
I0
sbssg51
S'YNj\xa9zR_\xf0?\x10V\x89y\x81\xbb\xeb'
p2181
ssS'flipped_helpers_tests_test_email_helper'
p2182
(dp2183
g42
(dp2184
g44
S'flipped_helpers_tests_test_email_helper.html'
p2185
sg46
S'flipped/helpers/tests/test_email_helper'
p2186
sg48
g13
(g14
g15
NtRp2187
(dp2188
g18
I1
sg19
I0
sg20
I13
sg21
I0
sg22
I0
sg23
I0
sg24
I0
sbssg51
S'\x13\xee\xcb^E:3A\xff)v\x7f\xd3\xa7\xa2\xaa'
p2189
ssS'user_system_serializers_users___init__'
p2190
(dp2191
g42
(dp2192
g177
S'user_system_serializers_users___init__.html'
p2193
sg179
S'user_system/serializers/users/__init__'
p2194
sg181
g13
(g14
g15
NtRp2195
(dp2196
g18
I1
sg19
I0
sg20
I7
sg21
I0
sg22
I0
sg23
I0
sg24
I0
sbssg51
S'8\xb4\xd8m\x9aA\xf2,\xb1\xe4\xb3\xe2#\xab\xd0#'
p2197
ssS'user_system_models_schools_tests_test_semester_model'
p2198
(dp2199
g206
(dp2200
g334
S'user_system_models_schools_tests_test_semester_model.html'
p2201
sg336
S'user_system/models/schools/tests/test_semester_model'
p2202
sg338
g13
(g14
g15
NtRp2203
(dp2204
g18
I1
sg19
I0
sg20
I29
sg21
I0
sg22
I0
sg23
I0
sg24
I0
sbssg215
S'\xe9\xd9\xdc\\\xb9\x93\xb1\x93Q\x02\xe9\xb7Y,\xa6w'
p2205
ssS'create_views_quests_tests___init__'
p2206
(dp2207
g6
(dp2208
g8
S'create_views_quests_tests___init__.html'
p2209
sg10
S'create/views/quests/tests/__init__'
p2210
sg12
g13
(g14
g15
NtRp2211
(dp2212
g18
I1
sg19
I0
sg20
I0
sg21
I0
sg22
I0
sg23
I0
sg24
I0
sbssg25
S'\x19g\xdfM\x1a\x019\xaf\x1baIeR\xe5u\xa7'
p2213
ssS'user_system_serializers_schools_course_serializer'
p2214
(dp2215
g116
(dp2216
g31
S'user_system_serializers_schools_course_serializer.html'
p2217
sg33
S'user_system/serializers/schools/course_serializer'
p2218
sg35
g13
(g14
g15
NtRp2219
(dp2220
g18
I1
sg19
I0
sg20
I16
sg21
I0
sg22
I0
sg23
I2
sg24
I0
sbssg122
S'\xb0\xa8O3\x01\xce\xfe3\x12\x94\xc0\xc4\xe0@\xafJ'
p2221
ssS'user_system_views_users_tests_test_delete_user_view'
p2222
(dp2223
g42
(dp2224
g44
S'user_system_views_users_tests_test_delete_user_view.html'
p2225
sg46
S'user_system/views/users/tests/test_delete_user_view'
p2226
sg48
g13
(g14
g15
NtRp2227
(dp2228
g18
I1
sg19
I0
sg20
I22
sg21
I0
sg22
I0
sg23
I0
sg24
I0
sbssg51
S'\xe4S$\xa1t\xc6\xbe\xc7\xb9^Y\x05{\x92KQ'
p2229
ssS'learn_models_daily_quests_daily_quest_question_history_model'
p2230
(dp2231
S'index'
p2232
(dp2233
g705
S'learn_models_daily_quests_daily_quest_question_history_model.html'
p2234
sg707
S'learn/models/daily_quests/daily_quest_question_history_model'
p2235
sg709
g13
(g14
g15
NtRp2236
(dp2237
g18
I1
sg19
I6
sg20
I65
sg21
I0
sg22
I0
sg23
I4
sg24
I2
sbssS'hash'
p2238
S')\x12x?=\x06;DF\xf0#m\x85F\xbd*'
p2239
ssS'user_system_models_users_user_profile_update_request_model'
p2240
(dp2241
g116
(dp2242
g628
S'user_system_models_users_user_profile_update_request_model.html'
p2243
sg630
S'user_system/models/users/user_profile_update_request_model'
p2244
sg632
g13
(g14
g15
NtRp2245
(dp2246
g18
I1
sg19
I0
sg20
I58
sg21
I0
sg22
I0
sg23
I0
sg24
I0
sbssg122
S'\xc8t\x16>\xb9"\xff\x93\xe3\x00\xa5z0[\xacM'
p2247
ssS'create_models_tags_tag_history_model'
p2248
(dp2249
g561
(dp2250
g221
S'create_models_tags_tag_history_model.html'
p2251
sg223
S'create/models/tags/tag_history_model'
p2252
sg225
g13
(g14
g15
NtRp2253
(dp2254
g18
I1
sg19
I0
sg20
I37
sg21
I0
sg22
I0
sg23
I0
sg24
I0
sbssg567
S'\xae\xc8g\xc1\xf5l<\x1f\x9c\xaf\x17\xf98\r\xa1\xe2'
p2255
ssS'create_serializers_daily_quest_copies___init__'
p2256
(dp2257
g417
(dp2258
g1518
S'create_serializers_daily_quest_copies___init__.html'
p2259
sg1520
S'create/serializers/daily_quest_copies/__init__'
p2260
sg1522
g13
(g14
g15
NtRp2261
(dp2262
g18
I1
sg19
I0
sg20
I1
sg21
I0
sg22
I0
sg23
I0
sg24
I0
sbssg426
S'\nX]\x85Nc\xb8\xc0\xe1\xaf\xa0\xda_\x9e\xb9u'
p2263
ssS'user_system_models_schools_course_model'
p2264
(dp2265
g232
(dp2266
g628
S'user_system_models_schools_course_model.html'
p2267
sg630
S'user_system/models/schools/course_model'
p2268
sg632
g13
(g14
g15
NtRp2269
(dp2270
g18
I1
sg19
I6
sg20
I37
sg21
I0
sg22
I0
sg23
I0
sg24
I0
sbssg238
S']\xfb\xca\\\xbf\x86n\xc3fj\xc2\x1ej\\q\x14'
p2271
ssS'create_models_daily_quest_copies_tests_test_daily_quest_copy_model'
p2272
(dp2273
g417
(dp2274
g543
S'create_models_daily_quest_copies_tests_test_daily_quest_copy_model.html'
p2275
sg545
S'create/models/daily_quest_copies/tests/test_daily_quest_copy_model'
p2276
sg547
g13
(g14
g15
NtRp2277
(dp2278
g18
I1
sg19
I4
sg20
I45
sg21
I0
sg22
I0
sg23
I0
sg24
I0
sbssg426
S'\xcd\xeeU\x8a\xd7\x95\x9e5E\xd0\xaf\xd07\x80\x85\xe0'
p2279
ssS'privilege_views_privileges___init__'
p2280
(dp2281
g287
(dp2282
g93
S'privilege_views_privileges___init__.html'
p2283
sg95
S'privilege/views/privileges/__init__'
p2284
sg97
g13
(g14
g15
NtRp2285
(dp2286
g18
I1
sg19
I0
sg20
I1
sg21
I0
sg22
I0
sg23
I0
sg24
I0
sbssg293
S']\x14S\xdf\xb4:Tx\xb9\x98\x89\xe7\x01%DZ'
p2287
ssS'teach_models_teacher_chapters_teacher_chapter_model'
p2288
(dp2289
g55
(dp2290
S'html_filename'
p2291
S'teach_models_teacher_chapters_teacher_chapter_model.html'
p2292
sS'name'
p2293
S'teach/models/teacher_chapters/teacher_chapter_model'
p2294
sS'nums'
p2295
g13
(g14
g15
NtRp2296
(dp2297
g18
I1
sg19
I0
sg20
I23
sg21
I0
sg22
I0
sg23
I0
sg24
I0
sbssg64
S'\x97T&\xd0\x81q\xc2M\xc3\x03\x01U\xf5S!h'
p2298
ssS'create_models_questions_question_template_model'
p2299
(dp2300
g103
(dp2301
S'html_filename'
p2302
S'create_models_questions_question_template_model.html'
p2303
sS'name'
p2304
S'create/models/questions/question_template_model'
p2305
sS'nums'
p2306
g13
(g14
g15
NtRp2307
(dp2308
g18
I1
sg19
I0
sg20
I40
sg21
I0
sg22
I0
sg23
I0
sg24
I0
sbssg112
S'\x845gz\x1d\x17\x1dv\x81\n\x96G\x99pE\\'
p2309
ssS'create_views_questions_tests_test_get_question_by_id_view'
p2310
(dp2311
g42
(dp2312
g93
S'create_views_questions_tests_test_get_question_by_id_view.html'
p2313
sg95
S'create/views/questions/tests/test_get_question_by_id_view'
p2314
sg97
g13
(g14
g15
NtRp2315
(dp2316
g18
I1
sg19
I0
sg20
I24
sg21
I0
sg22
I0
sg23
I0
sg24
I0
sbssg51
S'\xa7[\x91\xa9\xa6\xb4\xbd&n$O^O\xec\xf2X'
p2317
ssS'teach_models_teacher_tags_tests___init__'
p2318
(dp2319
g55
(dp2320
g57
S'teach_models_teacher_tags_tests___init__.html'
p2321
sg59
S'teach/models/teacher_tags/tests/__init__'
p2322
sg61
g13
(g14
g15
NtRp2323
(dp2324
g18
I1
sg19
I0
sg20
I0
sg21
I0
sg22
I0
sg23
I0
sg24
I0
sbssg64
S'\x19g\xdfM\x1a\x019\xaf\x1baIeR\xe5u\xa7'
p2325
ssS'api_logging_urls'
p2326
(dp2327
g297
(dp2328
g177
S'api_logging_urls.html'
p2329
sg179
S'api_logging/urls'
p2330
sg181
g13
(g14
g15
NtRp2331
(dp2332
g18
I1
sg19
I0
sg20
I13
sg21
I0
sg22
I0
sg23
I0
sg24
I0
sbssg303
S'`K\xc5_\x82\xb4\x1c^\xd6\x98+\xe6\xf0/\x97\x06'
p2333
ssS'api_logging_serializers_LoggingSerializer'
p2334
(dp2335
g297
(dp2336
g177
S'api_logging_serializers_LoggingSerializer.html'
p2337
sg179
S'api_logging/serializers/LoggingSerializer'
p2338
sg181
g13
(g14
g15
NtRp2339
(dp2340
g18
I1
sg19
I0
sg20
I12
sg21
I0
sg22
I0
sg23
I0
sg24
I0
sbssg303
S'1\xdb}\x8eJ\x1a\xe6@D\xcc}\xf4\x11(\x11\xb0'
p2341
ssS'create_views_books_tests_test_remove_subchapter_view'
p2342
(dp2343
S'index'
p2344
(dp2345
g44
S'create_views_books_tests_test_remove_subchapter_view.html'
p2346
sg46
S'create/views/books/tests/test_remove_subchapter_view'
p2347
sg48
g13
(g14
g15
NtRp2348
(dp2349
g18
I1
sg19
I0
sg20
I44
sg21
I0
sg22
I0
sg23
I0
sg24
I0
sbssS'hash'
p2350
S'\x0b\xddi\xaa_d\x8c\xf3b\xa2\x12\xbc\xce\xa5\xbf\x8b'
p2351
ssS'create_models_quests_tests_test_quest_history_model'
p2352
(dp2353
g103
(dp2354
g1211
S'create_models_quests_tests_test_quest_history_model.html'
p2355
sg1213
S'create/models/quests/tests/test_quest_history_model'
p2356
sg1215
g13
(g14
g15
NtRp2357
(dp2358
g18
I1
sg19
I8
sg20
I79
sg21
I0
sg22
I0
sg23
I0
sg24
I0
sbssg112
S'##\xeax]g;Ka\xb3\xc0Py,oE'
p2359
ssS'learn_models_points_point_history_model'
p2360
(dp2361
g297
(dp2362
g177
S'learn_models_points_point_history_model.html'
p2363
sg179
S'learn/models/points/point_history_model'
p2364
sg181
g13
(g14
g15
NtRp2365
(dp2366
g18
I1
sg19
I0
sg20
I16
sg21
I0
sg22
I0
sg23
I0
sg24
I0
sbssg303
S'\xa8\xbaH\x19\x11\xbeT\xe2N=\xfe\xed\x9d\xd4\x83\x1e'
p2367
ssS'user_system___init__'
p2368
(dp2369
g42
(dp2370
g447
S'user_system___init__.html'
p2371
sg449
S'user_system/__init__'
p2372
sg451
g13
(g14
g15
NtRp2373
(dp2374
g18
I1
sg19
I0
sg20
I0
sg21
I0
sg22
I0
sg23
I0
sg24
I0
sbssg51
S'\x19g\xdfM\x1a\x019\xaf\x1baIeR\xe5u\xa7'
p2375
ssS'learn_views___init__'
p2376
(dp2377
g55
(dp2378
g177
S'learn_views___init__.html'
p2379
sg179
S'learn/views/__init__'
p2380
sg181
g13
(g14
g15
NtRp2381
(dp2382
g18
I1
sg19
I0
sg20
I2
sg21
I0
sg22
I0
sg23
I0
sg24
I0
sbssg64
S"?\xc0'\xcb\x1c\xf1\xaa\xf0\x9d\xc7\x0e\xf1\xda\x0eU\x17"
p2383
ssS'create_views_question_datasets___init__'
p2384
(dp2385
g144
(dp2386
g146
S'create_views_question_datasets___init__.html'
p2387
sg148
S'create/views/question_datasets/__init__'
p2388
sg150
g13
(g14
g15
NtRp2389
(dp2390
g18
I1
sg19
I0
sg20
I1
sg21
I0
sg22
I0
sg23
I0
sg24
I0
sbssg153
S'\x87x\xd1\xbe\x15\xd3\xbc\x99\x86\x08\xf8\x06S\xcf\x00\x87'
p2391
ssS'teach_serializers_daily_quest_templates___init__'
p2392
(dp2393
g55
(dp2394
g57
S'teach_serializers_daily_quest_templates___init__.html'
p2395
sg59
S'teach/serializers/daily_quest_templates/__init__'
p2396
sg61
g13
(g14
g15
NtRp2397
(dp2398
g18
I1
sg19
I0
sg20
I1
sg21
I0
sg22
I0
sg23
I0
sg24
I0
sbssg64
S'\xa2\xd34\x1b\xe2+\x16\xa9un\x8f\xa5\xe6\xc4\\p'
p2399
ssS'create_views_books_tests_test_remove_tag_from_subchapter_view'
p2400
(dp2401
g1536
(dp2402
g44
S'create_views_books_tests_test_remove_tag_from_subchapter_view.html'
p2403
sg46
S'create/views/books/tests/test_remove_tag_from_subchapter_view'
p2404
sg48
g13
(g14
g15
NtRp2405
(dp2406
g18
I1
sg19
I0
sg20
I40
sg21
I0
sg22
I0
sg23
I0
sg24
I0
sbssg1542
S"(Vo#\xdd\x9a\xbc\x11\xff\xd6'\xd7\xeb\xca\x1aM"
p2407
ssS'create_views_daily_quests___init__'
p2408
(dp2409
g242
(dp2410
g244
S'create_views_daily_quests___init__.html'
p2411
sg246
S'create/views/daily_quests/__init__'
p2412
sg248
g13
(g14
g15
NtRp2413
(dp2414
g18
I1
sg19
I0
sg20
I1
sg21
I0
sg22
I0
sg23
I0
sg24
I0
sbssg251
S'\xa3\x08\xf3\xbaF\xd5u\x88\x12\xa3V\x05K\xe5\xd0\xa9'
p2415
ssS'flipped_helpers_email_helper'
p2416
(dp2417
g42
(dp2418
g44
S'flipped_helpers_email_helper.html'
p2419
sg46
S'flipped/helpers/email_helper'
p2420
sg48
g13
(g14
g15
NtRp2421
(dp2422
g18
I1
sg19
I2
sg20
I9
sg21
I0
sg22
I0
sg23
I0
sg24
I0
sbssg51
S"\xeal\t\x03)\xcc\xc4\x0b\r\xe2&\x83a'I\xad"
p2423
ssS'flipped_urls'
p2424
(dp2425
g42
(dp2426
g93
S'flipped_urls.html'
p2427
sg95
S'flipped/urls'
p2428
sg97
g13
(g14
g15
NtRp2429
(dp2430
g18
I1
sg19
I0
sg20
I9
sg21
I0
sg22
I0
sg23
I0
sg24
I0
sbssg51
S'\xcbN{\xd0A\x0b\xa0\xc3\xd4\x8cr\xe3\x1e\x12\x1e\xb0'
p2431
ssS'teach_views_summaries_daily_quest_summary_view'
p2432
(dp2433
g297
(dp2434
g961
S'teach_views_summaries_daily_quest_summary_view.html'
p2435
sg963
S'teach/views/summaries/daily_quest_summary_view'
p2436
sg965
g13
(g14
g15
NtRp2437
(dp2438
g18
I1
sg19
I24
sg20
I72
sg21
I0
sg22
I0
sg23
I52
sg24
I24
sbssg303
S'\xef\xc3D\xecT\x12\xea\x03Zt\xda\x00e\x98\xb0\x8f'
p2439
ssS'user_system_views_users_student_profile_request_view'
p2440
(dp2441
g116
(dp2442
g31
S'user_system_views_users_student_profile_request_view.html'
p2443
sg33
S'user_system/views/users/student_profile_request_view'
p2444
sg35
g13
(g14
g15
NtRp2445
(dp2446
g18
I1
sg19
I0
sg20
I14
sg21
I0
sg22
I0
sg23
I0
sg24
I0
sbssg122
S'\x87:\xd0\xef\x04\xf3-q\r\xe7\xec \xceS\xee<'
p2447
ssS'user_system_views_logins_tests___init__'
p2448
(dp2449
g42
(dp2450
g447
S'user_system_views_logins_tests___init__.html'
p2451
sg449
S'user_system/views/logins/tests/__init__'
p2452
sg451
g13
(g14
g15
NtRp2453
(dp2454
g18
I1
sg19
I0
sg20
I1
sg21
I0
sg22
I0
sg23
I0
sg24
I0
sbssg51
S'\xbc\xd6\xeb\xb3\xba\xcaz\xf7{\xd4B\xb5}l\xdf\x96'
p2455
ssS'api_logging_views_modal_loggings___init__'
p2456
(dp2457
g297
(dp2458
g177
S'api_logging_views_modal_loggings___init__.html'
p2459
sg179
S'api_logging/views/modal_loggings/__init__'
p2460
sg181
g13
(g14
g15
NtRp2461
(dp2462
g18
I1
sg19
I0
sg20
I1
sg21
I0
sg22
I0
sg23
I0
sg24
I0
sbssg303
S'\xf1\x0fWK\x0c\x9eD\xe8\x12\xaf\x93\xfa\xd7q\xa8\x91'
p2463
ssS'user_system_views_users_tests_test_get_users_by_signup_type_view'
p2464
(dp2465
g42
(dp2466
g93
S'user_system_views_users_tests_test_get_users_by_signup_type_view.html'
p2467
sg95
S'user_system/views/users/tests/test_get_users_by_signup_type_view'
p2468
sg97
g13
(g14
g15
NtRp2469
(dp2470
g18
I1
sg19
I0
sg20
I44
sg21
I0
sg22
I0
sg23
I0
sg24
I0
sbssg51
S'T/\xf9\xf8\x94\xd6Lm\x89o\xb6\x99/Z\xc1]'
p2471
ssS'user_system_serializers_users_user_serializer'
p2472
(dp2473
g42
(dp2474
g93
S'user_system_serializers_users_user_serializer.html'
p2475
sg95
S'user_system/serializers/users/user_serializer'
p2476
sg97
g13
(g14
g15
NtRp2477
(dp2478
g18
I1
sg19
I8
sg20
I46
sg21
I0
sg22
I2
sg23
I8
sg24
I6
sbssg51
S'\xb2\xee\xa4\xa6\x8b\xe1\xe1\xce\xaa\xe6\xdd\xbd\xb3\xf2\x81/'
p2479
ssS'create_serializers_daily_quest_copies_daily_quest_copy_serializer'
p2480
(dp2481
g417
(dp2482
g1518
S'create_serializers_daily_quest_copies_daily_quest_copy_serializer.html'
p2483
sg1520
S'create/serializers/daily_quest_copies/daily_quest_copy_serializer'
p2484
sg1522
g13
(g14
g15
NtRp2485
(dp2486
g18
I1
sg19
I0
sg20
I18
sg21
I0
sg22
I0
sg23
I3
sg24
I0
sbssg426
S'\xb6\xc6tAeANu\xae\n4T\xc1.\xe2\xfd'
p2487
ssS'create_models_books_tests_test_book_history_model'
p2488
(dp2489
g352
(dp2490
g628
S'create_models_books_tests_test_book_history_model.html'
p2491
sg630
S'create/models/books/tests/test_book_history_model'
p2492
sg632
g13
(g14
g15
NtRp2493
(dp2494
g18
I1
sg19
I0
sg20
I65
sg21
I0
sg22
I0
sg23
I0
sg24
I0
sbssg358
S'\xedQI\xf5\x17. 8I\x938\xca4\x05=\xf3'
p2495
ssS'create_views_quests_tests_test_remove_question_view'
p2496
(dp2497
g6
(dp2498
g8
S'create_views_quests_tests_test_remove_question_view.html'
p2499
sg10
S'create/views/quests/tests/test_remove_question_view'
p2500
sg12
g13
(g14
g15
NtRp2501
(dp2502
g18
I1
sg19
I0
sg20
I0
sg21
I0
sg22
I0
sg23
I0
sg24
I0
sbssg25
S'\x19g\xdfM\x1a\x019\xaf\x1baIeR\xe5u\xa7'
p2503
ssS'create_serializers_daily_quest_templates_daily_quest_template_serializer'
p2504
(dp2505
g242
(dp2506
g244
S'create_serializers_daily_quest_templates_daily_quest_template_serializer.html'
p2507
sg246
S'create/serializers/daily_quest_templates/daily_quest_template_serializer'
p2508
sg248
g13
(g14
g15
NtRp2509
(dp2510
g18
I1
sg19
I0
sg20
I8
sg21
I0
sg22
I0
sg23
I0
sg24
I0
sbssg251
S'-b,\x8cFu\xd2b\x8b\rw5\xa4\xf7\xc3\xf2'
p2511
ssS'user_system_managers___init__'
p2512
(dp2513
g297
(dp2514
g177
S'user_system_managers___init__.html'
p2515
sg179
S'user_system/managers/__init__'
p2516
sg181
g13
(g14
g15
NtRp2517
(dp2518
g18
I1
sg19
I0
sg20
I2
sg21
I0
sg22
I0
sg23
I0
sg24
I0
sbssg303
S'\xf1\xb0\xc3\xd3B\x8d\xdf\x12\x1bW\x06\xa4\xe7\x13A '
p2519
ssS'teach_models_campaigns_tests_test_campaign_model'
p2520
(dp2521
g116
(dp2522
g31
S'teach_models_campaigns_tests_test_campaign_model.html'
p2523
sg33
S'teach/models/campaigns/tests/test_campaign_model'
p2524
sg35
g13
(g14
g15
NtRp2525
(dp2526
g18
I1
sg19
I0
sg20
I43
sg21
I0
sg22
I0
sg23
I0
sg24
I0
sbssg122
S"\x1b\xbbi{\xe8\xa9o\xd3w\xfb'\x1e\xca\x1b\xd9\xc7"
p2527
ssS'api_logging_views_modal_loggings_modal_user_history_view'
p2528
(dp2529
g297
(dp2530
g177
S'api_logging_views_modal_loggings_modal_user_history_view.html'
p2531
sg179
S'api_logging/views/modal_loggings/modal_user_history_view'
p2532
sg181
g13
(g14
g15
NtRp2533
(dp2534
g18
I1
sg19
I0
sg20
I12
sg21
I0
sg22
I0
sg23
I0
sg24
I0
sbssg303
S'\xb4\xa3\xa1!\x95\x8a\x06\xf5\x19\x1c=\xe2B\xa3b\t'
p2535
ssS'user_system_views_logins_tests_test_email_login_view'
p2536
(dp2537
g42
(dp2538
g44
S'user_system_views_logins_tests_test_email_login_view.html'
p2539
sg46
S'user_system/views/logins/tests/test_email_login_view'
p2540
sg48
g13
(g14
g15
NtRp2541
(dp2542
g18
I1
sg19
I0
sg20
I61
sg21
I0
sg22
I0
sg23
I0
sg24
I0
sbssg51
S'\x926\xe8\xcdL\xf3U\xc1C\x1b\x0f\xaf\xf0c\x9b\xd0'
p2543
ssS'create_views_books_book_chapter_view'
p2544
(dp2545
g561
(dp2546
g177
S'create_views_books_book_chapter_view.html'
p2547
sg179
S'create/views/books/book_chapter_view'
p2548
sg181
g13
(g14
g15
NtRp2549
(dp2550
g18
I1
sg19
I12
sg20
I44
sg21
I0
sg22
I0
sg23
I22
sg24
I12
sbssg567
S'\x0b3\xd8 \xe1\x08#79\x0c\x7f\x1f6\xad0\xe9'
p2551
ssS'create_views___init__'
p2552
(dp2553
g42
(dp2554
g57
S'create_views___init__.html'
p2555
sg59
S'create/views/__init__'
p2556
sg61
g13
(g14
g15
NtRp2557
(dp2558
g18
I1
sg19
I0
sg20
I7
sg21
I0
sg22
I0
sg23
I0
sg24
I0
sbssg51
S'\x8f\x98\x9b$~\xde\xc2\xfc\x97/\x14^\xe8\xf8\x10M'
p2559
ssS'user_system_serializers_users_student_profile_serializer'
p2560
(dp2561
g116
(dp2562
g419
S'user_system_serializers_users_student_profile_serializer.html'
p2563
sg421
S'user_system/serializers/users/student_profile_serializer'
p2564
sg423
g13
(g14
g15
NtRp2565
(dp2566
g18
I1
sg19
I0
sg20
I10
sg21
I0
sg22
I0
sg23
I0
sg24
I0
sbssg122
S'\xb4\n*\x1b\x86\xd1\\\xa2k\xeb\xd8\xeaW\x0c\xd8x'
p2567
ssS'flipped_helpers_errors_helper'
p2568
(dp2569
g42
(dp2570
g44
S'flipped_helpers_errors_helper.html'
p2571
sg46
S'flipped/helpers/errors_helper'
p2572
sg48
g13
(g14
g15
NtRp2573
(dp2574
g18
I1
sg19
I0
sg20
I5
sg21
I0
sg22
I0
sg23
I0
sg24
I0
sbssg51
S'\x91\x04\x1c\xf86c\xad\xf7\xe3\xf13\xf5n8eP'
p2575
ssS'teach_views_teacher_tags_teacher_tag_view'
p2576
(dp2577
g55
(dp2578
g177
S'teach_views_teacher_tags_teacher_tag_view.html'
p2579
sg179
S'teach/views/teacher_tags/teacher_tag_view'
p2580
sg181
g13
(g14
g15
NtRp2581
(dp2582
g18
I1
sg19
I20
sg20
I55
sg21
I0
sg22
I2
sg23
I30
sg24
I18
sbssg64
S'\xec\x1aQ\x839\x80#\xe5\xca\x98\xf6\xec\x84\x17\xa3\xeb'
p2583
ssS'create_models_questions_tests_test_question_history_model'
p2584
(dp2585
g42
(dp2586
g999
S'create_models_questions_tests_test_question_history_model.html'
p2587
sg1001
S'create/models/questions/tests/test_question_history_model'
p2588
sg1003
g13
(g14
g15
NtRp2589
(dp2590
g18
I1
sg19
I2
sg20
I73
sg21
I0
sg22
I0
sg23
I0
sg24
I0
sbssg51
S'i\xd4 \xdcI\x9f\xbc\x0c|\x95\x15wW\xb4\xa9\x15'
p2591
ssS'create_views_tags_tests_test_create_tag_view'
p2592
(dp2593
g694
(dp2594
g44
S'create_views_tags_tests_test_create_tag_view.html'
p2595
sg46
S'create/views/tags/tests/test_create_tag_view'
p2596
sg48
g13
(g14
g15
NtRp2597
(dp2598
g18
I1
sg19
I0
sg20
I33
sg21
I0
sg22
I0
sg23
I0
sg24
I0
sbssg700
S'\\\x91{\x1a ;Qg\xbd\x81\xe2\xaf\xa41\xac\x1b'
p2599
ssS'create_views_questions_tests___init__'
p2600
(dp2601
g42
(dp2602
g447
S'create_views_questions_tests___init__.html'
p2603
sg449
S'create/views/questions/tests/__init__'
p2604
sg451
g13
(g14
g15
NtRp2605
(dp2606
g18
I1
sg19
I0
sg20
I0
sg21
I0
sg22
I0
sg23
I0
sg24
I0
sbssg51
S'\x19g\xdfM\x1a\x019\xaf\x1baIeR\xe5u\xa7'
p2607
ssS'flipped___init__'
p2608
(dp2609
g42
(dp2610
g447
S'flipped___init__.html'
p2611
sg449
S'flipped/__init__'
p2612
sg451
g13
(g14
g15
NtRp2613
(dp2614
g18
I1
sg19
I0
sg20
I0
sg21
I0
sg22
I0
sg23
I0
sg24
I0
sbssg51
S'\x19g\xdfM\x1a\x019\xaf\x1baIeR\xe5u\xa7'
p2615
ssS'user_system_views_roles___init__'
p2616
(dp2617
g42
(dp2618
g447
S'user_system_views_roles___init__.html'
p2619
sg449
S'user_system/views/roles/__init__'
p2620
sg451
g13
(g14
g15
NtRp2621
(dp2622
g18
I1
sg19
I0
sg20
I1
sg21
I0
sg22
I0
sg23
I0
sg24
I0
sbssg51
S'\xeb\x15\r\x85I\x9e<\xbc\x15\xd1P\xef\x16\x8c\xe0l'
p2623
ssS'create_models_daily_quest_templates_tests_test_daily_quest_template_model'
p2624
(dp2625
g242
(dp2626
g244
S'create_models_daily_quest_templates_tests_test_daily_quest_template_model.html'
p2627
sg246
S'create/models/daily_quest_templates/tests/test_daily_quest_template_model'
p2628
sg248
g13
(g14
g15
NtRp2629
(dp2630
g18
I1
sg19
I0
sg20
I37
sg21
I0
sg22
I0
sg23
I0
sg24
I0
sbssg251
S'\x01\x04)\xffw\x13\x9aqx\xb2\x9f\x02\xb0\x90\xf3\xa5'
p2631
ssS'teach_views_summaries___init__'
p2632
(dp2633
g297
(dp2634
g188
S'teach_views_summaries___init__.html'
p2635
sg190
S'teach/views/summaries/__init__'
p2636
sg192
g13
(g14
g15
NtRp2637
(dp2638
g18
I1
sg19
I0
sg20
I6
sg21
I0
sg22
I0
sg23
I0
sg24
I0
sbssg303
S'\xf1\xa7@\xae\xc1+T\x8d\tr\xacb\x91s,\xbf'
p2639
ssS'user_system_models_users_user_profile_history_model'
p2640
(dp2641
g116
(dp2642
g31
S'user_system_models_users_user_profile_history_model.html'
p2643
sg33
S'user_system/models/users/user_profile_history_model'
p2644
sg35
g13
(g14
g15
NtRp2645
(dp2646
g18
I1
sg19
I4
sg20
I72
sg21
I0
sg22
I2
sg23
I12
sg24
I2
sbssg122
S'\x9a\x0c\xe2p\x8b\xee\x01\x87\xfd\x81\xb4\x9bzp\x90\xb6'
p2647
ssS'teach_admin'
p2648
(dp2649
g55
(dp2650
g177
S'teach_admin.html'
p2651
sg179
S'teach/admin'
p2652
sg181
g13
(g14
g15
NtRp2653
(dp2654
g18
I1
sg19
I0
sg20
I6
sg21
I0
sg22
I0
sg23
I0
sg24
I0
sbssg64
S'\xa5$\xa3\xb8$\xe4Z\x9b\xcbO\x9f\xc1\x02b\x95N'
p2655
ssS'user_system_views_users_user_view'
p2656
(dp2657
g42
(dp2658
g177
S'user_system_views_users_user_view.html'
p2659
sg179
S'user_system/views/users/user_view'
p2660
sg181
g13
(g14
g15
NtRp2661
(dp2662
g18
I1
sg19
I66
sg20
I186
sg21
I0
sg22
I0
sg23
I108
sg24
I44
sbssg51
S'S`\xa9\xa5\xad\x9d\x84\x8fOl!#\x8a<\x9c\xed'
p2663
ssS'teach_models_daily_quest_templates_tests_test_daily_quest_template_model'
p2664
(dp2665
g55
(dp2666
g57
S'teach_models_daily_quest_templates_tests_test_daily_quest_template_model.html'
p2667
sg59
S'teach/models/daily_quest_templates/tests/test_daily_quest_template_model'
p2668
sg61
g13
(g14
g15
NtRp2669
(dp2670
g18
I1
sg19
I0
sg20
I37
sg21
I0
sg22
I0
sg23
I0
sg24
I0
sbssg64
S'\x01\x04)\xffw\x13\x9aqx\xb2\x9f\x02\xb0\x90\xf3\xa5'
p2671
ssS'user_system_views_apps___init__'
p2672
(dp2673
g42
(dp2674
g447
S'user_system_views_apps___init__.html'
p2675
sg449
S'user_system/views/apps/__init__'
p2676
sg451
g13
(g14
g15
NtRp2677
(dp2678
g18
I1
sg19
I0
sg20
I1
sg21
I0
sg22
I0
sg23
I0
sg24
I0
sbssg51
S'?:\xf2A\xfa^]\xc5NR\xc9\x13\xb0\xe4\xfa\x9e'
p2679
ssS'user_system_views_users_tests_test_get_users_list_view'
p2680
(dp2681
g42
(dp2682
g93
S'user_system_views_users_tests_test_get_users_list_view.html'
p2683
sg95
S'user_system/views/users/tests/test_get_users_list_view'
p2684
sg97
g13
(g14
g15
NtRp2685
(dp2686
g18
I1
sg19
I0
sg20
I34
sg21
I0
sg22
I0
sg23
I0
sg24
I0
sbssg51
S'\xf5\xe3\x1a\x14e\xf8\xc2\xf0\xa8^$\xf7\x9dv\xb8f'
p2687
ssS'create_views_books_tests_test_create_new_book'
p2688
(dp2689
S'index'
p2690
(dp2691
g44
S'create_views_books_tests_test_create_new_book.html'
p2692
sg46
S'create/views/books/tests/test_create_new_book'
p2693
sg48
g13
(g14
g15
NtRp2694
(dp2695
g18
I1
sg19
I0
sg20
I18
sg21
I0
sg22
I0
sg23
I0
sg24
I0
sbssS'hash'
p2696
S'\xe3\xaew\xf8\xd7\x8f\xc5 \x85\xc1\xb6I\x82X(-'
p2697
ssS'user_system_views_apps_app_view'
p2698
(dp2699
g42
(dp2700
S'html_filename'
p2701
S'user_system_views_apps_app_view.html'
p2702
sS'name'
p2703
S'user_system/views/apps/app_view'
p2704
sS'nums'
p2705
g13
(g14
g15
NtRp2706
(dp2707
g18
I1
sg19
I0
sg20
I13
sg21
I0
sg22
I0
sg23
I0
sg24
I0
sbssg51
S'\xf7n\xffX\xe7\xd2\xb6\xa5\xc5\xe5\x96\x13\xf4\x9c\xac\x1e'
p2708
ssS'teach_views_summaries_student_list_summary'
p2709
(dp2710
g297
(dp2711
g961
S'teach_views_summaries_student_list_summary.html'
p2712
sg963
S'teach/views/summaries/student_list_summary'
p2713
sg965
g13
(g14
g15
NtRp2714
(dp2715
g18
I1
sg19
I26
sg20
I82
sg21
I0
sg22
I0
sg23
I64
sg24
I26
sbssg303
S'\xcc\x1a\n\xd4k-rB\xe4{\x16\x1fG\xf1\x16C'
p2716
ssS'user_system_models_schools_tests_test_classroom_model'
p2717
(dp2718
g232
(dp2719
g177
S'user_system_models_schools_tests_test_classroom_model.html'
p2720
sg179
S'user_system/models/schools/tests/test_classroom_model'
p2721
sg181
g13
(g14
g15
NtRp2722
(dp2723
g18
I1
sg19
I0
sg20
I31
sg21
I0
sg22
I0
sg23
I0
sg24
I0
sbssg238
S'\xfd\xfd\xa2\x92;\xc3\xaa\x06D\x93\xddbD\xda\xa2\x1e'
p2724
ssS'user_system_views_schools_school_view'
p2725
(dp2726
g116
(dp2727
g31
S'user_system_views_schools_school_view.html'
p2728
sg33
S'user_system/views/schools/school_view'
p2729
sg35
g13
(g14
g15
NtRp2730
(dp2731
g18
I1
sg19
I0
sg20
I16
sg21
I0
sg22
I0
sg23
I0
sg24
I0
sbssg122
S'\xc8\x0b\xef\x9e86\xe5\x19\xaa\x9e\x93+\x03\xfb\x98\x99'
p2732
ssS'learn_models_points_point_type_model'
p2733
(dp2734
g297
(dp2735
g628
S'learn_models_points_point_type_model.html'
p2736
sg630
S'learn/models/points/point_type_model'
p2737
sg632
g13
(g14
g15
NtRp2738
(dp2739
g18
I1
sg19
I0
sg20
I20
sg21
I0
sg22
I0
sg23
I0
sg24
I0
sbssg303
S'\x84\x1b\x18\n\xa9\xae\xe5\xd57\xa7}h\xdaD\x19+'
p2740
ssS'user_system_models_users_user_facebook_model'
p2741
(dp2742
g42
(dp2743
g44
S'user_system_models_users_user_facebook_model.html'
p2744
sg46
S'user_system/models/users/user_facebook_model'
p2745
sg48
g13
(g14
g15
NtRp2746
(dp2747
g18
I1
sg19
I0
sg20
I22
sg21
I0
sg22
I0
sg23
I0
sg24
I0
sbssg51
S'!d\xff\xbcl0O(`\x1b1\xf7\xb3*{X'
p2748
ssS'user_system_views_schools_grade_view'
p2749
(dp2750
g116
(dp2751
g31
S'user_system_views_schools_grade_view.html'
p2752
sg33
S'user_system/views/schools/grade_view'
p2753
sg35
g13
(g14
g15
NtRp2754
(dp2755
g18
I1
sg19
I0
sg20
I16
sg21
I0
sg22
I0
sg23
I0
sg24
I0
sbssg122
S'_i&b\x01\x08$\xe7\xbe\nW\x92\x80\x97\xf1Q'
p2756
ssS'create_serializers_question_datasets_question_dataset_serializer'
p2757
(dp2758
g144
(dp2759
g146
S'create_serializers_question_datasets_question_dataset_serializer.html'
p2760
sg148
S'create/serializers/question_datasets/question_dataset_serializer'
p2761
sg150
g13
(g14
g15
NtRp2762
(dp2763
g18
I1
sg19
I0
sg20
I6
sg21
I0
sg22
I0
sg23
I0
sg24
I0
sbssg153
S'\x1e}6\x82\x0c\x96\xdb\x00{jK\xdb\xc0\x8c\x97\xcd'
p2764
ssS'privilege_models_privileges_user_privilege_model'
p2765
(dp2766
g287
(dp2767
g93
S'privilege_models_privileges_user_privilege_model.html'
p2768
sg95
S'privilege/models/privileges/user_privilege_model'
p2769
sg97
g13
(g14
g15
NtRp2770
(dp2771
g18
I1
sg19
I0
sg20
I17
sg21
I0
sg22
I0
sg23
I1
sg24
I0
sbssg293
S'\xe4\xbfo\xb6Sy\xef\x85\xf2\xf3=\xf3\xc3\xc0\xc9\xc6'
p2772
ssS'create_views_questions_question_template_view'
p2773
(dp2774
g103
(dp2775
g105
S'create_views_questions_question_template_view.html'
p2776
sg107
S'create/views/questions/question_template_view'
p2777
sg109
g13
(g14
g15
NtRp2778
(dp2779
g18
I1
sg19
I40
sg20
I115
sg21
I0
sg22
I0
sg23
I86
sg24
I40
sbssg112
S'\x15\xd2EN\xe9c\xe5\x17\xc5Fh\x02\x1a\xd3\xc4*'
p2780
ssS'create_serializers_quests_quest_serializer'
p2781
(dp2782
g103
(dp2783
g31
S'create_serializers_quests_quest_serializer.html'
p2784
sg33
S'create/serializers/quests/quest_serializer'
p2785
sg35
g13
(g14
g15
NtRp2786
(dp2787
g18
I1
sg19
I0
sg20
I50
sg21
I0
sg22
I0
sg23
I15
sg24
I0
sbssg112
S'\x96:\xdf\x9a\x02\xee\xf5\x97F[z\x16p\x8f\x08\xb2'
p2788
ssS'create_views_summary_create_summary_view'
p2789
(dp2790
g1618
(dp2791
g1101
S'create_views_summary_create_summary_view.html'
p2792
sg1103
S'create/views/summary/create_summary_view'
p2793
sg1105
g13
(g14
g15
NtRp2794
(dp2795
g18
I1
sg19
I0
sg20
I59
sg21
I0
sg22
I0
sg23
I48
sg24
I0
sbssg1624
S"'\xfe\xf4\x8c\xed2\xc3\x18\xf6\x85\x1f\xb0\xf0G\xb7\x8f"
p2796
ssS'create_serializers_books_book_serializer'
p2797
(dp2798
g352
(dp2799
g93
S'create_serializers_books_book_serializer.html'
p2800
sg95
S'create/serializers/books/book_serializer'
p2801
sg97
g13
(g14
g15
NtRp2802
(dp2803
g18
I1
sg19
I0
sg20
I25
sg21
I0
sg22
I0
sg23
I0
sg24
I0
sbssg358
S"o\r\r\x1e8\xe6\xa9\xd1\x83X.\xcf1\x98\xa3'"
p2804
ssS'user_system_models_schools_tests___init__'
p2805
(dp2806
g206
(dp2807
S'html_filename'
p2808
S'user_system_models_schools_tests___init__.html'
p2809
sS'name'
p2810
S'user_system/models/schools/tests/__init__'
p2811
sS'nums'
p2812
g13
(g14
g15
NtRp2813
(dp2814
g18
I1
sg19
I0
sg20
I0
sg21
I0
sg22
I0
sg23
I0
sg24
I0
sbssg215
S'\x19g\xdfM\x1a\x019\xaf\x1baIeR\xe5u\xa7'
p2815
ssS'api_logging_mixins'
p2816
(dp2817
g694
(dp2818
g44
S'api_logging_mixins.html'
p2819
sg46
S'api_logging/mixins'
p2820
sg48
g13
(g14
g15
NtRp2821
(dp2822
g18
I1
sg19
I4
sg20
I26
sg21
I0
sg22
I2
sg23
I2
sg24
I2
sbssg700
S'w\xa7\xcf,\xf7\x87[\xb0\xc5\xb2\x1f\xa5+\x1dSF'
p2823
ssS'privilege_serializers_privileges___init__'
p2824
(dp2825
g287
(dp2826
g93
S'privilege_serializers_privileges___init__.html'
p2827
sg95
S'privilege/serializers/privileges/__init__'
p2828
sg97
g13
(g14
g15
NtRp2829
(dp2830
g18
I1
sg19
I0
sg20
I2
sg21
I0
sg22
I0
sg23
I0
sg24
I0
sbssg293
S'\x1f\xd4u<\xf4\x9bW\xb0\xa9\xd2\xc1\x06\x14`C\xc6'
p2831
ssS'create___init__'
p2832
(dp2833
g42
(dp2834
g447
S'create___init__.html'
p2835
sg449
S'create/__init__'
p2836
sg451
g13
(g14
g15
NtRp2837
(dp2838
g18
I1
sg19
I0
sg20
I0
sg21
I0
sg22
I0
sg23
I0
sg24
I0
sbssg51
S'\x19g\xdfM\x1a\x019\xaf\x1baIeR\xe5u\xa7'
p2839
ssS'user_system_serializers_schools_school_serializer'
p2840
(dp2841
g116
(dp2842
g31
S'user_system_serializers_schools_school_serializer.html'
p2843
sg33
S'user_system/serializers/schools/school_serializer'
p2844
sg35
g13
(g14
g15
NtRp2845
(dp2846
g18
I1
sg19
I0
sg20
I9
sg21
I0
sg22
I0
sg23
I0
sg24
I0
sbssg122
S'_\x0c\x17V\x00H\x8f\xc9x\xe5I\xcb\t\x08\xb9/'
p2847
ssS'user_system_models_users_tests_test_user_profile_update_request_model'
p2848
(dp2849
g116
(dp2850
g628
S'user_system_models_users_tests_test_user_profile_update_request_model.html'
p2851
sg630
S'user_system/models/users/tests/test_user_profile_update_request_model'
p2852
sg632
g13
(g14
g15
NtRp2853
(dp2854
g18
I1
sg19
I0
sg20
I56
sg21
I0
sg22
I0
sg23
I0
sg24
I0
sbssg122
S'U\ng\x0eY\xe2\xc0a\x07f\xb4\x9bFP\x14\x86'
p2855
ssS'user_system_views_users_tests_test_add_role_view'
p2856
(dp2857
g42
(dp2858
g44
S'user_system_views_users_tests_test_add_role_view.html'
p2859
sg46
S'user_system/views/users/tests/test_add_role_view'
p2860
sg48
g13
(g14
g15
NtRp2861
(dp2862
g18
I1
sg19
I0
sg20
I36
sg21
I0
sg22
I0
sg23
I0
sg24
I0
sbssg51
S'\x0eh\xf7\xba\x08_N\xdeM\xdf\x03\xbd\x8c\x8a\x89\xd0'
p2863
ssS'learn_urls'
p2864
(dp2865
g55
(dp2866
g177
S'learn_urls.html'
p2867
sg179
S'learn/urls'
p2868
sg181
g13
(g14
g15
NtRp2869
(dp2870
g18
I1
sg19
I0
sg20
I8
sg21
I0
sg22
I0
sg23
I0
sg24
I0
sbssg64
S'\x1a\xcd\x95\xa0\xd8s\xf6\xb3\x9e\xd7H\xe5*M\xbdG'
p2871
ssS'api_logging___init__'
p2872
(dp2873
g561
(dp2874
g732
S'api_logging___init__.html'
p2875
sg734
S'api_logging/__init__'
p2876
sg736
g13
(g14
g15
NtRp2877
(dp2878
g18
I1
sg19
I0
sg20
I0
sg21
I0
sg22
I0
sg23
I0
sg24
I0
sbssg567
S'\x19g\xdfM\x1a\x019\xaf\x1baIeR\xe5u\xa7'
p2879
ssS'create_views_questions_question_view'
p2880
(dp2881
g42
(dp2882
g760
S'create_views_questions_question_view.html'
p2883
sg762
S'create/views/questions/question_view'
p2884
sg764
g13
(g14
g15
NtRp2885
(dp2886
g18
I1
sg19
I34
sg20
I112
sg21
I0
sg22
I1
sg23
I40
sg24
I21
sbssg51
S"_'M\x9d\x0e\r\xae\x93=\xce\xd2\x1b>\x8eV\xe4"
p2887
ssS'create_views_quests_tests_test_add_question_view'
p2888
(dp2889
g6
(dp2890
g8
S'create_views_quests_tests_test_add_question_view.html'
p2891
sg10
S'create/views/quests/tests/test_add_question_view'
p2892
sg12
g13
(g14
g15
NtRp2893
(dp2894
g18
I1
sg19
I0
sg20
I0
sg21
I0
sg22
I0
sg23
I0
sg24
I0
sbssg25
S'\x19g\xdfM\x1a\x019\xaf\x1baIeR\xe5u\xa7'
p2895
ssS'create_models_daily_quest_copies___init__'
p2896
(dp2897
g417
(dp2898
g1518
S'create_models_daily_quest_copies___init__.html'
p2899
sg1520
S'create/models/daily_quest_copies/__init__'
p2900
sg1522
g13
(g14
g15
NtRp2901
(dp2902
g18
I1
sg19
I0
sg20
I1
sg21
I0
sg22
I0
sg23
I0
sg24
I0
sbssg426
S'\xee\xef\xb8!Z;\x9e_\xb5g4\xe9\xac@l\xe6'
p2903
ssS'create_models_books_tests___init__'
p2904
(dp2905
g352
(dp2906
g780
S'create_models_books_tests___init__.html'
p2907
sg782
S'create/models/books/tests/__init__'
p2908
sg784
g13
(g14
g15
NtRp2909
(dp2910
g18
I1
sg19
I0
sg20
I0
sg21
I0
sg22
I0
sg23
I0
sg24
I0
sbssg358
S'\x19g\xdfM\x1a\x019\xaf\x1baIeR\xe5u\xa7'
p2911
ssS'privilege_models_privileges___init__'
p2912
(dp2913
g287
(dp2914
g93
S'privilege_models_privileges___init__.html'
p2915
sg95
S'privilege/models/privileges/__init__'
p2916
sg97
g13
(g14
g15
NtRp2917
(dp2918
g18
I1
sg19
I0
sg20
I2
sg21
I0
sg22
I0
sg23
I0
sg24
I0
sbssg293
S'\x14\x97Z\xa7<\xbd\xe6Z\xa0jIA\xc0I\xfd"'
p2919
ssS'user_system_managers_streak_manager'
p2920
(dp2921
g297
(dp2922
S'html_filename'
p2923
S'user_system_managers_streak_manager.html'
p2924
sS'name'
p2925
S'user_system/managers/streak_manager'
p2926
sS'nums'
p2927
g13
(g14
g15
NtRp2928
(dp2929
g18
I1
sg19
I30
sg20
I66
sg21
I0
sg22
I2
sg23
I48
sg24
I28
sbssg303
S'\x96\xca\x89\xcd\xff\xdaKx\xe9C\x8d\xbc!\xb4<\x8b'
p2930
ssS'learn_views_student_news_feed_student_news_feed_view'
p2931
(dp2932
g297
(dp2933
g932
S'learn_views_student_news_feed_student_news_feed_view.html'
p2934
sg934
S'learn/views/student_news_feed/student_news_feed_view'
p2935
sg936
g13
(g14
g15
NtRp2936
(dp2937
g18
I1
sg19
I10
sg20
I38
sg21
I0
sg22
I0
sg23
I22
sg24
I10
sbssg303
S'\xd4\xf5w\x10\xf0\xf4l\x18\x16\xdf\xaf\xd1\x9eM\x0e\xb5'
p2938
ssS'user_system_models_schools_tests_test_academic_year_model'
p2939
(dp2940
g206
(dp2941
g334
S'user_system_models_schools_tests_test_academic_year_model.html'
p2942
sg336
S'user_system/models/schools/tests/test_academic_year_model'
p2943
sg338
g13
(g14
g15
NtRp2944
(dp2945
g18
I1
sg19
I0
sg20
I28
sg21
I0
sg22
I0
sg23
I0
sg24
I0
sbssg215
S'{=\xee\xbc8\xbd\xa7\xdd\x0f!3\xf8\xf0os\xe2'
p2946
ssS'learn_serializers_daily_quests_daily_quest_question_history_serializer'
p2947
(dp2948
g297
(dp2949
g177
S'learn_serializers_daily_quests_daily_quest_question_history_serializer.html'
p2950
sg179
S'learn/serializers/daily_quests/daily_quest_question_history_serializer'
p2951
sg181
g13
(g14
g15
NtRp2952
(dp2953
g18
I1
sg19
I0
sg20
I8
sg21
I0
sg22
I0
sg23
I0
sg24
I0
sbssg303
S'q$\xc8~\x9a\xbb\x03\x1a\x12[aG\x9a\x87\xc6\x0c'
p2954
ssS'api_logging_serializers_modal_loggings___init__'
p2955
(dp2956
g297
(dp2957
g177
S'api_logging_serializers_modal_loggings___init__.html'
p2958
sg179
S'api_logging/serializers/modal_loggings/__init__'
p2959
sg181
g13
(g14
g15
NtRp2960
(dp2961
g18
I1
sg19
I0
sg20
I1
sg21
I0
sg22
I0
sg23
I0
sg24
I0
sbssg303
S'\xff)\x01pU0i\x848\xea\xfc\x08\x0b\x0bS\xa4'
p2962
ssS'user_system_models_schools_grade_model'
p2963
(dp2964
g232
(dp2965
g177
S'user_system_models_schools_grade_model.html'
p2966
sg179
S'user_system/models/schools/grade_model'
p2967
sg181
g13
(g14
g15
NtRp2968
(dp2969
g18
I1
sg19
I0
sg20
I29
sg21
I0
sg22
I0
sg23
I2
sg24
I0
sbssg238
S'\xfdv\xccR\xe0u\x91\x0f\x7f\x03\xcb\xc4y\xc19k'
p2970
ssS'user_system_serializers_schools___init__'
p2971
(dp2972
g55
(dp2973
g31
S'user_system_serializers_schools___init__.html'
p2974
sg33
S'user_system/serializers/schools/__init__'
p2975
sg35
g13
(g14
g15
NtRp2976
(dp2977
g18
I1
sg19
I0
sg20
I5
sg21
I0
sg22
I0
sg23
I0
sg24
I0
sbssg64
S'8yN\xa2\x98\xe3%\xd4\xe2\xfd\xf2@\xcc\xa7\x02\xdb'
p2978
ssS'create_serializers_questions_question_choice_serializer'
p2979
(dp2980
g42
(dp2981
g177
S'create_serializers_questions_question_choice_serializer.html'
p2982
sg179
S'create/serializers/questions/question_choice_serializer'
p2983
sg181
g13
(g14
g15
NtRp2984
(dp2985
g18
I1
sg19
I0
sg20
I10
sg21
I0
sg22
I0
sg23
I0
sg24
I0
sbssg51
S'\xe4\xc0O\xa2\x80M\x05Wf\xdeO=\xf7\xaaT\x95'
p2986
ssS'create_serializers_questions_question_template_serializer'
p2987
(dp2988
g103
(dp2989
g1176
S'create_serializers_questions_question_template_serializer.html'
p2990
sg1178
S'create/serializers/questions/question_template_serializer'
p2991
sg1180
g13
(g14
g15
NtRp2992
(dp2993
g18
I1
sg19
I0
sg20
I43
sg21
I0
sg22
I0
sg23
I9
sg24
I0
sbssg112
S'\x1a\x149\xdb\xb8\xc7\xfc\xb6\xbc\x8b\xfe\x8e~N\xb9J'
p2994
ssS'teach_views_summaries_top_answered_questions_summary_view'
p2995
(dp2996
g297
(dp2997
g961
S'teach_views_summaries_top_answered_questions_summary_view.html'
p2998
sg963
S'teach/views/summaries/top_answered_questions_summary_view'
p2999
sg965
g13
(g14
g15
NtRp3000
(dp3001
g18
I1
sg19
I34
sg20
I76
sg21
I0
sg22
I0
sg23
I53
sg24
I34
sbssg303
S'\xbc\x89\xf0k\xe5m.\xda\t/\xf7ZE\x07\xff\x00'
p3002
ssS'user_system_models_apps___init__'
p3003
(dp3004
g42
(dp3005
g447
S'user_system_models_apps___init__.html'
p3006
sg449
S'user_system/models/apps/__init__'
p3007
sg451
g13
(g14
g15
NtRp3008
(dp3009
g18
I1
sg19
I0
sg20
I1
sg21
I0
sg22
I0
sg23
I0
sg24
I0
sbssg51
S'\n\xe9\xce\x15)\x8d\xc6\xdd\xe0\x9b\x990[\xae\x8cl'
p3010
ssS'create_views_books_book_view'
p3011
(dp3012
g352
(dp3013
g8
S'create_views_books_book_view.html'
p3014
sg10
S'create/views/books/book_view'
p3015
sg12
g13
(g14
g15
NtRp3016
(dp3017
g18
I1
sg19
I34
sg20
I124
sg21
I0
sg22
I3
sg23
I8
sg24
I5
sbssg358
S'%\x96\xb2\x15\x98\xef\x0fL\xc0&\xf9\x18\x91-\xb28'
p3018
ssS'create_models_quests___init__'
p3019
(dp3020
g103
(dp3021
g617
S'create_models_quests___init__.html'
p3022
sg619
S'create/models/quests/__init__'
p3023
sg621
g13
(g14
g15
NtRp3024
(dp3025
g18
I1
sg19
I0
sg20
I2
sg21
I0
sg22
I0
sg23
I0
sg24
I0
sbssg112
S'\x1e\x87\x83\xe2\x04\x1d\xcd:`\x99V\x85#\xca\x12^'
p3026
ssS'privilege_serializers_privileges_privilege_serializer'
p3027
(dp3028
g287
(dp3029
g93
S'privilege_serializers_privileges_privilege_serializer.html'
p3030
sg95
S'privilege/serializers/privileges/privilege_serializer'
p3031
sg97
g13
(g14
g15
NtRp3032
(dp3033
g18
I1
sg19
I0
sg20
I7
sg21
I0
sg22
I0
sg23
I0
sg24
I0
sbssg293
S'?v\x87\xf3\x00\x8cw`\xd8\x0b\xeb\x98\x18\xbd\x1dR'
p3034
ssS'user_system_views_signups_hardcoded_tests_test_test_account_view'
p3035
(dp3036
g42
(dp3037
g44
S'user_system_views_signups_hardcoded_tests_test_test_account_view.html'
p3038
sg46
S'user_system/views/signups/hardcoded/tests/test_test_account_view'
p3039
sg48
g13
(g14
g15
NtRp3040
(dp3041
g18
I1
sg19
I0
sg20
I24
sg21
I0
sg22
I0
sg23
I0
sg24
I0
sbssg51
S'@\xc3::\xf8h\x1aT\x9f\x83\xee1\xb7\x9a\xe0\xf9'
p3042
ssS'create_models_tags_concept_model'
p3043
(dp3044
g386
(dp3045
g44
S'create_models_tags_concept_model.html'
p3046
sg46
S'create/models/tags/concept_model'
p3047
sg48
g13
(g14
g15
NtRp3048
(dp3049
g18
I1
sg19
I0
sg20
I10
sg21
I0
sg22
I0
sg23
I0
sg24
I0
sbssg392
S'@vb\xbd\xcay\xb1b\x9e\xaf\xc0v/\xd6\x13\xd3'
p3050
ssS'create_models_tags_tests___init__'
p3051
(dp3052
g386
(dp3053
S'html_filename'
p3054
S'create_models_tags_tests___init__.html'
p3055
sS'name'
p3056
S'create/models/tags/tests/__init__'
p3057
sS'nums'
p3058
g13
(g14
g15
NtRp3059
(dp3060
g18
I1
sg19
I0
sg20
I1
sg21
I0
sg22
I0
sg23
I0
sg24
I0
sbssg392
S'\xbc\xd6\xeb\xb3\xba\xcaz\xf7{\xd4B\xb5}l\xdf\x96'
p3061
ssS'learn_admin'
p3062
(dp3063
g55
(dp3064
g177
S'learn_admin.html'
p3065
sg179
S'learn/admin'
p3066
sg181
g13
(g14
g15
NtRp3067
(dp3068
g18
I1
sg19
I0
sg20
I6
sg21
I0
sg22
I0
sg23
I0
sg24
I0
sbssg64
S'\x01\xff=[_\x13,\xf8ES\x17G)\x1e\xfb\x10'
p3069
ssS'user_system_models_schools_classroom_model'
p3070
(dp3071
g232
(dp3072
g177
S'user_system_models_schools_classroom_model.html'
p3073
sg179
S'user_system/models/schools/classroom_model'
p3074
sg181
g13
(g14
g15
NtRp3075
(dp3076
g18
I1
sg19
I2
sg20
I24
sg21
I0
sg22
I0
sg23
I0
sg24
I0
sbssg238
S'\xb4}\xd2\xf3\xe4P\x96mC/hd\x0c\x17\x97m'
p3077
ssS'user_system_models_schools_semester_model'
p3078
(dp3079
g206
(dp3080
g334
S'user_system_models_schools_semester_model.html'
p3081
sg336
S'user_system/models/schools/semester_model'
p3082
sg338
g13
(g14
g15
NtRp3083
(dp3084
g18
I1
sg19
I0
sg20
I23
sg21
I0
sg22
I0
sg23
I0
sg24
I0
sbssg215
S'\x9f&7d<%\x13 \xcaht\xc4\xd4N\xee&'
p3085
ssS'create_views_daily_quest_copies_daily_quest_copy_view'
p3086
(dp3087
g417
(dp3088
g1518
S'create_views_daily_quest_copies_daily_quest_copy_view.html'
p3089
sg1520
S'create/views/daily_quest_copies/daily_quest_copy_view'
p3090
sg1522
g13
(g14
g15
NtRp3091
(dp3092
g18
I1
sg19
I0
sg20
I14
sg21
I0
sg22
I0
sg23
I0
sg24
I0
sbssg426
S'?\x95&\\\xae\xf0@\xfc\x96\xc15\xc9\x13\xf6_R'
p3093
ssS'flipped_helpers_parameters_helper'
p3094
(dp3095
g42
(dp3096
g31
S'flipped_helpers_parameters_helper.html'
p3097
sg33
S'flipped/helpers/parameters_helper'
p3098
sg35
g13
(g14
g15
NtRp3099
(dp3100
g18
I1
sg19
I14
sg20
I22
sg21
I0
sg22
I1
sg23
I4
sg24
I3
sbssg51
S'v\xe1\xf5\xb3r\x1f\xae\xee\x872U\xa1I\xf8\xef\x00'
p3101
ssS'user_system_models___init__'
p3102
(dp3103
g42
(dp3104
g2808
S'user_system_models___init__.html'
p3105
sg2810
S'user_system/models/__init__'
p3106
sg2812
g13
(g14
g15
NtRp3107
(dp3108
g18
I1
sg19
I0
sg20
I4
sg21
I0
sg22
I0
sg23
I0
sg24
I0
sbssg51
S"\xe9'\xed1xn\xd7\xe4\x91\x8ei\xc0\x0f\x1b\x9eY"
p3109
ssS'create_models_questions_tests_test_question_model'
p3110
(dp3111
g42
(dp3112
g1211
S'create_models_questions_tests_test_question_model.html'
p3113
sg1213
S'create/models/questions/tests/test_question_model'
p3114
sg1215
g13
(g14
g15
NtRp3115
(dp3116
g18
I1
sg19
I8
sg20
I58
sg21
I0
sg22
I0
sg23
I0
sg24
I0
sbssg51
S'l\x9e\xee!<,L\xbf\xa0\xe6\r\xd7W\xc9tu'
p3117
ssS'user_system_models_users_tests_test_user_profile_history_model'
p3118
(dp3119
g116
(dp3120
g31
S'user_system_models_users_tests_test_user_profile_history_model.html'
p3121
sg33
S'user_system/models/users/tests/test_user_profile_history_model'
p3122
sg35
g13
(g14
g15
NtRp3123
(dp3124
g18
I1
sg19
I0
sg20
I54
sg21
I0
sg22
I0
sg23
I0
sg24
I0
sbssg122
S'<IT\xa7\x05\xe0ML\xb0gu{\xd2>\xc8$'
p3125
ssS'create_models_question_datasets_question_dataset_model'
p3126
(dp3127
g144
(dp3128
g146
S'create_models_question_datasets_question_dataset_model.html'
p3129
sg148
S'create/models/question_datasets/question_dataset_model'
p3130
sg150
g13
(g14
g15
NtRp3131
(dp3132
g18
I1
sg19
I0
sg20
I25
sg21
I0
sg22
I0
sg23
I0
sg24
I0
sbssg153
S'\x9e\x8d\xc6\xe6\xe4\x9f#\xfdc\xc9q\r\x17Y\x8e\xb1'
p3133
ssS'create_serializers_questions___init__'
p3134
(dp3135
g42
(dp3136
g177
S'create_serializers_questions___init__.html'
p3137
sg179
S'create/serializers/questions/__init__'
p3138
sg181
g13
(g14
g15
NtRp3139
(dp3140
g18
I1
sg19
I0
sg20
I5
sg21
I0
sg22
I0
sg23
I0
sg24
I0
sbssg51
S'\xe6(4O\xf6\xd4\xe4\x154\xe9\xa1;\x0cD\x90\t'
p3141
ssS'user_system_views_signups_hardcoded_tests___init__'
p3142
(dp3143
g42
(dp3144
g447
S'user_system_views_signups_hardcoded_tests___init__.html'
p3145
sg449
S'user_system/views/signups/hardcoded/tests/__init__'
p3146
sg451
g13
(g14
g15
NtRp3147
(dp3148
g18
I1
sg19
I0
sg20
I0
sg21
I0
sg22
I0
sg23
I0
sg24
I0
sbssg51
S'\x19g\xdfM\x1a\x019\xaf\x1baIeR\xe5u\xa7'
p3149
ssS'create_serializers_questions_question_serializer'
p3150
(dp3151
g42
(dp3152
g93
S'create_serializers_questions_question_serializer.html'
p3153
sg95
S'create/serializers/questions/question_serializer'
p3154
sg97
g13
(g14
g15
NtRp3155
(dp3156
g18
I1
sg19
I0
sg20
I59
sg21
I0
sg22
I0
sg23
I11
sg24
I0
sbssg51
S'\xd6f\xc4\xe6\x97\xe4~\xa4n\xcc+|\xcc\xdayh'
p3157
ssS'user_system_views___init__'
p3158
(dp3159
g42
(dp3160
g31
S'user_system_views___init__.html'
p3161
sg33
S'user_system/views/__init__'
p3162
sg35
g13
(g14
g15
NtRp3163
(dp3164
g18
I1
sg19
I0
sg20
I5
sg21
I0
sg22
I0
sg23
I0
sg24
I0
sbssg51
S'&v35\x98Nv\xc2>un\xb1\x9a\x93\xd2\xea'
p3165
ssS'user_system_views_users_user_profile_update_request_view'
p3166
(dp3167
g116
(dp3168
S'html_filename'
p3169
S'user_system_views_users_user_profile_update_request_view.html'
p3170
sS'name'
p3171
S'user_system/views/users/user_profile_update_request_view'
p3172
sS'nums'
p3173
g13
(g14
g15
NtRp3174
(dp3175
g18
I1
sg19
I24
sg20
I70
sg21
I0
sg22
I0
sg23
I51
sg24
I24
sbssg122
S"\x04\xfd\x81?\x1e<^\xb0%\xad\xa6'\xcf\xa1\xc3)"
p3176
ssS'user_system_models_roles_role_model'
p3177
(dp3178
g42
(dp3179
g44
S'user_system_models_roles_role_model.html'
p3180
sg46
S'user_system/models/roles/role_model'
p3181
sg48
g13
(g14
g15
NtRp3182
(dp3183
g18
I1
sg19
I0
sg20
I16
sg21
I0
sg22
I0
sg23
I0
sg24
I0
sbssg51
S'\x180j\xc8\x05 \xa05\xa7\xffj\x1dJ\x8a6\xcb'
p3184
ssS'user_system_views_roles_user_role_view'
p3185
(dp3186
g42
(dp3187
g44
S'user_system_views_roles_user_role_view.html'
p3188
sg46
S'user_system/views/roles/user_role_view'
p3189
sg48
g13
(g14
g15
NtRp3190
(dp3191
g18
I1
sg19
I8
sg20
I31
sg21
I0
sg22
I0
sg23
I0
sg24
I0
sbssg51
S'S@\xea\xb7\xd6\xe1\x1b\x1dU\x18a\x9d\x80\xe3A\xb9'
p3192
ssS'create_models_questions_tests_test_question_history_remark_model'
p3193
(dp3194
g587
(dp3195
g589
S'create_models_questions_tests_test_question_history_remark_model.html'
p3196
sg591
S'create/models/questions/tests/test_question_history_remark_model'
p3197
sg593
g13
(g14
g15
NtRp3198
(dp3199
g18
I1
sg19
I0
sg20
I30
sg21
I0
sg22
I0
sg23
I0
sg24
I0
sbssg596
S'K>pG_\xbd\x15\x8b\xd8\x05\xd4\x15\xb3\x9b\xcaP'
p3200
ssS'api_logging_serializers___init__'
p3201
(dp3202
g297
(dp3203
g177
S'api_logging_serializers___init__.html'
p3204
sg179
S'api_logging/serializers/__init__'
p3205
sg181
g13
(g14
g15
NtRp3206
(dp3207
g18
I1
sg19
I0
sg20
I2
sg21
I0
sg22
I0
sg23
I0
sg24
I0
sbssg303
S'\x02\xac\xc4\x02\x172\x90\xf3=\xcb\x89>\x99\xbc\x19\xd9'
p3208
ssS'user_system_models_users_tests_test_user_facebook_model'
p3209
(dp3210
g42
(dp3211
g44
S'user_system_models_users_tests_test_user_facebook_model.html'
p3212
sg46
S'user_system/models/users/tests/test_user_facebook_model'
p3213
sg48
g13
(g14
g15
NtRp3214
(dp3215
g18
I1
sg19
I0
sg20
I29
sg21
I0
sg22
I0
sg23
I0
sg24
I0
sbssg51
S'B\xac\x06Z\x1f7\xba2\x81\xd7\xb4\x17\xaf\x84u+'
p3216
ssS'user_system_models_users_user_credentials_model'
p3217
(dp3218
S'index'
p3219
(dp3220
g2054
S'user_system_models_users_user_credentials_model.html'
p3221
sg2056
S'user_system/models/users/user_credentials_model'
p3222
sg2058
g13
(g14
g15
NtRp3223
(dp3224
g18
I1
sg19
I0
sg20
I7
sg21
I0
sg22
I0
sg23
I0
sg24
I0
sbssS'hash'
p3225
S'g\x10U/\x1f\x83\x0bO\x95o\x9c9\xefV\x81\x8e'
p3226
ssS'create_serializers_books___init__'
p3227
(dp3228
g352
(dp3229
g780
S'create_serializers_books___init__.html'
p3230
sg782
S'create/serializers/books/__init__'
p3231
sg784
g13
(g14
g15
NtRp3232
(dp3233
g18
I1
sg19
I0
sg20
I0
sg21
I0
sg22
I0
sg23
I0
sg24
I0
sbssg358
S'\x19g\xdfM\x1a\x019\xaf\x1baIeR\xe5u\xa7'
p3234
ssS'create_models_questions_tests_test_question_template_model'
p3235
(dp3236
g103
(dp3237
g999
S'create_models_questions_tests_test_question_template_model.html'
p3238
sg1001
S'create/models/questions/tests/test_question_template_model'
p3239
sg1003
g13
(g14
g15
NtRp3240
(dp3241
g18
I1
sg19
I8
sg20
I74
sg21
I0
sg22
I0
sg23
I0
sg24
I0
sbssg112
S"~\xca\x9c'\x89\x11\x82V\xb3v\x0c4]\x9c\xce4"
p3242
ssS'create_views_quests_tests_test_add_question_template_view'
p3243
(dp3244
g6
(dp3245
g8
S'create_views_quests_tests_test_add_question_template_view.html'
p3246
sg10
S'create/views/quests/tests/test_add_question_template_view'
p3247
sg12
g13
(g14
g15
NtRp3248
(dp3249
g18
I1
sg19
I0
sg20
I0
sg21
I0
sg22
I0
sg23
I0
sg24
I0
sbssg25
S'\x19g\xdfM\x1a\x019\xaf\x1baIeR\xe5u\xa7'
p3250
ssS'learn_models_points_tests___init__'
p3251
(dp3252
g297
(dp3253
g177
S'learn_models_points_tests___init__.html'
p3254
sg179
S'learn/models/points/tests/__init__'
p3255
sg181
g13
(g14
g15
NtRp3256
(dp3257
g18
I1
sg19
I0
sg20
I1
sg21
I0
sg22
I0
sg23
I0
sg24
I0
sbssg303
S'\xbc\xd6\xeb\xb3\xba\xcaz\xf7{\xd4B\xb5}l\xdf\x96'
p3258
ssS'create_views_tags_tests_test_hide_tag_view'
p3259
(dp3260
g694
(dp3261
g44
S'create_views_tags_tests_test_hide_tag_view.html'
p3262
sg46
S'create/views/tags/tests/test_hide_tag_view'
p3263
sg48
g13
(g14
g15
NtRp3264
(dp3265
g18
I1
sg19
I0
sg20
I25
sg21
I0
sg22
I0
sg23
I0
sg24
I0
sbssg700
S'\x8a\x07\xe0\xe1Q\x820\x05R\x14E\xd0\xdf\x8e\xc5\x8a'
p3266
ssS'learn_views_daily_quests___init__'
p3267
(dp3268
g55
(dp3269
g57
S'learn_views_daily_quests___init__.html'
p3270
sg59
S'learn/views/daily_quests/__init__'
p3271
sg61
g13
(g14
g15
NtRp3272
(dp3273
g18
I1
sg19
I0
sg20
I1
sg21
I0
sg22
I0
sg23
I0
sg24
I0
sbssg64
S'\xa3\x08\xf3\xbaF\xd5u\x88\x12\xa3V\x05K\xe5\xd0\xa9'
p3274
ssS'create_views_books_tests___init__'
p3275
(dp3276
g942
(dp3277
S'html_filename'
p3278
S'create_views_books_tests___init__.html'
p3279
sS'name'
p3280
S'create/views/books/tests/__init__'
p3281
sS'nums'
p3282
g13
(g14
g15
NtRp3283
(dp3284
g18
I1
sg19
I0
sg20
I0
sg21
I0
sg22
I0
sg23
I0
sg24
I0
sbssg948
S'\x19g\xdfM\x1a\x019\xaf\x1baIeR\xe5u\xa7'
p3285
ssS'user_system_models_users_tests_test_user_streak_history_model'
p3286
(dp3287
S'index'
p3288
(dp3289
g1246
S'user_system_models_users_tests_test_user_streak_history_model.html'
p3290
sg1248
S'user_system/models/users/tests/test_user_streak_history_model'
p3291
sg1250
g13
(g14
g15
NtRp3292
(dp3293
g18
I1
sg19
I0
sg20
I19
sg21
I0
sg22
I0
sg23
I0
sg24
I0
sbssS'hash'
p3294
S'\xc7I1\x11\xc9\xbf7\xee\x1c\x16@\x10JP\xaf\xfc'
p3295
sssS'version'
p3296
S'3.7.1'
p3297
sS'settings'
p3298
S'\x961E{\x0c29\xd1#\x83\xd3j9"\xd8\x10'
p3299
sS'format'
p3300
I1
s.