(dp1
S'files'
p2
(dp3
S'create_views_quests_tests_test_add_tag_view'
p4
(dp5
S'index'
p6
(dp7
S'html_filename'
p8
S'create_views_quests_tests_test_add_tag_view.html'
p9
sS'name'
p10
S'create/views/quests/tests/test_add_tag_view'
p11
sS'nums'
p12
ccopy_reg
_reconstructor
p13
(ccoverage.results
Numbers
p14
c__builtin__
object
p15
NtRp16
(dp17
S'n_files'
p18
I1
sS'n_branches'
p19
I0
sS'n_statements'
p20
I35
sS'n_excluded'
p21
I0
sS'n_partial_branches'
p22
I0
sS'n_missing'
p23
I0
sS'n_missing_branches'
p24
I0
sbssS'hash'
p25
S'o\xbe\xf1\xf9\x80\xe5|\xbab\xcc\xe2F=\x1e\xacp'
p26
ssS'teach_views_daily_quest_templates___init__'
p27
(dp28
S'index'
p29
(dp30
S'html_filename'
p31
S'teach_views_daily_quest_templates___init__.html'
p32
sS'name'
p33
S'teach/views/daily_quest_templates/__init__'
p34
sS'nums'
p35
g13
(g14
g15
NtRp36
(dp37
g18
I1
sg19
I0
sg20
I1
sg21
I0
sg22
I0
sg23
I0
sg24
I0
sbssS'hash'
p38
S'\xc1b\x1f\x95\xabR`C\xe80\xb9tNC\r3'
p39
ssS'create_models_questions_tests_test_question_type_model'
p40
(dp41
S'index'
p42
(dp43
S'html_filename'
p44
S'create_models_questions_tests_test_question_type_model.html'
p45
sS'name'
p46
S'create/models/questions/tests/test_question_type_model'
p47
sS'nums'
p48
g13
(g14
g15
NtRp49
(dp50
g18
I1
sg19
I0
sg20
I17
sg21
I0
sg22
I0
sg23
I0
sg24
I0
sbssS'hash'
p51
S'e\x1b\x19\xbb)\x89\xff\xfa\xe5\xca\xde\x08\x08CUL'
p52
ssS'create_models_books_book_history_model'
p53
(dp54
S'index'
p55
(dp56
S'html_filename'
p57
S'create_models_books_book_history_model.html'
p58
sS'name'
p59
S'create/models/books/book_history_model'
p60
sS'nums'
p61
g13
(g14
g15
NtRp62
(dp63
g18
I1
sg19
I4
sg20
I43
sg21
I0
sg22
I1
sg23
I0
sg24
I1
sbssS'hash'
p64
S'\xd71\x9e\xd0\x9bqR\xb9(!\x9f2\x10O|\xeb'
p65
ssS'teach_models___init__'
p66
(dp67
g29
(dp68
S'html_filename'
p69
S'teach_models___init__.html'
p70
sS'name'
p71
S'teach/models/__init__'
p72
sS'nums'
p73
g13
(g14
g15
NtRp74
(dp75
g18
I1
sg19
I0
sg20
I4
sg21
I0
sg22
I0
sg23
I0
sg24
I0
sbssg38
S'\x18\xb4\x9a\xf6\x89\xe4oR\x81\xdbb\xf7E\xf9\x92\xb7'
p76
ssS'create_models_tags_skill_model'
p77
(dp78
S'index'
p79
(dp80
g44
S'create_models_tags_skill_model.html'
p81
sg46
S'create/models/tags/skill_model'
p82
sg48
g13
(g14
g15
NtRp83
(dp84
g18
I1
sg19
I0
sg20
I10
sg21
I0
sg22
I0
sg23
I0
sg24
I0
sbssS'hash'
p85
S'B&\x06S\xb6\x85A\xdbx\xd4\xc7#]\x13\xe1\xca'
p86
ssS'learn_tests'
p87
(dp88
g29
(dp89
g31
S'learn_tests.html'
p90
sg33
S'learn/tests'
p91
sg35
g13
(g14
g15
NtRp92
(dp93
g18
I1
sg19
I0
sg20
I1
sg21
I0
sg22
I0
sg23
I0
sg24
I0
sbssg38
S'\xe3\x7f\x86\xaa\x99\xac\xc8\x80\xdblE4\x0f\xe7\x1d\xfc'
p94
ssS'user_system_models_users_teacher_profile_model'
p95
(dp96
S'index'
p97
(dp98
g69
S'user_system_models_users_teacher_profile_model.html'
p99
sg71
S'user_system/models/users/teacher_profile_model'
p100
sg73
g13
(g14
g15
NtRp101
(dp102
g18
I1
sg19
I0
sg20
I27
sg21
I0
sg22
I0
sg23
I0
sg24
I0
sbssS'hash'
p103
S'x\x9e\x06\xe6\x8d\x87\xed\xaf\x91\x87\x16\xfc"\x96\xf2\xfc'
p104
ssS'teach_models_teacher_chapters_tests___init__'
p105
(dp106
g29
(dp107
g31
S'teach_models_teacher_chapters_tests___init__.html'
p108
sg33
S'teach/models/teacher_chapters/tests/__init__'
p109
sg35
g13
(g14
g15
NtRp110
(dp111
g18
I1
sg19
I0
sg20
I0
sg21
I0
sg22
I0
sg23
I0
sg24
I0
sbssg38
S'\x19g\xdfM\x1a\x019\xaf\x1baIeR\xe5u\xa7'
p112
ssS'create_views_quests_tests_test_remove_tag_view'
p113
(dp114
g6
(dp115
g8
S'create_views_quests_tests_test_remove_tag_view.html'
p116
sg10
S'create/views/quests/tests/test_remove_tag_view'
p117
sg12
g13
(g14
g15
NtRp118
(dp119
g18
I1
sg19
I0
sg20
I0
sg21
I0
sg22
I0
sg23
I0
sg24
I0
sbssg25
S'\x19g\xdfM\x1a\x019\xaf\x1baIeR\xe5u\xa7'
p120
ssS'create_models_books_book_model'
p121
(dp122
g55
(dp123
S'html_filename'
p124
S'create_models_books_book_model.html'
p125
sS'name'
p126
S'create/models/books/book_model'
p127
sS'nums'
p128
g13
(g14
g15
NtRp129
(dp130
g18
I1
sg19
I4
sg20
I37
sg21
I0
sg22
I0
sg23
I0
sg24
I0
sbssg64
S'Z\x88%\xfa\x8c7\x1e\xf9\x06qW\x80O\xe1\x85.'
p131
ssS'user_system_views_signups_facebook_signup_view'
p132
(dp133
g42
(dp134
g44
S'user_system_views_signups_facebook_signup_view.html'
p135
sg46
S'user_system/views/signups/facebook_signup_view'
p136
sg48
g13
(g14
g15
NtRp137
(dp138
g18
I1
sg19
I8
sg20
I38
sg21
I0
sg22
I0
sg23
I0
sg24
I0
sbssg51
S'\x04E\'\x17r8\x14\xf6 \x98\xb5\xa0sx"@'
p139
ssS'user_system_views_logins_tests_test_email_login_view'
p140
(dp141
g42
(dp142
g44
S'user_system_views_logins_tests_test_email_login_view.html'
p143
sg46
S'user_system/views/logins/tests/test_email_login_view'
p144
sg48
g13
(g14
g15
NtRp145
(dp146
g18
I1
sg19
I0
sg20
I61
sg21
I0
sg22
I0
sg23
I0
sg24
I0
sbssg51
S'\x926\xe8\xcdL\xf3U\xc1C\x1b\x0f\xaf\xf0c\x9b\xd0'
p147
ssS'teach_admin'
p148
(dp149
g29
(dp150
g69
S'teach_admin.html'
p151
sg71
S'teach/admin'
p152
sg73
g13
(g14
g15
NtRp153
(dp154
g18
I1
sg19
I0
sg20
I5
sg21
I0
sg22
I0
sg23
I0
sg24
I0
sbssg38
S'\x84\x19s\xc7w\xb0\x9e\xbd\xc9qmM}bz\xe4'
p155
ssS'create_views_books_book_chapter_view'
p156
(dp157
S'index'
p158
(dp159
g69
S'create_views_books_book_chapter_view.html'
p160
sg71
S'create/views/books/book_chapter_view'
p161
sg73
g13
(g14
g15
NtRp162
(dp163
g18
I1
sg19
I10
sg20
I43
sg21
I0
sg22
I0
sg23
I21
sg24
I10
sbssS'hash'
p164
S'{\x1e\xd5Wl\xad\x0e\\\xea\x90\xbc\xd2^\xf3\xee\xe4'
p165
ssS'api_logging___init__'
p166
(dp167
g158
(dp168
S'html_filename'
p169
S'api_logging___init__.html'
p170
sS'name'
p171
S'api_logging/__init__'
p172
sS'nums'
p173
g13
(g14
g15
NtRp174
(dp175
g18
I1
sg19
I0
sg20
I0
sg21
I0
sg22
I0
sg23
I0
sg24
I0
sbssg164
S'\x19g\xdfM\x1a\x019\xaf\x1baIeR\xe5u\xa7'
p176
ssS'teach_models_teacher_tags___init__'
p177
(dp178
g29
(dp179
g31
S'teach_models_teacher_tags___init__.html'
p180
sg33
S'teach/models/teacher_tags/__init__'
p181
sg35
g13
(g14
g15
NtRp182
(dp183
g18
I1
sg19
I0
sg20
I1
sg21
I0
sg22
I0
sg23
I0
sg24
I0
sbssg38
S"\x15#y\x16\x1a\x9d\xc6mE\xccg]\x07\xb9'\xe0"
p184
ssS'user_system_models_users_user_facebook_model'
p185
(dp186
g42
(dp187
g44
S'user_system_models_users_user_facebook_model.html'
p188
sg46
S'user_system/models/users/user_facebook_model'
p189
sg48
g13
(g14
g15
NtRp190
(dp191
g18
I1
sg19
I0
sg20
I22
sg21
I0
sg22
I0
sg23
I0
sg24
I0
sbssg51
S'!d\xff\xbcl0O(`\x1b1\xf7\xb3*{X'
p192
ssS'create_models_books___init__'
p193
(dp194
g55
(dp195
S'html_filename'
p196
S'create_models_books___init__.html'
p197
sS'name'
p198
S'create/models/books/__init__'
p199
sS'nums'
p200
g13
(g14
g15
NtRp201
(dp202
g18
I1
sg19
I0
sg20
I4
sg21
I0
sg22
I0
sg23
I0
sg24
I0
sbssg64
S'\xba\x14\x87u\xc0\x80\x96\x82s\x8d\x8bU)\x1c\xc3\x91'
p203
ssS'create_views___init__'
p204
(dp205
g42
(dp206
g31
S'create_views___init__.html'
p207
sg33
S'create/views/__init__'
p208
sg35
g13
(g14
g15
NtRp209
(dp210
g18
I1
sg19
I0
sg20
I7
sg21
I0
sg22
I0
sg23
I0
sg24
I0
sbssg51
S'\x8f\x98\x9b$~\xde\xc2\xfc\x97/\x14^\xe8\xf8\x10M'
p211
ssS'create_views_books_tests_test_remove_chapter_view'
p212
(dp213
S'index'
p214
(dp215
g44
S'create_views_books_tests_test_remove_chapter_view.html'
p216
sg46
S'create/views/books/tests/test_remove_chapter_view'
p217
sg48
g13
(g14
g15
NtRp218
(dp219
g18
I1
sg19
I0
sg20
I39
sg21
I0
sg22
I0
sg23
I0
sg24
I0
sbssS'hash'
p220
S'lJ\xdc\xbe\xe2>\x9d\xde\xb5+ia5;\x042'
p221
ssS'create_models_quests_tests_test_quest_model'
p222
(dp223
S'index'
p224
(dp225
S'html_filename'
p226
S'create_models_quests_tests_test_quest_model.html'
p227
sS'name'
p228
S'create/models/quests/tests/test_quest_model'
p229
sS'nums'
p230
g13
(g14
g15
NtRp231
(dp232
g18
I1
sg19
I4
sg20
I48
sg21
I0
sg22
I0
sg23
I0
sg24
I0
sbssS'hash'
p233
S'\xcdF\x98\xd0k\x14\x9e\xe4\x90\x96\x03\xddNdiH'
p234
ssS'user_system_serializers_users_student_profile_serializer'
p235
(dp236
S'index'
p237
(dp238
S'html_filename'
p239
S'user_system_serializers_users_student_profile_serializer.html'
p240
sS'name'
p241
S'user_system/serializers/users/student_profile_serializer'
p242
sS'nums'
p243
g13
(g14
g15
NtRp244
(dp245
g18
I1
sg19
I0
sg20
I10
sg21
I0
sg22
I0
sg23
I0
sg24
I0
sbssS'hash'
p246
S'\xb4\n*\x1b\x86\xd1\\\xa2k\xeb\xd8\xeaW\x0c\xd8x'
p247
ssS'user_system_models_users_user_profile_history_model'
p248
(dp249
g237
(dp250
g69
S'user_system_models_users_user_profile_history_model.html'
p251
sg71
S'user_system/models/users/user_profile_history_model'
p252
sg73
g13
(g14
g15
NtRp253
(dp254
g18
I1
sg19
I4
sg20
I72
sg21
I0
sg22
I2
sg23
I12
sg24
I2
sbssg246
S'\x9a\x0c\xe2p\x8b\xee\x01\x87\xfd\x81\xb4\x9bzp\x90\xb6'
p255
ssS'teach_models_teacher_chapters___init__'
p256
(dp257
g29
(dp258
g31
S'teach_models_teacher_chapters___init__.html'
p259
sg33
S'teach/models/teacher_chapters/__init__'
p260
sg35
g13
(g14
g15
NtRp261
(dp262
g18
I1
sg19
I0
sg20
I1
sg21
I0
sg22
I0
sg23
I0
sg24
I0
sbssg38
S'\xfa\xce(\x03\x8d\xd7\xc1h\xedT\xf9d\xae\x03w^'
p263
ssS'create_serializers_books_book_chapter_serializer'
p264
(dp265
g55
(dp266
g31
S'create_serializers_books_book_chapter_serializer.html'
p267
sg33
S'create/serializers/books/book_chapter_serializer'
p268
sg35
g13
(g14
g15
NtRp269
(dp270
g18
I1
sg19
I0
sg20
I23
sg21
I0
sg22
I0
sg23
I3
sg24
I0
sbssg64
S'\xf1~, f\x89\xad\xc8p\xcc\xd4E_\x0b3\x06'
p271
ssS'create_models_question_datasets___init__'
p272
(dp273
S'index'
p274
(dp275
S'html_filename'
p276
S'create_models_question_datasets___init__.html'
p277
sS'name'
p278
S'create/models/question_datasets/__init__'
p279
sS'nums'
p280
g13
(g14
g15
NtRp281
(dp282
g18
I1
sg19
I0
sg20
I1
sg21
I0
sg22
I0
sg23
I0
sg24
I0
sbssS'hash'
p283
S'\xeb\xb7>&t\x02-\xeaaJ,\x8a\xae\xc3\x1a]'
p284
ssS'flipped_helpers_errors_helper'
p285
(dp286
g42
(dp287
g44
S'flipped_helpers_errors_helper.html'
p288
sg46
S'flipped/helpers/errors_helper'
p289
sg48
g13
(g14
g15
NtRp290
(dp291
g18
I1
sg19
I0
sg20
I5
sg21
I0
sg22
I0
sg23
I0
sg24
I0
sbssg51
S'\x91\x04\x1c\xf86c\xad\xf7\xe3\xf13\xf5n8eP'
p292
ssS'create_models_daily_quest_copies_tests_test_daily_quest_copy_model'
p293
(dp294
S'index'
p295
(dp296
g226
S'create_models_daily_quest_copies_tests_test_daily_quest_copy_model.html'
p297
sg228
S'create/models/daily_quest_copies/tests/test_daily_quest_copy_model'
p298
sg230
g13
(g14
g15
NtRp299
(dp300
g18
I1
sg19
I4
sg20
I45
sg21
I0
sg22
I0
sg23
I0
sg24
I0
sbssS'hash'
p301
S'\xcd\xeeU\x8a\xd7\x95\x9e5E\xd0\xaf\xd07\x80\x85\xe0'
p302
ssS'user_system_views_roles_tests___init__'
p303
(dp304
g42
(dp305
S'html_filename'
p306
S'user_system_views_roles_tests___init__.html'
p307
sS'name'
p308
S'user_system/views/roles/tests/__init__'
p309
sS'nums'
p310
g13
(g14
g15
NtRp311
(dp312
g18
I1
sg19
I0
sg20
I0
sg21
I0
sg22
I0
sg23
I0
sg24
I0
sbssg51
S'\x19g\xdfM\x1a\x019\xaf\x1baIeR\xe5u\xa7'
p313
ssS'teach_views_daily_quest_templates_daily_quest_template_view'
p314
(dp315
g29
(dp316
g69
S'teach_views_daily_quest_templates_daily_quest_template_view.html'
p317
sg71
S'teach/views/daily_quest_templates/daily_quest_template_view'
p318
sg73
g13
(g14
g15
NtRp319
(dp320
g18
I1
sg19
I18
sg20
I53
sg21
I0
sg22
I0
sg23
I33
sg24
I18
sbssg38
S'\xe5\xdd\xf1\x8c\xeb\x9a\xb0IQ\x80\x1cj\xa1\x91\x0e\x1e'
p321
ssS'create_models_questions_tests_test_question_history_model'
p322
(dp323
g42
(dp324
S'html_filename'
p325
S'create_models_questions_tests_test_question_history_model.html'
p326
sS'name'
p327
S'create/models/questions/tests/test_question_history_model'
p328
sS'nums'
p329
g13
(g14
g15
NtRp330
(dp331
g18
I1
sg19
I2
sg20
I72
sg21
I0
sg22
I0
sg23
I0
sg24
I0
sbssg51
S'\xb2\xa8aE\x19\x00\x1bD8\x80g\n\x1a\x91o\xaa'
p332
ssS'user_system_views_logins_facebook_login_view'
p333
(dp334
g42
(dp335
g44
S'user_system_views_logins_facebook_login_view.html'
p336
sg46
S'user_system/views/logins/facebook_login_view'
p337
sg48
g13
(g14
g15
NtRp338
(dp339
g18
I1
sg19
I4
sg20
I24
sg21
I0
sg22
I0
sg23
I0
sg24
I0
sbssg51
S',\xf8~\x8d\x9b\xfe\xa6wQ5\x92t\x15\xe5\x95\x8d'
p340
ssS'user_system_models_apps_app_model'
p341
(dp342
g42
(dp343
g44
S'user_system_models_apps_app_model.html'
p344
sg46
S'user_system/models/apps/app_model'
p345
sg48
g13
(g14
g15
NtRp346
(dp347
g18
I1
sg19
I0
sg20
I16
sg21
I0
sg22
I0
sg23
I0
sg24
I0
sbssg51
S',\x89\x9d;<\xa3\xdc\x92@\xa5\x9c\x7fcg\x05?'
p348
ssS'user_system_views_users_tests___init__'
p349
(dp350
g42
(dp351
g306
S'user_system_views_users_tests___init__.html'
p352
sg308
S'user_system/views/users/tests/__init__'
p353
sg310
g13
(g14
g15
NtRp354
(dp355
g18
I1
sg19
I0
sg20
I0
sg21
I0
sg22
I0
sg23
I0
sg24
I0
sbssg51
S'\x19g\xdfM\x1a\x019\xaf\x1baIeR\xe5u\xa7'
p356
ssS'create_models_tags_tests_test_skill_model'
p357
(dp358
g79
(dp359
g44
S'create_models_tags_tests_test_skill_model.html'
p360
sg46
S'create/models/tags/tests/test_skill_model'
p361
sg48
g13
(g14
g15
NtRp362
(dp363
g18
I1
sg19
I0
sg20
I12
sg21
I0
sg22
I0
sg23
I0
sg24
I0
sbssg85
S'\x08\x9e\x87e#\x02\x06O\x02l!\x0e\xe8\xeb\xc0.'
p364
ssS'create_models_books_tests_test_book_subchapter_model'
p365
(dp366
g55
(dp367
S'html_filename'
p368
S'create_models_books_tests_test_book_subchapter_model.html'
p369
sS'name'
p370
S'create/models/books/tests/test_book_subchapter_model'
p371
sS'nums'
p372
g13
(g14
g15
NtRp373
(dp374
g18
I1
sg19
I0
sg20
I42
sg21
I0
sg22
I0
sg23
I0
sg24
I0
sbssg64
S'\xe3*\xba\x94d#\xcd\t\xc9\xb8\x05w\nz\xb8\xc0'
p375
ssS'learn_models_daily_quests___init__'
p376
(dp377
g29
(dp378
g31
S'learn_models_daily_quests___init__.html'
p379
sg33
S'learn/models/daily_quests/__init__'
p380
sg35
g13
(g14
g15
NtRp381
(dp382
g18
I1
sg19
I0
sg20
I1
sg21
I0
sg22
I0
sg23
I0
sg24
I0
sbssg38
S'\x94\x0eB\xb3\x8e\xc6\x81\xc0\x16\x84P.\x11:\x8e\xc9'
p383
ssS'create_views_questions_tests___init__'
p384
(dp385
g42
(dp386
g306
S'create_views_questions_tests___init__.html'
p387
sg308
S'create/views/questions/tests/__init__'
p388
sg310
g13
(g14
g15
NtRp389
(dp390
g18
I1
sg19
I0
sg20
I0
sg21
I0
sg22
I0
sg23
I0
sg24
I0
sbssg51
S'\x19g\xdfM\x1a\x019\xaf\x1baIeR\xe5u\xa7'
p391
ssS'create_serializers_books___init__'
p392
(dp393
g55
(dp394
g196
S'create_serializers_books___init__.html'
p395
sg198
S'create/serializers/books/__init__'
p396
sg200
g13
(g14
g15
NtRp397
(dp398
g18
I1
sg19
I0
sg20
I0
sg21
I0
sg22
I0
sg23
I0
sg24
I0
sbssg64
S'\x19g\xdfM\x1a\x019\xaf\x1baIeR\xe5u\xa7'
p399
ssS'create_models_daily_quest_templates_tests___init__'
p400
(dp401
S'index'
p402
(dp403
S'html_filename'
p404
S'create_models_daily_quest_templates_tests___init__.html'
p405
sS'name'
p406
S'create/models/daily_quest_templates/tests/__init__'
p407
sS'nums'
p408
g13
(g14
g15
NtRp409
(dp410
g18
I1
sg19
I0
sg20
I0
sg21
I0
sg22
I0
sg23
I0
sg24
I0
sbssS'hash'
p411
S'\x19g\xdfM\x1a\x019\xaf\x1baIeR\xe5u\xa7'
p412
ssS'create_models_tags_tag_model'
p413
(dp414
g79
(dp415
S'html_filename'
p416
S'create_models_tags_tag_model.html'
p417
sS'name'
p418
S'create/models/tags/tag_model'
p419
sS'nums'
p420
g13
(g14
g15
NtRp421
(dp422
g18
I1
sg19
I0
sg20
I37
sg21
I0
sg22
I0
sg23
I0
sg24
I0
sbssg85
S'rJ0\x91]\xe5\xfc\xa8\x8c\x00}RI\x18\xf0\x07'
p423
ssS'flipped___init__'
p424
(dp425
g42
(dp426
g306
S'flipped___init__.html'
p427
sg308
S'flipped/__init__'
p428
sg310
g13
(g14
g15
NtRp429
(dp430
g18
I1
sg19
I0
sg20
I0
sg21
I0
sg22
I0
sg23
I0
sg24
I0
sbssg51
S'\x19g\xdfM\x1a\x019\xaf\x1baIeR\xe5u\xa7'
p431
ssS'user_system_views_logins___init__'
p432
(dp433
g42
(dp434
g306
S'user_system_views_logins___init__.html'
p435
sg308
S'user_system/views/logins/__init__'
p436
sg310
g13
(g14
g15
NtRp437
(dp438
g18
I1
sg19
I0
sg20
I2
sg21
I0
sg22
I0
sg23
I0
sg24
I0
sbssg51
S'\xa0\xd3\xaas\xc2\xb93+ED.\xe5\xfe\xf2\xad\x87'
p439
ssS'user_system_views_roles___init__'
p440
(dp441
g42
(dp442
g306
S'user_system_views_roles___init__.html'
p443
sg308
S'user_system/views/roles/__init__'
p444
sg310
g13
(g14
g15
NtRp445
(dp446
g18
I1
sg19
I0
sg20
I1
sg21
I0
sg22
I0
sg23
I0
sg24
I0
sbssg51
S'\xeb\x15\r\x85I\x9e<\xbc\x15\xd1P\xef\x16\x8c\xe0l'
p447
ssS'create_views_tags___init__'
p448
(dp449
S'index'
p450
(dp451
S'html_filename'
p452
S'create_views_tags___init__.html'
p453
sS'name'
p454
S'create/views/tags/__init__'
p455
sS'nums'
p456
g13
(g14
g15
NtRp457
(dp458
g18
I1
sg19
I0
sg20
I1
sg21
I0
sg22
I0
sg23
I0
sg24
I0
sbssS'hash'
p459
S'|r<\xaap\x01\xb1\xbc"\xe5\xbb\xd8\x87\xa5\xd2H'
p460
ssS'create_serializers_questions_question_history_serializer'
p461
(dp462
g42
(dp463
S'html_filename'
p464
S'create_serializers_questions_question_history_serializer.html'
p465
sS'name'
p466
S'create/serializers/questions/question_history_serializer'
p467
sS'nums'
p468
g13
(g14
g15
NtRp469
(dp470
g18
I1
sg19
I2
sg20
I30
sg21
I0
sg22
I1
sg23
I2
sg24
I1
sbssg51
S'C\x93,\xa4\xac3\xb6\xb8\xca\x076\xae\x14\x15\xc0J'
p471
ssS'create_models_daily_quest_templates_tests_test_daily_quest_template_model'
p472
(dp473
g402
(dp474
g404
S'create_models_daily_quest_templates_tests_test_daily_quest_template_model.html'
p475
sg406
S'create/models/daily_quest_templates/tests/test_daily_quest_template_model'
p476
sg408
g13
(g14
g15
NtRp477
(dp478
g18
I1
sg19
I0
sg20
I37
sg21
I0
sg22
I0
sg23
I0
sg24
I0
sbssg411
S'\x01\x04)\xffw\x13\x9aqx\xb2\x9f\x02\xb0\x90\xf3\xa5'
p479
ssS'create_serializers_tags_skill_serializer'
p480
(dp481
g55
(dp482
g196
S'create_serializers_tags_skill_serializer.html'
p483
sg198
S'create/serializers/tags/skill_serializer'
p484
sg200
g13
(g14
g15
NtRp485
(dp486
g18
I1
sg19
I0
sg20
I6
sg21
I0
sg22
I0
sg23
I0
sg24
I0
sbssg64
S'\x1b\x10O\xca\xd5i\\\x06C\x00q}\xf43\xcb\xa6'
p487
ssS'create_serializers_quests_quest_history_serializer'
p488
(dp489
g224
(dp490
S'html_filename'
p491
S'create_serializers_quests_quest_history_serializer.html'
p492
sS'name'
p493
S'create/serializers/quests/quest_history_serializer'
p494
sS'nums'
p495
g13
(g14
g15
NtRp496
(dp497
g18
I1
sg19
I0
sg20
I38
sg21
I0
sg22
I0
sg23
I15
sg24
I0
sbssg233
S'\x0c\x10\x81\x11\xc3\xff\x01\x8d<#\xe5~\x84\xec\x18\xfd'
p498
ssS'user_system_views_signups_hardcoded___init__'
p499
(dp500
g42
(dp501
g306
S'user_system_views_signups_hardcoded___init__.html'
p502
sg308
S'user_system/views/signups/hardcoded/__init__'
p503
sg310
g13
(g14
g15
NtRp504
(dp505
g18
I1
sg19
I0
sg20
I1
sg21
I0
sg22
I0
sg23
I0
sg24
I0
sbssg51
S'?\xfac\x0c\x91\xa4\xd6\xd4\x1d\xe4\x99\xc2[\x83\xfc\xdf'
p506
ssS'api_logging_models'
p507
(dp508
g158
(dp509
g169
S'api_logging_models.html'
p510
sg171
S'api_logging/models'
p511
sg173
g13
(g14
g15
NtRp512
(dp513
g18
I1
sg19
I0
sg20
I21
sg21
I0
sg22
I0
sg23
I0
sg24
I0
sbssg164
S'\x0c\x96WFX%\xe9\xcf+\xcf\xc2s\xa7a1\xbd'
p514
ssS'user_system_models_users_tests_test_student_profile_request_model'
p515
(dp516
g237
(dp517
g69
S'user_system_models_users_tests_test_student_profile_request_model.html'
p518
sg71
S'user_system/models/users/tests/test_student_profile_request_model'
p519
sg73
g13
(g14
g15
NtRp520
(dp521
g18
I1
sg19
I0
sg20
I42
sg21
I0
sg22
I0
sg23
I0
sg24
I0
sbssg246
S'\x0c4FG\x9bD\x9e\xaa\xb9a\xd6\xee\xc6&0T'
p522
ssS'create_models_daily_quest_templates_daily_quest_template_model'
p523
(dp524
g402
(dp525
g404
S'create_models_daily_quest_templates_daily_quest_template_model.html'
p526
sg406
S'create/models/daily_quest_templates/daily_quest_template_model'
p527
sg408
g13
(g14
g15
NtRp528
(dp529
g18
I1
sg19
I0
sg20
I29
sg21
I0
sg22
I0
sg23
I0
sg24
I0
sbssg411
S'm:\xfa\nsk\x85\xa8p\x96\xc3\xca\xa1c\xb0+'
p530
ssS'create_views_books_tests_test_add_chapter_view'
p531
(dp532
g214
(dp533
g44
S'create_views_books_tests_test_add_chapter_view.html'
p534
sg46
S'create/views/books/tests/test_add_chapter_view'
p535
sg48
g13
(g14
g15
NtRp536
(dp537
g18
I1
sg19
I0
sg20
I69
sg21
I0
sg22
I0
sg23
I0
sg24
I0
sbssg220
S'\xea\xcd\x81\xff\xe6p74\xe3\xab\xc2R\x1aZ#Y'
p538
ssS'teach_models_teacher_chapters_tests_test_teacher_chapter_model'
p539
(dp540
g29
(dp541
g31
S'teach_models_teacher_chapters_tests_test_teacher_chapter_model.html'
p542
sg33
S'teach/models/teacher_chapters/tests/test_teacher_chapter_model'
p543
sg35
g13
(g14
g15
NtRp544
(dp545
g18
I1
sg19
I0
sg20
I28
sg21
I0
sg22
I0
sg23
I0
sg24
I0
sbssg38
S'm\xb2B\x1a\x04\xa5\x94N\xbe\xb6\xfa\xa9\x16J\x10\x92'
p546
ssS'create_serializers_tags_tag_type_serializer'
p547
(dp548
g55
(dp549
g196
S'create_serializers_tags_tag_type_serializer.html'
p550
sg198
S'create/serializers/tags/tag_type_serializer'
p551
sg200
g13
(g14
g15
NtRp552
(dp553
g18
I1
sg19
I0
sg20
I6
sg21
I0
sg22
I0
sg23
I0
sg24
I0
sbssg64
S'\xc3\xfd\x81\x18{\x97,\xb1\xb6\x9f\xee\xf2kZ\x1e\x02'
p554
ssS'create_serializers_question_datasets___init__'
p555
(dp556
g274
(dp557
g276
S'create_serializers_question_datasets___init__.html'
p558
sg278
S'create/serializers/question_datasets/__init__'
p559
sg280
g13
(g14
g15
NtRp560
(dp561
g18
I1
sg19
I0
sg20
I1
sg21
I0
sg22
I0
sg23
I0
sg24
I0
sbssg283
S'Z\xf8\x02Tc\xc1C;<_\x87\xc6\xc2H\xa6\xdc'
p562
ssS'create_models_books_tests_test_book_chapter_model'
p563
(dp564
g55
(dp565
S'html_filename'
p566
S'create_models_books_tests_test_book_chapter_model.html'
p567
sS'name'
p568
S'create/models/books/tests/test_book_chapter_model'
p569
sS'nums'
p570
g13
(g14
g15
NtRp571
(dp572
g18
I1
sg19
I8
sg20
I55
sg21
I0
sg22
I0
sg23
I0
sg24
I0
sbssg64
S'\xc4\x1a\xd7\x12s\xd3V\xef\xac\xa7%\x0c\xdc\x17\x05c'
p573
ssS'user_system_views_signups_tests_test_verify_email_view'
p574
(dp575
g42
(dp576
g44
S'user_system_views_signups_tests_test_verify_email_view.html'
p577
sg46
S'user_system/views/signups/tests/test_verify_email_view'
p578
sg48
g13
(g14
g15
NtRp579
(dp580
g18
I1
sg19
I0
sg20
I51
sg21
I0
sg22
I0
sg23
I0
sg24
I0
sbssg51
S'\x81\xacj\x9d\x1f\xa9o\xcc\x1e\xa3\xe59^YT\x9e'
p581
ssS'user_system_views_apps_tests_test_get_apps_list_view'
p582
(dp583
g42
(dp584
g44
S'user_system_views_apps_tests_test_get_apps_list_view.html'
p585
sg46
S'user_system/views/apps/tests/test_get_apps_list_view'
p586
sg48
g13
(g14
g15
NtRp587
(dp588
g18
I1
sg19
I0
sg20
I18
sg21
I0
sg22
I0
sg23
I0
sg24
I0
sbssg51
S'\x87\xab;"\x01p\xf9\xe5\xa6\xb1\xaej\x8egl\x99'
p589
ssS'create_views_books___init__'
p590
(dp591
g55
(dp592
S'html_filename'
p593
S'create_views_books___init__.html'
p594
sS'name'
p595
S'create/views/books/__init__'
p596
sS'nums'
p597
g13
(g14
g15
NtRp598
(dp599
g18
I1
sg19
I0
sg20
I3
sg21
I0
sg22
I0
sg23
I0
sg24
I0
sbssg64
S'\xce\x13\xc8S|wF\xe3\x148\xa0?ez,\xc4'
p600
ssS'user_system_views_users_user_view'
p601
(dp602
g42
(dp603
S'html_filename'
p604
S'user_system_views_users_user_view.html'
p605
sS'name'
p606
S'user_system/views/users/user_view'
p607
sS'nums'
p608
g13
(g14
g15
NtRp609
(dp610
g18
I1
sg19
I62
sg20
I176
sg21
I0
sg22
I0
sg23
I97
sg24
I40
sbssg51
S'\x92eT<\xa5h\x84\xd6OD\x1fL\xf8\n\xf5C'
p611
ssS'learn_serializers_daily_quests_daily_quest_serializer'
p612
(dp613
g29
(dp614
g31
S'learn_serializers_daily_quests_daily_quest_serializer.html'
p615
sg33
S'learn/serializers/daily_quests/daily_quest_serializer'
p616
sg35
g13
(g14
g15
NtRp617
(dp618
g18
I1
sg19
I0
sg20
I12
sg21
I0
sg22
I0
sg23
I3
sg24
I0
sbssg38
S'\x83\xc7\x7f\x02u\x98\xbbf8x\x80\x04(\x87C\xdf'
p619
ssS'user_system_models_users_user_profile_model'
p620
(dp621
g42
(dp622
S'html_filename'
p623
S'user_system_models_users_user_profile_model.html'
p624
sS'name'
p625
S'user_system/models/users/user_profile_model'
p626
sS'nums'
p627
g13
(g14
g15
NtRp628
(dp629
g18
I1
sg19
I44
sg20
I171
sg21
I0
sg22
I0
sg23
I23
sg24
I4
sbssg51
S'\xa8r\x96\xc7\xab\xd7\x9c\xc9\x87\xe5\xe5\\\x1e\xbc\xa9\x96'
p630
ssS'create_models_question_datasets_tests_test_question_dataset_model'
p631
(dp632
g274
(dp633
g276
S'create_models_question_datasets_tests_test_question_dataset_model.html'
p634
sg278
S'create/models/question_datasets/tests/test_question_dataset_model'
p635
sg280
g13
(g14
g15
NtRp636
(dp637
g18
I1
sg19
I2
sg20
I39
sg21
I0
sg22
I0
sg23
I0
sg24
I0
sbssg283
S'!\t\x88\xfc\x0f\xaa\x0c\x88\xe3\xf9\x04\xd1\\0w\xf1'
p638
ssS'user_system_views_apps___init__'
p639
(dp640
g42
(dp641
g306
S'user_system_views_apps___init__.html'
p642
sg308
S'user_system/views/apps/__init__'
p643
sg310
g13
(g14
g15
NtRp644
(dp645
g18
I1
sg19
I0
sg20
I1
sg21
I0
sg22
I0
sg23
I0
sg24
I0
sbssg51
S'?:\xf2A\xfa^]\xc5NR\xc9\x13\xb0\xe4\xfa\x9e'
p646
ssS'user_system_models_users_tests_test_user_profile_picture_model'
p647
(dp648
g237
(dp649
g69
S'user_system_models_users_tests_test_user_profile_picture_model.html'
p650
sg71
S'user_system/models/users/tests/test_user_profile_picture_model'
p651
sg73
g13
(g14
g15
NtRp652
(dp653
g18
I1
sg19
I0
sg20
I21
sg21
I0
sg22
I0
sg23
I0
sg24
I0
sbssg246
S'\xbc/\x93\xf6\x8a\x1eC\x99t\xd0\xdc\x96\xf8\x970\xc9'
p654
ssS'user_system_models_users___init__'
p655
(dp656
g42
(dp657
g604
S'user_system_models_users___init__.html'
p658
sg606
S'user_system/models/users/__init__'
p659
sg608
g13
(g14
g15
NtRp660
(dp661
g18
I1
sg19
I0
sg20
I10
sg21
I0
sg22
I0
sg23
I0
sg24
I0
sbssg51
S'\xd5Ew\x882w\xc8\xed:t\x00\x10`r\xc6J'
p662
ssS'create_views_books_tests_test_add_tag_to_subchapter_view'
p663
(dp664
S'index'
p665
(dp666
g44
S'create_views_books_tests_test_add_tag_to_subchapter_view.html'
p667
sg46
S'create/views/books/tests/test_add_tag_to_subchapter_view'
p668
sg48
g13
(g14
g15
NtRp669
(dp670
g18
I1
sg19
I0
sg20
I40
sg21
I0
sg22
I0
sg23
I0
sg24
I0
sbssS'hash'
p671
S'\xb78\xf4p\xcd\xec\xca\xaa\x93\xb9\xda\xa8Yo37'
p672
ssS'teach_urls'
p673
(dp674
g29
(dp675
g31
S'teach_urls.html'
p676
sg33
S'teach/urls'
p677
sg35
g13
(g14
g15
NtRp678
(dp679
g18
I1
sg19
I0
sg20
I11
sg21
I0
sg22
I0
sg23
I0
sg24
I0
sbssg38
S'G\xef\xc1zs:8+\x05\xff\xafD\xe9H\xee\x94'
p680
ssS'user_system_serializers_schools_organization_serializer'
p681
(dp682
g29
(dp683
g31
S'user_system_serializers_schools_organization_serializer.html'
p684
sg33
S'user_system/serializers/schools/organization_serializer'
p685
sg35
g13
(g14
g15
NtRp686
(dp687
g18
I1
sg19
I0
sg20
I7
sg21
I0
sg22
I0
sg23
I0
sg24
I0
sbssg38
S'90~\xe3\x8f\x8e\xd9m\xb4\nInn\x03(\xdb'
p688
ssS'learn_serializers_daily_quests___init__'
p689
(dp690
g29
(dp691
g31
S'learn_serializers_daily_quests___init__.html'
p692
sg33
S'learn/serializers/daily_quests/__init__'
p693
sg35
g13
(g14
g15
NtRp694
(dp695
g18
I1
sg19
I0
sg20
I1
sg21
I0
sg22
I0
sg23
I0
sg24
I0
sbssg38
S'N\xb8\x18\x1c\x0c\xc7\xca\x91\xa0|\xe1\x02L\xeeC\xbe'
p696
ssS'create_models_books_book_subchapter_model'
p697
(dp698
g55
(dp699
S'html_filename'
p700
S'create_models_books_book_subchapter_model.html'
p701
sS'name'
p702
S'create/models/books/book_subchapter_model'
p703
sS'nums'
p704
g13
(g14
g15
NtRp705
(dp706
g18
I1
sg19
I2
sg20
I45
sg21
I0
sg22
I0
sg23
I0
sg24
I0
sbssg64
S'\xbc\xee\x91\x7f;\xa9\x15\xeaau\xef\x82\x07"\x02\xd3'
p707
ssS'user_system_models_schools___init__'
p708
(dp709
S'index'
p710
(dp711
S'html_filename'
p712
S'user_system_models_schools___init__.html'
p713
sS'name'
p714
S'user_system/models/schools/__init__'
p715
sS'nums'
p716
g13
(g14
g15
NtRp717
(dp718
g18
I1
sg19
I0
sg20
I6
sg21
I0
sg22
I0
sg23
I0
sg24
I0
sbssS'hash'
p719
S'\xbe\xc9\xb2f\x05\x1f\xe6\xee\xef\x01#\xe8\x16\xc2\x83\xdb'
p720
ssS'user_system_views_apps_app_view'
p721
(dp722
g42
(dp723
S'html_filename'
p724
S'user_system_views_apps_app_view.html'
p725
sS'name'
p726
S'user_system/views/apps/app_view'
p727
sS'nums'
p728
g13
(g14
g15
NtRp729
(dp730
g18
I1
sg19
I0
sg20
I13
sg21
I0
sg22
I0
sg23
I0
sg24
I0
sbssg51
S'\xf7n\xffX\xe7\xd2\xb6\xa5\xc5\xe5\x96\x13\xf4\x9c\xac\x1e'
p731
ssS'user_system_models_schools_tests_test_classroom_model'
p732
(dp733
S'index'
p734
(dp735
g69
S'user_system_models_schools_tests_test_classroom_model.html'
p736
sg71
S'user_system/models/schools/tests/test_classroom_model'
p737
sg73
g13
(g14
g15
NtRp738
(dp739
g18
I1
sg19
I0
sg20
I31
sg21
I0
sg22
I0
sg23
I0
sg24
I0
sbssS'hash'
p740
S'q\xf5\xbd7\xb2\xabU\x03\x8c\xf3\xe9E\x16\x02A\xab'
p741
ssS'create_views_questions_tests_test_remove_tag_view'
p742
(dp743
S'index'
p744
(dp745
S'html_filename'
p746
S'create_views_questions_tests_test_remove_tag_view.html'
p747
sS'name'
p748
S'create/views/questions/tests/test_remove_tag_view'
p749
sS'nums'
p750
g13
(g14
g15
NtRp751
(dp752
g18
I1
sg19
I0
sg20
I36
sg21
I0
sg22
I0
sg23
I0
sg24
I0
sbssS'hash'
p753
S'\xbdV1EN\xfe\x8e;\xe4\x92\x91r\xd6Q\x03\x80'
p754
ssS'user_system_models_users_tests_test_student_profile_model'
p755
(dp756
g734
(dp757
S'html_filename'
p758
S'user_system_models_users_tests_test_student_profile_model.html'
p759
sS'name'
p760
S'user_system/models/users/tests/test_student_profile_model'
p761
sS'nums'
p762
g13
(g14
g15
NtRp763
(dp764
g18
I1
sg19
I0
sg20
I41
sg21
I0
sg22
I0
sg23
I0
sg24
I0
sbssg740
S'_\x1d\xee\xc7\xa6\xf8L\xd4%\xe2\xdc\x14\x94\x15X\x84'
p765
ssS'create_views_questions_tests_test_add_tag_view'
p766
(dp767
g744
(dp768
g746
S'create_views_questions_tests_test_add_tag_view.html'
p769
sg748
S'create/views/questions/tests/test_add_tag_view'
p770
sg750
g13
(g14
g15
NtRp771
(dp772
g18
I1
sg19
I0
sg20
I35
sg21
I0
sg22
I0
sg23
I0
sg24
I0
sbssg753
S'\x8e\x13\xdd\xbd\xba\r&,-|&W-a`\x7f'
p773
ssS'create_views_quests_quest_view'
p774
(dp775
g224
(dp776
g239
S'create_views_quests_quest_view.html'
p777
sg241
S'create/views/quests/quest_view'
p778
sg243
g13
(g14
g15
NtRp779
(dp780
g18
I1
sg19
I80
sg20
I239
sg21
I0
sg22
I0
sg23
I169
sg24
I74
sbssg233
S'~P\x88\x7f\xf4\xc7\x1f\xd9\x18Bij\xe9\x05j\xa0'
p781
ssS'create_views_daily_quest_templates___init__'
p782
(dp783
g402
(dp784
g404
S'create_views_daily_quest_templates___init__.html'
p785
sg406
S'create/views/daily_quest_templates/__init__'
p786
sg408
g13
(g14
g15
NtRp787
(dp788
g18
I1
sg19
I0
sg20
I1
sg21
I0
sg22
I0
sg23
I0
sg24
I0
sbssg411
S'\xc1b\x1f\x95\xabR`C\xe80\xb9tNC\r3'
p789
ssS'create_views_tags_tests_test_add_prerequisite_view'
p790
(dp791
S'index'
p792
(dp793
g44
S'create_views_tags_tests_test_add_prerequisite_view.html'
p794
sg46
S'create/views/tags/tests/test_add_prerequisite_view'
p795
sg48
g13
(g14
g15
NtRp796
(dp797
g18
I1
sg19
I0
sg20
I26
sg21
I0
sg22
I0
sg23
I0
sg24
I0
sbssS'hash'
p798
S'\xd2\xef\x02\xe1{\xbc\x9b\xf3\x8b\xbd\xf0\xd2\xe7\xcc\xb5\xa4'
p799
ssS'learn___init__'
p800
(dp801
g29
(dp802
g31
S'learn___init__.html'
p803
sg33
S'learn/__init__'
p804
sg35
g13
(g14
g15
NtRp805
(dp806
g18
I1
sg19
I0
sg20
I0
sg21
I0
sg22
I0
sg23
I0
sg24
I0
sbssg38
S'\x19g\xdfM\x1a\x019\xaf\x1baIeR\xe5u\xa7'
p807
ssS'user_system_views_schools_school_view'
p808
(dp809
g237
(dp810
g69
S'user_system_views_schools_school_view.html'
p811
sg71
S'user_system/views/schools/school_view'
p812
sg73
g13
(g14
g15
NtRp813
(dp814
g18
I1
sg19
I0
sg20
I16
sg21
I0
sg22
I0
sg23
I0
sg24
I0
sbssg246
S'\xc8\x0b\xef\x9e86\xe5\x19\xaa\x9e\x93+\x03\xfb\x98\x99'
p815
ssS'teach_views_teacher_chapters___init__'
p816
(dp817
g29
(dp818
g31
S'teach_views_teacher_chapters___init__.html'
p819
sg33
S'teach/views/teacher_chapters/__init__'
p820
sg35
g13
(g14
g15
NtRp821
(dp822
g18
I1
sg19
I0
sg20
I1
sg21
I0
sg22
I0
sg23
I0
sg24
I0
sbssg38
S'\x10AP\xc9\nC\xd2REz\xf6\xe5\xd2(\xee`'
p823
ssS'flipped_helpers___init__'
p824
(dp825
g42
(dp826
g69
S'flipped_helpers___init__.html'
p827
sg71
S'flipped/helpers/__init__'
p828
sg73
g13
(g14
g15
NtRp829
(dp830
g18
I1
sg19
I0
sg20
I5
sg21
I0
sg22
I0
sg23
I0
sg24
I0
sbssg51
S'\xddu\x83\xd3\xd3,#k*\xc0Q\x92\x92">|'
p831
ssS'user_system_models_users_student_profile_request_model'
p832
(dp833
g237
(dp834
g69
S'user_system_models_users_student_profile_request_model.html'
p835
sg71
S'user_system/models/users/student_profile_request_model'
p836
sg73
g13
(g14
g15
NtRp837
(dp838
g18
I1
sg19
I0
sg20
I45
sg21
I0
sg22
I0
sg23
I0
sg24
I0
sbssg246
S'\xeeZA}\xa0\xf5\x88k0a2\x9fS\xf3}\x05'
p839
ssS'teach_serializers___init__'
p840
(dp841
g29
(dp842
g31
S'teach_serializers___init__.html'
p843
sg33
S'teach/serializers/__init__'
p844
sg35
g13
(g14
g15
NtRp845
(dp846
g18
I1
sg19
I0
sg20
I3
sg21
I0
sg22
I0
sg23
I0
sg24
I0
sbssg38
S'3\x13\x12&\xcb\xecC\xee\xa8lR\x1a\x1d\xb9M\xba'
p847
ssS'user_system_views_signups_tests___init__'
p848
(dp849
g42
(dp850
g306
S'user_system_views_signups_tests___init__.html'
p851
sg308
S'user_system/views/signups/tests/__init__'
p852
sg310
g13
(g14
g15
NtRp853
(dp854
g18
I1
sg19
I0
sg20
I1
sg21
I0
sg22
I0
sg23
I0
sg24
I0
sbssg51
S'\xbc\xd6\xeb\xb3\xba\xcaz\xf7{\xd4B\xb5}l\xdf\x96'
p855
ssS'user_system_models_apps_tests_test_app_model'
p856
(dp857
g42
(dp858
g44
S'user_system_models_apps_tests_test_app_model.html'
p859
sg46
S'user_system/models/apps/tests/test_app_model'
p860
sg48
g13
(g14
g15
NtRp861
(dp862
g18
I1
sg19
I0
sg20
I18
sg21
I0
sg22
I0
sg23
I0
sg24
I0
sbssg51
S'\xfb\xfc\xe0#\xe2\n\x8e\x9e\x94\xa8\x83\xc5\xb1U\xa3a'
p863
ssS'user_system_views_logins_email_login_view'
p864
(dp865
g42
(dp866
g44
S'user_system_views_logins_email_login_view.html'
p867
sg46
S'user_system/views/logins/email_login_view'
p868
sg48
g13
(g14
g15
NtRp869
(dp870
g18
I1
sg19
I8
sg20
I29
sg21
I0
sg22
I0
sg23
I0
sg24
I0
sbssg51
S'q,G<H\x86\xac\xe1i2\xf8t?\x9e\xea\xa0'
p871
ssS'create_models_daily_quests_daily_quest_model'
p872
(dp873
S'index'
p874
(dp875
S'html_filename'
p876
S'create_models_daily_quests_daily_quest_model.html'
p877
sS'name'
p878
S'create/models/daily_quests/daily_quest_model'
p879
sS'nums'
p880
g13
(g14
g15
NtRp881
(dp882
g18
I1
sg19
I2
sg20
I48
sg21
I0
sg22
I0
sg23
I6
sg24
I2
sbssS'hash'
p883
S'\xae\'/"f\x1014\xdd\x0e\x85\xf4\x91\x02\\`'
p884
ssS'user_system_views_signups_tests_test_email_signup_view'
p885
(dp886
g42
(dp887
g44
S'user_system_views_signups_tests_test_email_signup_view.html'
p888
sg46
S'user_system/views/signups/tests/test_email_signup_view'
p889
sg48
g13
(g14
g15
NtRp890
(dp891
g18
I1
sg19
I0
sg20
I51
sg21
I0
sg22
I0
sg23
I0
sg24
I0
sbssg51
S'\xa3\xb2\xaf-\x99\xe3]\xcc\xe6\x8b\xeb\xf63=I\xb4'
p892
ssS'user_system_models_roles_tests_test_role_app_model'
p893
(dp894
g42
(dp895
g44
S'user_system_models_roles_tests_test_role_app_model.html'
p896
sg46
S'user_system/models/roles/tests/test_role_app_model'
p897
sg48
g13
(g14
g15
NtRp898
(dp899
g18
I1
sg19
I0
sg20
I21
sg21
I0
sg22
I0
sg23
I0
sg24
I0
sbssg51
S"\x80\xd7v\xbb\xe5d.\xeb\xfd\xc4\x04\xb2\x04'\xc6V"
p900
ssS'create_models_daily_quests_tests___init__'
p901
(dp902
g874
(dp903
S'html_filename'
p904
S'create_models_daily_quests_tests___init__.html'
p905
sS'name'
p906
S'create/models/daily_quests/tests/__init__'
p907
sS'nums'
p908
g13
(g14
g15
NtRp909
(dp910
g18
I1
sg19
I0
sg20
I1
sg21
I0
sg22
I0
sg23
I0
sg24
I0
sbssg883
S'\xbc\xd6\xeb\xb3\xba\xcaz\xf7{\xd4B\xb5}l\xdf\x96'
p911
ssS'create_views_tags_tests_test_search_tag_view'
p912
(dp913
g792
(dp914
g44
S'create_views_tags_tests_test_search_tag_view.html'
p915
sg46
S'create/views/tags/tests/test_search_tag_view'
p916
sg48
g13
(g14
g15
NtRp917
(dp918
g18
I1
sg19
I0
sg20
I22
sg21
I0
sg22
I0
sg23
I0
sg24
I0
sbssg798
S'\rh\xcb\xb3g\x15\x9c\xe3hR\xc5r\xb9\x9c\xb2\x1f'
p919
ssS'user_system_models_schools_tests_test_organization_model'
p920
(dp921
g710
(dp922
g44
S'user_system_models_schools_tests_test_organization_model.html'
p923
sg46
S'user_system/models/schools/tests/test_organization_model'
p924
sg48
g13
(g14
g15
NtRp925
(dp926
g18
I1
sg19
I0
sg20
I24
sg21
I0
sg22
I0
sg23
I0
sg24
I0
sbssg719
S'\xeb?\x1b\x02\xc8gO\x05\xad\x0f\xa1K\xb3\xd7\xb7t'
p927
ssS'user_system_views_schools_grade_view'
p928
(dp929
g237
(dp930
g69
S'user_system_views_schools_grade_view.html'
p931
sg71
S'user_system/views/schools/grade_view'
p932
sg73
g13
(g14
g15
NtRp933
(dp934
g18
I1
sg19
I0
sg20
I16
sg21
I0
sg22
I0
sg23
I0
sg24
I0
sbssg246
S'_i&b\x01\x08$\xe7\xbe\nW\x92\x80\x97\xf1Q'
p935
ssS'create_serializers_daily_quests_daily_quest_serializer'
p936
(dp937
g402
(dp938
g57
S'create_serializers_daily_quests_daily_quest_serializer.html'
p939
sg59
S'create/serializers/daily_quests/daily_quest_serializer'
p940
sg61
g13
(g14
g15
NtRp941
(dp942
g18
I1
sg19
I0
sg20
I12
sg21
I0
sg22
I0
sg23
I3
sg24
I0
sbssg411
S' $!\xf6\xe6\x92\x9f\x9f\xafy\xe9\x8b\x1c\xf4\xb6\x01'
p943
ssS'user_system_views_signups_email_signup_view'
p944
(dp945
g42
(dp946
g44
S'user_system_views_signups_email_signup_view.html'
p947
sg46
S'user_system/views/signups/email_signup_view'
p948
sg48
g13
(g14
g15
NtRp949
(dp950
g18
I1
sg19
I8
sg20
I44
sg21
I0
sg22
I0
sg23
I0
sg24
I0
sbssg51
S'&G\xd1\xc4{\x9b\xbf\x14\x92F\xbe\x13\xeer\x84\x1b'
p951
ssS'create_serializers_question_datasets_question_dataset_serializer'
p952
(dp953
g274
(dp954
g276
S'create_serializers_question_datasets_question_dataset_serializer.html'
p955
sg278
S'create/serializers/question_datasets/question_dataset_serializer'
p956
sg280
g13
(g14
g15
NtRp957
(dp958
g18
I1
sg19
I0
sg20
I6
sg21
I0
sg22
I0
sg23
I0
sg24
I0
sbssg283
S'\x1e}6\x82\x0c\x96\xdb\x00{jK\xdb\xc0\x8c\x97\xcd'
p959
ssS'teach_views_teacher_tags___init__'
p960
(dp961
g29
(dp962
g31
S'teach_views_teacher_tags___init__.html'
p963
sg33
S'teach/views/teacher_tags/__init__'
p964
sg35
g13
(g14
g15
NtRp965
(dp966
g18
I1
sg19
I0
sg20
I1
sg21
I0
sg22
I0
sg23
I0
sg24
I0
sbssg38
S'cp\x00\xdc\x00\xe5M\x9f\x1f\xaa\xb2Y\xd9%\x1d"'
p967
ssS'flipped_helpers_success_response_helper'
p968
(dp969
g42
(dp970
g44
S'flipped_helpers_success_response_helper.html'
p971
sg46
S'flipped/helpers/success_response_helper'
p972
sg48
g13
(g14
g15
NtRp973
(dp974
g18
I1
sg19
I2
sg20
I4
sg21
I0
sg22
I0
sg23
I0
sg24
I0
sbssg51
S"'Bp\xbe\xd9\xfa\x92\xa4;\xb6\t\xa8\xfe<\x9d\xa5"
p975
ssS'create_models_books_tests_test_book_model'
p976
(dp977
g55
(dp978
g566
S'create_models_books_tests_test_book_model.html'
p979
sg568
S'create/models/books/tests/test_book_model'
p980
sg570
g13
(g14
g15
NtRp981
(dp982
g18
I1
sg19
I6
sg20
I44
sg21
I0
sg22
I0
sg23
I0
sg24
I0
sbssg64
S'\xff\x88\xcd\xb0\x80\xb2\x9d\xf7\xf9G\xb1.\xaf\xdd\x07\xd7'
p983
ssS'create_models_questions_question_model'
p984
(dp985
g42
(dp986
S'html_filename'
p987
S'create_models_questions_question_model.html'
p988
sS'name'
p989
S'create/models/questions/question_model'
p990
sS'nums'
p991
g13
(g14
g15
NtRp992
(dp993
g18
I1
sg19
I0
sg20
I48
sg21
I0
sg22
I0
sg23
I0
sg24
I0
sbssg51
S'\tGy\xb6\x10\x17dQ\xd7\xd8N>\xd5\x96R\x82'
p994
ssS'learn_admin'
p995
(dp996
g29
(dp997
g31
S'learn_admin.html'
p998
sg33
S'learn/admin'
p999
sg35
g13
(g14
g15
NtRp1000
(dp1001
g18
I1
sg19
I0
sg20
I3
sg21
I0
sg22
I0
sg23
I0
sg24
I0
sbssg38
S'\x8d\xd5#\xf7\xe4\xc3W\xaeCrl\x133\x95\xd5\x0c'
p1002
ssS'create_views_books_book_subchapter_view'
p1003
(dp1004
g665
(dp1005
g44
S'create_views_books_book_subchapter_view.html'
p1006
sg46
S'create/views/books/book_subchapter_view'
p1007
sg48
g13
(g14
g15
NtRp1008
(dp1009
g18
I1
sg19
I8
sg20
I46
sg21
I0
sg22
I0
sg23
I0
sg24
I0
sbssg671
S'\x0e\xa6\x19V\xf0\xf3;\xa2\x8d \xd8i\xb7*D\x87'
p1010
ssS'user_system_models_roles_tests_test_role_model'
p1011
(dp1012
g42
(dp1013
g44
S'user_system_models_roles_tests_test_role_model.html'
p1014
sg46
S'user_system/models/roles/tests/test_role_model'
p1015
sg48
g13
(g14
g15
NtRp1016
(dp1017
g18
I1
sg19
I0
sg20
I20
sg21
I0
sg22
I0
sg23
I0
sg24
I0
sbssg51
S'\xef\xba\x956\x96\xbc:\xa0\x0f\x00\x84\x80\x0elh\xed'
p1018
ssS'create_views_questions_tests_test_hide_question_view'
p1019
(dp1020
g42
(dp1021
g44
S'create_views_questions_tests_test_hide_question_view.html'
p1022
sg46
S'create/views/questions/tests/test_hide_question_view'
p1023
sg48
g13
(g14
g15
NtRp1024
(dp1025
g18
I1
sg19
I0
sg20
I30
sg21
I0
sg22
I0
sg23
I0
sg24
I0
sbssg51
S'\xb3\x10S\x8a\x9b\xecw\xaa\xd3\x81\x1b\xf2\xab\xb2QG'
p1026
ssS'teach_models_daily_quest_templates_tests_test_daily_quest_template_model'
p1027
(dp1028
g29
(dp1029
g31
S'teach_models_daily_quest_templates_tests_test_daily_quest_template_model.html'
p1030
sg33
S'teach/models/daily_quest_templates/tests/test_daily_quest_template_model'
p1031
sg35
g13
(g14
g15
NtRp1032
(dp1033
g18
I1
sg19
I0
sg20
I37
sg21
I0
sg22
I0
sg23
I0
sg24
I0
sbssg38
S'\x01\x04)\xffw\x13\x9aqx\xb2\x9f\x02\xb0\x90\xf3\xa5'
p1034
ssS'create_views_questions_question_template_view'
p1035
(dp1036
g224
(dp1037
g491
S'create_views_questions_question_template_view.html'
p1038
sg493
S'create/views/questions/question_template_view'
p1039
sg495
g13
(g14
g15
NtRp1040
(dp1041
g18
I1
sg19
I40
sg20
I115
sg21
I0
sg22
I0
sg23
I86
sg24
I40
sbssg233
S'\x15\xd2EN\xe9c\xe5\x17\xc5Fh\x02\x1a\xd3\xc4*'
p1042
ssS'create_models_questions_question_history_model'
p1043
(dp1044
g42
(dp1045
g325
S'create_models_questions_question_history_model.html'
p1046
sg327
S'create/models/questions/question_history_model'
p1047
sg329
g13
(g14
g15
NtRp1048
(dp1049
g18
I1
sg19
I8
sg20
I68
sg21
I0
sg22
I2
sg23
I2
sg24
I2
sbssg51
S'\xd0\xe9\x0bm$j\x15\x9b@\x93\xe5C\xa7\x97\xfd\xf4'
p1050
ssS'create_serializers_quests_quest_serializer'
p1051
(dp1052
g224
(dp1053
g69
S'create_serializers_quests_quest_serializer.html'
p1054
sg71
S'create/serializers/quests/quest_serializer'
p1055
sg73
g13
(g14
g15
NtRp1056
(dp1057
g18
I1
sg19
I0
sg20
I50
sg21
I0
sg22
I0
sg23
I15
sg24
I0
sbssg233
S'\x96:\xdf\x9a\x02\xee\xf5\x97F[z\x16p\x8f\x08\xb2'
p1058
ssS'create_views_question_datasets_question_dataset_view'
p1059
(dp1060
g274
(dp1061
g276
S'create_views_question_datasets_question_dataset_view.html'
p1062
sg278
S'create/views/question_datasets/question_dataset_view'
p1063
sg280
g13
(g14
g15
NtRp1064
(dp1065
g18
I1
sg19
I4
sg20
I20
sg21
I0
sg22
I0
sg23
I5
sg24
I4
sbssg283
S'\x01\xfb\xf2\x86m\xd4\xf9\xc3\xe6\xb6\x11\x96u;\x1ez'
p1066
ssS'user_system_views_signups_tests_test_facebook_signup_view'
p1067
(dp1068
g42
(dp1069
g44
S'user_system_views_signups_tests_test_facebook_signup_view.html'
p1070
sg46
S'user_system/views/signups/tests/test_facebook_signup_view'
p1071
sg48
g13
(g14
g15
NtRp1072
(dp1073
g18
I1
sg19
I0
sg20
I60
sg21
I0
sg22
I0
sg23
I0
sg24
I0
sbssg51
S'\x93<\xc8]\x14\t\xa8/\xdd\xd1\xa4]\xfbp!\xbd'
p1074
ssS'user_system_serializers_users_student_profile_request_serializer'
p1075
(dp1076
g237
(dp1077
g69
S'user_system_serializers_users_student_profile_request_serializer.html'
p1078
sg71
S'user_system/serializers/users/student_profile_request_serializer'
p1079
sg73
g13
(g14
g15
NtRp1080
(dp1081
g18
I1
sg19
I0
sg20
I8
sg21
I0
sg22
I0
sg23
I0
sg24
I0
sbssg246
S'\xa9VJ\x07M\x02\xee$\t\xc8O\xc43$\x1a-'
p1082
ssS'user_system_models_users_tests_test_teacher_profile_model'
p1083
(dp1084
g97
(dp1085
S'html_filename'
p1086
S'user_system_models_users_tests_test_teacher_profile_model.html'
p1087
sS'name'
p1088
S'user_system/models/users/tests/test_teacher_profile_model'
p1089
sS'nums'
p1090
g13
(g14
g15
NtRp1091
(dp1092
g18
I1
sg19
I0
sg20
I32
sg21
I0
sg22
I0
sg23
I0
sg24
I0
sbssg103
S'\xe7n\x9a\x17\x9d0\x01\xa6\x0f\x18\x10l\x8ckmy'
p1093
ssS'user_system_models_users_tests_test_teacher_mapping_model'
p1094
(dp1095
g97
(dp1096
g1086
S'user_system_models_users_tests_test_teacher_mapping_model.html'
p1097
sg1088
S'user_system/models/users/tests/test_teacher_mapping_model'
p1098
sg1090
g13
(g14
g15
NtRp1099
(dp1100
g18
I1
sg19
I0
sg20
I22
sg21
I0
sg22
I0
sg23
I0
sg24
I0
sbssg103
S"\xbb\xd7\xe2\xf2\x7f\x9b\xc5j\xd6'(\xda\xa5\x14\\\x12"
p1101
ssS'create_views_quests_tests_test_remove_question_template_view'
p1102
(dp1103
g6
(dp1104
g8
S'create_views_quests_tests_test_remove_question_template_view.html'
p1105
sg10
S'create/views/quests/tests/test_remove_question_template_view'
p1106
sg12
g13
(g14
g15
NtRp1107
(dp1108
g18
I1
sg19
I0
sg20
I0
sg21
I0
sg22
I0
sg23
I0
sg24
I0
sbssg25
S'\x19g\xdfM\x1a\x019\xaf\x1baIeR\xe5u\xa7'
p1109
ssS'create_views_summary_create_summary_view'
p1110
(dp1111
S'index'
p1112
(dp1113
g700
S'create_views_summary_create_summary_view.html'
p1114
sg702
S'create/views/summary/create_summary_view'
p1115
sg704
g13
(g14
g15
NtRp1116
(dp1117
g18
I1
sg19
I0
sg20
I59
sg21
I0
sg22
I0
sg23
I48
sg24
I0
sbssS'hash'
p1118
S"'\xfe\xf4\x8c\xed2\xc3\x18\xf6\x85\x1f\xb0\xf0G\xb7\x8f"
p1119
ssS'create_serializers_books_book_serializer'
p1120
(dp1121
g55
(dp1122
g57
S'create_serializers_books_book_serializer.html'
p1123
sg59
S'create/serializers/books/book_serializer'
p1124
sg61
g13
(g14
g15
NtRp1125
(dp1126
g18
I1
sg19
I0
sg20
I25
sg21
I0
sg22
I0
sg23
I0
sg24
I0
sbssg64
S"o\r\r\x1e8\xe6\xa9\xd1\x83X.\xcf1\x98\xa3'"
p1127
ssS'create_models_books_tests___init__'
p1128
(dp1129
g55
(dp1130
g196
S'create_models_books_tests___init__.html'
p1131
sg198
S'create/models/books/tests/__init__'
p1132
sg200
g13
(g14
g15
NtRp1133
(dp1134
g18
I1
sg19
I0
sg20
I0
sg21
I0
sg22
I0
sg23
I0
sg24
I0
sbssg64
S'\x19g\xdfM\x1a\x019\xaf\x1baIeR\xe5u\xa7'
p1135
ssS'user_system_models_schools_tests___init__'
p1136
(dp1137
g710
(dp1138
S'html_filename'
p1139
S'user_system_models_schools_tests___init__.html'
p1140
sS'name'
p1141
S'user_system/models/schools/tests/__init__'
p1142
sS'nums'
p1143
g13
(g14
g15
NtRp1144
(dp1145
g18
I1
sg19
I0
sg20
I0
sg21
I0
sg22
I0
sg23
I0
sg24
I0
sbssg719
S'\x19g\xdfM\x1a\x019\xaf\x1baIeR\xe5u\xa7'
p1146
ssS'user_system_models_users_tests_test_user_facebook_model'
p1147
(dp1148
g42
(dp1149
g44
S'user_system_models_users_tests_test_user_facebook_model.html'
p1150
sg46
S'user_system/models/users/tests/test_user_facebook_model'
p1151
sg48
g13
(g14
g15
NtRp1152
(dp1153
g18
I1
sg19
I0
sg20
I29
sg21
I0
sg22
I0
sg23
I0
sg24
I0
sbssg51
S'B\xac\x06Z\x1f7\xba2\x81\xd7\xb4\x17\xaf\x84u+'
p1154
ssS'teach_models_campaigns___init__'
p1155
(dp1156
g237
(dp1157
g69
S'teach_models_campaigns___init__.html'
p1158
sg71
S'teach/models/campaigns/__init__'
p1159
sg73
g13
(g14
g15
NtRp1160
(dp1161
g18
I1
sg19
I0
sg20
I1
sg21
I0
sg22
I0
sg23
I0
sg24
I0
sbssg246
S'\xba\x82\x818\x88\xe0\xf2#\xe9\x89\xffso\xdc\xe6\xd4'
p1162
ssS'user_system_views_users_tests_test_get_users_list_view'
p1163
(dp1164
g42
(dp1165
g69
S'user_system_views_users_tests_test_get_users_list_view.html'
p1166
sg71
S'user_system/views/users/tests/test_get_users_list_view'
p1167
sg73
g13
(g14
g15
NtRp1168
(dp1169
g18
I1
sg19
I0
sg20
I32
sg21
I0
sg22
I0
sg23
I0
sg24
I0
sbssg51
S'w{5\x1fq\xa3\xbeT\xbb\x99\xd0l\xd6IM\xc0'
p1170
ssS'create_models_daily_quest_copies_tests___init__'
p1171
(dp1172
g295
(dp1173
g876
S'create_models_daily_quest_copies_tests___init__.html'
p1174
sg878
S'create/models/daily_quest_copies/tests/__init__'
p1175
sg880
g13
(g14
g15
NtRp1176
(dp1177
g18
I1
sg19
I0
sg20
I0
sg21
I0
sg22
I0
sg23
I0
sg24
I0
sbssg301
S'\x19g\xdfM\x1a\x019\xaf\x1baIeR\xe5u\xa7'
p1178
ssS'create_urls'
p1179
(dp1180
g42
(dp1181
g31
S'create_urls.html'
p1182
sg33
S'create/urls'
p1183
sg35
g13
(g14
g15
NtRp1184
(dp1185
g18
I1
sg19
I0
sg20
I22
sg21
I0
sg22
I0
sg23
I0
sg24
I0
sbssg51
S"k/4\x8e_h\xf3)p'\x8e\x80v\x1e\xbdg"
p1186
ssS'create_views_tags_tests_test_get_tags_list_view'
p1187
(dp1188
g450
(dp1189
g44
S'create_views_tags_tests_test_get_tags_list_view.html'
p1190
sg46
S'create/views/tags/tests/test_get_tags_list_view'
p1191
sg48
g13
(g14
g15
NtRp1192
(dp1193
g18
I1
sg19
I0
sg20
I21
sg21
I0
sg22
I0
sg23
I0
sg24
I0
sbssg459
S'F\xf6yk?\xb2\xc12\x93\x8b\xe6Bx\xa09\x89'
p1194
ssS'create_serializers_tags_tag_serializer'
p1195
(dp1196
g55
(dp1197
g57
S'create_serializers_tags_tag_serializer.html'
p1198
sg59
S'create/serializers/tags/tag_serializer'
p1199
sg61
g13
(g14
g15
NtRp1200
(dp1201
g18
I1
sg19
I0
sg20
I38
sg21
I0
sg22
I0
sg23
I0
sg24
I0
sbssg64
S'\xf7\xa8n\xd6\xf1\xe1\xf8\xaedX\x8e\xfe\ry\xd4\xc3'
p1202
ssS'create___init__'
p1203
(dp1204
g42
(dp1205
g306
S'create___init__.html'
p1206
sg308
S'create/__init__'
p1207
sg310
g13
(g14
g15
NtRp1208
(dp1209
g18
I1
sg19
I0
sg20
I0
sg21
I0
sg22
I0
sg23
I0
sg24
I0
sbssg51
S'\x19g\xdfM\x1a\x019\xaf\x1baIeR\xe5u\xa7'
p1210
ssS'create_views_books_tests_test_remove_tag_from_subchapter_view'
p1211
(dp1212
g665
(dp1213
g44
S'create_views_books_tests_test_remove_tag_from_subchapter_view.html'
p1214
sg46
S'create/views/books/tests/test_remove_tag_from_subchapter_view'
p1215
sg48
g13
(g14
g15
NtRp1216
(dp1217
g18
I1
sg19
I0
sg20
I40
sg21
I0
sg22
I0
sg23
I0
sg24
I0
sbssg671
S"(Vo#\xdd\x9a\xbc\x11\xff\xd6'\xd7\xeb\xca\x1aM"
p1218
ssS'user_system_urls'
p1219
(dp1220
g42
(dp1221
g69
S'user_system_urls.html'
p1222
sg71
S'user_system/urls'
p1223
sg73
g13
(g14
g15
NtRp1224
(dp1225
g18
I1
sg19
I0
sg20
I16
sg21
I0
sg22
I0
sg23
I0
sg24
I0
sbssg51
S'\xa3\xf2sm\xf7\xfc\x02\x08\x9be\xfb\xa1O\x92\xe2\xa6'
p1226
ssS'user_system_models_schools_tests_test_semester_model'
p1227
(dp1228
g710
(dp1229
g1086
S'user_system_models_schools_tests_test_semester_model.html'
p1230
sg1088
S'user_system/models/schools/tests/test_semester_model'
p1231
sg1090
g13
(g14
g15
NtRp1232
(dp1233
g18
I1
sg19
I0
sg20
I29
sg21
I0
sg22
I0
sg23
I0
sg24
I0
sbssg719
S'\xe9\xd9\xdc\\\xb9\x93\xb1\x93Q\x02\xe9\xb7Y,\xa6w'
p1234
ssS'teach_serializers_daily_quest_templates_daily_quest_template_serializer'
p1235
(dp1236
g29
(dp1237
g69
S'teach_serializers_daily_quest_templates_daily_quest_template_serializer.html'
p1238
sg71
S'teach/serializers/daily_quest_templates/daily_quest_template_serializer'
p1239
sg73
g13
(g14
g15
NtRp1240
(dp1241
g18
I1
sg19
I0
sg20
I10
sg21
I0
sg22
I0
sg23
I0
sg24
I0
sbssg38
S"\x8a\xc3\x1b\x8a.}\xc7\xe4V.E\xf5#EQ'"
p1242
ssS'flipped_urls'
p1243
(dp1244
g42
(dp1245
g31
S'flipped_urls.html'
p1246
sg33
S'flipped/urls'
p1247
sg35
g13
(g14
g15
NtRp1248
(dp1249
g18
I1
sg19
I0
sg20
I9
sg21
I0
sg22
I0
sg23
I0
sg24
I0
sbssg51
S'f\x06@\xd4\xe1\x14\xc2\xc5m!K\xb2\x93\x8b\xac`'
p1250
ssS'teach_serializers_teacher_chapters___init__'
p1251
(dp1252
g29
(dp1253
g31
S'teach_serializers_teacher_chapters___init__.html'
p1254
sg33
S'teach/serializers/teacher_chapters/__init__'
p1255
sg35
g13
(g14
g15
NtRp1256
(dp1257
g18
I1
sg19
I0
sg20
I1
sg21
I0
sg22
I0
sg23
I0
sg24
I0
sbssg38
S'\xfe\x88\xda\x10\xec!\x99\xb7-\x8d\x90E\xe18K\xb1'
p1258
ssS'create_models_questions___init__'
p1259
(dp1260
g42
(dp1261
g464
S'create_models_questions___init__.html'
p1262
sg466
S'create/models/questions/__init__'
p1263
sg468
g13
(g14
g15
NtRp1264
(dp1265
g18
I1
sg19
I0
sg20
I6
sg21
I0
sg22
I0
sg23
I0
sg24
I0
sbssg51
S'\xd4\xfd\xae\xf0N\xdd-\x07$U\xac\xf1\xc2\x0f\xa5H'
p1266
ssS'user_system_views_users_tests_test_get_users_by_signup_type_view'
p1267
(dp1268
g42
(dp1269
g69
S'user_system_views_users_tests_test_get_users_by_signup_type_view.html'
p1270
sg71
S'user_system/views/users/tests/test_get_users_by_signup_type_view'
p1271
sg73
g13
(g14
g15
NtRp1272
(dp1273
g18
I1
sg19
I0
sg20
I44
sg21
I0
sg22
I0
sg23
I0
sg24
I0
sbssg51
S'T/\xf9\xf8\x94\xd6Lm\x89o\xb6\x99/Z\xc1]'
p1274
ssS'create_models_tags_tests_test_tag_type_model'
p1275
(dp1276
g79
(dp1277
g44
S'create_models_tags_tests_test_tag_type_model.html'
p1278
sg46
S'create/models/tags/tests/test_tag_type_model'
p1279
sg48
g13
(g14
g15
NtRp1280
(dp1281
g18
I1
sg19
I0
sg20
I17
sg21
I0
sg22
I0
sg23
I0
sg24
I0
sbssg85
S'?6\xfcg\xce\x11\x1a7E\xaf\xb2\x02\t"\xddA'
p1282
ssS'user_system_models_users_tests_test_user_profile_update_request_model'
p1283
(dp1284
g237
(dp1285
g604
S'user_system_models_users_tests_test_user_profile_update_request_model.html'
p1286
sg606
S'user_system/models/users/tests/test_user_profile_update_request_model'
p1287
sg608
g13
(g14
g15
NtRp1288
(dp1289
g18
I1
sg19
I0
sg20
I50
sg21
I0
sg22
I0
sg23
I0
sg24
I0
sbssg246
S'91\xd6p\x9f4\x8ebb\xe9\xbd1pu\x9b\x7f'
p1290
ssS'create_models_quests_quest_history_model'
p1291
(dp1292
g224
(dp1293
g8
S'create_models_quests_quest_history_model.html'
p1294
sg10
S'create/models/quests/quest_history_model'
p1295
sg12
g13
(g14
g15
NtRp1296
(dp1297
g18
I1
sg19
I8
sg20
I75
sg21
I0
sg22
I3
sg23
I4
sg24
I3
sbssg233
S'@\xe7\xfa\x02?w\xe7\x93\xa3\x85\x0f\x0fz\xf0\xdbR'
p1298
ssS'user_system_views_users_tests_test_add_role_view'
p1299
(dp1300
g42
(dp1301
g44
S'user_system_views_users_tests_test_add_role_view.html'
p1302
sg46
S'user_system/views/users/tests/test_add_role_view'
p1303
sg48
g13
(g14
g15
NtRp1304
(dp1305
g18
I1
sg19
I0
sg20
I36
sg21
I0
sg22
I0
sg23
I0
sg24
I0
sbssg51
S'\x0eh\xf7\xba\x08_N\xdeM\xdf\x03\xbd\x8c\x8a\x89\xd0'
p1306
ssS'learn_urls'
p1307
(dp1308
g29
(dp1309
g31
S'learn_urls.html'
p1310
sg33
S'learn/urls'
p1311
sg35
g13
(g14
g15
NtRp1312
(dp1313
g18
I1
sg19
I0
sg20
I7
sg21
I0
sg22
I0
sg23
I0
sg24
I0
sbssg38
S'\xcb\xf6\xa6\xd7\x96\xcd\xa6E\xd1A\n\xab\xee\xacz\x8b'
p1314
ssS'create_models_tags_tag_type_model'
p1315
(dp1316
g79
(dp1317
g44
S'create_models_tags_tag_type_model.html'
p1318
sg46
S'create/models/tags/tag_type_model'
p1319
sg48
g13
(g14
g15
NtRp1320
(dp1321
g18
I1
sg19
I0
sg20
I15
sg21
I0
sg22
I0
sg23
I0
sg24
I0
sbssg85
S'\x89\x07\x8e\xc7^0\x96Do\xbf\xa5\xca5\xe4\x92\xeb'
p1322
ssS'create_serializers___init__'
p1323
(dp1324
g42
(dp1325
g31
S'create_serializers___init__.html'
p1326
sg33
S'create/serializers/__init__'
p1327
sg35
g13
(g14
g15
NtRp1328
(dp1329
g18
I1
sg19
I0
sg20
I6
sg21
I0
sg22
I0
sg23
I0
sg24
I0
sbssg51
S'\x97\xc3"\xfe\x83V\xc1w\xa6r\x02s qES'
p1330
ssS'create_serializers_books_book_history_serializer'
p1331
(dp1332
S'index'
p1333
(dp1334
g57
S'create_serializers_books_book_history_serializer.html'
p1335
sg59
S'create/serializers/books/book_history_serializer'
p1336
sg61
g13
(g14
g15
NtRp1337
(dp1338
g18
I1
sg19
I0
sg20
I14
sg21
I0
sg22
I0
sg23
I0
sg24
I0
sbssS'hash'
p1339
S'|g\x1e1\xcdq*ob~B\xca\xd92\x8b\x01'
p1340
ssS'create_models_questions_tests_test_question_choice_model'
p1341
(dp1342
g42
(dp1343
S'html_filename'
p1344
S'create_models_questions_tests_test_question_choice_model.html'
p1345
sS'name'
p1346
S'create/models/questions/tests/test_question_choice_model'
p1347
sS'nums'
p1348
g13
(g14
g15
NtRp1349
(dp1350
g18
I1
sg19
I0
sg20
I46
sg21
I0
sg22
I0
sg23
I0
sg24
I0
sbssg51
S'$\x08N\xfb\nW\n\xecG\x9a[\xb7\xe2\xc1\xbd\x06'
p1351
ssS'user_system_models_schools_academic_year_model'
p1352
(dp1353
g710
(dp1354
g1086
S'user_system_models_schools_academic_year_model.html'
p1355
sg1088
S'user_system/models/schools/academic_year_model'
p1356
sg1090
g13
(g14
g15
NtRp1357
(dp1358
g18
I1
sg19
I0
sg20
I23
sg21
I0
sg22
I0
sg23
I0
sg24
I0
sbssg719
S'\xf1Zl\xd3\xdd4\xdcX&\xdf\xf0<.\x11FY'
p1359
ssS'user_system_views_users_tests_test_get_user_by_id_view'
p1360
(dp1361
g42
(dp1362
g69
S'user_system_views_users_tests_test_get_user_by_id_view.html'
p1363
sg71
S'user_system/views/users/tests/test_get_user_by_id_view'
p1364
sg73
g13
(g14
g15
NtRp1365
(dp1366
g18
I1
sg19
I0
sg20
I26
sg21
I0
sg22
I0
sg23
I0
sg24
I0
sbssg51
S'S\xb3\xb3\xd1\xf0B\xb9\xb6\x97P\xad\x15g\xf3\xd7\r'
p1367
ssS'create_models___init__'
p1368
(dp1369
g42
(dp1370
g31
S'create_models___init__.html'
p1371
sg33
S'create/models/__init__'
p1372
sg35
g13
(g14
g15
NtRp1373
(dp1374
g18
I1
sg19
I0
sg20
I6
sg21
I0
sg22
I0
sg23
I0
sg24
I0
sbssg51
S'\x1a\xde\xff\xb8/\x08R\x8e\xff\x13\x8b\xeb`\xfd\x98\xf8'
p1375
ssS'teach___init__'
p1376
(dp1377
g29
(dp1378
g31
S'teach___init__.html'
p1379
sg33
S'teach/__init__'
p1380
sg35
g13
(g14
g15
NtRp1381
(dp1382
g18
I1
sg19
I0
sg20
I0
sg21
I0
sg22
I0
sg23
I0
sg24
I0
sbssg38
S'\x19g\xdfM\x1a\x019\xaf\x1baIeR\xe5u\xa7'
p1383
ssS'create_serializers_tags_tag_history_serializer'
p1384
(dp1385
S'index'
p1386
(dp1387
g491
S'create_serializers_tags_tag_history_serializer.html'
p1388
sg493
S'create/serializers/tags/tag_history_serializer'
p1389
sg495
g13
(g14
g15
NtRp1390
(dp1391
g18
I1
sg19
I0
sg20
I14
sg21
I0
sg22
I0
sg23
I0
sg24
I0
sbssS'hash'
p1392
S'\xc1"\xf9l4\xe66\x8a\xd0)r!\x05Y+\xd2'
p1393
ssS'create_views_tags_tests___init__'
p1394
(dp1395
g450
(dp1396
g452
S'create_views_tags_tests___init__.html'
p1397
sg454
S'create/views/tags/tests/__init__'
p1398
sg456
g13
(g14
g15
NtRp1399
(dp1400
g18
I1
sg19
I0
sg20
I0
sg21
I0
sg22
I0
sg23
I0
sg24
I0
sbssg459
S'\x19g\xdfM\x1a\x019\xaf\x1baIeR\xe5u\xa7'
p1401
ssS'create_serializers_daily_quest_templates___init__'
p1402
(dp1403
g402
(dp1404
g404
S'create_serializers_daily_quest_templates___init__.html'
p1405
sg406
S'create/serializers/daily_quest_templates/__init__'
p1406
sg408
g13
(g14
g15
NtRp1407
(dp1408
g18
I1
sg19
I0
sg20
I1
sg21
I0
sg22
I0
sg23
I0
sg24
I0
sbssg411
S'\xa2\xd34\x1b\xe2+\x16\xa9un\x8f\xa5\xe6\xc4\\p'
p1409
ssS'user_system_views_users___init__'
p1410
(dp1411
g42
(dp1412
g69
S'user_system_views_users___init__.html'
p1413
sg71
S'user_system/views/users/__init__'
p1414
sg73
g13
(g14
g15
NtRp1415
(dp1416
g18
I1
sg19
I0
sg20
I3
sg21
I0
sg22
I0
sg23
I0
sg24
I0
sbssg51
S'\x9eA\x12{_\xed\xd1\xc8\xa7\xb0S\xad\xe5\x04-\xae'
p1417
ssS'user_system_views_apps_tests_test_get_app_by_id_view'
p1418
(dp1419
g42
(dp1420
g44
S'user_system_views_apps_tests_test_get_app_by_id_view.html'
p1421
sg46
S'user_system/views/apps/tests/test_get_app_by_id_view'
p1422
sg48
g13
(g14
g15
NtRp1423
(dp1424
g18
I1
sg19
I0
sg20
I17
sg21
I0
sg22
I0
sg23
I0
sg24
I0
sbssg51
S"\xa2\x1eG%r{-~\xc5=\x8aj\x99X!'"
p1425
ssS'create_views_questions_question_view'
p1426
(dp1427
g42
(dp1428
g904
S'create_views_questions_question_view.html'
p1429
sg906
S'create/views/questions/question_view'
p1430
sg908
g13
(g14
g15
NtRp1431
(dp1432
g18
I1
sg19
I34
sg20
I112
sg21
I0
sg22
I1
sg23
I40
sg24
I21
sbssg51
S"_'M\x9d\x0e\r\xae\x93=\xce\xd2\x1b>\x8eV\xe4"
p1433
ssS'teach_views_teacher_tags_teacher_tag_view'
p1434
(dp1435
g29
(dp1436
g69
S'teach_views_teacher_tags_teacher_tag_view.html'
p1437
sg71
S'teach/views/teacher_tags/teacher_tag_view'
p1438
sg73
g13
(g14
g15
NtRp1439
(dp1440
g18
I1
sg19
I20
sg20
I55
sg21
I0
sg22
I2
sg23
I30
sg24
I18
sbssg38
S'\x94\x8cm\x14V\n{\x9a\xc2/\x8f\xe8\x9f\x13\xf1\xed'
p1441
ssS'flipped_helpers_tests___init__'
p1442
(dp1443
g42
(dp1444
g306
S'flipped_helpers_tests___init__.html'
p1445
sg308
S'flipped/helpers/tests/__init__'
p1446
sg310
g13
(g14
g15
NtRp1447
(dp1448
g18
I1
sg19
I0
sg20
I0
sg21
I0
sg22
I0
sg23
I0
sg24
I0
sbssg51
S'\x19g\xdfM\x1a\x019\xaf\x1baIeR\xe5u\xa7'
p1449
ssS'create_views_books_tests_test_get_book_by_id_view'
p1450
(dp1451
g1333
(dp1452
g44
S'create_views_books_tests_test_get_book_by_id_view.html'
p1453
sg46
S'create/views/books/tests/test_get_book_by_id_view'
p1454
sg48
g13
(g14
g15
NtRp1455
(dp1456
g18
I1
sg19
I0
sg20
I20
sg21
I0
sg22
I0
sg23
I0
sg24
I0
sbssg1339
S'\xc88x\xaf\x84e\xaa6\x17\xdf\x0e\x8c`\xcaAO'
p1457
ssS'user_system_views_apps_tests___init__'
p1458
(dp1459
g42
(dp1460
g306
S'user_system_views_apps_tests___init__.html'
p1461
sg308
S'user_system/views/apps/tests/__init__'
p1462
sg310
g13
(g14
g15
NtRp1463
(dp1464
g18
I1
sg19
I0
sg20
I0
sg21
I0
sg22
I0
sg23
I0
sg24
I0
sbssg51
S'\x19g\xdfM\x1a\x019\xaf\x1baIeR\xe5u\xa7'
p1465
ssS'create_views_quests_tests_test_add_question_view'
p1466
(dp1467
g6
(dp1468
g8
S'create_views_quests_tests_test_add_question_view.html'
p1469
sg10
S'create/views/quests/tests/test_add_question_view'
p1470
sg12
g13
(g14
g15
NtRp1471
(dp1472
g18
I1
sg19
I0
sg20
I0
sg21
I0
sg22
I0
sg23
I0
sg24
I0
sbssg25
S'\x19g\xdfM\x1a\x019\xaf\x1baIeR\xe5u\xa7'
p1473
ssS'user_system_serializers___init__'
p1474
(dp1475
g42
(dp1476
g31
S'user_system_serializers___init__.html'
p1477
sg33
S'user_system/serializers/__init__'
p1478
sg35
g13
(g14
g15
NtRp1479
(dp1480
g18
I1
sg19
I0
sg20
I3
sg21
I0
sg22
I0
sg23
I0
sg24
I0
sbssg51
S'\x85\x12\xbd.\x85L4\xea\t4\x9c\xcf\xb5 \x81\xb4'
p1481
ssS'user_system_serializers_users_user_profile_update_request_serializer'
p1482
(dp1483
g237
(dp1484
g604
S'user_system_serializers_users_user_profile_update_request_serializer.html'
p1485
sg606
S'user_system/serializers/users/user_profile_update_request_serializer'
p1486
sg608
g13
(g14
g15
NtRp1487
(dp1488
g18
I1
sg19
I0
sg20
I20
sg21
I0
sg22
I0
sg23
I2
sg24
I0
sbssg246
S'\x19EO\xe6\xb5\xdbWY\xb8\xd9\x1cP&\xe3\xc4\xca'
p1489
ssS'teach_models_daily_quest_templates_tests___init__'
p1490
(dp1491
g29
(dp1492
g31
S'teach_models_daily_quest_templates_tests___init__.html'
p1493
sg33
S'teach/models/daily_quest_templates/tests/__init__'
p1494
sg35
g13
(g14
g15
NtRp1495
(dp1496
g18
I1
sg19
I0
sg20
I0
sg21
I0
sg22
I0
sg23
I0
sg24
I0
sbssg38
S'\x19g\xdfM\x1a\x019\xaf\x1baIeR\xe5u\xa7'
p1497
ssS'user_system_serializers_schools_grade_serializer'
p1498
(dp1499
g237
(dp1500
g69
S'user_system_serializers_schools_grade_serializer.html'
p1501
sg71
S'user_system/serializers/schools/grade_serializer'
p1502
sg73
g13
(g14
g15
NtRp1503
(dp1504
g18
I1
sg19
I0
sg20
I9
sg21
I0
sg22
I0
sg23
I0
sg24
I0
sbssg246
S"()\x18t._h'\x1c\x9bV\x14KS\xf6,"
p1505
ssS'create_models_questions_tests___init__'
p1506
(dp1507
g42
(dp1508
g306
S'create_models_questions_tests___init__.html'
p1509
sg308
S'create/models/questions/tests/__init__'
p1510
sg310
g13
(g14
g15
NtRp1511
(dp1512
g18
I1
sg19
I0
sg20
I0
sg21
I0
sg22
I0
sg23
I0
sg24
I0
sbssg51
S'\x19g\xdfM\x1a\x019\xaf\x1baIeR\xe5u\xa7'
p1513
ssS'user_system_models_users_student_profile_model'
p1514
(dp1515
g734
(dp1516
g758
S'user_system_models_users_student_profile_model.html'
p1517
sg760
S'user_system/models/users/student_profile_model'
p1518
sg762
g13
(g14
g15
NtRp1519
(dp1520
g18
I1
sg19
I0
sg20
I35
sg21
I0
sg22
I0
sg23
I0
sg24
I0
sbssg740
S'\xe3|\x06.-\xe4X\xa8\xe9?Rqb%C8'
p1521
ssS'create_models_daily_quest_copies___init__'
p1522
(dp1523
g295
(dp1524
g876
S'create_models_daily_quest_copies___init__.html'
p1525
sg878
S'create/models/daily_quest_copies/__init__'
p1526
sg880
g13
(g14
g15
NtRp1527
(dp1528
g18
I1
sg19
I0
sg20
I1
sg21
I0
sg22
I0
sg23
I0
sg24
I0
sbssg301
S'\xee\xef\xb8!Z;\x9e_\xb5g4\xe9\xac@l\xe6'
p1529
ssS'flipped_helpers_tests_test_email_helper'
p1530
(dp1531
g42
(dp1532
g44
S'flipped_helpers_tests_test_email_helper.html'
p1533
sg46
S'flipped/helpers/tests/test_email_helper'
p1534
sg48
g13
(g14
g15
NtRp1535
(dp1536
g18
I1
sg19
I0
sg20
I13
sg21
I0
sg22
I0
sg23
I0
sg24
I0
sbssg51
S'\x13\xee\xcb^E:3A\xff)v\x7f\xd3\xa7\xa2\xaa'
p1537
ssS'learn_models_daily_quests_tests_test_daily_quest_model'
p1538
(dp1539
g29
(dp1540
g239
S'learn_models_daily_quests_tests_test_daily_quest_model.html'
p1541
sg241
S'learn/models/daily_quests/tests/test_daily_quest_model'
p1542
sg243
g13
(g14
g15
NtRp1543
(dp1544
g18
I1
sg19
I2
sg20
I55
sg21
I0
sg22
I0
sg23
I0
sg24
I0
sbssg38
S'V\xa0<\x80\xb2\xef\xa6o\x8d\xccQ\xe4\x88r\x079'
p1545
ssS'create_models_books_book_chapter_model'
p1546
(dp1547
g55
(dp1548
g69
S'create_models_books_book_chapter_model.html'
p1549
sg71
S'create/models/books/book_chapter_model'
p1550
sg73
g13
(g14
g15
NtRp1551
(dp1552
g18
I1
sg19
I8
sg20
I58
sg21
I0
sg22
I1
sg23
I3
sg24
I3
sbssg64
S'5h\xa3E\x99\xf4H\x97\xbf\x08?=+K\xe7\xad'
p1553
ssS'teach_views___init__'
p1554
(dp1555
g29
(dp1556
g31
S'teach_views___init__.html'
p1557
sg33
S'teach/views/__init__'
p1558
sg35
g13
(g14
g15
NtRp1559
(dp1560
g18
I1
sg19
I0
sg20
I1
sg21
I0
sg22
I0
sg23
I0
sg24
I0
sbssg38
S'\x03\x9e\x1b\xd8\xda\xaft\xa7Q\xa1\xa8\x9dl\xaa\xc6V'
p1561
ssS'user_system_serializers_users___init__'
p1562
(dp1563
g42
(dp1564
g69
S'user_system_serializers_users___init__.html'
p1565
sg71
S'user_system/serializers/users/__init__'
p1566
sg73
g13
(g14
g15
NtRp1567
(dp1568
g18
I1
sg19
I0
sg20
I6
sg21
I0
sg22
I0
sg23
I0
sg24
I0
sbssg51
S'\x97\xb4$\xc7\xf6\xdco\xf8Q}Z\t\xf7\x9c\x7f\x12'
p1569
ssS'user_system_admin'
p1570
(dp1571
g42
(dp1572
g604
S'user_system_admin.html'
p1573
sg606
S'user_system/admin'
p1574
sg608
g13
(g14
g15
NtRp1575
(dp1576
g18
I1
sg19
I0
sg20
I24
sg21
I0
sg22
I0
sg23
I0
sg24
I0
sbssg51
S'_t5\xe0\xf8\x00@\xb2V4i\xf6oVD\xe1'
p1577
ssS'teach_models_teacher_tags_tests_test_teacher_tag_model'
p1578
(dp1579
g29
(dp1580
g31
S'teach_models_teacher_tags_tests_test_teacher_tag_model.html'
p1581
sg33
S'teach/models/teacher_tags/tests/test_teacher_tag_model'
p1582
sg35
g13
(g14
g15
NtRp1583
(dp1584
g18
I1
sg19
I0
sg20
I30
sg21
I0
sg22
I0
sg23
I0
sg24
I0
sbssg38
S'\xf3\x06\xd8\xd6\x93V\xab\xdc\x87\x05\xf6vJ\xa9`\xe6'
p1585
ssS'user_system_serializers_users_teacher_profile_serializer'
p1586
(dp1587
g237
(dp1588
g69
S'user_system_serializers_users_teacher_profile_serializer.html'
p1589
sg71
S'user_system/serializers/users/teacher_profile_serializer'
p1590
sg73
g13
(g14
g15
NtRp1591
(dp1592
g18
I1
sg19
I4
sg20
I20
sg21
I0
sg22
I0
sg23
I9
sg24
I4
sbssg246
S'\xe2\xa5\xba\xd6e\xc2\x88\xab\xaes\x15\x08\xa9ta\xd6'
p1593
ssS'learn_models___init__'
p1594
(dp1595
g29
(dp1596
g31
S'learn_models___init__.html'
p1597
sg33
S'learn/models/__init__'
p1598
sg35
g13
(g14
g15
NtRp1599
(dp1600
g18
I1
sg19
I0
sg20
I1
sg21
I0
sg22
I0
sg23
I0
sg24
I0
sbssg38
S'cLP\xd9\xc0\x91mD\xa3\xd2\xbczr\xdak\xf4'
p1601
ssS'user_system_models_users_tests___init__'
p1602
(dp1603
g42
(dp1604
g306
S'user_system_models_users_tests___init__.html'
p1605
sg308
S'user_system/models/users/tests/__init__'
p1606
sg310
g13
(g14
g15
NtRp1607
(dp1608
g18
I1
sg19
I0
sg20
I0
sg21
I0
sg22
I0
sg23
I0
sg24
I0
sbssg51
S'\x19g\xdfM\x1a\x019\xaf\x1baIeR\xe5u\xa7'
p1609
ssS'create_views_quests_tests___init__'
p1610
(dp1611
g6
(dp1612
g8
S'create_views_quests_tests___init__.html'
p1613
sg10
S'create/views/quests/tests/__init__'
p1614
sg12
g13
(g14
g15
NtRp1615
(dp1616
g18
I1
sg19
I0
sg20
I0
sg21
I0
sg22
I0
sg23
I0
sg24
I0
sbssg25
S'\x19g\xdfM\x1a\x019\xaf\x1baIeR\xe5u\xa7'
p1617
ssS'user_system_models_users_user_profile_picture_model'
p1618
(dp1619
g237
(dp1620
g69
S'user_system_models_users_user_profile_picture_model.html'
p1621
sg71
S'user_system/models/users/user_profile_picture_model'
p1622
sg73
g13
(g14
g15
NtRp1623
(dp1624
g18
I1
sg19
I0
sg20
I18
sg21
I0
sg22
I0
sg23
I0
sg24
I0
sbssg246
S'$E\xff\xf5f,\xb2\xc7\xb4\x9b*\x0es|s\xcc'
p1625
ssS'user_system_models_schools_tests_test_academic_year_model'
p1626
(dp1627
g710
(dp1628
g1086
S'user_system_models_schools_tests_test_academic_year_model.html'
p1629
sg1088
S'user_system/models/schools/tests/test_academic_year_model'
p1630
sg1090
g13
(g14
g15
NtRp1631
(dp1632
g18
I1
sg19
I0
sg20
I28
sg21
I0
sg22
I0
sg23
I0
sg24
I0
sbssg719
S'{=\xee\xbc8\xbd\xa7\xdd\x0f!3\xf8\xf0os\xe2'
p1633
ssS'create_views_quests_tests_test_remove_question_view'
p1634
(dp1635
g6
(dp1636
g8
S'create_views_quests_tests_test_remove_question_view.html'
p1637
sg10
S'create/views/quests/tests/test_remove_question_view'
p1638
sg12
g13
(g14
g15
NtRp1639
(dp1640
g18
I1
sg19
I0
sg20
I0
sg21
I0
sg22
I0
sg23
I0
sg24
I0
sbssg25
S'\x19g\xdfM\x1a\x019\xaf\x1baIeR\xe5u\xa7'
p1641
ssS'user_system_views_users_tests_test_delete_user_view'
p1642
(dp1643
g42
(dp1644
g44
S'user_system_views_users_tests_test_delete_user_view.html'
p1645
sg46
S'user_system/views/users/tests/test_delete_user_view'
p1646
sg48
g13
(g14
g15
NtRp1647
(dp1648
g18
I1
sg19
I0
sg20
I22
sg21
I0
sg22
I0
sg23
I0
sg24
I0
sbssg51
S'\xe4S$\xa1t\xc6\xbe\xc7\xb9^Y\x05{\x92KQ'
p1649
ssS'teach_models_teacher_tags_teacher_tag_model'
p1650
(dp1651
g29
(dp1652
g31
S'teach_models_teacher_tags_teacher_tag_model.html'
p1653
sg33
S'teach/models/teacher_tags/teacher_tag_model'
p1654
sg35
g13
(g14
g15
NtRp1655
(dp1656
g18
I1
sg19
I0
sg20
I30
sg21
I0
sg22
I0
sg23
I0
sg24
I0
sbssg38
S'\\\xb6A\xa8\xa7\x93\x16K\xceQ>\xe8t\xdb<#'
p1657
ssS'user_system_models_schools_organization_model'
p1658
(dp1659
g710
(dp1660
g44
S'user_system_models_schools_organization_model.html'
p1661
sg46
S'user_system/models/schools/organization_model'
p1662
sg48
g13
(g14
g15
NtRp1663
(dp1664
g18
I1
sg19
I0
sg20
I20
sg21
I0
sg22
I0
sg23
I0
sg24
I0
sbssg719
S'\x1fi\x9a\xcev\xa5J\xbd\xca\xac~\xed\x02 \xf4A'
p1665
ssS'create_views_books_tests_test_hide_book_view'
p1666
(dp1667
g1333
(dp1668
g44
S'create_views_books_tests_test_hide_book_view.html'
p1669
sg46
S'create/views/books/tests/test_hide_book_view'
p1670
sg48
g13
(g14
g15
NtRp1671
(dp1672
g18
I1
sg19
I0
sg20
I25
sg21
I0
sg22
I0
sg23
I0
sg24
I0
sbssg1339
S'\xe1\x17\x16\xca\x8a\xc5c\x1b\xce\xab\xb8\xf9G\x03\x9dQ'
p1673
ssS'teach_models_daily_quest_templates_daily_quest_template_model'
p1674
(dp1675
g29
(dp1676
g31
S'teach_models_daily_quest_templates_daily_quest_template_model.html'
p1677
sg33
S'teach/models/daily_quest_templates/daily_quest_template_model'
p1678
sg35
g13
(g14
g15
NtRp1679
(dp1680
g18
I1
sg19
I0
sg20
I29
sg21
I0
sg22
I0
sg23
I0
sg24
I0
sbssg38
S'm:\xfa\nsk\x85\xa8p\x96\xc3\xca\xa1c\xb0+'
p1681
ssS'user_system_models_schools_grade_model'
p1682
(dp1683
g734
(dp1684
g69
S'user_system_models_schools_grade_model.html'
p1685
sg71
S'user_system/models/schools/grade_model'
p1686
sg73
g13
(g14
g15
NtRp1687
(dp1688
g18
I1
sg19
I0
sg20
I29
sg21
I0
sg22
I0
sg23
I2
sg24
I0
sbssg740
S'\xd1\x1ao\xd1`\xfa\x9d\x94\xb75\xe7\xb5\x0e\xc3\x80\xa7'
p1689
ssS'user_system_models_users_user_profile_update_request_model'
p1690
(dp1691
g237
(dp1692
g604
S'user_system_models_users_user_profile_update_request_model.html'
p1693
sg606
S'user_system/models/users/user_profile_update_request_model'
p1694
sg608
g13
(g14
g15
NtRp1695
(dp1696
g18
I1
sg19
I0
sg20
I58
sg21
I0
sg22
I0
sg23
I2
sg24
I0
sbssg246
S"\x1c\xaa'\xd2w+\xbb\x17#\xe75\x1e\x8d\xad\xa6\xa7"
p1697
ssS'create_models_daily_quests_tests_test_daily_quest_model'
p1698
(dp1699
g874
(dp1700
g404
S'create_models_daily_quests_tests_test_daily_quest_model.html'
p1701
sg406
S'create/models/daily_quests/tests/test_daily_quest_model'
p1702
sg408
g13
(g14
g15
NtRp1703
(dp1704
g18
I1
sg19
I2
sg20
I51
sg21
I0
sg22
I0
sg23
I0
sg24
I0
sbssg883
S'\x16\x87\xb8\xd4K\xb4\x87\xf9\x84\xc4V\x94\x17\xf6\x1a\xf0'
p1705
ssS'create_serializers_questions_question_choice_serializer'
p1706
(dp1707
g42
(dp1708
g306
S'create_serializers_questions_question_choice_serializer.html'
p1709
sg308
S'create/serializers/questions/question_choice_serializer'
p1710
sg310
g13
(g14
g15
NtRp1711
(dp1712
g18
I1
sg19
I0
sg20
I6
sg21
I0
sg22
I0
sg23
I0
sg24
I0
sbssg51
S'\xfe6\xfd\x11\xaaH\xd9\xf4\xe6\x97\xd8\xea\xe5z%F'
p1713
ssS'create_views_questions_question_history_remark_view'
p1714
(dp1715
S'index'
p1716
(dp1717
g464
S'create_views_questions_question_history_remark_view.html'
p1718
sg466
S'create/views/questions/question_history_remark_view'
p1719
sg468
g13
(g14
g15
NtRp1720
(dp1721
g18
I1
sg19
I0
sg20
I14
sg21
I0
sg22
I0
sg23
I0
sg24
I0
sbssS'hash'
p1722
S'{4O\x0e\xb3\xad\xc8\xb72\x8f\x1f\x11\xc0\x9e\xa0\xd6'
p1723
ssS'user_system_serializers_schools_course_serializer'
p1724
(dp1725
g237
(dp1726
g69
S'user_system_serializers_schools_course_serializer.html'
p1727
sg71
S'user_system/serializers/schools/course_serializer'
p1728
sg73
g13
(g14
g15
NtRp1729
(dp1730
g18
I1
sg19
I0
sg20
I16
sg21
I0
sg22
I0
sg23
I2
sg24
I0
sbssg246
S'\xb0\xa8O3\x01\xce\xfe3\x12\x94\xc0\xc4\xe0@\xafJ'
p1731
ssS'create_serializers_questions_question_template_serializer'
p1732
(dp1733
g224
(dp1734
g57
S'create_serializers_questions_question_template_serializer.html'
p1735
sg59
S'create/serializers/questions/question_template_serializer'
p1736
sg61
g13
(g14
g15
NtRp1737
(dp1738
g18
I1
sg19
I0
sg20
I43
sg21
I0
sg22
I0
sg23
I9
sg24
I0
sbssg233
S'\x1a\x149\xdb\xb8\xc7\xfc\xb6\xbc\x8b\xfe\x8e~N\xb9J'
p1739
ssS'create_models_quests_quest_model'
p1740
(dp1741
g224
(dp1742
g226
S'create_models_quests_quest_model.html'
p1743
sg228
S'create/models/quests/quest_model'
p1744
sg230
g13
(g14
g15
NtRp1745
(dp1746
g18
I1
sg19
I4
sg20
I59
sg21
I0
sg22
I0
sg23
I13
sg24
I4
sbssg233
S'^g\x1e\x82\xee1[\xc0\xbe\x04\xca\xb1`M\xe7\xe9'
p1747
ssS'create_models_tags_tag_history_model'
p1748
(dp1749
g158
(dp1750
g746
S'create_models_tags_tag_history_model.html'
p1751
sg748
S'create/models/tags/tag_history_model'
p1752
sg750
g13
(g14
g15
NtRp1753
(dp1754
g18
I1
sg19
I0
sg20
I37
sg21
I0
sg22
I0
sg23
I0
sg24
I0
sbssg164
S'\xae\xc8g\xc1\xf5l<\x1f\x9c\xaf\x17\xf98\r\xa1\xe2'
p1755
ssS'user_system_views_users_tests_test_remove_role_view'
p1756
(dp1757
g42
(dp1758
g44
S'user_system_views_users_tests_test_remove_role_view.html'
p1759
sg46
S'user_system/views/users/tests/test_remove_role_view'
p1760
sg48
g13
(g14
g15
NtRp1761
(dp1762
g18
I1
sg19
I0
sg20
I42
sg21
I0
sg22
I0
sg23
I0
sg24
I0
sbssg51
S'\xfb\x9b\xa3\xe5\x90\xe7q99\x19\x10"<@L\x8c'
p1763
ssS'create_admin'
p1764
(dp1765
g42
(dp1766
g31
S'create_admin.html'
p1767
sg33
S'create/admin'
p1768
sg35
g13
(g14
g15
NtRp1769
(dp1770
g18
I1
sg19
I0
sg20
I20
sg21
I0
sg22
I0
sg23
I0
sg24
I0
sbssg51
S'\x03\xe6\xc2\xd5\xa8\xb1\x92\xa5/8\x0fZCN\r\x08'
p1771
ssS'create_views_questions_tests_test_get_question_list_view'
p1772
(dp1773
g42
(dp1774
g44
S'create_views_questions_tests_test_get_question_list_view.html'
p1775
sg46
S'create/views/questions/tests/test_get_question_list_view'
p1776
sg48
g13
(g14
g15
NtRp1777
(dp1778
g18
I1
sg19
I0
sg20
I32
sg21
I0
sg22
I0
sg23
I0
sg24
I0
sbssg51
S'\xa2&\x88;1\\\xa2 \xb4&ejB\xd1%\x06'
p1779
ssS'create_serializers_daily_quest_copies___init__'
p1780
(dp1781
g295
(dp1782
g876
S'create_serializers_daily_quest_copies___init__.html'
p1783
sg878
S'create/serializers/daily_quest_copies/__init__'
p1784
sg880
g13
(g14
g15
NtRp1785
(dp1786
g18
I1
sg19
I0
sg20
I1
sg21
I0
sg22
I0
sg23
I0
sg24
I0
sbssg301
S'\nX]\x85Nc\xb8\xc0\xe1\xaf\xa0\xda_\x9e\xb9u'
p1787
ssS'learn_views_daily_quests_daily_quest_view'
p1788
(dp1789
g29
(dp1790
g31
S'learn_views_daily_quests_daily_quest_view.html'
p1791
sg33
S'learn/views/daily_quests/daily_quest_view'
p1792
sg35
g13
(g14
g15
NtRp1793
(dp1794
g18
I1
sg19
I8
sg20
I34
sg21
I0
sg22
I0
sg23
I17
sg24
I8
sbssg38
S'PH\xfd\xe6~\\?\xaet\xcb\x15\x1a\x0f,!\x9c'
p1795
ssS'user_system_models_apps___init__'
p1796
(dp1797
g42
(dp1798
g306
S'user_system_models_apps___init__.html'
p1799
sg308
S'user_system/models/apps/__init__'
p1800
sg310
g13
(g14
g15
NtRp1801
(dp1802
g18
I1
sg19
I0
sg20
I1
sg21
I0
sg22
I0
sg23
I0
sg24
I0
sbssg51
S'\n\xe9\xce\x15)\x8d\xc6\xdd\xe0\x9b\x990[\xae\x8cl'
p1803
ssS'create_models_tags_tests_test_tag_history_model'
p1804
(dp1805
g158
(dp1806
g31
S'create_models_tags_tests_test_tag_history_model.html'
p1807
sg33
S'create/models/tags/tests/test_tag_history_model'
p1808
sg35
g13
(g14
g15
NtRp1809
(dp1810
g18
I1
sg19
I0
sg20
I58
sg21
I0
sg22
I0
sg23
I0
sg24
I0
sbssg164
S"\x05Y\xa9\xba\xf0\xa8\xd2*7_\xcb]\xfb*#'"
p1811
ssS'user_system_models_schools_course_model'
p1812
(dp1813
g734
(dp1814
g69
S'user_system_models_schools_course_model.html'
p1815
sg71
S'user_system/models/schools/course_model'
p1816
sg73
g13
(g14
g15
NtRp1817
(dp1818
g18
I1
sg19
I6
sg20
I37
sg21
I0
sg22
I0
sg23
I13
sg24
I6
sbssg740
S'o\xf1\xa2\xb4\xf9\x80\x19bT\x08l\xe7\xd2\x83%2'
p1819
ssS'api_logging_managers'
p1820
(dp1821
g158
(dp1822
g44
S'api_logging_managers.html'
p1823
sg46
S'api_logging/managers'
p1824
sg48
g13
(g14
g15
NtRp1825
(dp1826
g18
I1
sg19
I0
sg20
I4
sg21
I0
sg22
I0
sg23
I0
sg24
I0
sbssg164
S'\xef\xaf\x98\xcd63\x10\x1c\xc1\xfcP\x12\xc1\xe7\xa5\xc7'
p1827
ssS'create_views_daily_quest_templates_daily_quest_template_view'
p1828
(dp1829
g402
(dp1830
g404
S'create_views_daily_quest_templates_daily_quest_template_view.html'
p1831
sg406
S'create/views/daily_quest_templates/daily_quest_template_view'
p1832
sg408
g13
(g14
g15
NtRp1833
(dp1834
g18
I1
sg19
I4
sg20
I20
sg21
I0
sg22
I0
sg23
I5
sg24
I4
sbssg411
S'*(w\xa3\x82\x06\xe8D\x8c\xaa+3\xbc\xe3\xa5\x1d'
p1835
ssS'create_models_questions_question_history_remark_model'
p1836
(dp1837
g1716
(dp1838
g464
S'create_models_questions_question_history_remark_model.html'
p1839
sg466
S'create/models/questions/question_history_remark_model'
p1840
sg468
g13
(g14
g15
NtRp1841
(dp1842
g18
I1
sg19
I0
sg20
I27
sg21
I0
sg22
I0
sg23
I0
sg24
I0
sbssg1722
S'\xac"G5\x1c\xf2\xef\xa9\x1dUd\xce4.\xac\xa4'
p1843
ssS'create_models_quests___init__'
p1844
(dp1845
g224
(dp1846
S'html_filename'
p1847
S'create_models_quests___init__.html'
p1848
sS'name'
p1849
S'create/models/quests/__init__'
p1850
sS'nums'
p1851
g13
(g14
g15
NtRp1852
(dp1853
g18
I1
sg19
I0
sg20
I2
sg21
I0
sg22
I0
sg23
I0
sg24
I0
sbssg233
S'\x1e\x87\x83\xe2\x04\x1d\xcd:`\x99V\x85#\xca\x12^'
p1854
ssS'teach_models_teacher_chapters_teacher_chapter_model'
p1855
(dp1856
g29
(dp1857
g325
S'teach_models_teacher_chapters_teacher_chapter_model.html'
p1858
sg327
S'teach/models/teacher_chapters/teacher_chapter_model'
p1859
sg329
g13
(g14
g15
NtRp1860
(dp1861
g18
I1
sg19
I0
sg20
I23
sg21
I0
sg22
I0
sg23
I0
sg24
I0
sbssg38
S'\x97T&\xd0\x81q\xc2M\xc3\x03\x01U\xf5S!h'
p1862
ssS'user_system_views_signups_hardcoded_tests_test_test_account_view'
p1863
(dp1864
g42
(dp1865
g44
S'user_system_views_signups_hardcoded_tests_test_test_account_view.html'
p1866
sg46
S'user_system/views/signups/hardcoded/tests/test_test_account_view'
p1867
sg48
g13
(g14
g15
NtRp1868
(dp1869
g18
I1
sg19
I0
sg20
I24
sg21
I0
sg22
I0
sg23
I0
sg24
I0
sbssg51
S'@\xc3::\xf8h\x1aT\x9f\x83\xee1\xb7\x9a\xe0\xf9'
p1870
ssS'create_serializers_questions_question_serializer'
p1871
(dp1872
g42
(dp1873
g464
S'create_serializers_questions_question_serializer.html'
p1874
sg466
S'create/serializers/questions/question_serializer'
p1875
sg468
g13
(g14
g15
NtRp1876
(dp1877
g18
I1
sg19
I0
sg20
I49
sg21
I0
sg22
I0
sg23
I8
sg24
I0
sbssg51
S"\xe2+\xa1\xb6'\xeb\x95\x0f\xa8\xe6\x0fZnV\x15\xca"
p1878
ssS'create_views_daily_quest_copies___init__'
p1879
(dp1880
g295
(dp1881
g876
S'create_views_daily_quest_copies___init__.html'
p1882
sg878
S'create/views/daily_quest_copies/__init__'
p1883
sg880
g13
(g14
g15
NtRp1884
(dp1885
g18
I1
sg19
I0
sg20
I1
sg21
I0
sg22
I0
sg23
I0
sg24
I0
sbssg301
S"'\xb6_z\x90s\x92\xdd\xc7\xb2\x87d\xba\xe24X"
p1886
ssS'create_views_quests_tests_test_hide_quest_view'
p1887
(dp1888
g6
(dp1889
g8
S'create_views_quests_tests_test_hide_quest_view.html'
p1890
sg10
S'create/views/quests/tests/test_hide_quest_view'
p1891
sg12
g13
(g14
g15
NtRp1892
(dp1893
g18
I1
sg19
I0
sg20
I26
sg21
I0
sg22
I0
sg23
I0
sg24
I0
sbssg25
S'G\xcb\xcf\xbb~*\xa2i\xd2\xff\x81\x81\xf0)G\xda'
p1894
ssS'create_models_questions_question_template_model'
p1895
(dp1896
g224
(dp1897
S'html_filename'
p1898
S'create_models_questions_question_template_model.html'
p1899
sS'name'
p1900
S'create/models/questions/question_template_model'
p1901
sS'nums'
p1902
g13
(g14
g15
NtRp1903
(dp1904
g18
I1
sg19
I0
sg20
I40
sg21
I0
sg22
I0
sg23
I0
sg24
I0
sbssg233
S'\x845gz\x1d\x17\x1dv\x81\n\x96G\x99pE\\'
p1905
ssS'create_views_questions_tests_test_get_question_by_id_view'
p1906
(dp1907
g42
(dp1908
g44
S'create_views_questions_tests_test_get_question_by_id_view.html'
p1909
sg46
S'create/views/questions/tests/test_get_question_by_id_view'
p1910
sg48
g13
(g14
g15
NtRp1911
(dp1912
g18
I1
sg19
I0
sg20
I24
sg21
I0
sg22
I0
sg23
I0
sg24
I0
sbssg51
S'\xa7[\x91\xa9\xa6\xb4\xbd&n$O^O\xec\xf2X'
p1913
ssS'teach_models_teacher_tags_tests___init__'
p1914
(dp1915
g29
(dp1916
g31
S'teach_models_teacher_tags_tests___init__.html'
p1917
sg33
S'teach/models/teacher_tags/tests/__init__'
p1918
sg35
g13
(g14
g15
NtRp1919
(dp1920
g18
I1
sg19
I0
sg20
I0
sg21
I0
sg22
I0
sg23
I0
sg24
I0
sbssg38
S'\x19g\xdfM\x1a\x019\xaf\x1baIeR\xe5u\xa7'
p1921
ssS'create_models_tags_concept_model'
p1922
(dp1923
g79
(dp1924
g44
S'create_models_tags_concept_model.html'
p1925
sg46
S'create/models/tags/concept_model'
p1926
sg48
g13
(g14
g15
NtRp1927
(dp1928
g18
I1
sg19
I0
sg20
I10
sg21
I0
sg22
I0
sg23
I0
sg24
I0
sbssg85
S'@vb\xbd\xcay\xb1b\x9e\xaf\xc0v/\xd6\x13\xd3'
p1929
ssS'create_views_daily_quests_daily_quest_view'
p1930
(dp1931
g402
(dp1932
g404
S'create_views_daily_quests_daily_quest_view.html'
p1933
sg406
S'create/views/daily_quests/daily_quest_view'
p1934
sg408
g13
(g14
g15
NtRp1935
(dp1936
g18
I1
sg19
I8
sg20
I34
sg21
I0
sg22
I0
sg23
I17
sg24
I8
sbssg411
S'\x9b\xbe99\x1cP\x1d\xd8iT&I;\xb4\xbbf'
p1937
ssS'create_serializers_quests___init__'
p1938
(dp1939
g224
(dp1940
g69
S'create_serializers_quests___init__.html'
p1941
sg71
S'create/serializers/quests/__init__'
p1942
sg73
g13
(g14
g15
NtRp1943
(dp1944
g18
I1
sg19
I0
sg20
I2
sg21
I0
sg22
I0
sg23
I0
sg24
I0
sbssg233
S'\xc0,Fh\xaf\xa0(\x8f\xde\x02{\x88!\x04\x7f\xb6'
p1945
ssS'learn_models_daily_quests_tests___init__'
p1946
(dp1947
g29
(dp1948
g31
S'learn_models_daily_quests_tests___init__.html'
p1949
sg33
S'learn/models/daily_quests/tests/__init__'
p1950
sg35
g13
(g14
g15
NtRp1951
(dp1952
g18
I1
sg19
I0
sg20
I1
sg21
I0
sg22
I0
sg23
I0
sg24
I0
sbssg38
S'\xbc\xd6\xeb\xb3\xba\xcaz\xf7{\xd4B\xb5}l\xdf\x96'
p1953
ssS'create_models_tags_tests___init__'
p1954
(dp1955
g79
(dp1956
S'html_filename'
p1957
S'create_models_tags_tests___init__.html'
p1958
sS'name'
p1959
S'create/models/tags/tests/__init__'
p1960
sS'nums'
p1961
g13
(g14
g15
NtRp1962
(dp1963
g18
I1
sg19
I0
sg20
I1
sg21
I0
sg22
I0
sg23
I0
sg24
I0
sbssg85
S'\xbc\xd6\xeb\xb3\xba\xcaz\xf7{\xd4B\xb5}l\xdf\x96'
p1964
ssS'create_serializers_books_book_subchapter_serializer'
p1965
(dp1966
g55
(dp1967
g57
S'create_serializers_books_book_subchapter_serializer.html'
p1968
sg59
S'create/serializers/books/book_subchapter_serializer'
p1969
sg61
g13
(g14
g15
NtRp1970
(dp1971
g18
I1
sg19
I0
sg20
I18
sg21
I0
sg22
I0
sg23
I3
sg24
I0
sbssg64
S'89\x89\x89\xd8\x94\xd2l\x98G]\xad\xe1\xf7\x93\xfc'
p1972
ssS'user_system_models_schools_classroom_model'
p1973
(dp1974
g734
(dp1975
g69
S'user_system_models_schools_classroom_model.html'
p1976
sg71
S'user_system/models/schools/classroom_model'
p1977
sg73
g13
(g14
g15
NtRp1978
(dp1979
g18
I1
sg19
I2
sg20
I24
sg21
I0
sg22
I0
sg23
I0
sg24
I0
sbssg740
S's\x9dAY\xfa\x193;Wk>\xae\xde\xcf\xe5\xef'
p1980
ssS'learn_serializers___init__'
p1981
(dp1982
g29
(dp1983
g31
S'learn_serializers___init__.html'
p1984
sg33
S'learn/serializers/__init__'
p1985
sg35
g13
(g14
g15
NtRp1986
(dp1987
g18
I1
sg19
I0
sg20
I1
sg21
I0
sg22
I0
sg23
I0
sg24
I0
sbssg38
S'cLP\xd9\xc0\x91mD\xa3\xd2\xbczr\xdak\xf4'
p1988
ssS'user_system_views_schools___init__'
p1989
(dp1990
g237
(dp1991
g69
S'user_system_views_schools___init__.html'
p1992
sg71
S'user_system/views/schools/__init__'
p1993
sg73
g13
(g14
g15
NtRp1994
(dp1995
g18
I1
sg19
I0
sg20
I2
sg21
I0
sg22
I0
sg23
I0
sg24
I0
sbssg246
S'\x85\xe2\x7f\xa7\xac\x16HY\x8b\x10\x9b\xc0r\x17|\x8c'
p1996
ssS'create_views_questions___init__'
p1997
(dp1998
g42
(dp1999
g464
S'create_views_questions___init__.html'
p2000
sg466
S'create/views/questions/__init__'
p2001
sg468
g13
(g14
g15
NtRp2002
(dp2003
g18
I1
sg19
I0
sg20
I3
sg21
I0
sg22
I0
sg23
I0
sg24
I0
sbssg51
S'h\x154\xc5\xe58\xa8\xc8\xa9\xa6\xbea?\xcf?i'
p2004
ssS'create_views_quests___init__'
p2005
(dp2006
g224
(dp2007
g1847
S'create_views_quests___init__.html'
p2008
sg1849
S'create/views/quests/__init__'
p2009
sg1851
g13
(g14
g15
NtRp2010
(dp2011
g18
I1
sg19
I0
sg20
I1
sg21
I0
sg22
I0
sg23
I0
sg24
I0
sbssg233
S'\x8d\x97\x8c^6\xf0o\xc3_\x8dRQ}\xd2]a'
p2012
ssS'create_serializers_daily_quest_copies_daily_quest_copy_serializer'
p2013
(dp2014
g295
(dp2015
g876
S'create_serializers_daily_quest_copies_daily_quest_copy_serializer.html'
p2016
sg878
S'create/serializers/daily_quest_copies/daily_quest_copy_serializer'
p2017
sg880
g13
(g14
g15
NtRp2018
(dp2019
g18
I1
sg19
I0
sg20
I18
sg21
I0
sg22
I0
sg23
I3
sg24
I0
sbssg301
S'\xb6\xc6tAeANu\xae\n4T\xc1.\xe2\xfd'
p2020
ssS'create_views_books_tests_test_remove_subchapter_view'
p2021
(dp2022
S'index'
p2023
(dp2024
g44
S'create_views_books_tests_test_remove_subchapter_view.html'
p2025
sg46
S'create/views/books/tests/test_remove_subchapter_view'
p2026
sg48
g13
(g14
g15
NtRp2027
(dp2028
g18
I1
sg19
I0
sg20
I44
sg21
I0
sg22
I0
sg23
I0
sg24
I0
sbssS'hash'
p2029
S'\x0b\xddi\xaa_d\x8c\xf3b\xa2\x12\xbc\xce\xa5\xbf\x8b'
p2030
ssS'user_system_serializers_schools___init__'
p2031
(dp2032
g29
(dp2033
g69
S'user_system_serializers_schools___init__.html'
p2034
sg71
S'user_system/serializers/schools/__init__'
p2035
sg73
g13
(g14
g15
NtRp2036
(dp2037
g18
I1
sg19
I0
sg20
I5
sg21
I0
sg22
I0
sg23
I0
sg24
I0
sbssg38
S'8yN\xa2\x98\xe3%\xd4\xe2\xfd\xf2@\xcc\xa7\x02\xdb'
p2038
ssS'create_models_quests_tests___init__'
p2039
(dp2040
g224
(dp2041
g1847
S'create_models_quests_tests___init__.html'
p2042
sg1849
S'create/models/quests/tests/__init__'
p2043
sg1851
g13
(g14
g15
NtRp2044
(dp2045
g18
I1
sg19
I0
sg20
I1
sg21
I0
sg22
I0
sg23
I0
sg24
I0
sbssg233
S'\xbc\xd6\xeb\xb3\xba\xcaz\xf7{\xd4B\xb5}l\xdf\x96'
p2046
ssS'user_system_models_schools_semester_model'
p2047
(dp2048
g710
(dp2049
g1086
S'user_system_models_schools_semester_model.html'
p2050
sg1088
S'user_system/models/schools/semester_model'
p2051
sg1090
g13
(g14
g15
NtRp2052
(dp2053
g18
I1
sg19
I0
sg20
I23
sg21
I0
sg22
I0
sg23
I0
sg24
I0
sbssg719
S'\x9f&7d<%\x13 \xcaht\xc4\xd4N\xee&'
p2054
ssS'create_views_daily_quest_copies_daily_quest_copy_view'
p2055
(dp2056
g295
(dp2057
g876
S'create_views_daily_quest_copies_daily_quest_copy_view.html'
p2058
sg878
S'create/views/daily_quest_copies/daily_quest_copy_view'
p2059
sg880
g13
(g14
g15
NtRp2060
(dp2061
g18
I1
sg19
I0
sg20
I14
sg21
I0
sg22
I0
sg23
I0
sg24
I0
sbssg301
S'?\x95&\\\xae\xf0@\xfc\x96\xc15\xc9\x13\xf6_R'
p2062
ssS'user_system_serializers_app_serializer'
p2063
(dp2064
g42
(dp2065
g306
S'user_system_serializers_app_serializer.html'
p2066
sg308
S'user_system/serializers/app_serializer'
p2067
sg310
g13
(g14
g15
NtRp2068
(dp2069
g18
I1
sg19
I0
sg20
I7
sg21
I0
sg22
I0
sg23
I0
sg24
I0
sbssg51
S'\xc1\x87\xd6\x1b\xbe\x8f\xfb\xdd\x1a\xa9\x92A\xe2\xc3\xe2\xf1'
p2070
ssS'user_system_serializers_schools_school_serializer'
p2071
(dp2072
g237
(dp2073
g69
S'user_system_serializers_schools_school_serializer.html'
p2074
sg71
S'user_system/serializers/schools/school_serializer'
p2075
sg73
g13
(g14
g15
NtRp2076
(dp2077
g18
I1
sg19
I0
sg20
I9
sg21
I0
sg22
I0
sg23
I0
sg24
I0
sbssg246
S'_\x0c\x17V\x00H\x8f\xc9x\xe5I\xcb\t\x08\xb9/'
p2078
ssS'user_system_models___init__'
p2079
(dp2080
g42
(dp2081
g1139
S'user_system_models___init__.html'
p2082
sg1141
S'user_system/models/__init__'
p2083
sg1143
g13
(g14
g15
NtRp2084
(dp2085
g18
I1
sg19
I0
sg20
I4
sg21
I0
sg22
I0
sg23
I0
sg24
I0
sbssg51
S"\xe9'\xed1xn\xd7\xe4\x91\x8ei\xc0\x0f\x1b\x9eY"
p2086
ssS'create_models_questions_tests_test_question_model'
p2087
(dp2088
g42
(dp2089
g987
S'create_models_questions_tests_test_question_model.html'
p2090
sg989
S'create/models/questions/tests/test_question_model'
p2091
sg991
g13
(g14
g15
NtRp2092
(dp2093
g18
I1
sg19
I8
sg20
I58
sg21
I0
sg22
I0
sg23
I0
sg24
I0
sbssg51
S'l\x9e\xee!<,L\xbf\xa0\xe6\r\xd7W\xc9tu'
p2094
ssS'user_system_models_schools_tests_test_course_model'
p2095
(dp2096
g734
(dp2097
g1086
S'user_system_models_schools_tests_test_course_model.html'
p2098
sg1088
S'user_system/models/schools/tests/test_course_model'
p2099
sg1090
g13
(g14
g15
NtRp2100
(dp2101
g18
I1
sg19
I0
sg20
I26
sg21
I0
sg22
I0
sg23
I0
sg24
I0
sbssg740
S'\xa7\xfa\x87\xea\xdd\xb4\xcb\xa8\x9c\xeaQ&\xfc\xa2a\xcc'
p2102
ssS'teach_models_daily_quest_templates___init__'
p2103
(dp2104
g29
(dp2105
g31
S'teach_models_daily_quest_templates___init__.html'
p2106
sg33
S'teach/models/daily_quest_templates/__init__'
p2107
sg35
g13
(g14
g15
NtRp2108
(dp2109
g18
I1
sg19
I0
sg20
I1
sg21
I0
sg22
I0
sg23
I0
sg24
I0
sbssg38
S'\x12\x89x\xb9F\xfb=b\x04\xddy\xb4\xccZb\xb8'
p2110
ssS'user_system_models_apps_tests___init__'
p2111
(dp2112
g42
(dp2113
g306
S'user_system_models_apps_tests___init__.html'
p2114
sg308
S'user_system/models/apps/tests/__init__'
p2115
sg310
g13
(g14
g15
NtRp2116
(dp2117
g18
I1
sg19
I0
sg20
I0
sg21
I0
sg22
I0
sg23
I0
sg24
I0
sbssg51
S'\x19g\xdfM\x1a\x019\xaf\x1baIeR\xe5u\xa7'
p2118
ssS'create_models_question_datasets_tests___init__'
p2119
(dp2120
g274
(dp2121
g276
S'create_models_question_datasets_tests___init__.html'
p2122
sg278
S'create/models/question_datasets/tests/__init__'
p2123
sg280
g13
(g14
g15
NtRp2124
(dp2125
g18
I1
sg19
I0
sg20
I0
sg21
I0
sg22
I0
sg23
I0
sg24
I0
sbssg283
S'\x19g\xdfM\x1a\x019\xaf\x1baIeR\xe5u\xa7'
p2126
ssS'user_system_models_users_tests_test_user_profile_history_model'
p2127
(dp2128
g237
(dp2129
g69
S'user_system_models_users_tests_test_user_profile_history_model.html'
p2130
sg71
S'user_system/models/users/tests/test_user_profile_history_model'
p2131
sg73
g13
(g14
g15
NtRp2132
(dp2133
g18
I1
sg19
I0
sg20
I54
sg21
I0
sg22
I0
sg23
I0
sg24
I0
sbssg246
S'<IT\xa7\x05\xe0ML\xb0gu{\xd2>\xc8$'
p2134
ssS'create_models_quests_tests_test_quest_history_model'
p2135
(dp2136
g224
(dp2137
g987
S'create_models_quests_tests_test_quest_history_model.html'
p2138
sg989
S'create/models/quests/tests/test_quest_history_model'
p2139
sg991
g13
(g14
g15
NtRp2140
(dp2141
g18
I1
sg19
I8
sg20
I79
sg21
I0
sg22
I0
sg23
I0
sg24
I0
sbssg233
S'##\xeax]g;Ka\xb3\xc0Py,oE'
p2142
ssS'create_views_summary___init__'
p2143
(dp2144
g1112
(dp2145
g700
S'create_views_summary___init__.html'
p2146
sg702
S'create/views/summary/__init__'
p2147
sg704
g13
(g14
g15
NtRp2148
(dp2149
g18
I1
sg19
I0
sg20
I1
sg21
I0
sg22
I0
sg23
I0
sg24
I0
sbssg1118
S'#\xb7\xbd\xa1M\xe4\xa0\x05\xf5x\x057hU[\xca'
p2150
ssS'create_models_daily_quest_templates___init__'
p2151
(dp2152
g402
(dp2153
g404
S'create_models_daily_quest_templates___init__.html'
p2154
sg406
S'create/models/daily_quest_templates/__init__'
p2155
sg408
g13
(g14
g15
NtRp2156
(dp2157
g18
I1
sg19
I0
sg20
I1
sg21
I0
sg22
I0
sg23
I0
sg24
I0
sbssg411
S'\x12\x89x\xb9F\xfb=b\x04\xddy\xb4\xccZb\xb8'
p2158
ssS'user_system___init__'
p2159
(dp2160
g42
(dp2161
g306
S'user_system___init__.html'
p2162
sg308
S'user_system/__init__'
p2163
sg310
g13
(g14
g15
NtRp2164
(dp2165
g18
I1
sg19
I0
sg20
I0
sg21
I0
sg22
I0
sg23
I0
sg24
I0
sbssg51
S'\x19g\xdfM\x1a\x019\xaf\x1baIeR\xe5u\xa7'
p2166
ssS'learn_views___init__'
p2167
(dp2168
g29
(dp2169
g31
S'learn_views___init__.html'
p2170
sg33
S'learn/views/__init__'
p2171
sg35
g13
(g14
g15
NtRp2172
(dp2173
g18
I1
sg19
I0
sg20
I1
sg21
I0
sg22
I0
sg23
I0
sg24
I0
sbssg38
S'cLP\xd9\xc0\x91mD\xa3\xd2\xbczr\xdak\xf4'
p2174
ssS'api_logging_admin'
p2175
(dp2176
g158
(dp2177
g169
S'api_logging_admin.html'
p2178
sg171
S'api_logging/admin'
p2179
sg173
g13
(g14
g15
NtRp2180
(dp2181
g18
I1
sg19
I0
sg20
I7
sg21
I0
sg22
I0
sg23
I0
sg24
I0
sbssg164
S'U\x00\xaf\x98\xcc8\x9e!a\xd9"m\x83%$\xf2'
p2182
ssS'create_serializers_questions___init__'
p2183
(dp2184
g42
(dp2185
g464
S'create_serializers_questions___init__.html'
p2186
sg466
S'create/serializers/questions/__init__'
p2187
sg468
g13
(g14
g15
NtRp2188
(dp2189
g18
I1
sg19
I0
sg20
I5
sg21
I0
sg22
I0
sg23
I0
sg24
I0
sbssg51
S'?\xfc4\xad\x07\xb9"\x88\x19;E9\xcd}Pd'
p2190
ssS'user_system_models_roles___init__'
p2191
(dp2192
g42
(dp2193
g306
S'user_system_models_roles___init__.html'
p2194
sg308
S'user_system/models/roles/__init__'
p2195
sg310
g13
(g14
g15
NtRp2196
(dp2197
g18
I1
sg19
I0
sg20
I2
sg21
I0
sg22
I0
sg23
I0
sg24
I0
sbssg51
S'\xa3\xc2\r\x1b\x1bC\x85\xa5\xads\x7fl\xab`*1'
p2198
ssS'api_logging_mixins'
p2199
(dp2200
g450
(dp2201
g44
S'api_logging_mixins.html'
p2202
sg46
S'api_logging/mixins'
p2203
sg48
g13
(g14
g15
NtRp2204
(dp2205
g18
I1
sg19
I4
sg20
I26
sg21
I0
sg22
I2
sg23
I2
sg24
I2
sbssg459
S'w\xa7\xcf,\xf7\x87[\xb0\xc5\xb2\x1f\xa5+\x1dSF'
p2206
ssS'create_views_question_datasets___init__'
p2207
(dp2208
g274
(dp2209
g276
S'create_views_question_datasets___init__.html'
p2210
sg278
S'create/views/question_datasets/__init__'
p2211
sg280
g13
(g14
g15
NtRp2212
(dp2213
g18
I1
sg19
I0
sg20
I1
sg21
I0
sg22
I0
sg23
I0
sg24
I0
sbssg283
S'\x87x\xd1\xbe\x15\xd3\xbc\x99\x86\x08\xf8\x06S\xcf\x00\x87'
p2214
ssS'teach_serializers_daily_quest_templates___init__'
p2215
(dp2216
g29
(dp2217
g31
S'teach_serializers_daily_quest_templates___init__.html'
p2218
sg33
S'teach/serializers/daily_quest_templates/__init__'
p2219
sg35
g13
(g14
g15
NtRp2220
(dp2221
g18
I1
sg19
I0
sg20
I1
sg21
I0
sg22
I0
sg23
I0
sg24
I0
sbssg38
S'\xa2\xd34\x1b\xe2+\x16\xa9un\x8f\xa5\xe6\xc4\\p'
p2222
ssS'user_system_models_users_tests_test_user_profile_model'
p2223
(dp2224
g42
(dp2225
g623
S'user_system_models_users_tests_test_user_profile_model.html'
p2226
sg625
S'user_system/models/users/tests/test_user_profile_model'
p2227
sg627
g13
(g14
g15
NtRp2228
(dp2229
g18
I1
sg19
I0
sg20
I137
sg21
I0
sg22
I0
sg23
I0
sg24
I0
sbssg51
S'\xbfI\xf8OScg\n\xc9\xb4\xcc\x10\xce\xf0*\xd8'
p2230
ssS'user_system_views_signups_hardcoded_test_account_view'
p2231
(dp2232
g42
(dp2233
g44
S'user_system_views_signups_hardcoded_test_account_view.html'
p2234
sg46
S'user_system/views/signups/hardcoded/test_account_view'
p2235
sg48
g13
(g14
g15
NtRp2236
(dp2237
g18
I1
sg19
I2
sg20
I18
sg21
I0
sg22
I0
sg23
I0
sg24
I0
sbssg51
S"\xb4\xf1\xfdH\x8f\xf1QX7'\\\xd3\xab.\xbc\x80"
p2238
ssS'teach_serializers_teacher_tags___init__'
p2239
(dp2240
g29
(dp2241
g31
S'teach_serializers_teacher_tags___init__.html'
p2242
sg33
S'teach/serializers/teacher_tags/__init__'
p2243
sg35
g13
(g14
g15
NtRp2244
(dp2245
g18
I1
sg19
I0
sg20
I1
sg21
I0
sg22
I0
sg23
I0
sg24
I0
sbssg38
S'Q\xc1\xe2\xf5*\x8fJ\xddv\xe7\x91\xd1S\xf5\xa9\xa3'
p2246
ssS'create_views_books_tests_test_add_subchapter_view'
p2247
(dp2248
S'index'
p2249
(dp2250
g44
S'create_views_books_tests_test_add_subchapter_view.html'
p2251
sg46
S'create/views/books/tests/test_add_subchapter_view'
p2252
sg48
g13
(g14
g15
NtRp2253
(dp2254
g18
I1
sg19
I0
sg20
I60
sg21
I0
sg22
I0
sg23
I0
sg24
I0
sbssS'hash'
p2255
S"\xcc^2\xc4\xf2\xb1\xdc\xe8\xf0t\xb6\xcc\x1f\xce\xf1'"
p2256
ssS'create_views_books_tests_test_get_books_list_view'
p2257
(dp2258
g1333
(dp2259
g44
S'create_views_books_tests_test_get_books_list_view.html'
p2260
sg46
S'create/views/books/tests/test_get_books_list_view'
p2261
sg48
g13
(g14
g15
NtRp2262
(dp2263
g18
I1
sg19
I0
sg20
I21
sg21
I0
sg22
I0
sg23
I0
sg24
I0
sbssg1339
S'\x16\x8f\xf1\x81>\x0f\xb4S\x19\xff\xcd\xc1Y\xe9;\x98'
p2264
ssS'user_system_views_roles_tests_test_user_role_view'
p2265
(dp2266
g42
(dp2267
g44
S'user_system_views_roles_tests_test_user_role_view.html'
p2268
sg46
S'user_system/views/roles/tests/test_user_role_view'
p2269
sg48
g13
(g14
g15
NtRp2270
(dp2271
g18
I1
sg19
I0
sg20
I41
sg21
I0
sg22
I0
sg23
I0
sg24
I0
sbssg51
S'\xaf \x02-\xd3\xa9\xee\x1e7\x87\xa8[\xd9\xd8V\xd8'
p2272
ssS'user_system_views_signups_hardcoded_tests___init__'
p2273
(dp2274
g42
(dp2275
g306
S'user_system_views_signups_hardcoded_tests___init__.html'
p2276
sg308
S'user_system/views/signups/hardcoded/tests/__init__'
p2277
sg310
g13
(g14
g15
NtRp2278
(dp2279
g18
I1
sg19
I0
sg20
I0
sg21
I0
sg22
I0
sg23
I0
sg24
I0
sbssg51
S'\x19g\xdfM\x1a\x019\xaf\x1baIeR\xe5u\xa7'
p2280
ssS'user_system_views_signups___init__'
p2281
(dp2282
g42
(dp2283
g306
S'user_system_views_signups___init__.html'
p2284
sg308
S'user_system/views/signups/__init__'
p2285
sg310
g13
(g14
g15
NtRp2286
(dp2287
g18
I1
sg19
I0
sg20
I4
sg21
I0
sg22
I0
sg23
I0
sg24
I0
sbssg51
S'\x02\x1d\x90mQ#+\xc5\x93\xdb\xa4Hs\xcf\xa8\x97'
p2288
ssS'create_views_tags_tag_view'
p2289
(dp2290
g450
(dp2291
g491
S'create_views_tags_tag_view.html'
p2292
sg493
S'create/views/tags/tag_view'
p2293
sg495
g13
(g14
g15
NtRp2294
(dp2295
g18
I1
sg19
I32
sg20
I92
sg21
I0
sg22
I8
sg23
I13
sg24
I16
sbssg459
S'\xd5\xd6\xf9\xa6U<\xf82\xe0xx\x06}\xa5\xeb\xe7'
p2296
ssS'teach_serializers_teacher_tags_teacher_tag_serializer'
p2297
(dp2298
g29
(dp2299
g69
S'teach_serializers_teacher_tags_teacher_tag_serializer.html'
p2300
sg71
S'teach/serializers/teacher_tags/teacher_tag_serializer'
p2301
sg73
g13
(g14
g15
NtRp2302
(dp2303
g18
I1
sg19
I2
sg20
I26
sg21
I0
sg22
I0
sg23
I9
sg24
I2
sbssg38
S'\x07C\xdf\xcd\x92\x1eS\x1a#\x8e\x9d\x88Dj\n\x12'
p2304
ssS'flipped_helpers_parameters_helper'
p2305
(dp2306
g42
(dp2307
g69
S'flipped_helpers_parameters_helper.html'
p2308
sg71
S'flipped/helpers/parameters_helper'
p2309
sg73
g13
(g14
g15
NtRp2310
(dp2311
g18
I1
sg19
I14
sg20
I22
sg21
I0
sg22
I1
sg23
I4
sg24
I3
sbssg51
S'v\xe1\xf5\xb3r\x1f\xae\xee\x872U\xa1I\xf8\xef\x00'
p2312
ssS'learn_models_daily_quests_daily_quest_model'
p2313
(dp2314
g29
(dp2315
g239
S'learn_models_daily_quests_daily_quest_model.html'
p2316
sg241
S'learn/models/daily_quests/daily_quest_model'
p2317
sg243
g13
(g14
g15
NtRp2318
(dp2319
g18
I1
sg19
I2
sg20
I52
sg21
I0
sg22
I0
sg23
I6
sg24
I2
sbssg38
S'c\xd2`\xae\x8f\x86(\xe26\xa5\xdb\xe8\xee(\xbe\xec'
p2320
ssS'teach_models_campaigns_campaign_model'
p2321
(dp2322
g237
(dp2323
g69
S'teach_models_campaigns_campaign_model.html'
p2324
sg71
S'teach/models/campaigns/campaign_model'
p2325
sg73
g13
(g14
g15
NtRp2326
(dp2327
g18
I1
sg19
I0
sg20
I40
sg21
I0
sg22
I0
sg23
I0
sg24
I0
sbssg246
S"7<\x92\x83S\xcaWG\rWX\x8a\x88'\x82f"
p2328
ssS'create_views_tags_tests_test_get_tag_by_id_view'
p2329
(dp2330
g450
(dp2331
g44
S'create_views_tags_tests_test_get_tag_by_id_view.html'
p2332
sg46
S'create/views/tags/tests/test_get_tag_by_id_view'
p2333
sg48
g13
(g14
g15
NtRp2334
(dp2335
g18
I1
sg19
I0
sg20
I20
sg21
I0
sg22
I0
sg23
I0
sg24
I0
sbssg459
S'T\xd5\xd7\xd9\xb8\x12\x81xj\xca\x90\xa41\xcf\x02]'
p2336
ssS'user_system_views_users_user_profile_update_request_view'
p2337
(dp2338
g237
(dp2339
g604
S'user_system_views_users_user_profile_update_request_view.html'
p2340
sg606
S'user_system/views/users/user_profile_update_request_view'
p2341
sg608
g13
(g14
g15
NtRp2342
(dp2343
g18
I1
sg19
I20
sg20
I61
sg21
I0
sg22
I0
sg23
I42
sg24
I20
sbssg246
S'\xd2\xb5\x7f4\xf7\x92\x8d4iq{\xc4\x98\xaet\n'
p2344
ssS'create_views_tags_tests_test_remove_prerequisite_view'
p2345
(dp2346
g792
(dp2347
g44
S'create_views_tags_tests_test_remove_prerequisite_view.html'
p2348
sg46
S'create/views/tags/tests/test_remove_prerequisite_view'
p2349
sg48
g13
(g14
g15
NtRp2350
(dp2351
g18
I1
sg19
I0
sg20
I31
sg21
I0
sg22
I0
sg23
I0
sg24
I0
sbssg798
S'\x8e\x8c~\xff\x85\x94\x8c~T\x7f\x80\x82W\x96\x19\x9c'
p2352
ssS'user_system_models_users_teacher_mapping_model'
p2353
(dp2354
g97
(dp2355
g69
S'user_system_models_users_teacher_mapping_model.html'
p2356
sg71
S'user_system/models/users/teacher_mapping_model'
p2357
sg73
g13
(g14
g15
NtRp2358
(dp2359
g18
I1
sg19
I2
sg20
I24
sg21
I0
sg22
I0
sg23
I5
sg24
I2
sbssg103
S'\xd9\xe6oc\x89\xea\x83gHn\xf7\x1eK\xcc\x97\xcd'
p2360
ssS'create_models_tags___init__'
p2361
(dp2362
g79
(dp2363
g169
S'create_models_tags___init__.html'
p2364
sg171
S'create/models/tags/__init__'
p2365
sg173
g13
(g14
g15
NtRp2366
(dp2367
g18
I1
sg19
I0
sg20
I5
sg21
I0
sg22
I0
sg23
I0
sg24
I0
sbssg85
S'\xcck\xb0R5)\xa8c\xdb\xa6\xfb\xec\x18 \xde}'
p2368
ssS'user_system_models_roles_role_model'
p2369
(dp2370
g42
(dp2371
g44
S'user_system_models_roles_role_model.html'
p2372
sg46
S'user_system/models/roles/role_model'
p2373
sg48
g13
(g14
g15
NtRp2374
(dp2375
g18
I1
sg19
I0
sg20
I16
sg21
I0
sg22
I0
sg23
I0
sg24
I0
sbssg51
S'\x180j\xc8\x05 \xa05\xa7\xffj\x1dJ\x8a6\xcb'
p2376
ssS'user_system_views___init__'
p2377
(dp2378
g42
(dp2379
g69
S'user_system_views___init__.html'
p2380
sg71
S'user_system/views/__init__'
p2381
sg73
g13
(g14
g15
NtRp2382
(dp2383
g18
I1
sg19
I0
sg20
I5
sg21
I0
sg22
I0
sg23
I0
sg24
I0
sbssg51
S'&v35\x98Nv\xc2>un\xb1\x9a\x93\xd2\xea'
p2384
ssS'teach_models_campaigns_tests___init__'
p2385
(dp2386
g237
(dp2387
g69
S'teach_models_campaigns_tests___init__.html'
p2388
sg71
S'teach/models/campaigns/tests/__init__'
p2389
sg73
g13
(g14
g15
NtRp2390
(dp2391
g18
I1
sg19
I0
sg20
I0
sg21
I0
sg22
I0
sg23
I0
sg24
I0
sbssg246
S'\x19g\xdfM\x1a\x019\xaf\x1baIeR\xe5u\xa7'
p2392
ssS'create_models_books_tests_test_book_history_model'
p2393
(dp2394
g55
(dp2395
g325
S'create_models_books_tests_test_book_history_model.html'
p2396
sg327
S'create/models/books/tests/test_book_history_model'
p2397
sg329
g13
(g14
g15
NtRp2398
(dp2399
g18
I1
sg19
I0
sg20
I65
sg21
I0
sg22
I0
sg23
I0
sg24
I0
sbssg64
S'\xf0\xc1p\xea=_t.\xc9\xf6\xbe\xe8~&\xe5\xa7'
p2400
ssS'create_views_books_tests_test_create_new_book'
p2401
(dp2402
S'index'
p2403
(dp2404
g44
S'create_views_books_tests_test_create_new_book.html'
p2405
sg46
S'create/views/books/tests/test_create_new_book'
p2406
sg48
g13
(g14
g15
NtRp2407
(dp2408
g18
I1
sg19
I0
sg20
I18
sg21
I0
sg22
I0
sg23
I0
sg24
I0
sbssS'hash'
p2409
S'\xe3\xaew\xf8\xd7\x8f\xc5 \x85\xc1\xb6I\x82X(-'
p2410
ssS'user_system_serializers_schools_classroom_serializer'
p2411
(dp2412
g237
(dp2413
g69
S'user_system_serializers_schools_classroom_serializer.html'
p2414
sg71
S'user_system/serializers/schools/classroom_serializer'
p2415
sg73
g13
(g14
g15
NtRp2416
(dp2417
g18
I1
sg19
I0
sg20
I13
sg21
I0
sg22
I0
sg23
I2
sg24
I0
sbssg246
S'\\\x02 #\xfc|[\xb1g\x7f\x83+\xb6\xaa\x13\x01'
p2418
ssS'user_system_views_roles_user_role_view'
p2419
(dp2420
g42
(dp2421
g44
S'user_system_views_roles_user_role_view.html'
p2422
sg46
S'user_system/views/roles/user_role_view'
p2423
sg48
g13
(g14
g15
NtRp2424
(dp2425
g18
I1
sg19
I8
sg20
I31
sg21
I0
sg22
I0
sg23
I0
sg24
I0
sbssg51
S'S@\xea\xb7\xd6\xe1\x1b\x1dU\x18a\x9d\x80\xe3A\xb9'
p2426
ssS'create_views_daily_quests___init__'
p2427
(dp2428
g402
(dp2429
g404
S'create_views_daily_quests___init__.html'
p2430
sg406
S'create/views/daily_quests/__init__'
p2431
sg408
g13
(g14
g15
NtRp2432
(dp2433
g18
I1
sg19
I0
sg20
I1
sg21
I0
sg22
I0
sg23
I0
sg24
I0
sbssg411
S'\xa3\x08\xf3\xbaF\xd5u\x88\x12\xa3V\x05K\xe5\xd0\xa9'
p2434
ssS'create_models_daily_quest_copies_daily_quest_copy_model'
p2435
(dp2436
g295
(dp2437
g239
S'create_models_daily_quest_copies_daily_quest_copy_model.html'
p2438
sg241
S'create/models/daily_quest_copies/daily_quest_copy_model'
p2439
sg243
g13
(g14
g15
NtRp2440
(dp2441
g18
I1
sg19
I6
sg20
I47
sg21
I0
sg22
I0
sg23
I14
sg24
I6
sbssg301
S'\x90\xa7\xba\xee\x88\xf84\xf7\xd1B\x9b9@\\\x80P'
p2442
ssS'create_models_daily_quests___init__'
p2443
(dp2444
g874
(dp2445
g904
S'create_models_daily_quests___init__.html'
p2446
sg906
S'create/models/daily_quests/__init__'
p2447
sg908
g13
(g14
g15
NtRp2448
(dp2449
g18
I1
sg19
I0
sg20
I1
sg21
I0
sg22
I0
sg23
I0
sg24
I0
sbssg883
S'\x94\x0eB\xb3\x8e\xc6\x81\xc0\x16\x84P.\x11:\x8e\xc9'
p2450
ssS'create_serializers_questions_question_type_serializer'
p2451
(dp2452
g42
(dp2453
g306
S'create_serializers_questions_question_type_serializer.html'
p2454
sg308
S'create/serializers/questions/question_type_serializer'
p2455
sg310
g13
(g14
g15
NtRp2456
(dp2457
g18
I1
sg19
I0
sg20
I6
sg21
I0
sg22
I0
sg23
I0
sg24
I0
sbssg51
S'!\x8a\x91KA:\x92\x13/\xdd\xd9\xc2?\x8b\xe1\xc6'
p2458
ssS'create_models_questions_question_type_model'
p2459
(dp2460
g42
(dp2461
g44
S'create_models_questions_question_type_model.html'
p2462
sg46
S'create/models/questions/question_type_model'
p2463
sg48
g13
(g14
g15
NtRp2464
(dp2465
g18
I1
sg19
I0
sg20
I19
sg21
I0
sg22
I0
sg23
I0
sg24
I0
sbssg51
S'\xb9\xe7I\x93\x8b\xa8\xa8H\x80\x02_\xf9\x87\xa2\xe7\xa5'
p2466
ssS'flipped_helpers_email_helper'
p2467
(dp2468
g42
(dp2469
g44
S'flipped_helpers_email_helper.html'
p2470
sg46
S'flipped/helpers/email_helper'
p2471
sg48
g13
(g14
g15
NtRp2472
(dp2473
g18
I1
sg19
I2
sg20
I9
sg21
I0
sg22
I0
sg23
I0
sg24
I0
sbssg51
S"\xeal\t\x03)\xcc\xc4\x0b\r\xe2&\x83a'I\xad"
p2474
ssS'user_system_views_signups_verify_email_view'
p2475
(dp2476
g42
(dp2477
g44
S'user_system_views_signups_verify_email_view.html'
p2478
sg46
S'user_system/views/signups/verify_email_view'
p2479
sg48
g13
(g14
g15
NtRp2480
(dp2481
g18
I1
sg19
I6
sg20
I26
sg21
I0
sg22
I0
sg23
I0
sg24
I0
sbssg51
S"B+;\xbf\xb1A\x1f\n\x94\x0e\xeb\xd0\xf1Y'l"
p2482
ssS'create_models_question_datasets_question_dataset_model'
p2483
(dp2484
g274
(dp2485
g276
S'create_models_question_datasets_question_dataset_model.html'
p2486
sg278
S'create/models/question_datasets/question_dataset_model'
p2487
sg280
g13
(g14
g15
NtRp2488
(dp2489
g18
I1
sg19
I0
sg20
I25
sg21
I0
sg22
I0
sg23
I0
sg24
I0
sbssg283
S'\x9e\x8d\xc6\xe6\xe4\x9f#\xfdc\xc9q\r\x17Y\x8e\xb1'
p2490
ssS'create_models_tags_tests_test_concept_model'
p2491
(dp2492
g79
(dp2493
g44
S'create_models_tags_tests_test_concept_model.html'
p2494
sg46
S'create/models/tags/tests/test_concept_model'
p2495
sg48
g13
(g14
g15
NtRp2496
(dp2497
g18
I1
sg19
I0
sg20
I12
sg21
I0
sg22
I0
sg23
I0
sg24
I0
sbssg85
S'@\x95\xd9\xf7\xa5\xc4\x0c\xb1\xad\xa4\xf5p\x95\x06!N'
p2498
ssS'teach_models_campaigns_tests_test_campaign_model'
p2499
(dp2500
g237
(dp2501
g69
S'teach_models_campaigns_tests_test_campaign_model.html'
p2502
sg71
S'teach/models/campaigns/tests/test_campaign_model'
p2503
sg73
g13
(g14
g15
NtRp2504
(dp2505
g18
I1
sg19
I0
sg20
I43
sg21
I0
sg22
I0
sg23
I0
sg24
I0
sbssg246
S"\x1b\xbbi{\xe8\xa9o\xd3w\xfb'\x1e\xca\x1b\xd9\xc7"
p2506
ssS'create_models_questions_question_choice_model'
p2507
(dp2508
g42
(dp2509
g1344
S'create_models_questions_question_choice_model.html'
p2510
sg1346
S'create/models/questions/question_choice_model'
p2511
sg1348
g13
(g14
g15
NtRp2512
(dp2513
g18
I1
sg19
I0
sg20
I42
sg21
I0
sg22
I0
sg23
I0
sg24
I0
sbssg51
S'\xd7\xd8\x1f\xbf<\xee\xdd?}\xfe>\x82\\\x97\x15)'
p2514
ssS'create_models_questions_tests_test_question_history_remark_model'
p2515
(dp2516
g1716
(dp2517
g464
S'create_models_questions_tests_test_question_history_remark_model.html'
p2518
sg466
S'create/models/questions/tests/test_question_history_remark_model'
p2519
sg468
g13
(g14
g15
NtRp2520
(dp2521
g18
I1
sg19
I0
sg20
I30
sg21
I0
sg22
I0
sg23
I0
sg24
I0
sbssg1722
S'K>pG_\xbd\x15\x8b\xd8\x05\xd4\x15\xb3\x9b\xcaP'
p2522
ssS'user_system_views_users_student_profile_request_view'
p2523
(dp2524
g237
(dp2525
g69
S'user_system_views_users_student_profile_request_view.html'
p2526
sg71
S'user_system/views/users/student_profile_request_view'
p2527
sg73
g13
(g14
g15
NtRp2528
(dp2529
g18
I1
sg19
I0
sg20
I14
sg21
I0
sg22
I0
sg23
I0
sg24
I0
sbssg246
S'\x87:\xd0\xef\x04\xf3-q\r\xe7\xec \xceS\xee<'
p2530
ssS'teach_views_teacher_chapters_teacher_chapter_view'
p2531
(dp2532
g29
(dp2533
g69
S'teach_views_teacher_chapters_teacher_chapter_view.html'
p2534
sg71
S'teach/views/teacher_chapters/teacher_chapter_view'
p2535
sg73
g13
(g14
g15
NtRp2536
(dp2537
g18
I1
sg19
I12
sg20
I44
sg21
I0
sg22
I0
sg23
I25
sg24
I12
sbssg38
S'Z\xc5\n\xdb\xe5!2~7\xe3i\xa7j\xd4\x10\x8c'
p2538
ssS'user_system_views_logins_tests___init__'
p2539
(dp2540
g42
(dp2541
g306
S'user_system_views_logins_tests___init__.html'
p2542
sg308
S'user_system/views/logins/tests/__init__'
p2543
sg310
g13
(g14
g15
NtRp2544
(dp2545
g18
I1
sg19
I0
sg20
I1
sg21
I0
sg22
I0
sg23
I0
sg24
I0
sbssg51
S'\xbc\xd6\xeb\xb3\xba\xcaz\xf7{\xd4B\xb5}l\xdf\x96'
p2546
ssS'user_system_serializers_users_list_user_serializer'
p2547
(dp2548
g42
(dp2549
g44
S'user_system_serializers_users_list_user_serializer.html'
p2550
sg46
S'user_system/serializers/users/list_user_serializer'
p2551
sg48
g13
(g14
g15
NtRp2552
(dp2553
g18
I1
sg19
I0
sg20
I18
sg21
I0
sg22
I0
sg23
I0
sg24
I0
sbssg51
S'\xdfK>6\xe0\x8d\xcd\xd4/O\xef\xaa\xd0\x9efX'
p2554
ssS'create_views_books_book_view'
p2555
(dp2556
g55
(dp2557
g8
S'create_views_books_book_view.html'
p2558
sg10
S'create/views/books/book_view'
p2559
sg12
g13
(g14
g15
NtRp2560
(dp2561
g18
I1
sg19
I34
sg20
I124
sg21
I0
sg22
I3
sg23
I8
sg24
I5
sbssg64
S'%\x96\xb2\x15\x98\xef\x0fL\xc0&\xf9\x18\x91-\xb28'
p2562
ssS'user_system_models_roles_role_app_model'
p2563
(dp2564
g42
(dp2565
g44
S'user_system_models_roles_role_app_model.html'
p2566
sg46
S'user_system/models/roles/role_app_model'
p2567
sg48
g13
(g14
g15
NtRp2568
(dp2569
g18
I1
sg19
I0
sg20
I18
sg21
I0
sg22
I0
sg23
I0
sg24
I0
sbssg51
S'\x8d\xa3&\x03\x9d\x1cO|\xces.\x11/\x8f`\xcc'
p2570
ssS'create_serializers_tags_concept_serializer'
p2571
(dp2572
g55
(dp2573
g196
S'create_serializers_tags_concept_serializer.html'
p2574
sg198
S'create/serializers/tags/concept_serializer'
p2575
sg200
g13
(g14
g15
NtRp2576
(dp2577
g18
I1
sg19
I0
sg20
I6
sg21
I0
sg22
I0
sg23
I0
sg24
I0
sbssg64
S'\xf1\xe0\xc7%%\xbd\xfc@\x12\x02\x96\xbb\x0c\xbf\x9fq'
p2578
ssS'create_models_questions_tests_test_question_template_model'
p2579
(dp2580
g224
(dp2581
g876
S'create_models_questions_tests_test_question_template_model.html'
p2582
sg878
S'create/models/questions/tests/test_question_template_model'
p2583
sg880
g13
(g14
g15
NtRp2584
(dp2585
g18
I1
sg19
I8
sg20
I73
sg21
I0
sg22
I0
sg23
I0
sg24
I0
sbssg233
S"\xc3\xd5\x11\xe1b\x919'\xf3U\x0f\xe8\xc2\xff(\x94"
p2586
ssS'create_models_tags_tests_test_tag_model'
p2587
(dp2588
g79
(dp2589
g416
S'create_models_tags_tests_test_tag_model.html'
p2590
sg418
S'create/models/tags/tests/test_tag_model'
p2591
sg420
g13
(g14
g15
NtRp2592
(dp2593
g18
I1
sg19
I6
sg20
I52
sg21
I0
sg22
I0
sg23
I0
sg24
I0
sbssg85
S'1\x992\xc0\xbb\xb6d *5\xfa\xd2\xdc1\xb2\x92'
p2594
ssS'create_views_quests_tests_test_add_question_template_view'
p2595
(dp2596
g6
(dp2597
g8
S'create_views_quests_tests_test_add_question_template_view.html'
p2598
sg10
S'create/views/quests/tests/test_add_question_template_view'
p2599
sg12
g13
(g14
g15
NtRp2600
(dp2601
g18
I1
sg19
I0
sg20
I0
sg21
I0
sg22
I0
sg23
I0
sg24
I0
sbssg25
S'\x19g\xdfM\x1a\x019\xaf\x1baIeR\xe5u\xa7'
p2602
ssS'create_serializers_questions_question_history_remark_serializer'
p2603
(dp2604
g1716
(dp2605
g464
S'create_serializers_questions_question_history_remark_serializer.html'
p2606
sg466
S'create/serializers/questions/question_history_remark_serializer'
p2607
sg468
g13
(g14
g15
NtRp2608
(dp2609
g18
I1
sg19
I0
sg20
I6
sg21
I0
sg22
I0
sg23
I0
sg24
I0
sbssg1722
S'\xb53\t\x11\xa6\x1b\xf7!D"\xc8\xa3\xcb41\x9d'
p2610
ssS'user_system_serializers_users_user_serializer'
p2611
(dp2612
g42
(dp2613
g69
S'user_system_serializers_users_user_serializer.html'
p2614
sg71
S'user_system/serializers/users/user_serializer'
p2615
sg73
g13
(g14
g15
NtRp2616
(dp2617
g18
I1
sg19
I8
sg20
I43
sg21
I0
sg22
I2
sg23
I8
sg24
I6
sbssg51
S'\x07U\x97\x96\xfc\xbf\x18\x0e\x02-\xa7\xa1]\xeeLu'
p2618
ssS'user_system_models_roles_tests___init__'
p2619
(dp2620
g42
(dp2621
g306
S'user_system_models_roles_tests___init__.html'
p2622
sg308
S'user_system/models/roles/tests/__init__'
p2623
sg310
g13
(g14
g15
NtRp2624
(dp2625
g18
I1
sg19
I0
sg20
I0
sg21
I0
sg22
I0
sg23
I0
sg24
I0
sbssg51
S'\x19g\xdfM\x1a\x019\xaf\x1baIeR\xe5u\xa7'
p2626
ssS'create_serializers_tags___init__'
p2627
(dp2628
S'index'
p2629
(dp2630
S'html_filename'
p2631
S'create_serializers_tags___init__.html'
p2632
sS'name'
p2633
S'create/serializers/tags/__init__'
p2634
sS'nums'
p2635
g13
(g14
g15
NtRp2636
(dp2637
g18
I1
sg19
I0
sg20
I0
sg21
I0
sg22
I0
sg23
I0
sg24
I0
sbssS'hash'
p2638
S'\x19g\xdfM\x1a\x019\xaf\x1baIeR\xe5u\xa7'
p2639
ssS'create_views_tags_tests_test_hide_tag_view'
p2640
(dp2641
g450
(dp2642
g44
S'create_views_tags_tests_test_hide_tag_view.html'
p2643
sg46
S'create/views/tags/tests/test_hide_tag_view'
p2644
sg48
g13
(g14
g15
NtRp2645
(dp2646
g18
I1
sg19
I0
sg20
I25
sg21
I0
sg22
I0
sg23
I0
sg24
I0
sbssg459
S'\x8a\x07\xe0\xe1Q\x820\x05R\x14E\xd0\xdf\x8e\xc5\x8a'
p2647
ssS'learn_views_daily_quests___init__'
p2648
(dp2649
g29
(dp2650
g31
S'learn_views_daily_quests___init__.html'
p2651
sg33
S'learn/views/daily_quests/__init__'
p2652
sg35
g13
(g14
g15
NtRp2653
(dp2654
g18
I1
sg19
I0
sg20
I1
sg21
I0
sg22
I0
sg23
I0
sg24
I0
sbssg38
S'\xa3\x08\xf3\xbaF\xd5u\x88\x12\xa3V\x05K\xe5\xd0\xa9'
p2655
ssS'user_system_models_users_user_credentials_model'
p2656
(dp2657
S'index'
p2658
(dp2659
g604
S'user_system_models_users_user_credentials_model.html'
p2660
sg606
S'user_system/models/users/user_credentials_model'
p2661
sg608
g13
(g14
g15
NtRp2662
(dp2663
g18
I1
sg19
I0
sg20
I7
sg21
I0
sg22
I0
sg23
I0
sg24
I0
sbssS'hash'
p2664
S'g\x10U/\x1f\x83\x0bO\x95o\x9c9\xefV\x81\x8e'
p2665
ssS'user_system_models_schools_tests_test_grade_model'
p2666
(dp2667
g734
(dp2668
g69
S'user_system_models_schools_tests_test_grade_model.html'
p2669
sg71
S'user_system/models/schools/tests/test_grade_model'
p2670
sg73
g13
(g14
g15
NtRp2671
(dp2672
g18
I1
sg19
I0
sg20
I24
sg21
I0
sg22
I0
sg23
I0
sg24
I0
sbssg740
S'\x1e|\xb0\x10\x05\x9c\xb5\xe9\xbc\xff\x8a\xaan\xdf\xd4\xb2'
p2673
ssS'create_serializers_daily_quest_templates_daily_quest_template_serializer'
p2674
(dp2675
g402
(dp2676
g404
S'create_serializers_daily_quest_templates_daily_quest_template_serializer.html'
p2677
sg406
S'create/serializers/daily_quest_templates/daily_quest_template_serializer'
p2678
sg408
g13
(g14
g15
NtRp2679
(dp2680
g18
I1
sg19
I0
sg20
I8
sg21
I0
sg22
I0
sg23
I0
sg24
I0
sbssg411
S'-b,\x8cFu\xd2b\x8b\rw5\xa4\xf7\xc3\xf2'
p2681
ssS'flipped_helpers_time_helper'
p2682
(dp2683
g237
(dp2684
g69
S'flipped_helpers_time_helper.html'
p2685
sg71
S'flipped/helpers/time_helper'
p2686
sg73
g13
(g14
g15
NtRp2687
(dp2688
g18
I1
sg19
I0
sg20
I10
sg21
I0
sg22
I0
sg23
I6
sg24
I0
sbssg246
S'\x1aF\xc00\x8ck(:\x10\xc2\xa5\xdc\xffu\x14\xb8'
p2689
ssS'create_serializers_daily_quests___init__'
p2690
(dp2691
g874
(dp2692
g404
S'create_serializers_daily_quests___init__.html'
p2693
sg406
S'create/serializers/daily_quests/__init__'
p2694
sg408
g13
(g14
g15
NtRp2695
(dp2696
g18
I1
sg19
I0
sg20
I1
sg21
I0
sg22
I0
sg23
I0
sg24
I0
sbssg883
S'N\xb8\x18\x1c\x0c\xc7\xca\x91\xa0|\xe1\x02L\xeeC\xbe'
p2697
ssS'teach_serializers_teacher_chapters_teacher_chapter_serializer'
p2698
(dp2699
g29
(dp2700
g31
S'teach_serializers_teacher_chapters_teacher_chapter_serializer.html'
p2701
sg33
S'teach/serializers/teacher_chapters/teacher_chapter_serializer'
p2702
sg35
g13
(g14
g15
NtRp2703
(dp2704
g18
I1
sg19
I0
sg20
I12
sg21
I0
sg22
I0
sg23
I0
sg24
I0
sbssg38
S'\xac\x9b\xf1Q\x91\xf4J\x03y\xc4\xa7\x9c\x996\x13a'
p2705
ssS'create_views_books_tests___init__'
p2706
(dp2707
g1333
(dp2708
S'html_filename'
p2709
S'create_views_books_tests___init__.html'
p2710
sS'name'
p2711
S'create/views/books/tests/__init__'
p2712
sS'nums'
p2713
g13
(g14
g15
NtRp2714
(dp2715
g18
I1
sg19
I0
sg20
I0
sg21
I0
sg22
I0
sg23
I0
sg24
I0
sbssg1339
S'\x19g\xdfM\x1a\x019\xaf\x1baIeR\xe5u\xa7'
p2716
ssS'user_system_views_logins_tests_test_facebook_login_view'
p2717
(dp2718
g42
(dp2719
g44
S'user_system_views_logins_tests_test_facebook_login_view.html'
p2720
sg46
S'user_system/views/logins/tests/test_facebook_login_view'
p2721
sg48
g13
(g14
g15
NtRp2722
(dp2723
g18
I1
sg19
I0
sg20
I51
sg21
I0
sg22
I0
sg23
I0
sg24
I0
sbssg51
S'\x8eg\xfbA\xbdf+\x81\xe9\x8a\x16\x82\xe9\xe3\xc0\xf4'
p2724
ssS'create_views_tags_tests_test_create_tag_view'
p2725
(dp2726
g450
(dp2727
g44
S'create_views_tags_tests_test_create_tag_view.html'
p2728
sg46
S'create/views/tags/tests/test_create_tag_view'
p2729
sg48
g13
(g14
g15
NtRp2730
(dp2731
g18
I1
sg19
I0
sg20
I33
sg21
I0
sg22
I0
sg23
I0
sg24
I0
sbssg459
S'\\\x91{\x1a ;Qg\xbd\x81\xe2\xaf\xa41\xac\x1b'
p2732
sssS'version'
p2733
S'3.7.1'
p2734
sS'settings'
p2735
S'\x961E{\x0c29\xd1#\x83\xd3j9"\xd8\x10'
p2736
sS'format'
p2737
I1
s.