(dp1
S'files'
p2
(dp3
S'create_views_quests_tests_test_add_tag_view'
p4
(dp5
S'index'
p6
(dp7
S'html_filename'
p8
S'create_views_quests_tests_test_add_tag_view.html'
p9
sS'name'
p10
S'create/views/quests/tests/test_add_tag_view'
p11
sS'nums'
p12
ccopy_reg
_reconstructor
p13
(ccoverage.results
Numbers
p14
c__builtin__
object
p15
NtRp16
(dp17
S'n_files'
p18
I1
sS'n_branches'
p19
I0
sS'n_statements'
p20
I35
sS'n_excluded'
p21
I0
sS'n_partial_branches'
p22
I0
sS'n_missing'
p23
I0
sS'n_missing_branches'
p24
I0
sbssS'hash'
p25
S'o\xbe\xf1\xf9\x80\xe5|\xbab\xcc\xe2F=\x1e\xacp'
p26
ssS'user_system_models_users_teacher_profile_model'
p27
(dp28
S'index'
p29
(dp30
S'html_filename'
p31
S'user_system_models_users_teacher_profile_model.html'
p32
sS'name'
p33
S'user_system/models/users/teacher_profile_model'
p34
sS'nums'
p35
g13
(g14
g15
NtRp36
(dp37
g18
I1
sg19
I0
sg20
I27
sg21
I0
sg22
I0
sg23
I0
sg24
I0
sbssS'hash'
p38
S'x\x9e\x06\xe6\x8d\x87\xed\xaf\x91\x87\x16\xfc"\x96\xf2\xfc'
p39
ssS'user_system_views_signups_facebook_signup_view'
p40
(dp41
S'index'
p42
(dp43
S'html_filename'
p44
S'user_system_views_signups_facebook_signup_view.html'
p45
sS'name'
p46
S'user_system/views/signups/facebook_signup_view'
p47
sS'nums'
p48
g13
(g14
g15
NtRp49
(dp50
g18
I1
sg19
I8
sg20
I38
sg21
I0
sg22
I0
sg23
I0
sg24
I0
sbssS'hash'
p51
S'\x04E\'\x17r8\x14\xf6 \x98\xb5\xa0sx"@'
p52
ssS'teach_models_teacher_tags___init__'
p53
(dp54
S'index'
p55
(dp56
S'html_filename'
p57
S'teach_models_teacher_tags___init__.html'
p58
sS'name'
p59
S'teach/models/teacher_tags/__init__'
p60
sS'nums'
p61
g13
(g14
g15
NtRp62
(dp63
g18
I1
sg19
I0
sg20
I1
sg21
I0
sg22
I0
sg23
I0
sg24
I0
sbssS'hash'
p64
S"\x15#y\x16\x1a\x9d\xc6mE\xccg]\x07\xb9'\xe0"
p65
ssS'user_system_models_roles_tests_test_role_app_model'
p66
(dp67
g42
(dp68
g44
S'user_system_models_roles_tests_test_role_app_model.html'
p69
sg46
S'user_system/models/roles/tests/test_role_app_model'
p70
sg48
g13
(g14
g15
NtRp71
(dp72
g18
I1
sg19
I0
sg20
I21
sg21
I0
sg22
I0
sg23
I0
sg24
I0
sbssg51
S"\x80\xd7v\xbb\xe5d.\xeb\xfd\xc4\x04\xb2\x04'\xc6V"
p73
ssS'teach_models_teacher_chapters___init__'
p74
(dp75
g55
(dp76
g57
S'teach_models_teacher_chapters___init__.html'
p77
sg59
S'teach/models/teacher_chapters/__init__'
p78
sg61
g13
(g14
g15
NtRp79
(dp80
g18
I1
sg19
I0
sg20
I1
sg21
I0
sg22
I0
sg23
I0
sg24
I0
sbssg64
S'\xfa\xce(\x03\x8d\xd7\xc1h\xedT\xf9d\xae\x03w^'
p81
ssS'user_system_views_logins_facebook_login_view'
p82
(dp83
g42
(dp84
g44
S'user_system_views_logins_facebook_login_view.html'
p85
sg46
S'user_system/views/logins/facebook_login_view'
p86
sg48
g13
(g14
g15
NtRp87
(dp88
g18
I1
sg19
I4
sg20
I24
sg21
I0
sg22
I0
sg23
I0
sg24
I0
sbssg51
S',\xf8~\x8d\x9b\xfe\xa6wQ5\x92t\x15\xe5\x95\x8d'
p89
ssS'create_serializers_questions_question_history_serializer'
p90
(dp91
g42
(dp92
S'html_filename'
p93
S'create_serializers_questions_question_history_serializer.html'
p94
sS'name'
p95
S'create/serializers/questions/question_history_serializer'
p96
sS'nums'
p97
g13
(g14
g15
NtRp98
(dp99
g18
I1
sg19
I2
sg20
I30
sg21
I0
sg22
I1
sg23
I2
sg24
I1
sbssg51
S'C\x93,\xa4\xac3\xb6\xb8\xca\x076\xae\x14\x15\xc0J'
p100
ssS'create_serializers_quests_quest_history_serializer'
p101
(dp102
S'index'
p103
(dp104
S'html_filename'
p105
S'create_serializers_quests_quest_history_serializer.html'
p106
sS'name'
p107
S'create/serializers/quests/quest_history_serializer'
p108
sS'nums'
p109
g13
(g14
g15
NtRp110
(dp111
g18
I1
sg19
I0
sg20
I38
sg21
I0
sg22
I0
sg23
I15
sg24
I0
sbssS'hash'
p112
S'\x0c\x10\x81\x11\xc3\xff\x01\x8d<#\xe5~\x84\xec\x18\xfd'
p113
ssS'user_system_models_users_tests_test_student_profile_request_model'
p114
(dp115
S'index'
p116
(dp117
g31
S'user_system_models_users_tests_test_student_profile_request_model.html'
p118
sg33
S'user_system/models/users/tests/test_student_profile_request_model'
p119
sg35
g13
(g14
g15
NtRp120
(dp121
g18
I1
sg19
I0
sg20
I42
sg21
I0
sg22
I0
sg23
I0
sg24
I0
sbssS'hash'
p122
S'\x0c4FG\x9bD\x9e\xaa\xb9a\xd6\xee\xc6&0T'
p123
ssS'create_views_books_tests_test_add_chapter_view'
p124
(dp125
S'index'
p126
(dp127
g44
S'create_views_books_tests_test_add_chapter_view.html'
p128
sg46
S'create/views/books/tests/test_add_chapter_view'
p129
sg48
g13
(g14
g15
NtRp130
(dp131
g18
I1
sg19
I0
sg20
I69
sg21
I0
sg22
I0
sg23
I0
sg24
I0
sbssS'hash'
p132
S'\xea\xcd\x81\xff\xe6p74\xe3\xab\xc2R\x1aZ#Y'
p133
ssS'teach_models_teacher_chapters_tests_test_teacher_chapter_model'
p134
(dp135
g55
(dp136
g57
S'teach_models_teacher_chapters_tests_test_teacher_chapter_model.html'
p137
sg59
S'teach/models/teacher_chapters/tests/test_teacher_chapter_model'
p138
sg61
g13
(g14
g15
NtRp139
(dp140
g18
I1
sg19
I0
sg20
I28
sg21
I0
sg22
I0
sg23
I0
sg24
I0
sbssg64
S'm\xb2B\x1a\x04\xa5\x94N\xbe\xb6\xfa\xa9\x16J\x10\x92'
p141
ssS'create_serializers_question_datasets___init__'
p142
(dp143
S'index'
p144
(dp145
S'html_filename'
p146
S'create_serializers_question_datasets___init__.html'
p147
sS'name'
p148
S'create/serializers/question_datasets/__init__'
p149
sS'nums'
p150
g13
(g14
g15
NtRp151
(dp152
g18
I1
sg19
I0
sg20
I1
sg21
I0
sg22
I0
sg23
I0
sg24
I0
sbssS'hash'
p153
S'Z\xf8\x02Tc\xc1C;<_\x87\xc6\xc2H\xa6\xdc'
p154
ssS'user_system_models_users_user_profile_model'
p155
(dp156
g42
(dp157
g93
S'user_system_models_users_user_profile_model.html'
p158
sg95
S'user_system/models/users/user_profile_model'
p159
sg97
g13
(g14
g15
NtRp160
(dp161
g18
I1
sg19
I48
sg20
I178
sg21
I0
sg22
I0
sg23
I28
sg24
I8
sbssg51
S'\x82_G\x15\xbc\xdb\xee\xeb\xf1U\xf4<R\xf0\x83\xb4'
p162
ssS'create_models_question_datasets_tests_test_question_dataset_model'
p163
(dp164
g144
(dp165
g146
S'create_models_question_datasets_tests_test_question_dataset_model.html'
p166
sg148
S'create/models/question_datasets/tests/test_question_dataset_model'
p167
sg150
g13
(g14
g15
NtRp168
(dp169
g18
I1
sg19
I2
sg20
I39
sg21
I0
sg22
I0
sg23
I0
sg24
I0
sbssg153
S'!\t\x88\xfc\x0f\xaa\x0c\x88\xe3\xf9\x04\xd1\\0w\xf1'
p170
ssS'user_system_models_users___init__'
p171
(dp172
g42
(dp173
S'html_filename'
p174
S'user_system_models_users___init__.html'
p175
sS'name'
p176
S'user_system/models/users/__init__'
p177
sS'nums'
p178
g13
(g14
g15
NtRp179
(dp180
g18
I1
sg19
I0
sg20
I11
sg21
I0
sg22
I0
sg23
I0
sg24
I0
sbssg51
S'\x81\xefKrW:\x98\xa0\xfbl\x17\xe1E\xb8..'
p181
ssS'teach_urls'
p182
(dp183
g55
(dp184
g174
S'teach_urls.html'
p185
sg176
S'teach/urls'
p186
sg178
g13
(g14
g15
NtRp187
(dp188
g18
I1
sg19
I0
sg20
I13
sg21
I0
sg22
I0
sg23
I0
sg24
I0
sbssg64
S'\xa3\xf8jq.\x0b`\xfb7B\x9b\xc0s\x91\x9b\x9a'
p189
ssS'learn_serializers_daily_quests___init__'
p190
(dp191
g55
(dp192
g174
S'learn_serializers_daily_quests___init__.html'
p193
sg176
S'learn/serializers/daily_quests/__init__'
p194
sg178
g13
(g14
g15
NtRp195
(dp196
g18
I1
sg19
I0
sg20
I2
sg21
I0
sg22
I0
sg23
I0
sg24
I0
sbssg64
S'\x8e\x0b\xa4\xc1x\xdb]\xcc\xf6 \x7f\xbeO\x91\xca@'
p197
ssS'user_system_models_schools___init__'
p198
(dp199
S'index'
p200
(dp201
S'html_filename'
p202
S'user_system_models_schools___init__.html'
p203
sS'name'
p204
S'user_system/models/schools/__init__'
p205
sS'nums'
p206
g13
(g14
g15
NtRp207
(dp208
g18
I1
sg19
I0
sg20
I6
sg21
I0
sg22
I0
sg23
I0
sg24
I0
sbssS'hash'
p209
S'\xbe\xc9\xb2f\x05\x1f\xe6\xee\xef\x01#\xe8\x16\xc2\x83\xdb'
p210
ssS'create_views_questions_tests_test_remove_tag_view'
p211
(dp212
S'index'
p213
(dp214
S'html_filename'
p215
S'create_views_questions_tests_test_remove_tag_view.html'
p216
sS'name'
p217
S'create/views/questions/tests/test_remove_tag_view'
p218
sS'nums'
p219
g13
(g14
g15
NtRp220
(dp221
g18
I1
sg19
I0
sg20
I36
sg21
I0
sg22
I0
sg23
I0
sg24
I0
sbssS'hash'
p222
S'\xbdV1EN\xfe\x8e;\xe4\x92\x91r\xd6Q\x03\x80'
p223
ssS'user_system_models_users_tests_test_student_profile_model'
p224
(dp225
S'index'
p226
(dp227
g174
S'user_system_models_users_tests_test_student_profile_model.html'
p228
sg176
S'user_system/models/users/tests/test_student_profile_model'
p229
sg178
g13
(g14
g15
NtRp230
(dp231
g18
I1
sg19
I0
sg20
I48
sg21
I0
sg22
I0
sg23
I0
sg24
I0
sbssS'hash'
p232
S'\n_\xb5B0\x1dR\x0b\x16i\x1fy.Z\x14#'
p233
ssS'create_views_daily_quest_templates___init__'
p234
(dp235
S'index'
p236
(dp237
S'html_filename'
p238
S'create_views_daily_quest_templates___init__.html'
p239
sS'name'
p240
S'create/views/daily_quest_templates/__init__'
p241
sS'nums'
p242
g13
(g14
g15
NtRp243
(dp244
g18
I1
sg19
I0
sg20
I1
sg21
I0
sg22
I0
sg23
I0
sg24
I0
sbssS'hash'
p245
S'\xc1b\x1f\x95\xabR`C\xe80\xb9tNC\r3'
p246
ssS'learn___init__'
p247
(dp248
g55
(dp249
g57
S'learn___init__.html'
p250
sg59
S'learn/__init__'
p251
sg61
g13
(g14
g15
NtRp252
(dp253
g18
I1
sg19
I0
sg20
I0
sg21
I0
sg22
I0
sg23
I0
sg24
I0
sbssg64
S'\x19g\xdfM\x1a\x019\xaf\x1baIeR\xe5u\xa7'
p254
ssS'create_serializers_quests___init__'
p255
(dp256
g103
(dp257
g31
S'create_serializers_quests___init__.html'
p258
sg33
S'create/serializers/quests/__init__'
p259
sg35
g13
(g14
g15
NtRp260
(dp261
g18
I1
sg19
I0
sg20
I2
sg21
I0
sg22
I0
sg23
I0
sg24
I0
sbssg112
S'\xc0,Fh\xaf\xa0(\x8f\xde\x02{\x88!\x04\x7f\xb6'
p262
ssS'teach_views_teacher_chapters___init__'
p263
(dp264
g55
(dp265
g57
S'teach_views_teacher_chapters___init__.html'
p266
sg59
S'teach/views/teacher_chapters/__init__'
p267
sg61
g13
(g14
g15
NtRp268
(dp269
g18
I1
sg19
I0
sg20
I1
sg21
I0
sg22
I0
sg23
I0
sg24
I0
sbssg64
S'\x10AP\xc9\nC\xd2REz\xf6\xe5\xd2(\xee`'
p270
ssS'user_system_models_users_student_profile_request_model'
p271
(dp272
g116
(dp273
g31
S'user_system_models_users_student_profile_request_model.html'
p274
sg33
S'user_system/models/users/student_profile_request_model'
p275
sg35
g13
(g14
g15
NtRp276
(dp277
g18
I1
sg19
I0
sg20
I45
sg21
I0
sg22
I0
sg23
I0
sg24
I0
sbssg122
S'\xeeZA}\xa0\xf5\x88k0a2\x9fS\xf3}\x05'
p278
ssS'privilege_models___init__'
p279
(dp280
S'index'
p281
(dp282
g93
S'privilege_models___init__.html'
p283
sg95
S'privilege/models/__init__'
p284
sg97
g13
(g14
g15
NtRp285
(dp286
g18
I1
sg19
I0
sg20
I1
sg21
I0
sg22
I0
sg23
I0
sg24
I0
sbssS'hash'
p287
S'\x13V\xca}S\xd3\x98Rp?\xb0\xe1\x904>b'
p288
ssS'user_system_views_users_teacher_mapping_view'
p289
(dp290
S'index'
p291
(dp292
g174
S'user_system_views_users_teacher_mapping_view.html'
p293
sg176
S'user_system/views/users/teacher_mapping_view'
p294
sg178
g13
(g14
g15
NtRp295
(dp296
g18
I1
sg19
I0
sg20
I14
sg21
I0
sg22
I0
sg23
I0
sg24
I0
sbssS'hash'
p297
S'B\x04t\x93Z\x86Q.\x17\xf9\xa0*\xf6\x86\xcf\x10'
p298
ssS'create_views_tags_tests_test_search_tag_view'
p299
(dp300
S'index'
p301
(dp302
g93
S'create_views_tags_tests_test_search_tag_view.html'
p303
sg95
S'create/views/tags/tests/test_search_tag_view'
p304
sg97
g13
(g14
g15
NtRp305
(dp306
g18
I1
sg19
I0
sg20
I22
sg21
I0
sg22
I0
sg23
I0
sg24
I0
sbssS'hash'
p307
S'\rh\xcb\xb3g\x15\x9c\xe3hR\xc5r\xb9\x9c\xb2\x1f'
p308
ssS'create_views_questions_tests_test_hide_question_view'
p309
(dp310
g42
(dp311
g44
S'create_views_questions_tests_test_hide_question_view.html'
p312
sg46
S'create/views/questions/tests/test_hide_question_view'
p313
sg48
g13
(g14
g15
NtRp314
(dp315
g18
I1
sg19
I0
sg20
I30
sg21
I0
sg22
I0
sg23
I0
sg24
I0
sbssg51
S'\xb3\x10S\x8a\x9b\xecw\xaa\xd3\x81\x1b\xf2\xab\xb2QG'
p316
ssS'user_system_serializers_users_student_profile_request_serializer'
p317
(dp318
g116
(dp319
g31
S'user_system_serializers_users_student_profile_request_serializer.html'
p320
sg33
S'user_system/serializers/users/student_profile_request_serializer'
p321
sg35
g13
(g14
g15
NtRp322
(dp323
g18
I1
sg19
I0
sg20
I8
sg21
I0
sg22
I0
sg23
I0
sg24
I0
sbssg122
S'\xa9VJ\x07M\x02\xee$\t\xc8O\xc43$\x1a-'
p324
ssS'user_system_models_users_tests_test_teacher_profile_model'
p325
(dp326
g29
(dp327
S'html_filename'
p328
S'user_system_models_users_tests_test_teacher_profile_model.html'
p329
sS'name'
p330
S'user_system/models/users/tests/test_teacher_profile_model'
p331
sS'nums'
p332
g13
(g14
g15
NtRp333
(dp334
g18
I1
sg19
I0
sg20
I32
sg21
I0
sg22
I0
sg23
I0
sg24
I0
sbssg38
S'\xe7n\x9a\x17\x9d0\x01\xa6\x0f\x18\x10l\x8ckmy'
p335
ssS'teach_models_campaigns___init__'
p336
(dp337
g116
(dp338
g31
S'teach_models_campaigns___init__.html'
p339
sg33
S'teach/models/campaigns/__init__'
p340
sg35
g13
(g14
g15
NtRp341
(dp342
g18
I1
sg19
I0
sg20
I1
sg21
I0
sg22
I0
sg23
I0
sg24
I0
sbssg122
S'\xba\x82\x818\x88\xe0\xf2#\xe9\x89\xffso\xdc\xe6\xd4'
p343
ssS'create_serializers_books_book_chapter_serializer'
p344
(dp345
S'index'
p346
(dp347
g57
S'create_serializers_books_book_chapter_serializer.html'
p348
sg59
S'create/serializers/books/book_chapter_serializer'
p349
sg61
g13
(g14
g15
NtRp350
(dp351
g18
I1
sg19
I0
sg20
I23
sg21
I0
sg22
I0
sg23
I3
sg24
I0
sbssS'hash'
p352
S'\xf1~, f\x89\xad\xc8p\xcc\xd4E_\x0b3\x06'
p353
ssS'api_logging_models_api_logging_api_logging_model'
p354
(dp355
g291
(dp356
g174
S'api_logging_models_api_logging_api_logging_model.html'
p357
sg176
S'api_logging/models/api_logging/api_logging_model'
p358
sg178
g13
(g14
g15
NtRp359
(dp360
g18
I1
sg19
I0
sg20
I21
sg21
I0
sg22
I0
sg23
I0
sg24
I0
sbssg297
S'\x0c\x96WFX%\xe9\xcf+\xcf\xc2s\xa7a1\xbd'
p361
ssS'privilege_models_privileges_tests_test_user_privilege_model'
p362
(dp363
g281
(dp364
g93
S'privilege_models_privileges_tests_test_user_privilege_model.html'
p365
sg95
S'privilege/models/privileges/tests/test_user_privilege_model'
p366
sg97
g13
(g14
g15
NtRp367
(dp368
g18
I1
sg19
I0
sg20
I19
sg21
I0
sg22
I0
sg23
I0
sg24
I0
sbssg287
S'\xcd\xf2\x96G\xfe\xbc/\xb5\x15\xceNf\x0f\x0b5\xd4'
p369
ssS'user_system_urls'
p370
(dp371
g42
(dp372
g174
S'user_system_urls.html'
p373
sg176
S'user_system/urls'
p374
sg178
g13
(g14
g15
NtRp375
(dp376
g18
I1
sg19
I0
sg20
I17
sg21
I0
sg22
I0
sg23
I0
sg24
I0
sbssg51
S'SKXe\xb2\x8f\xd8\xdc\xf3\x99\xa6\x9e.\x82\x96\xe9'
p377
ssS'create_models_tags_tests_test_tag_type_model'
p378
(dp379
S'index'
p380
(dp381
g44
S'create_models_tags_tests_test_tag_type_model.html'
p382
sg46
S'create/models/tags/tests/test_tag_type_model'
p383
sg48
g13
(g14
g15
NtRp384
(dp385
g18
I1
sg19
I0
sg20
I17
sg21
I0
sg22
I0
sg23
I0
sg24
I0
sbssS'hash'
p386
S'?6\xfcg\xce\x11\x1a7E\xaf\xb2\x02\t"\xddA'
p387
ssS'create_models_quests_quest_history_model'
p388
(dp389
g103
(dp390
g8
S'create_models_quests_quest_history_model.html'
p391
sg10
S'create/models/quests/quest_history_model'
p392
sg12
g13
(g14
g15
NtRp393
(dp394
g18
I1
sg19
I8
sg20
I75
sg21
I0
sg22
I3
sg23
I4
sg24
I3
sbssg112
S'@\xe7\xfa\x02?w\xe7\x93\xa3\x85\x0f\x0fz\xf0\xdbR'
p395
ssS'create_models_daily_quest_copies_daily_quest_copy_model'
p396
(dp397
S'index'
p398
(dp399
S'html_filename'
p400
S'create_models_daily_quest_copies_daily_quest_copy_model.html'
p401
sS'name'
p402
S'create/models/daily_quest_copies/daily_quest_copy_model'
p403
sS'nums'
p404
g13
(g14
g15
NtRp405
(dp406
g18
I1
sg19
I6
sg20
I47
sg21
I0
sg22
I0
sg23
I14
sg24
I6
sbssS'hash'
p407
S'\x90\xa7\xba\xee\x88\xf84\xf7\xd1B\x9b9@\\\x80P'
p408
ssS'user_system_models_roles_role_app_model'
p409
(dp410
g42
(dp411
g44
S'user_system_models_roles_role_app_model.html'
p412
sg46
S'user_system/models/roles/role_app_model'
p413
sg48
g13
(g14
g15
NtRp414
(dp415
g18
I1
sg19
I0
sg20
I18
sg21
I0
sg22
I0
sg23
I0
sg24
I0
sbssg51
S'\x8d\xa3&\x03\x9d\x1cO|\xces.\x11/\x8f`\xcc'
p416
ssS'user_system_models_apps_app_model'
p417
(dp418
g42
(dp419
g44
S'user_system_models_apps_app_model.html'
p420
sg46
S'user_system/models/apps/app_model'
p421
sg48
g13
(g14
g15
NtRp422
(dp423
g18
I1
sg19
I0
sg20
I16
sg21
I0
sg22
I0
sg23
I0
sg24
I0
sbssg51
S',\x89\x9d;<\xa3\xdc\x92@\xa5\x9c\x7fcg\x05?'
p424
ssS'user_system_views_apps_tests___init__'
p425
(dp426
g42
(dp427
S'html_filename'
p428
S'user_system_views_apps_tests___init__.html'
p429
sS'name'
p430
S'user_system/views/apps/tests/__init__'
p431
sS'nums'
p432
g13
(g14
g15
NtRp433
(dp434
g18
I1
sg19
I0
sg20
I0
sg21
I0
sg22
I0
sg23
I0
sg24
I0
sbssg51
S'\x19g\xdfM\x1a\x019\xaf\x1baIeR\xe5u\xa7'
p435
ssS'privilege___init__'
p436
(dp437
g281
(dp438
g93
S'privilege___init__.html'
p439
sg95
S'privilege/__init__'
p440
sg97
g13
(g14
g15
NtRp441
(dp442
g18
I1
sg19
I0
sg20
I0
sg21
I0
sg22
I0
sg23
I0
sg24
I0
sbssg287
S'\x19g\xdfM\x1a\x019\xaf\x1baIeR\xe5u\xa7'
p443
ssS'create_views_books___init__'
p444
(dp445
g346
(dp446
S'html_filename'
p447
S'create_views_books___init__.html'
p448
sS'name'
p449
S'create/views/books/__init__'
p450
sS'nums'
p451
g13
(g14
g15
NtRp452
(dp453
g18
I1
sg19
I0
sg20
I3
sg21
I0
sg22
I0
sg23
I0
sg24
I0
sbssg352
S'\xce\x13\xc8S|wF\xe3\x148\xa0?ez,\xc4'
p454
ssS'create_models_books_book_chapter_model'
p455
(dp456
g346
(dp457
g31
S'create_models_books_book_chapter_model.html'
p458
sg33
S'create/models/books/book_chapter_model'
p459
sg35
g13
(g14
g15
NtRp460
(dp461
g18
I1
sg19
I8
sg20
I58
sg21
I0
sg22
I1
sg23
I3
sg24
I3
sbssg352
S'5h\xa3E\x99\xf4H\x97\xbf\x08?=+K\xe7\xad'
p462
ssS'user_system_admin'
p463
(dp464
g42
(dp465
g174
S'user_system_admin.html'
p466
sg176
S'user_system/admin'
p467
sg178
g13
(g14
g15
NtRp468
(dp469
g18
I1
sg19
I0
sg20
I25
sg21
I0
sg22
I0
sg23
I0
sg24
I0
sbssg51
S',\xc1@k;\x98\x80\xb5\xbc\xab\x11\xf3\xdc\x0b\xd1U'
p470
ssS'user_system_serializers_users_teacher_profile_serializer'
p471
(dp472
g116
(dp473
g31
S'user_system_serializers_users_teacher_profile_serializer.html'
p474
sg33
S'user_system/serializers/users/teacher_profile_serializer'
p475
sg35
g13
(g14
g15
NtRp476
(dp477
g18
I1
sg19
I4
sg20
I20
sg21
I0
sg22
I0
sg23
I9
sg24
I4
sbssg122
S'\xe2\xa5\xba\xd6e\xc2\x88\xab\xaes\x15\x08\xa9ta\xd6'
p478
ssS'user_system_models_users_tests___init__'
p479
(dp480
g42
(dp481
g428
S'user_system_models_users_tests___init__.html'
p482
sg430
S'user_system/models/users/tests/__init__'
p483
sg432
g13
(g14
g15
NtRp484
(dp485
g18
I1
sg19
I0
sg20
I0
sg21
I0
sg22
I0
sg23
I0
sg24
I0
sbssg51
S'\x19g\xdfM\x1a\x019\xaf\x1baIeR\xe5u\xa7'
p486
ssS'user_system_models_users_user_profile_picture_model'
p487
(dp488
g116
(dp489
g31
S'user_system_models_users_user_profile_picture_model.html'
p490
sg33
S'user_system/models/users/user_profile_picture_model'
p491
sg35
g13
(g14
g15
NtRp492
(dp493
g18
I1
sg19
I0
sg20
I18
sg21
I0
sg22
I0
sg23
I0
sg24
I0
sbssg122
S'$E\xff\xf5f,\xb2\xc7\xb4\x9b*\x0es|s\xcc'
p494
ssS'teach_models_teacher_tags_teacher_tag_model'
p495
(dp496
g55
(dp497
g57
S'teach_models_teacher_tags_teacher_tag_model.html'
p498
sg59
S'teach/models/teacher_tags/teacher_tag_model'
p499
sg61
g13
(g14
g15
NtRp500
(dp501
g18
I1
sg19
I0
sg20
I30
sg21
I0
sg22
I0
sg23
I0
sg24
I0
sbssg64
S'\\\xb6A\xa8\xa7\x93\x16K\xceQ>\xe8t\xdb<#'
p502
ssS'teach_models_daily_quest_templates_daily_quest_template_model'
p503
(dp504
g55
(dp505
g174
S'teach_models_daily_quest_templates_daily_quest_template_model.html'
p506
sg176
S'teach/models/daily_quest_templates/daily_quest_template_model'
p507
sg178
g13
(g14
g15
NtRp508
(dp509
g18
I1
sg19
I0
sg20
I32
sg21
I0
sg22
I0
sg23
I1
sg24
I0
sbssg64
S"\xf8\xcd\xe9T\xea\x98\xb1\xcb\xd1\xfe\xdca\xa4b'`"
p510
ssS'create_views_books_tests_test_add_subchapter_view'
p511
(dp512
S'index'
p513
(dp514
g44
S'create_views_books_tests_test_add_subchapter_view.html'
p515
sg46
S'create/views/books/tests/test_add_subchapter_view'
p516
sg48
g13
(g14
g15
NtRp517
(dp518
g18
I1
sg19
I0
sg20
I60
sg21
I0
sg22
I0
sg23
I0
sg24
I0
sbssS'hash'
p519
S"\xcc^2\xc4\xf2\xb1\xdc\xe8\xf0t\xb6\xcc\x1f\xce\xf1'"
p520
ssS'create_models_quests_quest_model'
p521
(dp522
g103
(dp523
S'html_filename'
p524
S'create_models_quests_quest_model.html'
p525
sS'name'
p526
S'create/models/quests/quest_model'
p527
sS'nums'
p528
g13
(g14
g15
NtRp529
(dp530
g18
I1
sg19
I4
sg20
I59
sg21
I0
sg22
I0
sg23
I13
sg24
I4
sbssg112
S'^g\x1e\x82\xee1[\xc0\xbe\x04\xca\xb1`M\xe7\xe9'
p531
ssS'user_system_views_users_tests_test_remove_role_view'
p532
(dp533
g42
(dp534
g44
S'user_system_views_users_tests_test_remove_role_view.html'
p535
sg46
S'user_system/views/users/tests/test_remove_role_view'
p536
sg48
g13
(g14
g15
NtRp537
(dp538
g18
I1
sg19
I0
sg20
I42
sg21
I0
sg22
I0
sg23
I0
sg24
I0
sbssg51
S'\xfb\x9b\xa3\xe5\x90\xe7q99\x19\x10"<@L\x8c'
p539
ssS'create_models_tags_tests_test_tag_history_model'
p540
(dp541
S'index'
p542
(dp543
g57
S'create_models_tags_tests_test_tag_history_model.html'
p544
sg59
S'create/models/tags/tests/test_tag_history_model'
p545
sg61
g13
(g14
g15
NtRp546
(dp547
g18
I1
sg19
I0
sg20
I58
sg21
I0
sg22
I0
sg23
I0
sg24
I0
sbssS'hash'
p548
S"\x05Y\xa9\xba\xf0\xa8\xd2*7_\xcb]\xfb*#'"
p549
ssS'teach_views_teacher_news_feed___init__'
p550
(dp551
g291
(dp552
g174
S'teach_views_teacher_news_feed___init__.html'
p553
sg176
S'teach/views/teacher_news_feed/__init__'
p554
sg178
g13
(g14
g15
NtRp555
(dp556
g18
I1
sg19
I0
sg20
I1
sg21
I0
sg22
I0
sg23
I0
sg24
I0
sbssg297
S'\xe8\xcd\xf3\x9f\xa3=;`\xf0oZ\xcb!\x98\xac\x1c'
p557
ssS'create_views_daily_quest_templates_daily_quest_template_view'
p558
(dp559
g236
(dp560
g238
S'create_views_daily_quest_templates_daily_quest_template_view.html'
p561
sg240
S'create/views/daily_quest_templates/daily_quest_template_view'
p562
sg242
g13
(g14
g15
NtRp563
(dp564
g18
I1
sg19
I4
sg20
I20
sg21
I0
sg22
I0
sg23
I5
sg24
I4
sbssg245
S'*(w\xa3\x82\x06\xe8D\x8c\xaa+3\xbc\xe3\xa5\x1d'
p565
ssS'create_models_questions_question_history_remark_model'
p566
(dp567
S'index'
p568
(dp569
S'html_filename'
p570
S'create_models_questions_question_history_remark_model.html'
p571
sS'name'
p572
S'create/models/questions/question_history_remark_model'
p573
sS'nums'
p574
g13
(g14
g15
NtRp575
(dp576
g18
I1
sg19
I0
sg20
I27
sg21
I0
sg22
I0
sg23
I0
sg24
I0
sbssS'hash'
p577
S'\xac"G5\x1c\xf2\xef\xa9\x1dUd\xce4.\xac\xa4'
p578
ssS'learn_serializers___init__'
p579
(dp580
g55
(dp581
g57
S'learn_serializers___init__.html'
p582
sg59
S'learn/serializers/__init__'
p583
sg61
g13
(g14
g15
NtRp584
(dp585
g18
I1
sg19
I0
sg20
I1
sg21
I0
sg22
I0
sg23
I0
sg24
I0
sbssg64
S'cLP\xd9\xc0\x91mD\xa3\xd2\xbczr\xdak\xf4'
p586
ssS'user_system_views_schools___init__'
p587
(dp588
g116
(dp589
g31
S'user_system_views_schools___init__.html'
p590
sg33
S'user_system/views/schools/__init__'
p591
sg35
g13
(g14
g15
NtRp592
(dp593
g18
I1
sg19
I0
sg20
I2
sg21
I0
sg22
I0
sg23
I0
sg24
I0
sbssg122
S'\x85\xe2\x7f\xa7\xac\x16HY\x8b\x10\x9b\xc0r\x17|\x8c'
p594
ssS'create_views_quests___init__'
p595
(dp596
g103
(dp597
S'html_filename'
p598
S'create_views_quests___init__.html'
p599
sS'name'
p600
S'create/views/quests/__init__'
p601
sS'nums'
p602
g13
(g14
g15
NtRp603
(dp604
g18
I1
sg19
I0
sg20
I1
sg21
I0
sg22
I0
sg23
I0
sg24
I0
sbssg112
S'\x8d\x97\x8c^6\xf0o\xc3_\x8dRQ}\xd2]a'
p605
ssS'user_system_models_schools_tests_test_course_model'
p606
(dp607
g226
(dp608
g174
S'user_system_models_schools_tests_test_course_model.html'
p609
sg176
S'user_system/models/schools/tests/test_course_model'
p610
sg178
g13
(g14
g15
NtRp611
(dp612
g18
I1
sg19
I0
sg20
I26
sg21
I0
sg22
I0
sg23
I0
sg24
I0
sbssg232
S'5(h\xed\xfd\xee\x1b%Kox\xfa?w\xc6D'
p613
ssS'create_models_question_datasets_tests___init__'
p614
(dp615
g144
(dp616
g146
S'create_models_question_datasets_tests___init__.html'
p617
sg148
S'create/models/question_datasets/tests/__init__'
p618
sg150
g13
(g14
g15
NtRp619
(dp620
g18
I1
sg19
I0
sg20
I0
sg21
I0
sg22
I0
sg23
I0
sg24
I0
sbssg153
S'\x19g\xdfM\x1a\x019\xaf\x1baIeR\xe5u\xa7'
p621
ssS'api_logging_models_modal_logging_modal_model'
p622
(dp623
g291
(dp624
g174
S'api_logging_models_modal_logging_modal_model.html'
p625
sg176
S'api_logging/models/modal_logging/modal_model'
p626
sg178
g13
(g14
g15
NtRp627
(dp628
g18
I1
sg19
I0
sg20
I19
sg21
I0
sg22
I0
sg23
I5
sg24
I0
sbssg297
S'\x0f\x1e\xac\x00_hQ\xcb\xa2\xa8\xf4@\xb9\x97\x9c\x1e'
p629
ssS'user_system_views_signups_hardcoded_test_account_view'
p630
(dp631
g42
(dp632
g44
S'user_system_views_signups_hardcoded_test_account_view.html'
p633
sg46
S'user_system/views/signups/hardcoded/test_account_view'
p634
sg48
g13
(g14
g15
NtRp635
(dp636
g18
I1
sg19
I2
sg20
I18
sg21
I0
sg22
I0
sg23
I0
sg24
I0
sbssg51
S"\xb4\xf1\xfdH\x8f\xf1QX7'\\\xd3\xab.\xbc\x80"
p637
ssS'user_system_views_users_create_student_view'
p638
(dp639
g291
(dp640
g174
S'user_system_views_users_create_student_view.html'
p641
sg176
S'user_system/views/users/create_student_view'
p642
sg178
g13
(g14
g15
NtRp643
(dp644
g18
I1
sg19
I2
sg20
I37
sg21
I0
sg22
I0
sg23
I24
sg24
I2
sbssg297
S'\x8e\xce\xac\xe9\xe3J4\xbb\x88$\xefFS\x06Ow'
p645
ssS'teach_serializers_teacher_tags___init__'
p646
(dp647
g55
(dp648
g57
S'teach_serializers_teacher_tags___init__.html'
p649
sg59
S'teach/serializers/teacher_tags/__init__'
p650
sg61
g13
(g14
g15
NtRp651
(dp652
g18
I1
sg19
I0
sg20
I1
sg21
I0
sg22
I0
sg23
I0
sg24
I0
sbssg64
S'Q\xc1\xe2\xf5*\x8fJ\xddv\xe7\x91\xd1S\xf5\xa9\xa3'
p653
ssS'learn_models_daily_quests_tests___init__'
p654
(dp655
g55
(dp656
g57
S'learn_models_daily_quests_tests___init__.html'
p657
sg59
S'learn/models/daily_quests/tests/__init__'
p658
sg61
g13
(g14
g15
NtRp659
(dp660
g18
I1
sg19
I0
sg20
I1
sg21
I0
sg22
I0
sg23
I0
sg24
I0
sbssg64
S'\xbc\xd6\xeb\xb3\xba\xcaz\xf7{\xd4B\xb5}l\xdf\x96'
p661
ssS'user_system_views_signups___init__'
p662
(dp663
g42
(dp664
g428
S'user_system_views_signups___init__.html'
p665
sg430
S'user_system/views/signups/__init__'
p666
sg432
g13
(g14
g15
NtRp667
(dp668
g18
I1
sg19
I0
sg20
I4
sg21
I0
sg22
I0
sg23
I0
sg24
I0
sbssg51
S'\x02\x1d\x90mQ#+\xc5\x93\xdb\xa4Hs\xcf\xa8\x97'
p669
ssS'create_views_tags_tag_view'
p670
(dp671
S'index'
p672
(dp673
g105
S'create_views_tags_tag_view.html'
p674
sg107
S'create/views/tags/tag_view'
p675
sg109
g13
(g14
g15
NtRp676
(dp677
g18
I1
sg19
I32
sg20
I92
sg21
I0
sg22
I8
sg23
I13
sg24
I16
sbssS'hash'
p678
S'\xd5\xd6\xf9\xa6U<\xf82\xe0xx\x06}\xa5\xeb\xe7'
p679
ssS'learn_models_daily_quests_daily_quest_model'
p680
(dp681
g55
(dp682
g174
S'learn_models_daily_quests_daily_quest_model.html'
p683
sg176
S'learn/models/daily_quests/daily_quest_model'
p684
sg178
g13
(g14
g15
NtRp685
(dp686
g18
I1
sg19
I20
sg20
I113
sg21
I0
sg22
I0
sg23
I47
sg24
I20
sbssg64
S'4*B\xbf\x9aTr!R%\xf6\xe3 \x0eZ\x99'
p687
ssS'teach_models_campaigns_campaign_model'
p688
(dp689
g116
(dp690
g174
S'teach_models_campaigns_campaign_model.html'
p691
sg176
S'teach/models/campaigns/campaign_model'
p692
sg178
g13
(g14
g15
NtRp693
(dp694
g18
I1
sg19
I0
sg20
I40
sg21
I0
sg22
I0
sg23
I0
sg24
I0
sbssg122
S'>\xc8\xe2\xfb\xdd\xc1"@\xea/\xe1\xbb\xf1\xa4\x80\x0f'
p695
ssS'create_views_tags_tests_test_add_prerequisite_view'
p696
(dp697
g301
(dp698
g44
S'create_views_tags_tests_test_add_prerequisite_view.html'
p699
sg46
S'create/views/tags/tests/test_add_prerequisite_view'
p700
sg48
g13
(g14
g15
NtRp701
(dp702
g18
I1
sg19
I0
sg20
I26
sg21
I0
sg22
I0
sg23
I0
sg24
I0
sbssg307
S'\xd2\xef\x02\xe1{\xbc\x9b\xf3\x8b\xbd\xf0\xd2\xe7\xcc\xb5\xa4'
p703
ssS'create_models_tags___init__'
p704
(dp705
g380
(dp706
S'html_filename'
p707
S'create_models_tags___init__.html'
p708
sS'name'
p709
S'create/models/tags/__init__'
p710
sS'nums'
p711
g13
(g14
g15
NtRp712
(dp713
g18
I1
sg19
I0
sg20
I5
sg21
I0
sg22
I0
sg23
I0
sg24
I0
sbssg386
S'\xcck\xb0R5)\xa8c\xdb\xa6\xfb\xec\x18 \xde}'
p714
ssS'teach_models_campaigns_tests___init__'
p715
(dp716
g116
(dp717
g31
S'teach_models_campaigns_tests___init__.html'
p718
sg33
S'teach/models/campaigns/tests/__init__'
p719
sg35
g13
(g14
g15
NtRp720
(dp721
g18
I1
sg19
I0
sg20
I0
sg21
I0
sg22
I0
sg23
I0
sg24
I0
sbssg122
S'\x19g\xdfM\x1a\x019\xaf\x1baIeR\xe5u\xa7'
p722
ssS'learn_views_student_news_feed___init__'
p723
(dp724
g291
(dp725
g174
S'learn_views_student_news_feed___init__.html'
p726
sg176
S'learn/views/student_news_feed/__init__'
p727
sg178
g13
(g14
g15
NtRp728
(dp729
g18
I1
sg19
I0
sg20
I1
sg21
I0
sg22
I0
sg23
I0
sg24
I0
sbssg297
S'\xc5\x87\xccQ|\xa2\xee\x11p\x84\xfe\xed\xe3W\xfa\x07'
p730
ssS'create_models_daily_quests___init__'
p731
(dp732
S'index'
p733
(dp734
S'html_filename'
p735
S'create_models_daily_quests___init__.html'
p736
sS'name'
p737
S'create/models/daily_quests/__init__'
p738
sS'nums'
p739
g13
(g14
g15
NtRp740
(dp741
g18
I1
sg19
I0
sg20
I1
sg21
I0
sg22
I0
sg23
I0
sg24
I0
sbssS'hash'
p742
S'\x94\x0eB\xb3\x8e\xc6\x81\xc0\x16\x84P.\x11:\x8e\xc9'
p743
ssS'teach_views_teacher_chapters_teacher_chapter_view'
p744
(dp745
g55
(dp746
g31
S'teach_views_teacher_chapters_teacher_chapter_view.html'
p747
sg33
S'teach/views/teacher_chapters/teacher_chapter_view'
p748
sg35
g13
(g14
g15
NtRp749
(dp750
g18
I1
sg19
I12
sg20
I44
sg21
I0
sg22
I0
sg23
I25
sg24
I12
sbssg64
S'Z\xc5\n\xdb\xe5!2~7\xe3i\xa7j\xd4\x10\x8c'
p751
ssS'create_serializers_tags_concept_serializer'
p752
(dp753
g346
(dp754
S'html_filename'
p755
S'create_serializers_tags_concept_serializer.html'
p756
sS'name'
p757
S'create/serializers/tags/concept_serializer'
p758
sS'nums'
p759
g13
(g14
g15
NtRp760
(dp761
g18
I1
sg19
I0
sg20
I6
sg21
I0
sg22
I0
sg23
I0
sg24
I0
sbssg352
S'\xf1\xe0\xc7%%\xbd\xfc@\x12\x02\x96\xbb\x0c\xbf\x9fq'
p762
ssS'create_serializers_questions_question_history_remark_serializer'
p763
(dp764
g568
(dp765
g570
S'create_serializers_questions_question_history_remark_serializer.html'
p766
sg572
S'create/serializers/questions/question_history_remark_serializer'
p767
sg574
g13
(g14
g15
NtRp768
(dp769
g18
I1
sg19
I0
sg20
I6
sg21
I0
sg22
I0
sg23
I0
sg24
I0
sbssg577
S'\xb53\t\x11\xa6\x1b\xf7!D"\xc8\xa3\xcb41\x9d'
p770
ssS'user_system_models_roles_tests___init__'
p771
(dp772
g42
(dp773
g428
S'user_system_models_roles_tests___init__.html'
p774
sg430
S'user_system/models/roles/tests/__init__'
p775
sg432
g13
(g14
g15
NtRp776
(dp777
g18
I1
sg19
I0
sg20
I0
sg21
I0
sg22
I0
sg23
I0
sg24
I0
sbssg51
S'\x19g\xdfM\x1a\x019\xaf\x1baIeR\xe5u\xa7'
p778
ssS'create_serializers_tags___init__'
p779
(dp780
S'index'
p781
(dp782
S'html_filename'
p783
S'create_serializers_tags___init__.html'
p784
sS'name'
p785
S'create/serializers/tags/__init__'
p786
sS'nums'
p787
g13
(g14
g15
NtRp788
(dp789
g18
I1
sg19
I0
sg20
I0
sg21
I0
sg22
I0
sg23
I0
sg24
I0
sbssS'hash'
p790
S'\x19g\xdfM\x1a\x019\xaf\x1baIeR\xe5u\xa7'
p791
ssS'privilege_urls'
p792
(dp793
g281
(dp794
g93
S'privilege_urls.html'
p795
sg95
S'privilege/urls'
p796
sg97
g13
(g14
g15
NtRp797
(dp798
g18
I1
sg19
I0
sg20
I7
sg21
I0
sg22
I0
sg23
I0
sg24
I0
sbssg287
S'\x86\xbf\xcdE\x8fy\xc9\xd5\x13I\x11#-J.\xe8'
p799
ssS'flipped_helpers_time_helper'
p800
(dp801
g116
(dp802
g174
S'flipped_helpers_time_helper.html'
p803
sg176
S'flipped/helpers/time_helper'
p804
sg178
g13
(g14
g15
NtRp805
(dp806
g18
I1
sg19
I2
sg20
I26
sg21
I0
sg22
I0
sg23
I17
sg24
I2
sbssg122
S'\xc4\x9dt\xafh9\xf1\xa5\xbe\xbd\xe6\xb9G\xd0\xcf\xad'
p807
ssS'user_system_serializers_users_teacher_mapping_serializer'
p808
(dp809
g291
(dp810
g174
S'user_system_serializers_users_teacher_mapping_serializer.html'
p811
sg176
S'user_system/serializers/users/teacher_mapping_serializer'
p812
sg178
g13
(g14
g15
NtRp813
(dp814
g18
I1
sg19
I0
sg20
I7
sg21
I0
sg22
I0
sg23
I0
sg24
I0
sbssg297
S'\x13\xf7\x06\xcfN\x17?&3\xc5\xf6]6uj\xc1'
p815
ssS'api_logging_views_LoggingView'
p816
(dp817
g291
(dp818
g174
S'api_logging_views_LoggingView.html'
p819
sg176
S'api_logging/views/LoggingView'
p820
sg178
g13
(g14
g15
NtRp821
(dp822
g18
I1
sg19
I8
sg20
I41
sg21
I0
sg22
I0
sg23
I27
sg24
I8
sbssg297
S'\xe3\xefQ\x1e\x9e\xec\xea\xa7\xc5\x05\xb9\x90\xf6\xf3\x88\x9b'
p823
ssS'create_models_questions_tests_test_question_type_model'
p824
(dp825
g42
(dp826
g44
S'create_models_questions_tests_test_question_type_model.html'
p827
sg46
S'create/models/questions/tests/test_question_type_model'
p828
sg48
g13
(g14
g15
NtRp829
(dp830
g18
I1
sg19
I0
sg20
I17
sg21
I0
sg22
I0
sg23
I0
sg24
I0
sbssg51
S'e\x1b\x19\xbb)\x89\xff\xfa\xe5\xca\xde\x08\x08CUL'
p831
ssS'teach_models___init__'
p832
(dp833
g55
(dp834
g31
S'teach_models___init__.html'
p835
sg33
S'teach/models/__init__'
p836
sg35
g13
(g14
g15
NtRp837
(dp838
g18
I1
sg19
I0
sg20
I4
sg21
I0
sg22
I0
sg23
I0
sg24
I0
sbssg64
S'\x18\xb4\x9a\xf6\x89\xe4oR\x81\xdbb\xf7E\xf9\x92\xb7'
p839
ssS'create_models_tags_skill_model'
p840
(dp841
g380
(dp842
g44
S'create_models_tags_skill_model.html'
p843
sg46
S'create/models/tags/skill_model'
p844
sg48
g13
(g14
g15
NtRp845
(dp846
g18
I1
sg19
I0
sg20
I10
sg21
I0
sg22
I0
sg23
I0
sg24
I0
sbssg386
S'B&\x06S\xb6\x85A\xdbx\xd4\xc7#]\x13\xe1\xca'
p847
ssS'learn_tests'
p848
(dp849
g55
(dp850
g57
S'learn_tests.html'
p851
sg59
S'learn/tests'
p852
sg61
g13
(g14
g15
NtRp853
(dp854
g18
I1
sg19
I0
sg20
I1
sg21
I0
sg22
I0
sg23
I0
sg24
I0
sbssg64
S'\xe3\x7f\x86\xaa\x99\xac\xc8\x80\xdblE4\x0f\xe7\x1d\xfc'
p855
ssS'api_logging_managers'
p856
(dp857
g542
(dp858
g44
S'api_logging_managers.html'
p859
sg46
S'api_logging/managers'
p860
sg48
g13
(g14
g15
NtRp861
(dp862
g18
I1
sg19
I0
sg20
I4
sg21
I0
sg22
I0
sg23
I0
sg24
I0
sbssg548
S'\xef\xaf\x98\xcd63\x10\x1c\xc1\xfcP\x12\xc1\xe7\xa5\xc7'
p863
ssS'api_logging_views___init__'
p864
(dp865
g291
(dp866
g174
S'api_logging_views___init__.html'
p867
sg176
S'api_logging/views/__init__'
p868
sg178
g13
(g14
g15
NtRp869
(dp870
g18
I1
sg19
I0
sg20
I3
sg21
I0
sg22
I0
sg23
I0
sg24
I0
sbssg297
S'_Q\x0f\x0cLb\xd8Cm\xa7\x81g\xaa\x95\xbdd'
p871
ssS'create_models_books___init__'
p872
(dp873
g346
(dp874
g755
S'create_models_books___init__.html'
p875
sg757
S'create/models/books/__init__'
p876
sg759
g13
(g14
g15
NtRp877
(dp878
g18
I1
sg19
I0
sg20
I4
sg21
I0
sg22
I0
sg23
I0
sg24
I0
sbssg352
S'\xba\x14\x87u\xc0\x80\x96\x82s\x8d\x8bU)\x1c\xc3\x91'
p879
ssS'flipped_helpers___init__'
p880
(dp881
g42
(dp882
g174
S'flipped_helpers___init__.html'
p883
sg176
S'flipped/helpers/__init__'
p884
sg178
g13
(g14
g15
NtRp885
(dp886
g18
I1
sg19
I0
sg20
I5
sg21
I0
sg22
I0
sg23
I0
sg24
I0
sbssg51
S'\x95\xcd\x9a\xf9\xe3\xd8\xff\x94\x81\xae\x9c\x14\xc0P\x95~'
p887
ssS'create_models_quests_tests_test_quest_model'
p888
(dp889
g103
(dp890
g524
S'create_models_quests_tests_test_quest_model.html'
p891
sg526
S'create/models/quests/tests/test_quest_model'
p892
sg528
g13
(g14
g15
NtRp893
(dp894
g18
I1
sg19
I4
sg20
I48
sg21
I0
sg22
I0
sg23
I0
sg24
I0
sbssg112
S'\xcdF\x98\xd0k\x14\x9e\xe4\x90\x96\x03\xddNdiH'
p895
ssS'privilege_views_privileges_user_privilege_view'
p896
(dp897
g281
(dp898
g93
S'privilege_views_privileges_user_privilege_view.html'
p899
sg95
S'privilege/views/privileges/user_privilege_view'
p900
sg97
g13
(g14
g15
NtRp901
(dp902
g18
I1
sg19
I10
sg20
I38
sg21
I0
sg22
I0
sg23
I22
sg24
I10
sbssg287
S'\xf699\xa5A\xca\x9e\x91,l\xf8\x8dI[PR'
p903
ssS'learn_models_daily_quests_tests_test_daily_quest_model'
p904
(dp905
g55
(dp906
g174
S'learn_models_daily_quests_tests_test_daily_quest_model.html'
p907
sg176
S'learn/models/daily_quests/tests/test_daily_quest_model'
p908
sg178
g13
(g14
g15
NtRp909
(dp910
g18
I1
sg19
I2
sg20
I59
sg21
I0
sg22
I0
sg23
I0
sg24
I0
sbssg64
S'\xf0jj\xb6D\xd2\xa2\x84\xdcX\x98H!\xb1=\x1b'
p911
ssS'create_views_books_tests_test_get_book_by_id_view'
p912
(dp913
S'index'
p914
(dp915
g93
S'create_views_books_tests_test_get_book_by_id_view.html'
p916
sg95
S'create/views/books/tests/test_get_book_by_id_view'
p917
sg97
g13
(g14
g15
NtRp918
(dp919
g18
I1
sg19
I0
sg20
I20
sg21
I0
sg22
I0
sg23
I0
sg24
I0
sbssS'hash'
p920
S'\xc88x\xaf\x84e\xaa6\x17\xdf\x0e\x8c`\xcaAO'
p921
ssS'user_system_views_apps_tests_test_get_app_by_id_view'
p922
(dp923
g42
(dp924
g44
S'user_system_views_apps_tests_test_get_app_by_id_view.html'
p925
sg46
S'user_system/views/apps/tests/test_get_app_by_id_view'
p926
sg48
g13
(g14
g15
NtRp927
(dp928
g18
I1
sg19
I0
sg20
I17
sg21
I0
sg22
I0
sg23
I0
sg24
I0
sbssg51
S"\xa2\x1eG%r{-~\xc5=\x8aj\x99X!'"
p929
ssS'teach_views_daily_quest_templates_daily_quest_template_view'
p930
(dp931
g55
(dp932
g174
S'teach_views_daily_quest_templates_daily_quest_template_view.html'
p933
sg176
S'teach/views/daily_quest_templates/daily_quest_template_view'
p934
sg178
g13
(g14
g15
NtRp935
(dp936
g18
I1
sg19
I18
sg20
I54
sg21
I0
sg22
I0
sg23
I33
sg24
I18
sbssg64
S'\x06\x9c2z\x06\xb6\xc0\xbf\x8b\xe2\x9b_E\xe0P\x1a'
p937
ssS'api_logging_views_summary___init__'
p938
(dp939
g291
(dp940
g174
S'api_logging_views_summary___init__.html'
p941
sg176
S'api_logging/views/summary/__init__'
p942
sg178
g13
(g14
g15
NtRp943
(dp944
g18
I1
sg19
I0
sg20
I1
sg21
I0
sg22
I0
sg23
I0
sg24
I0
sbssg297
S'\x04\x12bh\x96\xc5j\x88dm\x0e\xd7\xe1\x94Lq'
p945
ssS'privilege_serializers___init__'
p946
(dp947
g281
(dp948
g93
S'privilege_serializers___init__.html'
p949
sg95
S'privilege/serializers/__init__'
p950
sg97
g13
(g14
g15
NtRp951
(dp952
g18
I1
sg19
I0
sg20
I1
sg21
I0
sg22
I0
sg23
I0
sg24
I0
sbssg287
S'\x13V\xca}S\xd3\x98Rp?\xb0\xe1\x904>b'
p953
ssS'create_models_books_tests_test_book_subchapter_model'
p954
(dp955
g346
(dp956
S'html_filename'
p957
S'create_models_books_tests_test_book_subchapter_model.html'
p958
sS'name'
p959
S'create/models/books/tests/test_book_subchapter_model'
p960
sS'nums'
p961
g13
(g14
g15
NtRp962
(dp963
g18
I1
sg19
I0
sg20
I42
sg21
I0
sg22
I0
sg23
I0
sg24
I0
sbssg352
S'\xe3*\xba\x94d#\xcd\t\xc9\xb8\x05w\nz\xb8\xc0'
p964
ssS'learn_models_daily_quests___init__'
p965
(dp966
g55
(dp967
S'html_filename'
p968
S'learn_models_daily_quests___init__.html'
p969
sS'name'
p970
S'learn/models/daily_quests/__init__'
p971
sS'nums'
p972
g13
(g14
g15
NtRp973
(dp974
g18
I1
sg19
I0
sg20
I2
sg21
I0
sg22
I0
sg23
I0
sg24
I0
sbssg64
S's\x11\xbfV}\xab\xfcdH\xcf4Q\xc5\x86\xa3\xb4'
p975
ssS'create_models_daily_quest_templates_tests___init__'
p976
(dp977
g236
(dp978
g238
S'create_models_daily_quest_templates_tests___init__.html'
p979
sg240
S'create/models/daily_quest_templates/tests/__init__'
p980
sg242
g13
(g14
g15
NtRp981
(dp982
g18
I1
sg19
I0
sg20
I0
sg21
I0
sg22
I0
sg23
I0
sg24
I0
sbssg245
S'\x19g\xdfM\x1a\x019\xaf\x1baIeR\xe5u\xa7'
p983
ssS'create_models_tags_tag_model'
p984
(dp985
g380
(dp986
g93
S'create_models_tags_tag_model.html'
p987
sg95
S'create/models/tags/tag_model'
p988
sg97
g13
(g14
g15
NtRp989
(dp990
g18
I1
sg19
I0
sg20
I37
sg21
I0
sg22
I0
sg23
I0
sg24
I0
sbssg386
S'rJ0\x91]\xe5\xfc\xa8\x8c\x00}RI\x18\xf0\x07'
p991
ssS'create_views_tags___init__'
p992
(dp993
g672
(dp994
S'html_filename'
p995
S'create_views_tags___init__.html'
p996
sS'name'
p997
S'create/views/tags/__init__'
p998
sS'nums'
p999
g13
(g14
g15
NtRp1000
(dp1001
g18
I1
sg19
I0
sg20
I1
sg21
I0
sg22
I0
sg23
I0
sg24
I0
sbssg678
S'|r<\xaap\x01\xb1\xbc"\xe5\xbb\xd8\x87\xa5\xd2H'
p1002
ssS'create_serializers_tags_skill_serializer'
p1003
(dp1004
g346
(dp1005
g755
S'create_serializers_tags_skill_serializer.html'
p1006
sg757
S'create/serializers/tags/skill_serializer'
p1007
sg759
g13
(g14
g15
NtRp1008
(dp1009
g18
I1
sg19
I0
sg20
I6
sg21
I0
sg22
I0
sg23
I0
sg24
I0
sbssg352
S'\x1b\x10O\xca\xd5i\\\x06C\x00q}\xf43\xcb\xa6'
p1010
ssS'create_views_questions_question_history_remark_view'
p1011
(dp1012
g568
(dp1013
g570
S'create_views_questions_question_history_remark_view.html'
p1014
sg572
S'create/views/questions/question_history_remark_view'
p1015
sg574
g13
(g14
g15
NtRp1016
(dp1017
g18
I1
sg19
I0
sg20
I14
sg21
I0
sg22
I0
sg23
I0
sg24
I0
sbssg577
S'{4O\x0e\xb3\xad\xc8\xb72\x8f\x1f\x11\xc0\x9e\xa0\xd6'
p1018
ssS'create_serializers_tags_tag_type_serializer'
p1019
(dp1020
g346
(dp1021
g755
S'create_serializers_tags_tag_type_serializer.html'
p1022
sg757
S'create/serializers/tags/tag_type_serializer'
p1023
sg759
g13
(g14
g15
NtRp1024
(dp1025
g18
I1
sg19
I0
sg20
I6
sg21
I0
sg22
I0
sg23
I0
sg24
I0
sbssg352
S'\xc3\xfd\x81\x18{\x97,\xb1\xb6\x9f\xee\xf2kZ\x1e\x02'
p1026
ssS'learn_models_points_tests_test_point_history_model'
p1027
(dp1028
g291
(dp1029
g174
S'learn_models_points_tests_test_point_history_model.html'
p1030
sg176
S'learn/models/points/tests/test_point_history_model'
p1031
sg178
g13
(g14
g15
NtRp1032
(dp1033
g18
I1
sg19
I0
sg20
I22
sg21
I0
sg22
I0
sg23
I0
sg24
I0
sbssg297
S"\x8d\xd7\x96\xe4\x1b\xf6\xc4\xed:B\x13\xa9MA'\x99"
p1034
ssS'learn_serializers_daily_quests_daily_quest_serializer'
p1035
(dp1036
g55
(dp1037
g174
S'learn_serializers_daily_quests_daily_quest_serializer.html'
p1038
sg176
S'learn/serializers/daily_quests/daily_quest_serializer'
p1039
sg178
g13
(g14
g15
NtRp1040
(dp1041
g18
I1
sg19
I2
sg20
I61
sg21
I0
sg22
I0
sg23
I27
sg24
I2
sbssg64
S'\x00\xdc)#U\xf8\x03\xc2\xa7T\x0b\xa9\x13\xa3ds'
p1042
ssS'user_system_models_users_tests_test_user_profile_picture_model'
p1043
(dp1044
g116
(dp1045
g31
S'user_system_models_users_tests_test_user_profile_picture_model.html'
p1046
sg33
S'user_system/models/users/tests/test_user_profile_picture_model'
p1047
sg35
g13
(g14
g15
NtRp1048
(dp1049
g18
I1
sg19
I0
sg20
I21
sg21
I0
sg22
I0
sg23
I0
sg24
I0
sbssg122
S'\xbc/\x93\xf6\x8a\x1eC\x99t\xd0\xdc\x96\xf8\x970\xc9'
p1050
ssS'teach_views_teacher_news_feed_teacher_news_feed_view'
p1051
(dp1052
g291
(dp1053
g174
S'teach_views_teacher_news_feed_teacher_news_feed_view.html'
p1054
sg176
S'teach/views/teacher_news_feed/teacher_news_feed_view'
p1055
sg178
g13
(g14
g15
NtRp1056
(dp1057
g18
I1
sg19
I2
sg20
I40
sg21
I0
sg22
I0
sg23
I20
sg24
I2
sbssg297
S'\xb5\x1f\xeb\x1ec\xf1\x9e\x91\xdap\xb3%\xa2\xeb\x9a\xd8'
p1058
ssS'user_system_serializers_schools_organization_serializer'
p1059
(dp1060
g55
(dp1061
g57
S'user_system_serializers_schools_organization_serializer.html'
p1062
sg59
S'user_system/serializers/schools/organization_serializer'
p1063
sg61
g13
(g14
g15
NtRp1064
(dp1065
g18
I1
sg19
I0
sg20
I7
sg21
I0
sg22
I0
sg23
I0
sg24
I0
sbssg64
S'90~\xe3\x8f\x8e\xd9m\xb4\nInn\x03(\xdb'
p1066
ssS'create_models_books_book_subchapter_model'
p1067
(dp1068
g346
(dp1069
S'html_filename'
p1070
S'create_models_books_book_subchapter_model.html'
p1071
sS'name'
p1072
S'create/models/books/book_subchapter_model'
p1073
sS'nums'
p1074
g13
(g14
g15
NtRp1075
(dp1076
g18
I1
sg19
I2
sg20
I45
sg21
I0
sg22
I0
sg23
I0
sg24
I0
sbssg352
S'\xbc\xee\x91\x7f;\xa9\x15\xeaau\xef\x82\x07"\x02\xd3'
p1077
ssS'teach_views_summaries_leaderboard_view'
p1078
(dp1079
g291
(dp1080
g174
S'teach_views_summaries_leaderboard_view.html'
p1081
sg176
S'teach/views/summaries/leaderboard_view'
p1082
sg178
g13
(g14
g15
NtRp1083
(dp1084
g18
I1
sg19
I52
sg20
I124
sg21
I0
sg22
I0
sg23
I102
sg24
I52
sbssg297
S'\xb1j\x93t9\xd2\xc2L\x9d\x0f\x83\x81\x96\x98\x8f\xa8'
p1085
ssS'api_logging_serializers_modal_loggings_modal_user_history_serializer'
p1086
(dp1087
g291
(dp1088
g174
S'api_logging_serializers_modal_loggings_modal_user_history_serializer.html'
p1089
sg176
S'api_logging/serializers/modal_loggings/modal_user_history_serializer'
p1090
sg178
g13
(g14
g15
NtRp1091
(dp1092
g18
I1
sg19
I0
sg20
I7
sg21
I0
sg22
I0
sg23
I0
sg24
I0
sbssg297
S'\xc2\x8f\x89\xe8$\x9c~\x81\xa9\xca\xf8h\x80\xb7hp'
p1093
ssS'learn_models_points___init__'
p1094
(dp1095
g291
(dp1096
g174
S'learn_models_points___init__.html'
p1097
sg176
S'learn/models/points/__init__'
p1098
sg178
g13
(g14
g15
NtRp1099
(dp1100
g18
I1
sg19
I0
sg20
I2
sg21
I0
sg22
I0
sg23
I0
sg24
I0
sbssg297
S'\x1d_\xe1\xcei\x14zD\xd7\x8e\xa1\xf55\x1f\xd1\xd5'
p1101
ssS'api_logging_models___init__'
p1102
(dp1103
g291
(dp1104
g174
S'api_logging_models___init__.html'
p1105
sg176
S'api_logging/models/__init__'
p1106
sg178
g13
(g14
g15
NtRp1107
(dp1108
g18
I1
sg19
I0
sg20
I3
sg21
I0
sg22
I0
sg23
I0
sg24
I0
sbssg297
S'\x9d\r\xed\xba\xe8h@\xa4\xfa(\xf2\xdf\xf5IZ\x9c'
p1109
ssS'teach_serializers___init__'
p1110
(dp1111
g55
(dp1112
g57
S'teach_serializers___init__.html'
p1113
sg59
S'teach/serializers/__init__'
p1114
sg61
g13
(g14
g15
NtRp1115
(dp1116
g18
I1
sg19
I0
sg20
I3
sg21
I0
sg22
I0
sg23
I0
sg24
I0
sbssg64
S'3\x13\x12&\xcb\xecC\xee\xa8lR\x1a\x1d\xb9M\xba'
p1117
ssS'user_system_views_signups_tests___init__'
p1118
(dp1119
g42
(dp1120
g428
S'user_system_views_signups_tests___init__.html'
p1121
sg430
S'user_system/views/signups/tests/__init__'
p1122
sg432
g13
(g14
g15
NtRp1123
(dp1124
g18
I1
sg19
I0
sg20
I1
sg21
I0
sg22
I0
sg23
I0
sg24
I0
sbssg51
S'\xbc\xd6\xeb\xb3\xba\xcaz\xf7{\xd4B\xb5}l\xdf\x96'
p1125
ssS'create_models_daily_quests_tests___init__'
p1126
(dp1127
g733
(dp1128
g735
S'create_models_daily_quests_tests___init__.html'
p1129
sg737
S'create/models/daily_quests/tests/__init__'
p1130
sg739
g13
(g14
g15
NtRp1131
(dp1132
g18
I1
sg19
I0
sg20
I1
sg21
I0
sg22
I0
sg23
I0
sg24
I0
sbssg742
S'\xbc\xd6\xeb\xb3\xba\xcaz\xf7{\xd4B\xb5}l\xdf\x96'
p1133
ssS'api_logging_models_api_logging___init__'
p1134
(dp1135
g291
(dp1136
g174
S'api_logging_models_api_logging___init__.html'
p1137
sg176
S'api_logging/models/api_logging/__init__'
p1138
sg178
g13
(g14
g15
NtRp1139
(dp1140
g18
I1
sg19
I0
sg20
I1
sg21
I0
sg22
I0
sg23
I0
sg24
I0
sbssg297
S'C\xe8\xcf\x97-\xc6\xd3j\xcb\x90*\xea\xd3w\x83\xe0'
p1141
ssS'create_serializers_daily_quests_daily_quest_serializer'
p1142
(dp1143
g236
(dp1144
S'html_filename'
p1145
S'create_serializers_daily_quests_daily_quest_serializer.html'
p1146
sS'name'
p1147
S'create/serializers/daily_quests/daily_quest_serializer'
p1148
sS'nums'
p1149
g13
(g14
g15
NtRp1150
(dp1151
g18
I1
sg19
I0
sg20
I12
sg21
I0
sg22
I0
sg23
I3
sg24
I0
sbssg245
S' $!\xf6\xe6\x92\x9f\x9f\xafy\xe9\x8b\x1c\xf4\xb6\x01'
p1152
ssS'user_system_views_signups_email_signup_view'
p1153
(dp1154
g42
(dp1155
g44
S'user_system_views_signups_email_signup_view.html'
p1156
sg46
S'user_system/views/signups/email_signup_view'
p1157
sg48
g13
(g14
g15
NtRp1158
(dp1159
g18
I1
sg19
I8
sg20
I44
sg21
I0
sg22
I0
sg23
I0
sg24
I0
sbssg51
S'&G\xd1\xc4{\x9b\xbf\x14\x92F\xbe\x13\xeer\x84\x1b'
p1160
ssS'teach_views_teacher_tags___init__'
p1161
(dp1162
g55
(dp1163
g57
S'teach_views_teacher_tags___init__.html'
p1164
sg59
S'teach/views/teacher_tags/__init__'
p1165
sg61
g13
(g14
g15
NtRp1166
(dp1167
g18
I1
sg19
I0
sg20
I1
sg21
I0
sg22
I0
sg23
I0
sg24
I0
sbssg64
S'cp\x00\xdc\x00\xe5M\x9f\x1f\xaa\xb2Y\xd9%\x1d"'
p1168
ssS'flipped_helpers_success_response_helper'
p1169
(dp1170
g42
(dp1171
g44
S'flipped_helpers_success_response_helper.html'
p1172
sg46
S'flipped/helpers/success_response_helper'
p1173
sg48
g13
(g14
g15
NtRp1174
(dp1175
g18
I1
sg19
I2
sg20
I4
sg21
I0
sg22
I0
sg23
I0
sg24
I0
sbssg51
S"'Bp\xbe\xd9\xfa\x92\xa4;\xb6\t\xa8\xfe<\x9d\xa5"
p1176
ssS'create_models_questions_question_model'
p1177
(dp1178
g42
(dp1179
S'html_filename'
p1180
S'create_models_questions_question_model.html'
p1181
sS'name'
p1182
S'create/models/questions/question_model'
p1183
sS'nums'
p1184
g13
(g14
g15
NtRp1185
(dp1186
g18
I1
sg19
I0
sg20
I48
sg21
I0
sg22
I0
sg23
I0
sg24
I0
sbssg51
S'\tGy\xb6\x10\x17dQ\xd7\xd8N>\xd5\x96R\x82'
p1187
ssS'user_system_models_roles___init__'
p1188
(dp1189
g42
(dp1190
g428
S'user_system_models_roles___init__.html'
p1191
sg430
S'user_system/models/roles/__init__'
p1192
sg432
g13
(g14
g15
NtRp1193
(dp1194
g18
I1
sg19
I0
sg20
I2
sg21
I0
sg22
I0
sg23
I0
sg24
I0
sbssg51
S'\xa3\xc2\r\x1b\x1bC\x85\xa5\xads\x7fl\xab`*1'
p1195
ssS'create_models_questions_question_history_model'
p1196
(dp1197
g42
(dp1198
g93
S'create_models_questions_question_history_model.html'
p1199
sg95
S'create/models/questions/question_history_model'
p1200
sg97
g13
(g14
g15
NtRp1201
(dp1202
g18
I1
sg19
I8
sg20
I68
sg21
I0
sg22
I2
sg23
I2
sg24
I2
sbssg51
S'\xd0\xe9\x0bm$j\x15\x9b@\x93\xe5C\xa7\x97\xfd\xf4'
p1203
ssS'user_system_views_signups_tests_test_facebook_signup_view'
p1204
(dp1205
g42
(dp1206
g44
S'user_system_views_signups_tests_test_facebook_signup_view.html'
p1207
sg46
S'user_system/views/signups/tests/test_facebook_signup_view'
p1208
sg48
g13
(g14
g15
NtRp1209
(dp1210
g18
I1
sg19
I0
sg20
I60
sg21
I0
sg22
I0
sg23
I0
sg24
I0
sbssg51
S'\x93<\xc8]\x14\t\xa8/\xdd\xd1\xa4]\xfbp!\xbd'
p1211
ssS'user_system_models_users_tests_test_teacher_mapping_model'
p1212
(dp1213
g29
(dp1214
g328
S'user_system_models_users_tests_test_teacher_mapping_model.html'
p1215
sg330
S'user_system/models/users/tests/test_teacher_mapping_model'
p1216
sg332
g13
(g14
g15
NtRp1217
(dp1218
g18
I1
sg19
I0
sg20
I22
sg21
I0
sg22
I0
sg23
I0
sg24
I0
sbssg38
S"\xbb\xd7\xe2\xf2\x7f\x9b\xc5j\xd6'(\xda\xa5\x14\\\x12"
p1219
ssS'learn_views_daily_quests_daily_quest_view'
p1220
(dp1221
g55
(dp1222
g174
S'learn_views_daily_quests_daily_quest_view.html'
p1223
sg176
S'learn/views/daily_quests/daily_quest_view'
p1224
sg178
g13
(g14
g15
NtRp1225
(dp1226
g18
I1
sg19
I16
sg20
I61
sg21
I0
sg22
I0
sg23
I40
sg24
I16
sbssg64
S'\xceiA\x93\xcd>Y\x85L\x07Oz\x9aw\xae;'
p1227
ssS'teach_views_summaries_class_ranking_view'
p1228
(dp1229
g291
(dp1230
g174
S'teach_views_summaries_class_ranking_view.html'
p1231
sg176
S'teach/views/summaries/class_ranking_view'
p1232
sg178
g13
(g14
g15
NtRp1233
(dp1234
g18
I1
sg19
I24
sg20
I79
sg21
I0
sg22
I0
sg23
I57
sg24
I24
sbssg297
S'j\x19/\x1fg\x83\xa1h]\xc3\xd9\xfd\xa8ae\x1a'
p1235
ssS'privilege_models_privileges_tests___init__'
p1236
(dp1237
g281
(dp1238
g93
S'privilege_models_privileges_tests___init__.html'
p1239
sg95
S'privilege/models/privileges/tests/__init__'
p1240
sg97
g13
(g14
g15
NtRp1241
(dp1242
g18
I1
sg19
I0
sg20
I0
sg21
I0
sg22
I0
sg23
I0
sg24
I0
sbssg287
S'\x19g\xdfM\x1a\x019\xaf\x1baIeR\xe5u\xa7'
p1243
ssS'teach_serializers_teacher_chapters___init__'
p1244
(dp1245
g55
(dp1246
g57
S'teach_serializers_teacher_chapters___init__.html'
p1247
sg59
S'teach/serializers/teacher_chapters/__init__'
p1248
sg61
g13
(g14
g15
NtRp1249
(dp1250
g18
I1
sg19
I0
sg20
I1
sg21
I0
sg22
I0
sg23
I0
sg24
I0
sbssg64
S'\xfe\x88\xda\x10\xec!\x99\xb7-\x8d\x90E\xe18K\xb1'
p1251
ssS'api_logging_admin'
p1252
(dp1253
g542
(dp1254
g174
S'api_logging_admin.html'
p1255
sg176
S'api_logging/admin'
p1256
sg178
g13
(g14
g15
NtRp1257
(dp1258
g18
I1
sg19
I0
sg20
I10
sg21
I0
sg22
I0
sg23
I0
sg24
I0
sbssg548
S'T\x93\x03\xbcO>\xd1\xd6\xf4\xd3\x15r{\xad0B'
p1259
ssS'user_system_models_users_user_streak_history_model'
p1260
(dp1261
g291
(dp1262
g174
S'user_system_models_users_user_streak_history_model.html'
p1263
sg176
S'user_system/models/users/user_streak_history_model'
p1264
sg178
g13
(g14
g15
NtRp1265
(dp1266
g18
I1
sg19
I0
sg20
I28
sg21
I0
sg22
I0
sg23
I3
sg24
I0
sbssg297
S'S$\x96\xe6\xc9!\xd3a\xb7\xb2\x86\x8e:R\xa9Z'
p1267
ssS'create_models_tags_tests_test_concept_model'
p1268
(dp1269
g380
(dp1270
g44
S'create_models_tags_tests_test_concept_model.html'
p1271
sg46
S'create/models/tags/tests/test_concept_model'
p1272
sg48
g13
(g14
g15
NtRp1273
(dp1274
g18
I1
sg19
I0
sg20
I12
sg21
I0
sg22
I0
sg23
I0
sg24
I0
sbssg386
S'@\x95\xd9\xf7\xa5\xc4\x0c\xb1\xad\xa4\xf5p\x95\x06!N'
p1275
ssS'privilege_models_privileges_privilege_model'
p1276
(dp1277
g281
(dp1278
g93
S'privilege_models_privileges_privilege_model.html'
p1279
sg95
S'privilege/models/privileges/privilege_model'
p1280
sg97
g13
(g14
g15
NtRp1281
(dp1282
g18
I1
sg19
I0
sg20
I29
sg21
I0
sg22
I0
sg23
I3
sg24
I0
sbssg287
S'\xf0 V@\xd29p\x1a\x12\x14.\x15\\m\xd4X'
p1283
ssS'create_models_questions_tests_test_question_choice_model'
p1284
(dp1285
g42
(dp1286
S'html_filename'
p1287
S'create_models_questions_tests_test_question_choice_model.html'
p1288
sS'name'
p1289
S'create/models/questions/tests/test_question_choice_model'
p1290
sS'nums'
p1291
g13
(g14
g15
NtRp1292
(dp1293
g18
I1
sg19
I0
sg20
I46
sg21
I0
sg22
I0
sg23
I0
sg24
I0
sbssg51
S'$\x08N\xfb\nW\n\xecG\x9a[\xb7\xe2\xc1\xbd\x06'
p1294
ssS'user_system_views_users_tests_test_get_user_by_id_view'
p1295
(dp1296
g42
(dp1297
g93
S'user_system_views_users_tests_test_get_user_by_id_view.html'
p1298
sg95
S'user_system/views/users/tests/test_get_user_by_id_view'
p1299
sg97
g13
(g14
g15
NtRp1300
(dp1301
g18
I1
sg19
I0
sg20
I27
sg21
I0
sg22
I0
sg23
I0
sg24
I0
sbssg51
S'\xd7\x7f\x0c\xb9\xda.\xf1\x82\xb4\xdf*z\x10(o)'
p1302
ssS'create_models___init__'
p1303
(dp1304
g42
(dp1305
g57
S'create_models___init__.html'
p1306
sg59
S'create/models/__init__'
p1307
sg61
g13
(g14
g15
NtRp1308
(dp1309
g18
I1
sg19
I0
sg20
I6
sg21
I0
sg22
I0
sg23
I0
sg24
I0
sbssg51
S'\x1a\xde\xff\xb8/\x08R\x8e\xff\x13\x8b\xeb`\xfd\x98\xf8'
p1310
ssS'create_serializers_tags_tag_history_serializer'
p1311
(dp1312
S'index'
p1313
(dp1314
g105
S'create_serializers_tags_tag_history_serializer.html'
p1315
sg107
S'create/serializers/tags/tag_history_serializer'
p1316
sg109
g13
(g14
g15
NtRp1317
(dp1318
g18
I1
sg19
I0
sg20
I14
sg21
I0
sg22
I0
sg23
I0
sg24
I0
sbssS'hash'
p1319
S'\xc1"\xf9l4\xe66\x8a\xd0)r!\x05Y+\xd2'
p1320
ssS'create_serializers_daily_quest_templates___init__'
p1321
(dp1322
g236
(dp1323
g238
S'create_serializers_daily_quest_templates___init__.html'
p1324
sg240
S'create/serializers/daily_quest_templates/__init__'
p1325
sg242
g13
(g14
g15
NtRp1326
(dp1327
g18
I1
sg19
I0
sg20
I1
sg21
I0
sg22
I0
sg23
I0
sg24
I0
sbssg245
S'\xa2\xd34\x1b\xe2+\x16\xa9un\x8f\xa5\xe6\xc4\\p'
p1328
ssS'user_system_views_roles_tests___init__'
p1329
(dp1330
g42
(dp1331
g428
S'user_system_views_roles_tests___init__.html'
p1332
sg430
S'user_system/views/roles/tests/__init__'
p1333
sg432
g13
(g14
g15
NtRp1334
(dp1335
g18
I1
sg19
I0
sg20
I0
sg21
I0
sg22
I0
sg23
I0
sg24
I0
sbssg51
S'\x19g\xdfM\x1a\x019\xaf\x1baIeR\xe5u\xa7'
p1336
ssS'api_logging_models_modal_logging___init__'
p1337
(dp1338
g291
(dp1339
g174
S'api_logging_models_modal_logging___init__.html'
p1340
sg176
S'api_logging/models/modal_logging/__init__'
p1341
sg178
g13
(g14
g15
NtRp1342
(dp1343
g18
I1
sg19
I0
sg20
I2
sg21
I0
sg22
I0
sg23
I0
sg24
I0
sbssg297
S"+\x16\xa4\xd1\xf5m\xa9\x9e*\xd0\xa23O'}-"
p1344
ssS'user_system_serializers___init__'
p1345
(dp1346
g42
(dp1347
g57
S'user_system_serializers___init__.html'
p1348
sg59
S'user_system/serializers/__init__'
p1349
sg61
g13
(g14
g15
NtRp1350
(dp1351
g18
I1
sg19
I0
sg20
I3
sg21
I0
sg22
I0
sg23
I0
sg24
I0
sbssg51
S'\x85\x12\xbd.\x85L4\xea\t4\x9c\xcf\xb5 \x81\xb4'
p1352
ssS'teach_models_daily_quest_templates_tests___init__'
p1353
(dp1354
g55
(dp1355
g57
S'teach_models_daily_quest_templates_tests___init__.html'
p1356
sg59
S'teach/models/daily_quest_templates/tests/__init__'
p1357
sg61
g13
(g14
g15
NtRp1358
(dp1359
g18
I1
sg19
I0
sg20
I0
sg21
I0
sg22
I0
sg23
I0
sg24
I0
sbssg64
S'\x19g\xdfM\x1a\x019\xaf\x1baIeR\xe5u\xa7'
p1360
ssS'user_system_serializers_schools_grade_serializer'
p1361
(dp1362
g116
(dp1363
g31
S'user_system_serializers_schools_grade_serializer.html'
p1364
sg33
S'user_system/serializers/schools/grade_serializer'
p1365
sg35
g13
(g14
g15
NtRp1366
(dp1367
g18
I1
sg19
I0
sg20
I9
sg21
I0
sg22
I0
sg23
I0
sg24
I0
sbssg122
S"()\x18t._h'\x1c\x9bV\x14KS\xf6,"
p1368
ssS'create_models_questions_tests___init__'
p1369
(dp1370
g42
(dp1371
g428
S'create_models_questions_tests___init__.html'
p1372
sg430
S'create/models/questions/tests/__init__'
p1373
sg432
g13
(g14
g15
NtRp1374
(dp1375
g18
I1
sg19
I0
sg20
I0
sg21
I0
sg22
I0
sg23
I0
sg24
I0
sbssg51
S'\x19g\xdfM\x1a\x019\xaf\x1baIeR\xe5u\xa7'
p1376
ssS'teach_views___init__'
p1377
(dp1378
g55
(dp1379
g174
S'teach_views___init__.html'
p1380
sg176
S'teach/views/__init__'
p1381
sg178
g13
(g14
g15
NtRp1382
(dp1383
g18
I1
sg19
I0
sg20
I3
sg21
I0
sg22
I0
sg23
I0
sg24
I0
sbssg64
S'\xddN\x8bL\xe7O\xba\x93\x86:\xc2\x15\x13gc6'
p1384
ssS'privilege_admin'
p1385
(dp1386
g281
(dp1387
g93
S'privilege_admin.html'
p1388
sg95
S'privilege/admin'
p1389
sg97
g13
(g14
g15
NtRp1390
(dp1391
g18
I1
sg19
I0
sg20
I4
sg21
I0
sg22
I0
sg23
I0
sg24
I0
sbssg287
S'\xa1\x9fb^\xc7l\x00\x1f\x0e\x9c\x06\x08\x99Kx\x94'
p1392
ssS'teach_models_teacher_tags_tests_test_teacher_tag_model'
p1393
(dp1394
g55
(dp1395
g57
S'teach_models_teacher_tags_tests_test_teacher_tag_model.html'
p1396
sg59
S'teach/models/teacher_tags/tests/test_teacher_tag_model'
p1397
sg61
g13
(g14
g15
NtRp1398
(dp1399
g18
I1
sg19
I0
sg20
I30
sg21
I0
sg22
I0
sg23
I0
sg24
I0
sbssg64
S'\xf3\x06\xd8\xd6\x93V\xab\xdc\x87\x05\xf6vJ\xa9`\xe6'
p1400
ssS'user_system_models_schools_academic_year_model'
p1401
(dp1402
g200
(dp1403
g328
S'user_system_models_schools_academic_year_model.html'
p1404
sg330
S'user_system/models/schools/academic_year_model'
p1405
sg332
g13
(g14
g15
NtRp1406
(dp1407
g18
I1
sg19
I0
sg20
I23
sg21
I0
sg22
I0
sg23
I0
sg24
I0
sbssg209
S'\xf1Zl\xd3\xdd4\xdcX&\xdf\xf0<.\x11FY'
p1408
ssS'learn_models___init__'
p1409
(dp1410
g55
(dp1411
g174
S'learn_models___init__.html'
p1412
sg176
S'learn/models/__init__'
p1413
sg178
g13
(g14
g15
NtRp1414
(dp1415
g18
I1
sg19
I0
sg20
I2
sg21
I0
sg22
I0
sg23
I0
sg24
I0
sbssg64
S'J\x07\xbfU\xe2\xd2\xed\xadY\xe2o$\x84\x86bd'
p1416
ssS'user_system_models_users_student_profile_model'
p1417
(dp1418
g226
(dp1419
g174
S'user_system_models_users_student_profile_model.html'
p1420
sg176
S'user_system/models/users/student_profile_model'
p1421
sg178
g13
(g14
g15
NtRp1422
(dp1423
g18
I1
sg19
I2
sg20
I41
sg21
I0
sg22
I0
sg23
I0
sg24
I0
sbssg232
S'q\x83gLh\x1e\xeb\xb5+w&@\xe2"=\xb8'
p1424
ssS'user_system_models_schools_organization_model'
p1425
(dp1426
g200
(dp1427
g174
S'user_system_models_schools_organization_model.html'
p1428
sg176
S'user_system/models/schools/organization_model'
p1429
sg178
g13
(g14
g15
NtRp1430
(dp1431
g18
I1
sg19
I0
sg20
I28
sg21
I0
sg22
I0
sg23
I1
sg24
I0
sbssg209
S'\x1b?-+\t\x91D=\x17\r\x10s=\xfd\xea\r'
p1432
ssS'create_views_books_tests_test_hide_book_view'
p1433
(dp1434
g914
(dp1435
g44
S'create_views_books_tests_test_hide_book_view.html'
p1436
sg46
S'create/views/books/tests/test_hide_book_view'
p1437
sg48
g13
(g14
g15
NtRp1438
(dp1439
g18
I1
sg19
I0
sg20
I25
sg21
I0
sg22
I0
sg23
I0
sg24
I0
sbssg920
S'\xe1\x17\x16\xca\x8a\xc5c\x1b\xce\xab\xb8\xf9G\x03\x9dQ'
p1440
ssS'teach_serializers_teacher_tags_teacher_tag_serializer'
p1441
(dp1442
g55
(dp1443
g31
S'teach_serializers_teacher_tags_teacher_tag_serializer.html'
p1444
sg33
S'teach/serializers/teacher_tags/teacher_tag_serializer'
p1445
sg35
g13
(g14
g15
NtRp1446
(dp1447
g18
I1
sg19
I2
sg20
I26
sg21
I0
sg22
I0
sg23
I9
sg24
I2
sbssg64
S'\x07C\xdf\xcd\x92\x1eS\x1a#\x8e\x9d\x88Dj\n\x12'
p1448
ssS'create_models_daily_quests_tests_test_daily_quest_model'
p1449
(dp1450
g733
(dp1451
g238
S'create_models_daily_quests_tests_test_daily_quest_model.html'
p1452
sg240
S'create/models/daily_quests/tests/test_daily_quest_model'
p1453
sg242
g13
(g14
g15
NtRp1454
(dp1455
g18
I1
sg19
I2
sg20
I51
sg21
I0
sg22
I0
sg23
I0
sg24
I0
sbssg742
S'\x16\x87\xb8\xd4K\xb4\x87\xf9\x84\xc4V\x94\x17\xf6\x1a\xf0'
p1456
ssS'create_admin'
p1457
(dp1458
g42
(dp1459
g57
S'create_admin.html'
p1460
sg59
S'create/admin'
p1461
sg61
g13
(g14
g15
NtRp1462
(dp1463
g18
I1
sg19
I0
sg20
I20
sg21
I0
sg22
I0
sg23
I0
sg24
I0
sbssg51
S'\x03\xe6\xc2\xd5\xa8\xb1\x92\xa5/8\x0fZCN\r\x08'
p1464
ssS'create_views_questions_tests_test_get_question_list_view'
p1465
(dp1466
g42
(dp1467
g93
S'create_views_questions_tests_test_get_question_list_view.html'
p1468
sg95
S'create/views/questions/tests/test_get_question_list_view'
p1469
sg97
g13
(g14
g15
NtRp1470
(dp1471
g18
I1
sg19
I0
sg20
I32
sg21
I0
sg22
I0
sg23
I0
sg24
I0
sbssg51
S'\xa2&\x88;1\\\xa2 \xb4&ejB\xd1%\x06'
p1472
ssS'user_system_views_logins___init__'
p1473
(dp1474
g42
(dp1475
g428
S'user_system_views_logins___init__.html'
p1476
sg430
S'user_system/views/logins/__init__'
p1477
sg432
g13
(g14
g15
NtRp1478
(dp1479
g18
I1
sg19
I0
sg20
I2
sg21
I0
sg22
I0
sg23
I0
sg24
I0
sbssg51
S'\xa0\xd3\xaas\xc2\xb93+ED.\xe5\xfe\xf2\xad\x87'
p1480
ssS'create_views_daily_quest_copies___init__'
p1481
(dp1482
g398
(dp1483
S'html_filename'
p1484
S'create_views_daily_quest_copies___init__.html'
p1485
sS'name'
p1486
S'create/views/daily_quest_copies/__init__'
p1487
sS'nums'
p1488
g13
(g14
g15
NtRp1489
(dp1490
g18
I1
sg19
I0
sg20
I1
sg21
I0
sg22
I0
sg23
I0
sg24
I0
sbssg407
S"'\xb6_z\x90s\x92\xdd\xc7\xb2\x87d\xba\xe24X"
p1491
ssS'create_views_quests_tests_test_hide_quest_view'
p1492
(dp1493
g6
(dp1494
g8
S'create_views_quests_tests_test_hide_quest_view.html'
p1495
sg10
S'create/views/quests/tests/test_hide_quest_view'
p1496
sg12
g13
(g14
g15
NtRp1497
(dp1498
g18
I1
sg19
I0
sg20
I26
sg21
I0
sg22
I0
sg23
I0
sg24
I0
sbssg25
S'G\xcb\xcf\xbb~*\xa2i\xd2\xff\x81\x81\xf0)G\xda'
p1499
ssS'create_views_books_tests_test_add_tag_to_subchapter_view'
p1500
(dp1501
S'index'
p1502
(dp1503
g44
S'create_views_books_tests_test_add_tag_to_subchapter_view.html'
p1504
sg46
S'create/views/books/tests/test_add_tag_to_subchapter_view'
p1505
sg48
g13
(g14
g15
NtRp1506
(dp1507
g18
I1
sg19
I0
sg20
I40
sg21
I0
sg22
I0
sg23
I0
sg24
I0
sbssS'hash'
p1508
S'\xb78\xf4p\xcd\xec\xca\xaa\x93\xb9\xda\xa8Yo37'
p1509
ssS'api_logging_models_modal_logging_modal_user_history_model'
p1510
(dp1511
g291
(dp1512
g174
S'api_logging_models_modal_logging_modal_user_history_model.html'
p1513
sg176
S'api_logging/models/modal_logging/modal_user_history_model'
p1514
sg178
g13
(g14
g15
NtRp1515
(dp1516
g18
I1
sg19
I0
sg20
I15
sg21
I0
sg22
I0
sg23
I3
sg24
I0
sbssg297
S'\xabX\xd42<$9z\xc1]\xc12\xe9\xd8\xbf\xd2'
p1517
ssS'create_views_daily_quests_daily_quest_view'
p1518
(dp1519
g236
(dp1520
g238
S'create_views_daily_quests_daily_quest_view.html'
p1521
sg240
S'create/views/daily_quests/daily_quest_view'
p1522
sg242
g13
(g14
g15
NtRp1523
(dp1524
g18
I1
sg19
I8
sg20
I34
sg21
I0
sg22
I0
sg23
I17
sg24
I8
sbssg245
S'\x9b\xbe99\x1cP\x1d\xd8iT&I;\xb4\xbbf'
p1525
ssS'user_system_managers_user_manager'
p1526
(dp1527
g291
(dp1528
g174
S'user_system_managers_user_manager.html'
p1529
sg176
S'user_system/managers/user_manager'
p1530
sg178
g13
(g14
g15
NtRp1531
(dp1532
g18
I1
sg19
I18
sg20
I46
sg21
I0
sg22
I0
sg23
I37
sg24
I18
sbssg297
S'\xac\xa0\xe1\xde\xdcl\x13`\xfe\xfc\xff\xb5\x18=(\xf4'
p1533
ssS'create_models_quests_tests___init__'
p1534
(dp1535
g103
(dp1536
g598
S'create_models_quests_tests___init__.html'
p1537
sg600
S'create/models/quests/tests/__init__'
p1538
sg602
g13
(g14
g15
NtRp1539
(dp1540
g18
I1
sg19
I0
sg20
I1
sg21
I0
sg22
I0
sg23
I0
sg24
I0
sbssg112
S'\xbc\xd6\xeb\xb3\xba\xcaz\xf7{\xd4B\xb5}l\xdf\x96'
p1541
ssS'create_views_questions___init__'
p1542
(dp1543
g42
(dp1544
g570
S'create_views_questions___init__.html'
p1545
sg572
S'create/views/questions/__init__'
p1546
sg574
g13
(g14
g15
NtRp1547
(dp1548
g18
I1
sg19
I0
sg20
I3
sg21
I0
sg22
I0
sg23
I0
sg24
I0
sbssg51
S'h\x154\xc5\xe58\xa8\xc8\xa9\xa6\xbea?\xcf?i'
p1549
ssS'user_system_views_users_create_teacher_view'
p1550
(dp1551
g291
(dp1552
g174
S'user_system_views_users_create_teacher_view.html'
p1553
sg176
S'user_system/views/users/create_teacher_view'
p1554
sg178
g13
(g14
g15
NtRp1555
(dp1556
g18
I1
sg19
I2
sg20
I34
sg21
I0
sg22
I0
sg23
I21
sg24
I2
sbssg297
S'=\xee\xed^jo\xc1\xebz\xedP\xf9\x91n\xec\x8d'
p1557
ssS'user_system_models_apps_tests___init__'
p1558
(dp1559
g42
(dp1560
g428
S'user_system_models_apps_tests___init__.html'
p1561
sg430
S'user_system/models/apps/tests/__init__'
p1562
sg432
g13
(g14
g15
NtRp1563
(dp1564
g18
I1
sg19
I0
sg20
I0
sg21
I0
sg22
I0
sg23
I0
sg24
I0
sbssg51
S'\x19g\xdfM\x1a\x019\xaf\x1baIeR\xe5u\xa7'
p1565
ssS'privilege_serializers_privileges_user_privilege_serializer'
p1566
(dp1567
g281
(dp1568
g93
S'privilege_serializers_privileges_user_privilege_serializer.html'
p1569
sg95
S'privilege/serializers/privileges/user_privilege_serializer'
p1570
sg97
g13
(g14
g15
NtRp1571
(dp1572
g18
I1
sg19
I0
sg20
I9
sg21
I0
sg22
I0
sg23
I0
sg24
I0
sbssg287
S'#\xe5\xcc\x9as5y,\xa1HiQ\xa2c\xdb2'
p1573
ssS'teach_views_summaries_daily_quest_daily_summary_view'
p1574
(dp1575
g291
(dp1576
g174
S'teach_views_summaries_daily_quest_daily_summary_view.html'
p1577
sg176
S'teach/views/summaries/daily_quest_daily_summary_view'
p1578
sg178
g13
(g14
g15
NtRp1579
(dp1580
g18
I1
sg19
I12
sg20
I61
sg21
I0
sg22
I0
sg23
I39
sg24
I12
sbssg297
S'\x06\\F.\x8c\xd3M\x8e\xc5\xc9\xd5<\x13V\xd6C'
p1581
ssS'create_views_summary___init__'
p1582
(dp1583
S'index'
p1584
(dp1585
g1070
S'create_views_summary___init__.html'
p1586
sg1072
S'create/views/summary/__init__'
p1587
sg1074
g13
(g14
g15
NtRp1588
(dp1589
g18
I1
sg19
I0
sg20
I1
sg21
I0
sg22
I0
sg23
I0
sg24
I0
sbssS'hash'
p1590
S'#\xb7\xbd\xa1M\xe4\xa0\x05\xf5x\x057hU[\xca'
p1591
ssS'create_models_daily_quest_templates___init__'
p1592
(dp1593
g236
(dp1594
g238
S'create_models_daily_quest_templates___init__.html'
p1595
sg240
S'create/models/daily_quest_templates/__init__'
p1596
sg242
g13
(g14
g15
NtRp1597
(dp1598
g18
I1
sg19
I0
sg20
I1
sg21
I0
sg22
I0
sg23
I0
sg24
I0
sbssg245
S'\x12\x89x\xb9F\xfb=b\x04\xddy\xb4\xccZb\xb8'
p1599
ssS'create_views_tags_tests_test_get_tag_by_id_view'
p1600
(dp1601
g672
(dp1602
g93
S'create_views_tags_tests_test_get_tag_by_id_view.html'
p1603
sg95
S'create/views/tags/tests/test_get_tag_by_id_view'
p1604
sg97
g13
(g14
g15
NtRp1605
(dp1606
g18
I1
sg19
I0
sg20
I20
sg21
I0
sg22
I0
sg23
I0
sg24
I0
sbssg678
S'T\xd5\xd7\xd9\xb8\x12\x81xj\xca\x90\xa41\xcf\x02]'
p1607
ssS'api_logging_models_user_activities___init__'
p1608
(dp1609
g291
(dp1610
g174
S'api_logging_models_user_activities___init__.html'
p1611
sg176
S'api_logging/models/user_activities/__init__'
p1612
sg178
g13
(g14
g15
NtRp1613
(dp1614
g18
I1
sg19
I0
sg20
I1
sg21
I0
sg22
I0
sg23
I0
sg24
I0
sbssg297
S'\xd9\xe2\xb9\xa8[\x85h\x8ep\xd5\x12TW1\x9d\x1b'
p1615
ssS'user_system_models_users_tests_test_user_profile_model'
p1616
(dp1617
g42
(dp1618
g93
S'user_system_models_users_tests_test_user_profile_model.html'
p1619
sg95
S'user_system/models/users/tests/test_user_profile_model'
p1620
sg97
g13
(g14
g15
NtRp1621
(dp1622
g18
I1
sg19
I0
sg20
I133
sg21
I0
sg22
I0
sg23
I0
sg24
I0
sbssg51
S'\xc1e\xe4\x0f%\xba\xad\x9b\x1ch\xca\x93\xf7$\xf9\xdb'
p1623
ssS'user_system_views_roles_tests_test_user_role_view'
p1624
(dp1625
g42
(dp1626
g44
S'user_system_views_roles_tests_test_user_role_view.html'
p1627
sg46
S'user_system/views/roles/tests/test_user_role_view'
p1628
sg48
g13
(g14
g15
NtRp1629
(dp1630
g18
I1
sg19
I0
sg20
I41
sg21
I0
sg22
I0
sg23
I0
sg24
I0
sbssg51
S'\xaf \x02-\xd3\xa9\xee\x1e7\x87\xa8[\xd9\xd8V\xd8'
p1631
ssS'user_system_views_apps_tests_test_get_apps_list_view'
p1632
(dp1633
g42
(dp1634
g44
S'user_system_views_apps_tests_test_get_apps_list_view.html'
p1635
sg46
S'user_system/views/apps/tests/test_get_apps_list_view'
p1636
sg48
g13
(g14
g15
NtRp1637
(dp1638
g18
I1
sg19
I0
sg20
I18
sg21
I0
sg22
I0
sg23
I0
sg24
I0
sbssg51
S'\x87\xab;"\x01p\xf9\xe5\xa6\xb1\xaej\x8egl\x99'
p1639
ssS'api_logging_models_user_activities_user_activity_model'
p1640
(dp1641
g291
(dp1642
g174
S'api_logging_models_user_activities_user_activity_model.html'
p1643
sg176
S'api_logging/models/user_activities/user_activity_model'
p1644
sg178
g13
(g14
g15
NtRp1645
(dp1646
g18
I1
sg19
I0
sg20
I11
sg21
I0
sg22
I0
sg23
I0
sg24
I0
sbssg297
S'f\xe2(\xd3\xddS\xfd\x1e\xf0d\xb2,\xb2\x8f\x8c\x18'
p1647
ssS'create_models_questions_question_type_model'
p1648
(dp1649
g42
(dp1650
g44
S'create_models_questions_question_type_model.html'
p1651
sg46
S'create/models/questions/question_type_model'
p1652
sg48
g13
(g14
g15
NtRp1653
(dp1654
g18
I1
sg19
I0
sg20
I19
sg21
I0
sg22
I0
sg23
I0
sg24
I0
sbssg51
S'\xb9\xe7I\x93\x8b\xa8\xa8H\x80\x02_\xf9\x87\xa2\xe7\xa5'
p1655
ssS'create_serializers_questions_question_type_serializer'
p1656
(dp1657
g42
(dp1658
g428
S'create_serializers_questions_question_type_serializer.html'
p1659
sg430
S'create/serializers/questions/question_type_serializer'
p1660
sg432
g13
(g14
g15
NtRp1661
(dp1662
g18
I1
sg19
I0
sg20
I6
sg21
I0
sg22
I0
sg23
I0
sg24
I0
sbssg51
S'!\x8a\x91KA:\x92\x13/\xdd\xd9\xc2?\x8b\xe1\xc6'
p1663
ssS'create_models_books_tests_test_book_model'
p1664
(dp1665
g346
(dp1666
S'html_filename'
p1667
S'create_models_books_tests_test_book_model.html'
p1668
sS'name'
p1669
S'create/models/books/tests/test_book_model'
p1670
sS'nums'
p1671
g13
(g14
g15
NtRp1672
(dp1673
g18
I1
sg19
I6
sg20
I44
sg21
I0
sg22
I0
sg23
I0
sg24
I0
sbssg352
S'\xff\x88\xcd\xb0\x80\xb2\x9d\xf7\xf9G\xb1.\xaf\xdd\x07\xd7'
p1674
ssS'create_serializers_daily_quests___init__'
p1675
(dp1676
g733
(dp1677
g238
S'create_serializers_daily_quests___init__.html'
p1678
sg240
S'create/serializers/daily_quests/__init__'
p1679
sg242
g13
(g14
g15
NtRp1680
(dp1681
g18
I1
sg19
I0
sg20
I1
sg21
I0
sg22
I0
sg23
I0
sg24
I0
sbssg742
S'N\xb8\x18\x1c\x0c\xc7\xca\x91\xa0|\xe1\x02L\xeeC\xbe'
p1682
ssS'create_models_questions_question_choice_model'
p1683
(dp1684
g42
(dp1685
g1287
S'create_models_questions_question_choice_model.html'
p1686
sg1289
S'create/models/questions/question_choice_model'
p1687
sg1291
g13
(g14
g15
NtRp1688
(dp1689
g18
I1
sg19
I0
sg20
I42
sg21
I0
sg22
I0
sg23
I0
sg24
I0
sbssg51
S'\xd7\xd8\x1f\xbf<\xee\xdd?}\xfe>\x82\\\x97\x15)'
p1690
ssS'flipped_helpers_tests___init__'
p1691
(dp1692
g42
(dp1693
g428
S'flipped_helpers_tests___init__.html'
p1694
sg430
S'flipped/helpers/tests/__init__'
p1695
sg432
g13
(g14
g15
NtRp1696
(dp1697
g18
I1
sg19
I0
sg20
I0
sg21
I0
sg22
I0
sg23
I0
sg24
I0
sbssg51
S'\x19g\xdfM\x1a\x019\xaf\x1baIeR\xe5u\xa7'
p1698
ssS'create_models_tags_tests_test_tag_model'
p1699
(dp1700
g380
(dp1701
S'html_filename'
p1702
S'create_models_tags_tests_test_tag_model.html'
p1703
sS'name'
p1704
S'create/models/tags/tests/test_tag_model'
p1705
sS'nums'
p1706
g13
(g14
g15
NtRp1707
(dp1708
g18
I1
sg19
I6
sg20
I52
sg21
I0
sg22
I0
sg23
I0
sg24
I0
sbssg386
S'1\x992\xc0\xbb\xb6d *5\xfa\xd2\xdc1\xb2\x92'
p1709
ssS'create_views_tags_tests_test_remove_prerequisite_view'
p1710
(dp1711
g301
(dp1712
g44
S'create_views_tags_tests_test_remove_prerequisite_view.html'
p1713
sg46
S'create/views/tags/tests/test_remove_prerequisite_view'
p1714
sg48
g13
(g14
g15
NtRp1715
(dp1716
g18
I1
sg19
I0
sg20
I31
sg21
I0
sg22
I0
sg23
I0
sg24
I0
sbssg307
S'\x8e\x8c~\xff\x85\x94\x8c~T\x7f\x80\x82W\x96\x19\x9c'
p1717
ssS'learn_models_points_tests_test_point_type_model'
p1718
(dp1719
g291
(dp1720
g174
S'learn_models_points_tests_test_point_type_model.html'
p1721
sg176
S'learn/models/points/tests/test_point_type_model'
p1722
sg178
g13
(g14
g15
NtRp1723
(dp1724
g18
I1
sg19
I0
sg20
I18
sg21
I0
sg22
I0
sg23
I0
sg24
I0
sbssg297
S'\x98Y\xdes\x81 \xdfe\xb63\xbc\xa1\xd6`$>'
p1725
ssS'teach_serializers_teacher_chapters_teacher_chapter_serializer'
p1726
(dp1727
g55
(dp1728
g57
S'teach_serializers_teacher_chapters_teacher_chapter_serializer.html'
p1729
sg59
S'teach/serializers/teacher_chapters/teacher_chapter_serializer'
p1730
sg61
g13
(g14
g15
NtRp1731
(dp1732
g18
I1
sg19
I0
sg20
I12
sg21
I0
sg22
I0
sg23
I0
sg24
I0
sbssg64
S'\xac\x9b\xf1Q\x91\xf4J\x03y\xc4\xa7\x9c\x996\x13a'
p1733
ssS'user_system_serializers_app_serializer'
p1734
(dp1735
g42
(dp1736
g428
S'user_system_serializers_app_serializer.html'
p1737
sg430
S'user_system/serializers/app_serializer'
p1738
sg432
g13
(g14
g15
NtRp1739
(dp1740
g18
I1
sg19
I0
sg20
I7
sg21
I0
sg22
I0
sg23
I0
sg24
I0
sbssg51
S'\xc1\x87\xd6\x1b\xbe\x8f\xfb\xdd\x1a\xa9\x92A\xe2\xc3\xe2\xf1'
p1741
ssS'user_system_models_apps_tests_test_app_model'
p1742
(dp1743
g42
(dp1744
g44
S'user_system_models_apps_tests_test_app_model.html'
p1745
sg46
S'user_system/models/apps/tests/test_app_model'
p1746
sg48
g13
(g14
g15
NtRp1747
(dp1748
g18
I1
sg19
I0
sg20
I18
sg21
I0
sg22
I0
sg23
I0
sg24
I0
sbssg51
S'\xfb\xfc\xe0#\xe2\n\x8e\x9e\x94\xa8\x83\xc5\xb1U\xa3a'
p1749
ssS'create_models_books_book_history_model'
p1750
(dp1751
g346
(dp1752
g93
S'create_models_books_book_history_model.html'
p1753
sg95
S'create/models/books/book_history_model'
p1754
sg97
g13
(g14
g15
NtRp1755
(dp1756
g18
I1
sg19
I4
sg20
I43
sg21
I0
sg22
I1
sg23
I0
sg24
I1
sbssg352
S'\xd71\x9e\xd0\x9bqR\xb9(!\x9f2\x10O|\xeb'
p1757
ssS'teach_models_teacher_chapters_tests___init__'
p1758
(dp1759
g55
(dp1760
g57
S'teach_models_teacher_chapters_tests___init__.html'
p1761
sg59
S'teach/models/teacher_chapters/tests/__init__'
p1762
sg61
g13
(g14
g15
NtRp1763
(dp1764
g18
I1
sg19
I0
sg20
I0
sg21
I0
sg22
I0
sg23
I0
sg24
I0
sbssg64
S'\x19g\xdfM\x1a\x019\xaf\x1baIeR\xe5u\xa7'
p1765
ssS'create_views_quests_tests_test_remove_tag_view'
p1766
(dp1767
g6
(dp1768
g8
S'create_views_quests_tests_test_remove_tag_view.html'
p1769
sg10
S'create/views/quests/tests/test_remove_tag_view'
p1770
sg12
g13
(g14
g15
NtRp1771
(dp1772
g18
I1
sg19
I0
sg20
I0
sg21
I0
sg22
I0
sg23
I0
sg24
I0
sbssg25
S'\x19g\xdfM\x1a\x019\xaf\x1baIeR\xe5u\xa7'
p1773
ssS'create_models_books_book_model'
p1774
(dp1775
g346
(dp1776
S'html_filename'
p1777
S'create_models_books_book_model.html'
p1778
sS'name'
p1779
S'create/models/books/book_model'
p1780
sS'nums'
p1781
g13
(g14
g15
NtRp1782
(dp1783
g18
I1
sg19
I4
sg20
I37
sg21
I0
sg22
I0
sg23
I0
sg24
I0
sbssg352
S'Z\x88%\xfa\x8c7\x1e\xf9\x06qW\x80O\xe1\x85.'
p1784
ssS'create_views_books_tests_test_remove_chapter_view'
p1785
(dp1786
g126
(dp1787
g44
S'create_views_books_tests_test_remove_chapter_view.html'
p1788
sg46
S'create/views/books/tests/test_remove_chapter_view'
p1789
sg48
g13
(g14
g15
NtRp1790
(dp1791
g18
I1
sg19
I0
sg20
I39
sg21
I0
sg22
I0
sg23
I0
sg24
I0
sbssg132
S'lJ\xdc\xbe\xe2>\x9d\xde\xb5+ia5;\x042'
p1792
ssS'create_models_question_datasets___init__'
p1793
(dp1794
g144
(dp1795
g146
S'create_models_question_datasets___init__.html'
p1796
sg148
S'create/models/question_datasets/__init__'
p1797
sg150
g13
(g14
g15
NtRp1798
(dp1799
g18
I1
sg19
I0
sg20
I1
sg21
I0
sg22
I0
sg23
I0
sg24
I0
sbssg153
S'\xeb\xb7>&t\x02-\xeaaJ,\x8a\xae\xc3\x1a]'
p1800
ssS'privilege_views___init__'
p1801
(dp1802
g281
(dp1803
g93
S'privilege_views___init__.html'
p1804
sg95
S'privilege/views/__init__'
p1805
sg97
g13
(g14
g15
NtRp1806
(dp1807
g18
I1
sg19
I0
sg20
I0
sg21
I0
sg22
I0
sg23
I0
sg24
I0
sbssg287
S'\x19g\xdfM\x1a\x019\xaf\x1baIeR\xe5u\xa7'
p1808
ssS'user_system_views_users_tests___init__'
p1809
(dp1810
g42
(dp1811
g428
S'user_system_views_users_tests___init__.html'
p1812
sg430
S'user_system/views/users/tests/__init__'
p1813
sg432
g13
(g14
g15
NtRp1814
(dp1815
g18
I1
sg19
I0
sg20
I0
sg21
I0
sg22
I0
sg23
I0
sg24
I0
sbssg51
S'\x19g\xdfM\x1a\x019\xaf\x1baIeR\xe5u\xa7'
p1816
ssS'create_models_tags_tests_test_skill_model'
p1817
(dp1818
g380
(dp1819
g44
S'create_models_tags_tests_test_skill_model.html'
p1820
sg46
S'create/models/tags/tests/test_skill_model'
p1821
sg48
g13
(g14
g15
NtRp1822
(dp1823
g18
I1
sg19
I0
sg20
I12
sg21
I0
sg22
I0
sg23
I0
sg24
I0
sbssg386
S'\x08\x9e\x87e#\x02\x06O\x02l!\x0e\xe8\xeb\xc0.'
p1824
ssS'create_views_tags_tests___init__'
p1825
(dp1826
g672
(dp1827
g995
S'create_views_tags_tests___init__.html'
p1828
sg997
S'create/views/tags/tests/__init__'
p1829
sg999
g13
(g14
g15
NtRp1830
(dp1831
g18
I1
sg19
I0
sg20
I0
sg21
I0
sg22
I0
sg23
I0
sg24
I0
sbssg678
S'\x19g\xdfM\x1a\x019\xaf\x1baIeR\xe5u\xa7'
p1832
ssS'user_system_views_signups_hardcoded___init__'
p1833
(dp1834
g42
(dp1835
g428
S'user_system_views_signups_hardcoded___init__.html'
p1836
sg430
S'user_system/views/signups/hardcoded/__init__'
p1837
sg432
g13
(g14
g15
NtRp1838
(dp1839
g18
I1
sg19
I0
sg20
I1
sg21
I0
sg22
I0
sg23
I0
sg24
I0
sbssg51
S'?\xfac\x0c\x91\xa4\xd6\xd4\x1d\xe4\x99\xc2[\x83\xfc\xdf'
p1840
ssS'create_models_daily_quest_templates_daily_quest_template_model'
p1841
(dp1842
g236
(dp1843
g238
S'create_models_daily_quest_templates_daily_quest_template_model.html'
p1844
sg240
S'create/models/daily_quest_templates/daily_quest_template_model'
p1845
sg242
g13
(g14
g15
NtRp1846
(dp1847
g18
I1
sg19
I0
sg20
I29
sg21
I0
sg22
I0
sg23
I0
sg24
I0
sbssg245
S'm:\xfa\nsk\x85\xa8p\x96\xc3\xca\xa1c\xb0+'
p1848
ssS'create_models_books_tests_test_book_chapter_model'
p1849
(dp1850
g346
(dp1851
g1667
S'create_models_books_tests_test_book_chapter_model.html'
p1852
sg1669
S'create/models/books/tests/test_book_chapter_model'
p1853
sg1671
g13
(g14
g15
NtRp1854
(dp1855
g18
I1
sg19
I8
sg20
I55
sg21
I0
sg22
I0
sg23
I0
sg24
I0
sbssg352
S'\xc4\x1a\xd7\x12s\xd3V\xef\xac\xa7%\x0c\xdc\x17\x05c'
p1856
ssS'user_system_views_signups_tests_test_verify_email_view'
p1857
(dp1858
g42
(dp1859
g44
S'user_system_views_signups_tests_test_verify_email_view.html'
p1860
sg46
S'user_system/views/signups/tests/test_verify_email_view'
p1861
sg48
g13
(g14
g15
NtRp1862
(dp1863
g18
I1
sg19
I0
sg20
I51
sg21
I0
sg22
I0
sg23
I0
sg24
I0
sbssg51
S'\x81\xacj\x9d\x1f\xa9o\xcc\x1e\xa3\xe59^YT\x9e'
p1864
ssS'teach_models_daily_quest_templates___init__'
p1865
(dp1866
g55
(dp1867
g57
S'teach_models_daily_quest_templates___init__.html'
p1868
sg59
S'teach/models/daily_quest_templates/__init__'
p1869
sg61
g13
(g14
g15
NtRp1870
(dp1871
g18
I1
sg19
I0
sg20
I1
sg21
I0
sg22
I0
sg23
I0
sg24
I0
sbssg64
S'\x12\x89x\xb9F\xfb=b\x04\xddy\xb4\xccZb\xb8'
p1872
ssS'teach_serializers_daily_quest_templates_daily_quest_template_serializer'
p1873
(dp1874
g55
(dp1875
g174
S'teach_serializers_daily_quest_templates_daily_quest_template_serializer.html'
p1876
sg176
S'teach/serializers/daily_quest_templates/daily_quest_template_serializer'
p1877
sg178
g13
(g14
g15
NtRp1878
(dp1879
g18
I1
sg19
I0
sg20
I12
sg21
I0
sg22
I0
sg23
I0
sg24
I0
sbssg64
S"\xd9\x0bcm\x95?'mB\xf9\xdd\xa1\xfc>:="
p1880
ssS'create_views_questions_tests_test_add_tag_view'
p1881
(dp1882
g213
(dp1883
g215
S'create_views_questions_tests_test_add_tag_view.html'
p1884
sg217
S'create/views/questions/tests/test_add_tag_view'
p1885
sg219
g13
(g14
g15
NtRp1886
(dp1887
g18
I1
sg19
I0
sg20
I35
sg21
I0
sg22
I0
sg23
I0
sg24
I0
sbssg222
S'\x8e\x13\xdd\xbd\xba\r&,-|&W-a`\x7f'
p1888
ssS'create_views_quests_quest_view'
p1889
(dp1890
g103
(dp1891
g968
S'create_views_quests_quest_view.html'
p1892
sg970
S'create/views/quests/quest_view'
p1893
sg972
g13
(g14
g15
NtRp1894
(dp1895
g18
I1
sg19
I84
sg20
I249
sg21
I0
sg22
I0
sg23
I178
sg24
I78
sbssg112
S'(\xa2UK\xe2}\xa8\xe0\xc9 3#\xec\x01\xfd\x16'
p1896
ssS'privilege_models_privileges_tests_test_privilege_model'
p1897
(dp1898
g281
(dp1899
g93
S'privilege_models_privileges_tests_test_privilege_model.html'
p1900
sg95
S'privilege/models/privileges/tests/test_privilege_model'
p1901
sg97
g13
(g14
g15
NtRp1902
(dp1903
g18
I1
sg19
I0
sg20
I22
sg21
I0
sg22
I0
sg23
I0
sg24
I0
sbssg287
S'\xf5\xd2]\xa4\x17\xf5-l\xba\xfe\xd5N\xa8-k\x80'
p1904
ssS'api_logging_models'
p1905
(dp1906
g542
(dp1907
g707
S'api_logging_models.html'
p1908
sg709
S'api_logging/models'
p1909
sg711
g13
(g14
g15
NtRp1910
(dp1911
g18
I1
sg19
I0
sg20
I21
sg21
I0
sg22
I0
sg23
I0
sg24
I0
sbssg548
S'\x0c\x96WFX%\xe9\xcf+\xcf\xc2s\xa7a1\xbd'
p1912
ssS'user_system_models_schools_tests_test_grade_model'
p1913
(dp1914
g226
(dp1915
g31
S'user_system_models_schools_tests_test_grade_model.html'
p1916
sg33
S'user_system/models/schools/tests/test_grade_model'
p1917
sg35
g13
(g14
g15
NtRp1918
(dp1919
g18
I1
sg19
I0
sg20
I24
sg21
I0
sg22
I0
sg23
I0
sg24
I0
sbssg232
S'\x1e|\xb0\x10\x05\x9c\xb5\xe9\xbc\xff\x8a\xaan\xdf\xd4\xb2'
p1920
ssS'user_system_views_logins_tests_test_facebook_login_view'
p1921
(dp1922
g42
(dp1923
g44
S'user_system_views_logins_tests_test_facebook_login_view.html'
p1924
sg46
S'user_system/views/logins/tests/test_facebook_login_view'
p1925
sg48
g13
(g14
g15
NtRp1926
(dp1927
g18
I1
sg19
I0
sg20
I51
sg21
I0
sg22
I0
sg23
I0
sg24
I0
sbssg51
S'\x8eg\xfbA\xbdf+\x81\xe9\x8a\x16\x82\xe9\xe3\xc0\xf4'
p1928
ssS'create_models_daily_quests_daily_quest_model'
p1929
(dp1930
g733
(dp1931
g1484
S'create_models_daily_quests_daily_quest_model.html'
p1932
sg1486
S'create/models/daily_quests/daily_quest_model'
p1933
sg1488
g13
(g14
g15
NtRp1934
(dp1935
g18
I1
sg19
I2
sg20
I48
sg21
I0
sg22
I0
sg23
I6
sg24
I2
sbssg742
S'\xae\'/"f\x1014\xdd\x0e\x85\xf4\x91\x02\\`'
p1936
ssS'user_system_views_signups_tests_test_email_signup_view'
p1937
(dp1938
g42
(dp1939
g44
S'user_system_views_signups_tests_test_email_signup_view.html'
p1940
sg46
S'user_system/views/signups/tests/test_email_signup_view'
p1941
sg48
g13
(g14
g15
NtRp1942
(dp1943
g18
I1
sg19
I0
sg20
I51
sg21
I0
sg22
I0
sg23
I0
sg24
I0
sbssg51
S'\xa3\xb2\xaf-\x99\xe3]\xcc\xe6\x8b\xeb\xf63=I\xb4'
p1944
ssS'user_system_models_schools_tests_test_organization_model'
p1945
(dp1946
g200
(dp1947
g44
S'user_system_models_schools_tests_test_organization_model.html'
p1948
sg46
S'user_system/models/schools/tests/test_organization_model'
p1949
sg48
g13
(g14
g15
NtRp1950
(dp1951
g18
I1
sg19
I0
sg20
I24
sg21
I0
sg22
I0
sg23
I0
sg24
I0
sbssg209
S'\xeb?\x1b\x02\xc8gO\x05\xad\x0f\xa1K\xb3\xd7\xb7t'
p1952
ssS'create_serializers_books_book_subchapter_serializer'
p1953
(dp1954
g346
(dp1955
g1145
S'create_serializers_books_book_subchapter_serializer.html'
p1956
sg1147
S'create/serializers/books/book_subchapter_serializer'
p1957
sg1149
g13
(g14
g15
NtRp1958
(dp1959
g18
I1
sg19
I0
sg20
I18
sg21
I0
sg22
I0
sg23
I3
sg24
I0
sbssg352
S'89\x89\x89\xd8\x94\xd2l\x98G]\xad\xe1\xf7\x93\xfc'
p1960
ssS'create_views_books_book_subchapter_view'
p1961
(dp1962
g1502
(dp1963
g44
S'create_views_books_book_subchapter_view.html'
p1964
sg46
S'create/views/books/book_subchapter_view'
p1965
sg48
g13
(g14
g15
NtRp1966
(dp1967
g18
I1
sg19
I8
sg20
I46
sg21
I0
sg22
I0
sg23
I0
sg24
I0
sbssg1508
S'\x0e\xa6\x19V\xf0\xf3;\xa2\x8d \xd8i\xb7*D\x87'
p1968
ssS'user_system_models_roles_tests_test_role_model'
p1969
(dp1970
g42
(dp1971
g44
S'user_system_models_roles_tests_test_role_model.html'
p1972
sg46
S'user_system/models/roles/tests/test_role_model'
p1973
sg48
g13
(g14
g15
NtRp1974
(dp1975
g18
I1
sg19
I0
sg20
I20
sg21
I0
sg22
I0
sg23
I0
sg24
I0
sbssg51
S'\xef\xba\x956\x96\xbc:\xa0\x0f\x00\x84\x80\x0elh\xed'
p1976
ssS'user_system_views_signups_verify_email_view'
p1977
(dp1978
g42
(dp1979
g44
S'user_system_views_signups_verify_email_view.html'
p1980
sg46
S'user_system/views/signups/verify_email_view'
p1981
sg48
g13
(g14
g15
NtRp1982
(dp1983
g18
I1
sg19
I6
sg20
I26
sg21
I0
sg22
I0
sg23
I0
sg24
I0
sbssg51
S"B+;\xbf\xb1A\x1f\n\x94\x0e\xeb\xd0\xf1Y'l"
p1984
ssS'user_system_views_logins_email_login_view'
p1985
(dp1986
g42
(dp1987
g174
S'user_system_views_logins_email_login_view.html'
p1988
sg176
S'user_system/views/logins/email_login_view'
p1989
sg178
g13
(g14
g15
NtRp1990
(dp1991
g18
I1
sg19
I8
sg20
I35
sg21
I0
sg22
I0
sg23
I0
sg24
I0
sbssg51
S'\x9e\xe3\x8e\xf9o\x8aYC\xa2\xcb\xe7\xbd\x94\xe1O\x1a'
p1992
ssS'user_system_serializers_users_list_user_serializer'
p1993
(dp1994
g42
(dp1995
g44
S'user_system_serializers_users_list_user_serializer.html'
p1996
sg46
S'user_system/serializers/users/list_user_serializer'
p1997
sg48
g13
(g14
g15
NtRp1998
(dp1999
g18
I1
sg19
I0
sg20
I18
sg21
I0
sg22
I0
sg23
I0
sg24
I0
sbssg51
S'\xdfK>6\xe0\x8d\xcd\xd4/O\xef\xaa\xd0\x9efX'
p2000
ssS'create_views_question_datasets_question_dataset_view'
p2001
(dp2002
g144
(dp2003
g146
S'create_views_question_datasets_question_dataset_view.html'
p2004
sg148
S'create/views/question_datasets/question_dataset_view'
p2005
sg150
g13
(g14
g15
NtRp2006
(dp2007
g18
I1
sg19
I4
sg20
I20
sg21
I0
sg22
I0
sg23
I5
sg24
I4
sbssg153
S'\x01\xfb\xf2\x86m\xd4\xf9\xc3\xe6\xb6\x11\x96u;\x1ez'
p2008
ssS'create_views_quests_tests_test_remove_question_template_view'
p2009
(dp2010
g6
(dp2011
g8
S'create_views_quests_tests_test_remove_question_template_view.html'
p2012
sg10
S'create/views/quests/tests/test_remove_question_template_view'
p2013
sg12
g13
(g14
g15
NtRp2014
(dp2015
g18
I1
sg19
I0
sg20
I0
sg21
I0
sg22
I0
sg23
I0
sg24
I0
sbssg25
S'\x19g\xdfM\x1a\x019\xaf\x1baIeR\xe5u\xa7'
p2016
ssS'user_system_serializers_users_user_profile_update_request_serializer'
p2017
(dp2018
g116
(dp2019
S'html_filename'
p2020
S'user_system_serializers_users_user_profile_update_request_serializer.html'
p2021
sS'name'
p2022
S'user_system/serializers/users/user_profile_update_request_serializer'
p2023
sS'nums'
p2024
g13
(g14
g15
NtRp2025
(dp2026
g18
I1
sg19
I0
sg20
I20
sg21
I0
sg22
I0
sg23
I2
sg24
I0
sbssg122
S'\x19EO\xe6\xb5\xdbWY\xb8\xd9\x1cP&\xe3\xc4\xca'
p2027
ssS'create_views_books_tests_test_get_books_list_view'
p2028
(dp2029
g914
(dp2030
g93
S'create_views_books_tests_test_get_books_list_view.html'
p2031
sg95
S'create/views/books/tests/test_get_books_list_view'
p2032
sg97
g13
(g14
g15
NtRp2033
(dp2034
g18
I1
sg19
I0
sg20
I21
sg21
I0
sg22
I0
sg23
I0
sg24
I0
sbssg920
S'\x16\x8f\xf1\x81>\x0f\xb4S\x19\xff\xcd\xc1Y\xe9;\x98'
p2035
ssS'user_system_serializers_schools_classroom_serializer'
p2036
(dp2037
g116
(dp2038
g31
S'user_system_serializers_schools_classroom_serializer.html'
p2039
sg33
S'user_system/serializers/schools/classroom_serializer'
p2040
sg35
g13
(g14
g15
NtRp2041
(dp2042
g18
I1
sg19
I0
sg20
I13
sg21
I0
sg22
I0
sg23
I2
sg24
I0
sbssg122
S'\\\x02 #\xfc|[\xb1g\x7f\x83+\xb6\xaa\x13\x01'
p2043
ssS'create_models_daily_quest_copies_tests___init__'
p2044
(dp2045
g398
(dp2046
g1484
S'create_models_daily_quest_copies_tests___init__.html'
p2047
sg1486
S'create/models/daily_quest_copies/tests/__init__'
p2048
sg1488
g13
(g14
g15
NtRp2049
(dp2050
g18
I1
sg19
I0
sg20
I0
sg21
I0
sg22
I0
sg23
I0
sg24
I0
sbssg407
S'\x19g\xdfM\x1a\x019\xaf\x1baIeR\xe5u\xa7'
p2051
ssS'api_logging_views_summary_user_activity_summary_view'
p2052
(dp2053
g291
(dp2054
g174
S'api_logging_views_summary_user_activity_summary_view.html'
p2055
sg176
S'api_logging/views/summary/user_activity_summary_view'
p2056
sg178
g13
(g14
g15
NtRp2057
(dp2058
g18
I1
sg19
I8
sg20
I27
sg21
I0
sg22
I0
sg23
I13
sg24
I8
sbssg297
S'\x99\xfc\\\x0e\x10\x840(\x94\xd3(k\x9f\xb4\xd9M'
p2059
ssS'create_urls'
p2060
(dp2061
g42
(dp2062
g57
S'create_urls.html'
p2063
sg59
S'create/urls'
p2064
sg61
g13
(g14
g15
NtRp2065
(dp2066
g18
I1
sg19
I0
sg20
I22
sg21
I0
sg22
I0
sg23
I0
sg24
I0
sbssg51
S"k/4\x8e_h\xf3)p'\x8e\x80v\x1e\xbdg"
p2067
ssS'create_views_tags_tests_test_get_tags_list_view'
p2068
(dp2069
g672
(dp2070
g93
S'create_views_tags_tests_test_get_tags_list_view.html'
p2071
sg95
S'create/views/tags/tests/test_get_tags_list_view'
p2072
sg97
g13
(g14
g15
NtRp2073
(dp2074
g18
I1
sg19
I0
sg20
I21
sg21
I0
sg22
I0
sg23
I0
sg24
I0
sbssg678
S'F\xf6yk?\xb2\xc12\x93\x8b\xe6Bx\xa09\x89'
p2075
ssS'create_serializers_tags_tag_serializer'
p2076
(dp2077
g346
(dp2078
g93
S'create_serializers_tags_tag_serializer.html'
p2079
sg95
S'create/serializers/tags/tag_serializer'
p2080
sg97
g13
(g14
g15
NtRp2081
(dp2082
g18
I1
sg19
I0
sg20
I38
sg21
I0
sg22
I0
sg23
I0
sg24
I0
sbssg352
S'\xf7\xa8n\xd6\xf1\xe1\xf8\xaedX\x8e\xfe\ry\xd4\xc3'
p2083
ssS'user_system_models_users_teacher_mapping_model'
p2084
(dp2085
g29
(dp2086
g174
S'user_system_models_users_teacher_mapping_model.html'
p2087
sg176
S'user_system/models/users/teacher_mapping_model'
p2088
sg178
g13
(g14
g15
NtRp2089
(dp2090
g18
I1
sg19
I4
sg20
I25
sg21
I0
sg22
I0
sg23
I6
sg24
I4
sbssg38
S'\xf1"\xa4\xe2\xde\xb3\x8bY\x01H\x9c\xb0\x92\x93\xbd\xec'
p2091
ssS'create_models_questions___init__'
p2092
(dp2093
g42
(dp2094
g570
S'create_models_questions___init__.html'
p2095
sg572
S'create/models/questions/__init__'
p2096
sg574
g13
(g14
g15
NtRp2097
(dp2098
g18
I1
sg19
I0
sg20
I6
sg21
I0
sg22
I0
sg23
I0
sg24
I0
sbssg51
S'\xd4\xfd\xae\xf0N\xdd-\x07$U\xac\xf1\xc2\x0f\xa5H'
p2099
ssS'create_models_tags_tag_type_model'
p2100
(dp2101
g380
(dp2102
g44
S'create_models_tags_tag_type_model.html'
p2103
sg46
S'create/models/tags/tag_type_model'
p2104
sg48
g13
(g14
g15
NtRp2105
(dp2106
g18
I1
sg19
I0
sg20
I15
sg21
I0
sg22
I0
sg23
I0
sg24
I0
sbssg386
S'\x89\x07\x8e\xc7^0\x96Do\xbf\xa5\xca5\xe4\x92\xeb'
p2107
ssS'create_serializers___init__'
p2108
(dp2109
g42
(dp2110
g57
S'create_serializers___init__.html'
p2111
sg59
S'create/serializers/__init__'
p2112
sg61
g13
(g14
g15
NtRp2113
(dp2114
g18
I1
sg19
I0
sg20
I6
sg21
I0
sg22
I0
sg23
I0
sg24
I0
sbssg51
S'\x97\xc3"\xfe\x83V\xc1w\xa6r\x02s qES'
p2115
ssS'create_serializers_books_book_history_serializer'
p2116
(dp2117
g914
(dp2118
g93
S'create_serializers_books_book_history_serializer.html'
p2119
sg95
S'create/serializers/books/book_history_serializer'
p2120
sg97
g13
(g14
g15
NtRp2121
(dp2122
g18
I1
sg19
I0
sg20
I14
sg21
I0
sg22
I0
sg23
I0
sg24
I0
sbssg920
S'|g\x1e1\xcdq*ob~B\xca\xd92\x8b\x01'
p2123
ssS'teach_views_daily_quest_templates___init__'
p2124
(dp2125
g55
(dp2126
g57
S'teach_views_daily_quest_templates___init__.html'
p2127
sg59
S'teach/views/daily_quest_templates/__init__'
p2128
sg61
g13
(g14
g15
NtRp2129
(dp2130
g18
I1
sg19
I0
sg20
I1
sg21
I0
sg22
I0
sg23
I0
sg24
I0
sbssg64
S'\xc1b\x1f\x95\xabR`C\xe80\xb9tNC\r3'
p2131
ssS'teach___init__'
p2132
(dp2133
g55
(dp2134
g57
S'teach___init__.html'
p2135
sg59
S'teach/__init__'
p2136
sg61
g13
(g14
g15
NtRp2137
(dp2138
g18
I1
sg19
I0
sg20
I0
sg21
I0
sg22
I0
sg23
I0
sg24
I0
sbssg64
S'\x19g\xdfM\x1a\x019\xaf\x1baIeR\xe5u\xa7'
p2139
ssS'user_system_views_users___init__'
p2140
(dp2141
g42
(dp2142
g174
S'user_system_views_users___init__.html'
p2143
sg176
S'user_system/views/users/__init__'
p2144
sg178
g13
(g14
g15
NtRp2145
(dp2146
g18
I1
sg19
I0
sg20
I6
sg21
I0
sg22
I0
sg23
I0
sg24
I0
sbssg51
S'YNj\xa9zR_\xf0?\x10V\x89y\x81\xbb\xeb'
p2147
ssS'flipped_helpers_tests_test_email_helper'
p2148
(dp2149
g42
(dp2150
g44
S'flipped_helpers_tests_test_email_helper.html'
p2151
sg46
S'flipped/helpers/tests/test_email_helper'
p2152
sg48
g13
(g14
g15
NtRp2153
(dp2154
g18
I1
sg19
I0
sg20
I13
sg21
I0
sg22
I0
sg23
I0
sg24
I0
sbssg51
S'\x13\xee\xcb^E:3A\xff)v\x7f\xd3\xa7\xa2\xaa'
p2155
ssS'user_system_serializers_users___init__'
p2156
(dp2157
g42
(dp2158
g174
S'user_system_serializers_users___init__.html'
p2159
sg176
S'user_system/serializers/users/__init__'
p2160
sg178
g13
(g14
g15
NtRp2161
(dp2162
g18
I1
sg19
I0
sg20
I7
sg21
I0
sg22
I0
sg23
I0
sg24
I0
sbssg51
S'8\xb4\xd8m\x9aA\xf2,\xb1\xe4\xb3\xe2#\xab\xd0#'
p2163
ssS'user_system_models_schools_tests_test_semester_model'
p2164
(dp2165
g200
(dp2166
g328
S'user_system_models_schools_tests_test_semester_model.html'
p2167
sg330
S'user_system/models/schools/tests/test_semester_model'
p2168
sg332
g13
(g14
g15
NtRp2169
(dp2170
g18
I1
sg19
I0
sg20
I29
sg21
I0
sg22
I0
sg23
I0
sg24
I0
sbssg209
S'\xe9\xd9\xdc\\\xb9\x93\xb1\x93Q\x02\xe9\xb7Y,\xa6w'
p2171
ssS'create_views_quests_tests___init__'
p2172
(dp2173
g6
(dp2174
g8
S'create_views_quests_tests___init__.html'
p2175
sg10
S'create/views/quests/tests/__init__'
p2176
sg12
g13
(g14
g15
NtRp2177
(dp2178
g18
I1
sg19
I0
sg20
I0
sg21
I0
sg22
I0
sg23
I0
sg24
I0
sbssg25
S'\x19g\xdfM\x1a\x019\xaf\x1baIeR\xe5u\xa7'
p2179
ssS'user_system_serializers_schools_course_serializer'
p2180
(dp2181
g116
(dp2182
g31
S'user_system_serializers_schools_course_serializer.html'
p2183
sg33
S'user_system/serializers/schools/course_serializer'
p2184
sg35
g13
(g14
g15
NtRp2185
(dp2186
g18
I1
sg19
I0
sg20
I16
sg21
I0
sg22
I0
sg23
I2
sg24
I0
sbssg122
S'\xb0\xa8O3\x01\xce\xfe3\x12\x94\xc0\xc4\xe0@\xafJ'
p2187
ssS'user_system_views_users_tests_test_delete_user_view'
p2188
(dp2189
g42
(dp2190
g44
S'user_system_views_users_tests_test_delete_user_view.html'
p2191
sg46
S'user_system/views/users/tests/test_delete_user_view'
p2192
sg48
g13
(g14
g15
NtRp2193
(dp2194
g18
I1
sg19
I0
sg20
I22
sg21
I0
sg22
I0
sg23
I0
sg24
I0
sbssg51
S'\xe4S$\xa1t\xc6\xbe\xc7\xb9^Y\x05{\x92KQ'
p2195
ssS'learn_models_daily_quests_daily_quest_question_history_model'
p2196
(dp2197
S'index'
p2198
(dp2199
g174
S'learn_models_daily_quests_daily_quest_question_history_model.html'
p2200
sg176
S'learn/models/daily_quests/daily_quest_question_history_model'
p2201
sg178
g13
(g14
g15
NtRp2202
(dp2203
g18
I1
sg19
I6
sg20
I65
sg21
I0
sg22
I0
sg23
I31
sg24
I6
sbssS'hash'
p2204
S'\x7f\x15\xd1PlNw\x07\xca4\x8e\x83\r\xa6\x12\x02'
p2205
ssS'user_system_models_users_user_profile_update_request_model'
p2206
(dp2207
g116
(dp2208
g2020
S'user_system_models_users_user_profile_update_request_model.html'
p2209
sg2022
S'user_system/models/users/user_profile_update_request_model'
p2210
sg2024
g13
(g14
g15
NtRp2211
(dp2212
g18
I1
sg19
I0
sg20
I58
sg21
I0
sg22
I0
sg23
I2
sg24
I0
sbssg122
S"\x1c\xaa'\xd2w+\xbb\x17#\xe75\x1e\x8d\xad\xa6\xa7"
p2213
ssS'create_models_tags_tag_history_model'
p2214
(dp2215
g542
(dp2216
g215
S'create_models_tags_tag_history_model.html'
p2217
sg217
S'create/models/tags/tag_history_model'
p2218
sg219
g13
(g14
g15
NtRp2219
(dp2220
g18
I1
sg19
I0
sg20
I37
sg21
I0
sg22
I0
sg23
I0
sg24
I0
sbssg548
S'\xae\xc8g\xc1\xf5l<\x1f\x9c\xaf\x17\xf98\r\xa1\xe2'
p2221
ssS'create_serializers_daily_quest_copies___init__'
p2222
(dp2223
g398
(dp2224
g1484
S'create_serializers_daily_quest_copies___init__.html'
p2225
sg1486
S'create/serializers/daily_quest_copies/__init__'
p2226
sg1488
g13
(g14
g15
NtRp2227
(dp2228
g18
I1
sg19
I0
sg20
I1
sg21
I0
sg22
I0
sg23
I0
sg24
I0
sbssg407
S'\nX]\x85Nc\xb8\xc0\xe1\xaf\xa0\xda_\x9e\xb9u'
p2229
ssS'user_system_models_schools_course_model'
p2230
(dp2231
g226
(dp2232
g31
S'user_system_models_schools_course_model.html'
p2233
sg33
S'user_system/models/schools/course_model'
p2234
sg35
g13
(g14
g15
NtRp2235
(dp2236
g18
I1
sg19
I6
sg20
I37
sg21
I0
sg22
I0
sg23
I13
sg24
I6
sbssg232
S'o\xf1\xa2\xb4\xf9\x80\x19bT\x08l\xe7\xd2\x83%2'
p2237
ssS'create_models_daily_quest_copies_tests_test_daily_quest_copy_model'
p2238
(dp2239
g398
(dp2240
g524
S'create_models_daily_quest_copies_tests_test_daily_quest_copy_model.html'
p2241
sg526
S'create/models/daily_quest_copies/tests/test_daily_quest_copy_model'
p2242
sg528
g13
(g14
g15
NtRp2243
(dp2244
g18
I1
sg19
I4
sg20
I45
sg21
I0
sg22
I0
sg23
I0
sg24
I0
sbssg407
S'\xcd\xeeU\x8a\xd7\x95\x9e5E\xd0\xaf\xd07\x80\x85\xe0'
p2245
ssS'privilege_views_privileges___init__'
p2246
(dp2247
g281
(dp2248
g93
S'privilege_views_privileges___init__.html'
p2249
sg95
S'privilege/views/privileges/__init__'
p2250
sg97
g13
(g14
g15
NtRp2251
(dp2252
g18
I1
sg19
I0
sg20
I1
sg21
I0
sg22
I0
sg23
I0
sg24
I0
sbssg287
S']\x14S\xdf\xb4:Tx\xb9\x98\x89\xe7\x01%DZ'
p2253
ssS'teach_models_teacher_chapters_teacher_chapter_model'
p2254
(dp2255
g55
(dp2256
S'html_filename'
p2257
S'teach_models_teacher_chapters_teacher_chapter_model.html'
p2258
sS'name'
p2259
S'teach/models/teacher_chapters/teacher_chapter_model'
p2260
sS'nums'
p2261
g13
(g14
g15
NtRp2262
(dp2263
g18
I1
sg19
I0
sg20
I23
sg21
I0
sg22
I0
sg23
I0
sg24
I0
sbssg64
S'\x97T&\xd0\x81q\xc2M\xc3\x03\x01U\xf5S!h'
p2264
ssS'create_models_questions_question_template_model'
p2265
(dp2266
g103
(dp2267
S'html_filename'
p2268
S'create_models_questions_question_template_model.html'
p2269
sS'name'
p2270
S'create/models/questions/question_template_model'
p2271
sS'nums'
p2272
g13
(g14
g15
NtRp2273
(dp2274
g18
I1
sg19
I0
sg20
I40
sg21
I0
sg22
I0
sg23
I0
sg24
I0
sbssg112
S'\x845gz\x1d\x17\x1dv\x81\n\x96G\x99pE\\'
p2275
ssS'create_views_questions_tests_test_get_question_by_id_view'
p2276
(dp2277
g42
(dp2278
g93
S'create_views_questions_tests_test_get_question_by_id_view.html'
p2279
sg95
S'create/views/questions/tests/test_get_question_by_id_view'
p2280
sg97
g13
(g14
g15
NtRp2281
(dp2282
g18
I1
sg19
I0
sg20
I24
sg21
I0
sg22
I0
sg23
I0
sg24
I0
sbssg51
S'\xa7[\x91\xa9\xa6\xb4\xbd&n$O^O\xec\xf2X'
p2283
ssS'teach_models_teacher_tags_tests___init__'
p2284
(dp2285
g55
(dp2286
g57
S'teach_models_teacher_tags_tests___init__.html'
p2287
sg59
S'teach/models/teacher_tags/tests/__init__'
p2288
sg61
g13
(g14
g15
NtRp2289
(dp2290
g18
I1
sg19
I0
sg20
I0
sg21
I0
sg22
I0
sg23
I0
sg24
I0
sbssg64
S'\x19g\xdfM\x1a\x019\xaf\x1baIeR\xe5u\xa7'
p2291
ssS'api_logging_urls'
p2292
(dp2293
g291
(dp2294
g174
S'api_logging_urls.html'
p2295
sg176
S'api_logging/urls'
p2296
sg178
g13
(g14
g15
NtRp2297
(dp2298
g18
I1
sg19
I0
sg20
I13
sg21
I0
sg22
I0
sg23
I0
sg24
I0
sbssg297
S'`K\xc5_\x82\xb4\x1c^\xd6\x98+\xe6\xf0/\x97\x06'
p2299
ssS'api_logging_serializers_LoggingSerializer'
p2300
(dp2301
g291
(dp2302
g174
S'api_logging_serializers_LoggingSerializer.html'
p2303
sg176
S'api_logging/serializers/LoggingSerializer'
p2304
sg178
g13
(g14
g15
NtRp2305
(dp2306
g18
I1
sg19
I0
sg20
I12
sg21
I0
sg22
I0
sg23
I0
sg24
I0
sbssg297
S'1\xdb}\x8eJ\x1a\xe6@D\xcc}\xf4\x11(\x11\xb0'
p2307
ssS'create_views_books_tests_test_remove_subchapter_view'
p2308
(dp2309
S'index'
p2310
(dp2311
g44
S'create_views_books_tests_test_remove_subchapter_view.html'
p2312
sg46
S'create/views/books/tests/test_remove_subchapter_view'
p2313
sg48
g13
(g14
g15
NtRp2314
(dp2315
g18
I1
sg19
I0
sg20
I44
sg21
I0
sg22
I0
sg23
I0
sg24
I0
sbssS'hash'
p2316
S'\x0b\xddi\xaa_d\x8c\xf3b\xa2\x12\xbc\xce\xa5\xbf\x8b'
p2317
ssS'create_models_quests_tests_test_quest_history_model'
p2318
(dp2319
g103
(dp2320
g1180
S'create_models_quests_tests_test_quest_history_model.html'
p2321
sg1182
S'create/models/quests/tests/test_quest_history_model'
p2322
sg1184
g13
(g14
g15
NtRp2323
(dp2324
g18
I1
sg19
I8
sg20
I79
sg21
I0
sg22
I0
sg23
I0
sg24
I0
sbssg112
S'##\xeax]g;Ka\xb3\xc0Py,oE'
p2325
ssS'learn_models_points_point_history_model'
p2326
(dp2327
g291
(dp2328
g174
S'learn_models_points_point_history_model.html'
p2329
sg176
S'learn/models/points/point_history_model'
p2330
sg178
g13
(g14
g15
NtRp2331
(dp2332
g18
I1
sg19
I0
sg20
I16
sg21
I0
sg22
I0
sg23
I0
sg24
I0
sbssg297
S'\xa8\xbaH\x19\x11\xbeT\xe2N=\xfe\xed\x9d\xd4\x83\x1e'
p2333
ssS'user_system___init__'
p2334
(dp2335
g42
(dp2336
g428
S'user_system___init__.html'
p2337
sg430
S'user_system/__init__'
p2338
sg432
g13
(g14
g15
NtRp2339
(dp2340
g18
I1
sg19
I0
sg20
I0
sg21
I0
sg22
I0
sg23
I0
sg24
I0
sbssg51
S'\x19g\xdfM\x1a\x019\xaf\x1baIeR\xe5u\xa7'
p2341
ssS'learn_views___init__'
p2342
(dp2343
g55
(dp2344
g174
S'learn_views___init__.html'
p2345
sg176
S'learn/views/__init__'
p2346
sg178
g13
(g14
g15
NtRp2347
(dp2348
g18
I1
sg19
I0
sg20
I2
sg21
I0
sg22
I0
sg23
I0
sg24
I0
sbssg64
S"?\xc0'\xcb\x1c\xf1\xaa\xf0\x9d\xc7\x0e\xf1\xda\x0eU\x17"
p2349
ssS'create_views_question_datasets___init__'
p2350
(dp2351
g144
(dp2352
g146
S'create_views_question_datasets___init__.html'
p2353
sg148
S'create/views/question_datasets/__init__'
p2354
sg150
g13
(g14
g15
NtRp2355
(dp2356
g18
I1
sg19
I0
sg20
I1
sg21
I0
sg22
I0
sg23
I0
sg24
I0
sbssg153
S'\x87x\xd1\xbe\x15\xd3\xbc\x99\x86\x08\xf8\x06S\xcf\x00\x87'
p2357
ssS'teach_serializers_daily_quest_templates___init__'
p2358
(dp2359
g55
(dp2360
g57
S'teach_serializers_daily_quest_templates___init__.html'
p2361
sg59
S'teach/serializers/daily_quest_templates/__init__'
p2362
sg61
g13
(g14
g15
NtRp2363
(dp2364
g18
I1
sg19
I0
sg20
I1
sg21
I0
sg22
I0
sg23
I0
sg24
I0
sbssg64
S'\xa2\xd34\x1b\xe2+\x16\xa9un\x8f\xa5\xe6\xc4\\p'
p2365
ssS'create_views_books_tests_test_remove_tag_from_subchapter_view'
p2366
(dp2367
g1502
(dp2368
g44
S'create_views_books_tests_test_remove_tag_from_subchapter_view.html'
p2369
sg46
S'create/views/books/tests/test_remove_tag_from_subchapter_view'
p2370
sg48
g13
(g14
g15
NtRp2371
(dp2372
g18
I1
sg19
I0
sg20
I40
sg21
I0
sg22
I0
sg23
I0
sg24
I0
sbssg1508
S"(Vo#\xdd\x9a\xbc\x11\xff\xd6'\xd7\xeb\xca\x1aM"
p2373
ssS'create_views_daily_quests___init__'
p2374
(dp2375
g236
(dp2376
g238
S'create_views_daily_quests___init__.html'
p2377
sg240
S'create/views/daily_quests/__init__'
p2378
sg242
g13
(g14
g15
NtRp2379
(dp2380
g18
I1
sg19
I0
sg20
I1
sg21
I0
sg22
I0
sg23
I0
sg24
I0
sbssg245
S'\xa3\x08\xf3\xbaF\xd5u\x88\x12\xa3V\x05K\xe5\xd0\xa9'
p2381
ssS'flipped_helpers_email_helper'
p2382
(dp2383
g42
(dp2384
g44
S'flipped_helpers_email_helper.html'
p2385
sg46
S'flipped/helpers/email_helper'
p2386
sg48
g13
(g14
g15
NtRp2387
(dp2388
g18
I1
sg19
I2
sg20
I9
sg21
I0
sg22
I0
sg23
I0
sg24
I0
sbssg51
S"\xeal\t\x03)\xcc\xc4\x0b\r\xe2&\x83a'I\xad"
p2389
ssS'flipped_urls'
p2390
(dp2391
g42
(dp2392
g93
S'flipped_urls.html'
p2393
sg95
S'flipped/urls'
p2394
sg97
g13
(g14
g15
NtRp2395
(dp2396
g18
I1
sg19
I0
sg20
I9
sg21
I0
sg22
I0
sg23
I0
sg24
I0
sbssg51
S'\xcbN{\xd0A\x0b\xa0\xc3\xd4\x8cr\xe3\x1e\x12\x1e\xb0'
p2397
ssS'teach_views_summaries_daily_quest_summary_view'
p2398
(dp2399
g291
(dp2400
g174
S'teach_views_summaries_daily_quest_summary_view.html'
p2401
sg176
S'teach/views/summaries/daily_quest_summary_view'
p2402
sg178
g13
(g14
g15
NtRp2403
(dp2404
g18
I1
sg19
I24
sg20
I72
sg21
I0
sg22
I0
sg23
I52
sg24
I24
sbssg297
S'\xdf\xb6.EW\xea\xa0\x93\x8c\xc2f\x1cAG8\xa4'
p2405
ssS'user_system_views_users_student_profile_request_view'
p2406
(dp2407
g116
(dp2408
g31
S'user_system_views_users_student_profile_request_view.html'
p2409
sg33
S'user_system/views/users/student_profile_request_view'
p2410
sg35
g13
(g14
g15
NtRp2411
(dp2412
g18
I1
sg19
I0
sg20
I14
sg21
I0
sg22
I0
sg23
I0
sg24
I0
sbssg122
S'\x87:\xd0\xef\x04\xf3-q\r\xe7\xec \xceS\xee<'
p2413
ssS'user_system_views_logins_tests___init__'
p2414
(dp2415
g42
(dp2416
g428
S'user_system_views_logins_tests___init__.html'
p2417
sg430
S'user_system/views/logins/tests/__init__'
p2418
sg432
g13
(g14
g15
NtRp2419
(dp2420
g18
I1
sg19
I0
sg20
I1
sg21
I0
sg22
I0
sg23
I0
sg24
I0
sbssg51
S'\xbc\xd6\xeb\xb3\xba\xcaz\xf7{\xd4B\xb5}l\xdf\x96'
p2421
ssS'api_logging_views_modal_loggings___init__'
p2422
(dp2423
g291
(dp2424
g174
S'api_logging_views_modal_loggings___init__.html'
p2425
sg176
S'api_logging/views/modal_loggings/__init__'
p2426
sg178
g13
(g14
g15
NtRp2427
(dp2428
g18
I1
sg19
I0
sg20
I1
sg21
I0
sg22
I0
sg23
I0
sg24
I0
sbssg297
S'\xf1\x0fWK\x0c\x9eD\xe8\x12\xaf\x93\xfa\xd7q\xa8\x91'
p2429
ssS'user_system_views_users_tests_test_get_users_by_signup_type_view'
p2430
(dp2431
g42
(dp2432
g93
S'user_system_views_users_tests_test_get_users_by_signup_type_view.html'
p2433
sg95
S'user_system/views/users/tests/test_get_users_by_signup_type_view'
p2434
sg97
g13
(g14
g15
NtRp2435
(dp2436
g18
I1
sg19
I0
sg20
I44
sg21
I0
sg22
I0
sg23
I0
sg24
I0
sbssg51
S'T/\xf9\xf8\x94\xd6Lm\x89o\xb6\x99/Z\xc1]'
p2437
ssS'user_system_serializers_users_user_serializer'
p2438
(dp2439
g42
(dp2440
g93
S'user_system_serializers_users_user_serializer.html'
p2441
sg95
S'user_system/serializers/users/user_serializer'
p2442
sg97
g13
(g14
g15
NtRp2443
(dp2444
g18
I1
sg19
I8
sg20
I46
sg21
I0
sg22
I2
sg23
I8
sg24
I6
sbssg51
S'\xb2\xee\xa4\xa6\x8b\xe1\xe1\xce\xaa\xe6\xdd\xbd\xb3\xf2\x81/'
p2445
ssS'create_serializers_daily_quest_copies_daily_quest_copy_serializer'
p2446
(dp2447
g398
(dp2448
g1484
S'create_serializers_daily_quest_copies_daily_quest_copy_serializer.html'
p2449
sg1486
S'create/serializers/daily_quest_copies/daily_quest_copy_serializer'
p2450
sg1488
g13
(g14
g15
NtRp2451
(dp2452
g18
I1
sg19
I0
sg20
I18
sg21
I0
sg22
I0
sg23
I3
sg24
I0
sbssg407
S'\xb6\xc6tAeANu\xae\n4T\xc1.\xe2\xfd'
p2453
ssS'create_models_books_tests_test_book_history_model'
p2454
(dp2455
g346
(dp2456
g2257
S'create_models_books_tests_test_book_history_model.html'
p2457
sg2259
S'create/models/books/tests/test_book_history_model'
p2458
sg2261
g13
(g14
g15
NtRp2459
(dp2460
g18
I1
sg19
I0
sg20
I65
sg21
I0
sg22
I0
sg23
I0
sg24
I0
sbssg352
S'\xf0\xc1p\xea=_t.\xc9\xf6\xbe\xe8~&\xe5\xa7'
p2461
ssS'create_views_quests_tests_test_remove_question_view'
p2462
(dp2463
g6
(dp2464
g8
S'create_views_quests_tests_test_remove_question_view.html'
p2465
sg10
S'create/views/quests/tests/test_remove_question_view'
p2466
sg12
g13
(g14
g15
NtRp2467
(dp2468
g18
I1
sg19
I0
sg20
I0
sg21
I0
sg22
I0
sg23
I0
sg24
I0
sbssg25
S'\x19g\xdfM\x1a\x019\xaf\x1baIeR\xe5u\xa7'
p2469
ssS'create_serializers_daily_quest_templates_daily_quest_template_serializer'
p2470
(dp2471
g236
(dp2472
g238
S'create_serializers_daily_quest_templates_daily_quest_template_serializer.html'
p2473
sg240
S'create/serializers/daily_quest_templates/daily_quest_template_serializer'
p2474
sg242
g13
(g14
g15
NtRp2475
(dp2476
g18
I1
sg19
I0
sg20
I8
sg21
I0
sg22
I0
sg23
I0
sg24
I0
sbssg245
S'-b,\x8cFu\xd2b\x8b\rw5\xa4\xf7\xc3\xf2'
p2477
ssS'user_system_managers___init__'
p2478
(dp2479
g291
(dp2480
g174
S'user_system_managers___init__.html'
p2481
sg176
S'user_system/managers/__init__'
p2482
sg178
g13
(g14
g15
NtRp2483
(dp2484
g18
I1
sg19
I0
sg20
I2
sg21
I0
sg22
I0
sg23
I0
sg24
I0
sbssg297
S'\xf1\xb0\xc3\xd3B\x8d\xdf\x12\x1bW\x06\xa4\xe7\x13A '
p2485
ssS'teach_models_campaigns_tests_test_campaign_model'
p2486
(dp2487
g116
(dp2488
g31
S'teach_models_campaigns_tests_test_campaign_model.html'
p2489
sg33
S'teach/models/campaigns/tests/test_campaign_model'
p2490
sg35
g13
(g14
g15
NtRp2491
(dp2492
g18
I1
sg19
I0
sg20
I43
sg21
I0
sg22
I0
sg23
I0
sg24
I0
sbssg122
S"\x1b\xbbi{\xe8\xa9o\xd3w\xfb'\x1e\xca\x1b\xd9\xc7"
p2493
ssS'api_logging_views_modal_loggings_modal_user_history_view'
p2494
(dp2495
g291
(dp2496
g174
S'api_logging_views_modal_loggings_modal_user_history_view.html'
p2497
sg176
S'api_logging/views/modal_loggings/modal_user_history_view'
p2498
sg178
g13
(g14
g15
NtRp2499
(dp2500
g18
I1
sg19
I0
sg20
I12
sg21
I0
sg22
I0
sg23
I0
sg24
I0
sbssg297
S'\xb4\xa3\xa1!\x95\x8a\x06\xf5\x19\x1c=\xe2B\xa3b\t'
p2501
ssS'user_system_views_logins_tests_test_email_login_view'
p2502
(dp2503
g42
(dp2504
g44
S'user_system_views_logins_tests_test_email_login_view.html'
p2505
sg46
S'user_system/views/logins/tests/test_email_login_view'
p2506
sg48
g13
(g14
g15
NtRp2507
(dp2508
g18
I1
sg19
I0
sg20
I61
sg21
I0
sg22
I0
sg23
I0
sg24
I0
sbssg51
S'\x926\xe8\xcdL\xf3U\xc1C\x1b\x0f\xaf\xf0c\x9b\xd0'
p2509
ssS'create_views_books_book_chapter_view'
p2510
(dp2511
g542
(dp2512
g174
S'create_views_books_book_chapter_view.html'
p2513
sg176
S'create/views/books/book_chapter_view'
p2514
sg178
g13
(g14
g15
NtRp2515
(dp2516
g18
I1
sg19
I12
sg20
I44
sg21
I0
sg22
I0
sg23
I22
sg24
I12
sbssg548
S'\x0b3\xd8 \xe1\x08#79\x0c\x7f\x1f6\xad0\xe9'
p2517
ssS'create_views___init__'
p2518
(dp2519
g42
(dp2520
g57
S'create_views___init__.html'
p2521
sg59
S'create/views/__init__'
p2522
sg61
g13
(g14
g15
NtRp2523
(dp2524
g18
I1
sg19
I0
sg20
I7
sg21
I0
sg22
I0
sg23
I0
sg24
I0
sbssg51
S'\x8f\x98\x9b$~\xde\xc2\xfc\x97/\x14^\xe8\xf8\x10M'
p2525
ssS'user_system_serializers_users_student_profile_serializer'
p2526
(dp2527
g116
(dp2528
g400
S'user_system_serializers_users_student_profile_serializer.html'
p2529
sg402
S'user_system/serializers/users/student_profile_serializer'
p2530
sg404
g13
(g14
g15
NtRp2531
(dp2532
g18
I1
sg19
I0
sg20
I10
sg21
I0
sg22
I0
sg23
I0
sg24
I0
sbssg122
S'\xb4\n*\x1b\x86\xd1\\\xa2k\xeb\xd8\xeaW\x0c\xd8x'
p2533
ssS'flipped_helpers_errors_helper'
p2534
(dp2535
g42
(dp2536
g44
S'flipped_helpers_errors_helper.html'
p2537
sg46
S'flipped/helpers/errors_helper'
p2538
sg48
g13
(g14
g15
NtRp2539
(dp2540
g18
I1
sg19
I0
sg20
I5
sg21
I0
sg22
I0
sg23
I0
sg24
I0
sbssg51
S'\x91\x04\x1c\xf86c\xad\xf7\xe3\xf13\xf5n8eP'
p2541
ssS'teach_views_teacher_tags_teacher_tag_view'
p2542
(dp2543
g55
(dp2544
g174
S'teach_views_teacher_tags_teacher_tag_view.html'
p2545
sg176
S'teach/views/teacher_tags/teacher_tag_view'
p2546
sg178
g13
(g14
g15
NtRp2547
(dp2548
g18
I1
sg19
I20
sg20
I55
sg21
I0
sg22
I2
sg23
I30
sg24
I18
sbssg64
S'\xec\x1aQ\x839\x80#\xe5\xca\x98\xf6\xec\x84\x17\xa3\xeb'
p2549
ssS'create_models_questions_tests_test_question_history_model'
p2550
(dp2551
g42
(dp2552
g968
S'create_models_questions_tests_test_question_history_model.html'
p2553
sg970
S'create/models/questions/tests/test_question_history_model'
p2554
sg972
g13
(g14
g15
NtRp2555
(dp2556
g18
I1
sg19
I2
sg20
I73
sg21
I0
sg22
I0
sg23
I0
sg24
I0
sbssg51
S'i\xd4 \xdcI\x9f\xbc\x0c|\x95\x15wW\xb4\xa9\x15'
p2557
ssS'create_views_tags_tests_test_create_tag_view'
p2558
(dp2559
g672
(dp2560
g44
S'create_views_tags_tests_test_create_tag_view.html'
p2561
sg46
S'create/views/tags/tests/test_create_tag_view'
p2562
sg48
g13
(g14
g15
NtRp2563
(dp2564
g18
I1
sg19
I0
sg20
I33
sg21
I0
sg22
I0
sg23
I0
sg24
I0
sbssg678
S'\\\x91{\x1a ;Qg\xbd\x81\xe2\xaf\xa41\xac\x1b'
p2565
ssS'create_views_questions_tests___init__'
p2566
(dp2567
g42
(dp2568
g428
S'create_views_questions_tests___init__.html'
p2569
sg430
S'create/views/questions/tests/__init__'
p2570
sg432
g13
(g14
g15
NtRp2571
(dp2572
g18
I1
sg19
I0
sg20
I0
sg21
I0
sg22
I0
sg23
I0
sg24
I0
sbssg51
S'\x19g\xdfM\x1a\x019\xaf\x1baIeR\xe5u\xa7'
p2573
ssS'flipped___init__'
p2574
(dp2575
g42
(dp2576
g428
S'flipped___init__.html'
p2577
sg430
S'flipped/__init__'
p2578
sg432
g13
(g14
g15
NtRp2579
(dp2580
g18
I1
sg19
I0
sg20
I0
sg21
I0
sg22
I0
sg23
I0
sg24
I0
sbssg51
S'\x19g\xdfM\x1a\x019\xaf\x1baIeR\xe5u\xa7'
p2581
ssS'user_system_views_roles___init__'
p2582
(dp2583
g42
(dp2584
g428
S'user_system_views_roles___init__.html'
p2585
sg430
S'user_system/views/roles/__init__'
p2586
sg432
g13
(g14
g15
NtRp2587
(dp2588
g18
I1
sg19
I0
sg20
I1
sg21
I0
sg22
I0
sg23
I0
sg24
I0
sbssg51
S'\xeb\x15\r\x85I\x9e<\xbc\x15\xd1P\xef\x16\x8c\xe0l'
p2589
ssS'create_models_daily_quest_templates_tests_test_daily_quest_template_model'
p2590
(dp2591
g236
(dp2592
g238
S'create_models_daily_quest_templates_tests_test_daily_quest_template_model.html'
p2593
sg240
S'create/models/daily_quest_templates/tests/test_daily_quest_template_model'
p2594
sg242
g13
(g14
g15
NtRp2595
(dp2596
g18
I1
sg19
I0
sg20
I37
sg21
I0
sg22
I0
sg23
I0
sg24
I0
sbssg245
S'\x01\x04)\xffw\x13\x9aqx\xb2\x9f\x02\xb0\x90\xf3\xa5'
p2597
ssS'teach_views_summaries___init__'
p2598
(dp2599
g291
(dp2600
g174
S'teach_views_summaries___init__.html'
p2601
sg176
S'teach/views/summaries/__init__'
p2602
sg178
g13
(g14
g15
NtRp2603
(dp2604
g18
I1
sg19
I0
sg20
I6
sg21
I0
sg22
I0
sg23
I0
sg24
I0
sbssg297
S'b,:y.\x8bl\x94oEKh\xbc\x8c=\xde'
p2605
ssS'user_system_models_users_user_profile_history_model'
p2606
(dp2607
g116
(dp2608
g31
S'user_system_models_users_user_profile_history_model.html'
p2609
sg33
S'user_system/models/users/user_profile_history_model'
p2610
sg35
g13
(g14
g15
NtRp2611
(dp2612
g18
I1
sg19
I4
sg20
I72
sg21
I0
sg22
I2
sg23
I12
sg24
I2
sbssg122
S'\x9a\x0c\xe2p\x8b\xee\x01\x87\xfd\x81\xb4\x9bzp\x90\xb6'
p2613
ssS'teach_admin'
p2614
(dp2615
g55
(dp2616
g174
S'teach_admin.html'
p2617
sg176
S'teach/admin'
p2618
sg178
g13
(g14
g15
NtRp2619
(dp2620
g18
I1
sg19
I0
sg20
I6
sg21
I0
sg22
I0
sg23
I0
sg24
I0
sbssg64
S'\xa5$\xa3\xb8$\xe4Z\x9b\xcbO\x9f\xc1\x02b\x95N'
p2621
ssS'user_system_views_users_user_view'
p2622
(dp2623
g42
(dp2624
g174
S'user_system_views_users_user_view.html'
p2625
sg176
S'user_system/views/users/user_view'
p2626
sg178
g13
(g14
g15
NtRp2627
(dp2628
g18
I1
sg19
I66
sg20
I186
sg21
I0
sg22
I0
sg23
I108
sg24
I44
sbssg51
S'S`\xa9\xa5\xad\x9d\x84\x8fOl!#\x8a<\x9c\xed'
p2629
ssS'teach_models_daily_quest_templates_tests_test_daily_quest_template_model'
p2630
(dp2631
g55
(dp2632
g57
S'teach_models_daily_quest_templates_tests_test_daily_quest_template_model.html'
p2633
sg59
S'teach/models/daily_quest_templates/tests/test_daily_quest_template_model'
p2634
sg61
g13
(g14
g15
NtRp2635
(dp2636
g18
I1
sg19
I0
sg20
I37
sg21
I0
sg22
I0
sg23
I0
sg24
I0
sbssg64
S'\x01\x04)\xffw\x13\x9aqx\xb2\x9f\x02\xb0\x90\xf3\xa5'
p2637
ssS'user_system_views_apps___init__'
p2638
(dp2639
g42
(dp2640
g428
S'user_system_views_apps___init__.html'
p2641
sg430
S'user_system/views/apps/__init__'
p2642
sg432
g13
(g14
g15
NtRp2643
(dp2644
g18
I1
sg19
I0
sg20
I1
sg21
I0
sg22
I0
sg23
I0
sg24
I0
sbssg51
S'?:\xf2A\xfa^]\xc5NR\xc9\x13\xb0\xe4\xfa\x9e'
p2645
ssS'user_system_views_users_tests_test_get_users_list_view'
p2646
(dp2647
g42
(dp2648
g93
S'user_system_views_users_tests_test_get_users_list_view.html'
p2649
sg95
S'user_system/views/users/tests/test_get_users_list_view'
p2650
sg97
g13
(g14
g15
NtRp2651
(dp2652
g18
I1
sg19
I0
sg20
I34
sg21
I0
sg22
I0
sg23
I0
sg24
I0
sbssg51
S'\xf5\xe3\x1a\x14e\xf8\xc2\xf0\xa8^$\xf7\x9dv\xb8f'
p2653
ssS'create_views_books_tests_test_create_new_book'
p2654
(dp2655
S'index'
p2656
(dp2657
g44
S'create_views_books_tests_test_create_new_book.html'
p2658
sg46
S'create/views/books/tests/test_create_new_book'
p2659
sg48
g13
(g14
g15
NtRp2660
(dp2661
g18
I1
sg19
I0
sg20
I18
sg21
I0
sg22
I0
sg23
I0
sg24
I0
sbssS'hash'
p2662
S'\xe3\xaew\xf8\xd7\x8f\xc5 \x85\xc1\xb6I\x82X(-'
p2663
ssS'user_system_views_apps_app_view'
p2664
(dp2665
g42
(dp2666
S'html_filename'
p2667
S'user_system_views_apps_app_view.html'
p2668
sS'name'
p2669
S'user_system/views/apps/app_view'
p2670
sS'nums'
p2671
g13
(g14
g15
NtRp2672
(dp2673
g18
I1
sg19
I0
sg20
I13
sg21
I0
sg22
I0
sg23
I0
sg24
I0
sbssg51
S'\xf7n\xffX\xe7\xd2\xb6\xa5\xc5\xe5\x96\x13\xf4\x9c\xac\x1e'
p2674
ssS'teach_views_summaries_student_list_summary'
p2675
(dp2676
g291
(dp2677
g174
S'teach_views_summaries_student_list_summary.html'
p2678
sg176
S'teach/views/summaries/student_list_summary'
p2679
sg178
g13
(g14
g15
NtRp2680
(dp2681
g18
I1
sg19
I26
sg20
I81
sg21
I0
sg22
I0
sg23
I63
sg24
I26
sbssg297
S'i\x1e\xd7\x9f\xceE"\x92\xc3\xfd\xd9\xdd\xac%\xe7\x10'
p2682
ssS'user_system_models_schools_tests_test_classroom_model'
p2683
(dp2684
g226
(dp2685
g174
S'user_system_models_schools_tests_test_classroom_model.html'
p2686
sg176
S'user_system/models/schools/tests/test_classroom_model'
p2687
sg178
g13
(g14
g15
NtRp2688
(dp2689
g18
I1
sg19
I0
sg20
I31
sg21
I0
sg22
I0
sg23
I0
sg24
I0
sbssg232
S'\xfd\xfd\xa2\x92;\xc3\xaa\x06D\x93\xddbD\xda\xa2\x1e'
p2690
ssS'user_system_views_schools_school_view'
p2691
(dp2692
g116
(dp2693
g31
S'user_system_views_schools_school_view.html'
p2694
sg33
S'user_system/views/schools/school_view'
p2695
sg35
g13
(g14
g15
NtRp2696
(dp2697
g18
I1
sg19
I0
sg20
I16
sg21
I0
sg22
I0
sg23
I0
sg24
I0
sbssg122
S'\xc8\x0b\xef\x9e86\xe5\x19\xaa\x9e\x93+\x03\xfb\x98\x99'
p2698
ssS'learn_models_points_point_type_model'
p2699
(dp2700
g291
(dp2701
g174
S'learn_models_points_point_type_model.html'
p2702
sg176
S'learn/models/points/point_type_model'
p2703
sg178
g13
(g14
g15
NtRp2704
(dp2705
g18
I1
sg19
I0
sg20
I20
sg21
I0
sg22
I0
sg23
I1
sg24
I0
sbssg297
S'\xad\xfd\x0c\x14\x83w\xaf\xea\xd4a\x02\x0f\xd3s.\xea'
p2706
ssS'user_system_models_users_user_facebook_model'
p2707
(dp2708
g42
(dp2709
g44
S'user_system_models_users_user_facebook_model.html'
p2710
sg46
S'user_system/models/users/user_facebook_model'
p2711
sg48
g13
(g14
g15
NtRp2712
(dp2713
g18
I1
sg19
I0
sg20
I22
sg21
I0
sg22
I0
sg23
I0
sg24
I0
sbssg51
S'!d\xff\xbcl0O(`\x1b1\xf7\xb3*{X'
p2714
ssS'user_system_views_schools_grade_view'
p2715
(dp2716
g116
(dp2717
g31
S'user_system_views_schools_grade_view.html'
p2718
sg33
S'user_system/views/schools/grade_view'
p2719
sg35
g13
(g14
g15
NtRp2720
(dp2721
g18
I1
sg19
I0
sg20
I16
sg21
I0
sg22
I0
sg23
I0
sg24
I0
sbssg122
S'_i&b\x01\x08$\xe7\xbe\nW\x92\x80\x97\xf1Q'
p2722
ssS'create_serializers_question_datasets_question_dataset_serializer'
p2723
(dp2724
g144
(dp2725
g146
S'create_serializers_question_datasets_question_dataset_serializer.html'
p2726
sg148
S'create/serializers/question_datasets/question_dataset_serializer'
p2727
sg150
g13
(g14
g15
NtRp2728
(dp2729
g18
I1
sg19
I0
sg20
I6
sg21
I0
sg22
I0
sg23
I0
sg24
I0
sbssg153
S'\x1e}6\x82\x0c\x96\xdb\x00{jK\xdb\xc0\x8c\x97\xcd'
p2730
ssS'privilege_models_privileges_user_privilege_model'
p2731
(dp2732
g281
(dp2733
g93
S'privilege_models_privileges_user_privilege_model.html'
p2734
sg95
S'privilege/models/privileges/user_privilege_model'
p2735
sg97
g13
(g14
g15
NtRp2736
(dp2737
g18
I1
sg19
I0
sg20
I17
sg21
I0
sg22
I0
sg23
I1
sg24
I0
sbssg287
S'\xe4\xbfo\xb6Sy\xef\x85\xf2\xf3=\xf3\xc3\xc0\xc9\xc6'
p2738
ssS'create_views_questions_question_template_view'
p2739
(dp2740
g103
(dp2741
g105
S'create_views_questions_question_template_view.html'
p2742
sg107
S'create/views/questions/question_template_view'
p2743
sg109
g13
(g14
g15
NtRp2744
(dp2745
g18
I1
sg19
I40
sg20
I115
sg21
I0
sg22
I0
sg23
I86
sg24
I40
sbssg112
S'\x15\xd2EN\xe9c\xe5\x17\xc5Fh\x02\x1a\xd3\xc4*'
p2746
ssS'create_serializers_quests_quest_serializer'
p2747
(dp2748
g103
(dp2749
g31
S'create_serializers_quests_quest_serializer.html'
p2750
sg33
S'create/serializers/quests/quest_serializer'
p2751
sg35
g13
(g14
g15
NtRp2752
(dp2753
g18
I1
sg19
I0
sg20
I50
sg21
I0
sg22
I0
sg23
I15
sg24
I0
sbssg112
S'\x96:\xdf\x9a\x02\xee\xf5\x97F[z\x16p\x8f\x08\xb2'
p2754
ssS'create_views_summary_create_summary_view'
p2755
(dp2756
g1584
(dp2757
g1070
S'create_views_summary_create_summary_view.html'
p2758
sg1072
S'create/views/summary/create_summary_view'
p2759
sg1074
g13
(g14
g15
NtRp2760
(dp2761
g18
I1
sg19
I0
sg20
I59
sg21
I0
sg22
I0
sg23
I48
sg24
I0
sbssg1590
S"'\xfe\xf4\x8c\xed2\xc3\x18\xf6\x85\x1f\xb0\xf0G\xb7\x8f"
p2762
ssS'create_serializers_books_book_serializer'
p2763
(dp2764
g346
(dp2765
g93
S'create_serializers_books_book_serializer.html'
p2766
sg95
S'create/serializers/books/book_serializer'
p2767
sg97
g13
(g14
g15
NtRp2768
(dp2769
g18
I1
sg19
I0
sg20
I25
sg21
I0
sg22
I0
sg23
I0
sg24
I0
sbssg352
S"o\r\r\x1e8\xe6\xa9\xd1\x83X.\xcf1\x98\xa3'"
p2770
ssS'user_system_models_schools_tests___init__'
p2771
(dp2772
g200
(dp2773
S'html_filename'
p2774
S'user_system_models_schools_tests___init__.html'
p2775
sS'name'
p2776
S'user_system/models/schools/tests/__init__'
p2777
sS'nums'
p2778
g13
(g14
g15
NtRp2779
(dp2780
g18
I1
sg19
I0
sg20
I0
sg21
I0
sg22
I0
sg23
I0
sg24
I0
sbssg209
S'\x19g\xdfM\x1a\x019\xaf\x1baIeR\xe5u\xa7'
p2781
ssS'api_logging_mixins'
p2782
(dp2783
g672
(dp2784
g44
S'api_logging_mixins.html'
p2785
sg46
S'api_logging/mixins'
p2786
sg48
g13
(g14
g15
NtRp2787
(dp2788
g18
I1
sg19
I4
sg20
I26
sg21
I0
sg22
I2
sg23
I2
sg24
I2
sbssg678
S'w\xa7\xcf,\xf7\x87[\xb0\xc5\xb2\x1f\xa5+\x1dSF'
p2789
ssS'privilege_serializers_privileges___init__'
p2790
(dp2791
g281
(dp2792
g93
S'privilege_serializers_privileges___init__.html'
p2793
sg95
S'privilege/serializers/privileges/__init__'
p2794
sg97
g13
(g14
g15
NtRp2795
(dp2796
g18
I1
sg19
I0
sg20
I2
sg21
I0
sg22
I0
sg23
I0
sg24
I0
sbssg287
S'\x1f\xd4u<\xf4\x9bW\xb0\xa9\xd2\xc1\x06\x14`C\xc6'
p2797
ssS'create___init__'
p2798
(dp2799
g42
(dp2800
g428
S'create___init__.html'
p2801
sg430
S'create/__init__'
p2802
sg432
g13
(g14
g15
NtRp2803
(dp2804
g18
I1
sg19
I0
sg20
I0
sg21
I0
sg22
I0
sg23
I0
sg24
I0
sbssg51
S'\x19g\xdfM\x1a\x019\xaf\x1baIeR\xe5u\xa7'
p2805
ssS'user_system_serializers_schools_school_serializer'
p2806
(dp2807
g116
(dp2808
g31
S'user_system_serializers_schools_school_serializer.html'
p2809
sg33
S'user_system/serializers/schools/school_serializer'
p2810
sg35
g13
(g14
g15
NtRp2811
(dp2812
g18
I1
sg19
I0
sg20
I9
sg21
I0
sg22
I0
sg23
I0
sg24
I0
sbssg122
S'_\x0c\x17V\x00H\x8f\xc9x\xe5I\xcb\t\x08\xb9/'
p2813
ssS'user_system_models_users_tests_test_user_profile_update_request_model'
p2814
(dp2815
g116
(dp2816
g2020
S'user_system_models_users_tests_test_user_profile_update_request_model.html'
p2817
sg2022
S'user_system/models/users/tests/test_user_profile_update_request_model'
p2818
sg2024
g13
(g14
g15
NtRp2819
(dp2820
g18
I1
sg19
I0
sg20
I50
sg21
I0
sg22
I0
sg23
I0
sg24
I0
sbssg122
S'91\xd6p\x9f4\x8ebb\xe9\xbd1pu\x9b\x7f'
p2821
ssS'user_system_views_users_tests_test_add_role_view'
p2822
(dp2823
g42
(dp2824
g44
S'user_system_views_users_tests_test_add_role_view.html'
p2825
sg46
S'user_system/views/users/tests/test_add_role_view'
p2826
sg48
g13
(g14
g15
NtRp2827
(dp2828
g18
I1
sg19
I0
sg20
I36
sg21
I0
sg22
I0
sg23
I0
sg24
I0
sbssg51
S'\x0eh\xf7\xba\x08_N\xdeM\xdf\x03\xbd\x8c\x8a\x89\xd0'
p2829
ssS'learn_urls'
p2830
(dp2831
g55
(dp2832
g174
S'learn_urls.html'
p2833
sg176
S'learn/urls'
p2834
sg178
g13
(g14
g15
NtRp2835
(dp2836
g18
I1
sg19
I0
sg20
I8
sg21
I0
sg22
I0
sg23
I0
sg24
I0
sbssg64
S'\x1a\xcd\x95\xa0\xd8s\xf6\xb3\x9e\xd7H\xe5*M\xbdG'
p2837
ssS'api_logging___init__'
p2838
(dp2839
g542
(dp2840
g707
S'api_logging___init__.html'
p2841
sg709
S'api_logging/__init__'
p2842
sg711
g13
(g14
g15
NtRp2843
(dp2844
g18
I1
sg19
I0
sg20
I0
sg21
I0
sg22
I0
sg23
I0
sg24
I0
sbssg548
S'\x19g\xdfM\x1a\x019\xaf\x1baIeR\xe5u\xa7'
p2845
ssS'create_views_questions_question_view'
p2846
(dp2847
g42
(dp2848
g735
S'create_views_questions_question_view.html'
p2849
sg737
S'create/views/questions/question_view'
p2850
sg739
g13
(g14
g15
NtRp2851
(dp2852
g18
I1
sg19
I34
sg20
I112
sg21
I0
sg22
I1
sg23
I40
sg24
I21
sbssg51
S"_'M\x9d\x0e\r\xae\x93=\xce\xd2\x1b>\x8eV\xe4"
p2853
ssS'create_views_quests_tests_test_add_question_view'
p2854
(dp2855
g6
(dp2856
g8
S'create_views_quests_tests_test_add_question_view.html'
p2857
sg10
S'create/views/quests/tests/test_add_question_view'
p2858
sg12
g13
(g14
g15
NtRp2859
(dp2860
g18
I1
sg19
I0
sg20
I0
sg21
I0
sg22
I0
sg23
I0
sg24
I0
sbssg25
S'\x19g\xdfM\x1a\x019\xaf\x1baIeR\xe5u\xa7'
p2861
ssS'create_models_daily_quest_copies___init__'
p2862
(dp2863
g398
(dp2864
g1484
S'create_models_daily_quest_copies___init__.html'
p2865
sg1486
S'create/models/daily_quest_copies/__init__'
p2866
sg1488
g13
(g14
g15
NtRp2867
(dp2868
g18
I1
sg19
I0
sg20
I1
sg21
I0
sg22
I0
sg23
I0
sg24
I0
sbssg407
S'\xee\xef\xb8!Z;\x9e_\xb5g4\xe9\xac@l\xe6'
p2869
ssS'create_models_books_tests___init__'
p2870
(dp2871
g346
(dp2872
g755
S'create_models_books_tests___init__.html'
p2873
sg757
S'create/models/books/tests/__init__'
p2874
sg759
g13
(g14
g15
NtRp2875
(dp2876
g18
I1
sg19
I0
sg20
I0
sg21
I0
sg22
I0
sg23
I0
sg24
I0
sbssg352
S'\x19g\xdfM\x1a\x019\xaf\x1baIeR\xe5u\xa7'
p2877
ssS'privilege_models_privileges___init__'
p2878
(dp2879
g281
(dp2880
g93
S'privilege_models_privileges___init__.html'
p2881
sg95
S'privilege/models/privileges/__init__'
p2882
sg97
g13
(g14
g15
NtRp2883
(dp2884
g18
I1
sg19
I0
sg20
I2
sg21
I0
sg22
I0
sg23
I0
sg24
I0
sbssg287
S'\x14\x97Z\xa7<\xbd\xe6Z\xa0jIA\xc0I\xfd"'
p2885
ssS'user_system_managers_streak_manager'
p2886
(dp2887
g291
(dp2888
g93
S'user_system_managers_streak_manager.html'
p2889
sg95
S'user_system/managers/streak_manager'
p2890
sg97
g13
(g14
g15
NtRp2891
(dp2892
g18
I1
sg19
I18
sg20
I44
sg21
I0
sg22
I2
sg23
I28
sg24
I16
sbssg297
S'\xc9\x9a\x7f\xd5\x07^R@\x87\xe5\xd2t\xb6\x05\x13\t'
p2893
ssS'learn_views_student_news_feed_student_news_feed_view'
p2894
(dp2895
g291
(dp2896
g174
S'learn_views_student_news_feed_student_news_feed_view.html'
p2897
sg176
S'learn/views/student_news_feed/student_news_feed_view'
p2898
sg178
g13
(g14
g15
NtRp2899
(dp2900
g18
I1
sg19
I10
sg20
I38
sg21
I0
sg22
I0
sg23
I22
sg24
I10
sbssg297
S'\x92\x80%\x91\x88\x85wF\xb9\\0B\xe5\xb6\x820'
p2901
ssS'user_system_models_schools_tests_test_academic_year_model'
p2902
(dp2903
g200
(dp2904
g328
S'user_system_models_schools_tests_test_academic_year_model.html'
p2905
sg330
S'user_system/models/schools/tests/test_academic_year_model'
p2906
sg332
g13
(g14
g15
NtRp2907
(dp2908
g18
I1
sg19
I0
sg20
I28
sg21
I0
sg22
I0
sg23
I0
sg24
I0
sbssg209
S'{=\xee\xbc8\xbd\xa7\xdd\x0f!3\xf8\xf0os\xe2'
p2909
ssS'learn_serializers_daily_quests_daily_quest_question_history_serializer'
p2910
(dp2911
g291
(dp2912
g174
S'learn_serializers_daily_quests_daily_quest_question_history_serializer.html'
p2913
sg176
S'learn/serializers/daily_quests/daily_quest_question_history_serializer'
p2914
sg178
g13
(g14
g15
NtRp2915
(dp2916
g18
I1
sg19
I0
sg20
I8
sg21
I0
sg22
I0
sg23
I0
sg24
I0
sbssg297
S'q$\xc8~\x9a\xbb\x03\x1a\x12[aG\x9a\x87\xc6\x0c'
p2917
ssS'api_logging_serializers_modal_loggings___init__'
p2918
(dp2919
g291
(dp2920
g174
S'api_logging_serializers_modal_loggings___init__.html'
p2921
sg176
S'api_logging/serializers/modal_loggings/__init__'
p2922
sg178
g13
(g14
g15
NtRp2923
(dp2924
g18
I1
sg19
I0
sg20
I1
sg21
I0
sg22
I0
sg23
I0
sg24
I0
sbssg297
S'\xff)\x01pU0i\x848\xea\xfc\x08\x0b\x0bS\xa4'
p2925
ssS'user_system_models_schools_grade_model'
p2926
(dp2927
g226
(dp2928
g174
S'user_system_models_schools_grade_model.html'
p2929
sg176
S'user_system/models/schools/grade_model'
p2930
sg178
g13
(g14
g15
NtRp2931
(dp2932
g18
I1
sg19
I0
sg20
I29
sg21
I0
sg22
I0
sg23
I2
sg24
I0
sbssg232
S'\xfdv\xccR\xe0u\x91\x0f\x7f\x03\xcb\xc4y\xc19k'
p2933
ssS'user_system_serializers_schools___init__'
p2934
(dp2935
g55
(dp2936
g31
S'user_system_serializers_schools___init__.html'
p2937
sg33
S'user_system/serializers/schools/__init__'
p2938
sg35
g13
(g14
g15
NtRp2939
(dp2940
g18
I1
sg19
I0
sg20
I5
sg21
I0
sg22
I0
sg23
I0
sg24
I0
sbssg64
S'8yN\xa2\x98\xe3%\xd4\xe2\xfd\xf2@\xcc\xa7\x02\xdb'
p2941
ssS'create_serializers_questions_question_choice_serializer'
p2942
(dp2943
g42
(dp2944
g174
S'create_serializers_questions_question_choice_serializer.html'
p2945
sg176
S'create/serializers/questions/question_choice_serializer'
p2946
sg178
g13
(g14
g15
NtRp2947
(dp2948
g18
I1
sg19
I0
sg20
I10
sg21
I0
sg22
I0
sg23
I0
sg24
I0
sbssg51
S'\xe4\xc0O\xa2\x80M\x05Wf\xdeO=\xf7\xaaT\x95'
p2949
ssS'create_serializers_questions_question_template_serializer'
p2950
(dp2951
g103
(dp2952
g1145
S'create_serializers_questions_question_template_serializer.html'
p2953
sg1147
S'create/serializers/questions/question_template_serializer'
p2954
sg1149
g13
(g14
g15
NtRp2955
(dp2956
g18
I1
sg19
I0
sg20
I43
sg21
I0
sg22
I0
sg23
I9
sg24
I0
sbssg112
S'\x1a\x149\xdb\xb8\xc7\xfc\xb6\xbc\x8b\xfe\x8e~N\xb9J'
p2957
ssS'teach_views_summaries_top_answered_questions_summary_view'
p2958
(dp2959
g291
(dp2960
g174
S'teach_views_summaries_top_answered_questions_summary_view.html'
p2961
sg176
S'teach/views/summaries/top_answered_questions_summary_view'
p2962
sg178
g13
(g14
g15
NtRp2963
(dp2964
g18
I1
sg19
I14
sg20
I48
sg21
I0
sg22
I0
sg23
I29
sg24
I14
sbssg297
S'\xe5\x99\xa8\xb3a\x83\xdbJ_\xa7\xc2\xbf\xe0\x13\x9c\xe7'
p2965
ssS'user_system_models_apps___init__'
p2966
(dp2967
g42
(dp2968
g428
S'user_system_models_apps___init__.html'
p2969
sg430
S'user_system/models/apps/__init__'
p2970
sg432
g13
(g14
g15
NtRp2971
(dp2972
g18
I1
sg19
I0
sg20
I1
sg21
I0
sg22
I0
sg23
I0
sg24
I0
sbssg51
S'\n\xe9\xce\x15)\x8d\xc6\xdd\xe0\x9b\x990[\xae\x8cl'
p2973
ssS'create_views_books_book_view'
p2974
(dp2975
g346
(dp2976
g8
S'create_views_books_book_view.html'
p2977
sg10
S'create/views/books/book_view'
p2978
sg12
g13
(g14
g15
NtRp2979
(dp2980
g18
I1
sg19
I34
sg20
I124
sg21
I0
sg22
I3
sg23
I8
sg24
I5
sbssg352
S'%\x96\xb2\x15\x98\xef\x0fL\xc0&\xf9\x18\x91-\xb28'
p2981
ssS'create_models_quests___init__'
p2982
(dp2983
g103
(dp2984
g598
S'create_models_quests___init__.html'
p2985
sg600
S'create/models/quests/__init__'
p2986
sg602
g13
(g14
g15
NtRp2987
(dp2988
g18
I1
sg19
I0
sg20
I2
sg21
I0
sg22
I0
sg23
I0
sg24
I0
sbssg112
S'\x1e\x87\x83\xe2\x04\x1d\xcd:`\x99V\x85#\xca\x12^'
p2989
ssS'privilege_serializers_privileges_privilege_serializer'
p2990
(dp2991
g281
(dp2992
g93
S'privilege_serializers_privileges_privilege_serializer.html'
p2993
sg95
S'privilege/serializers/privileges/privilege_serializer'
p2994
sg97
g13
(g14
g15
NtRp2995
(dp2996
g18
I1
sg19
I0
sg20
I7
sg21
I0
sg22
I0
sg23
I0
sg24
I0
sbssg287
S'?v\x87\xf3\x00\x8cw`\xd8\x0b\xeb\x98\x18\xbd\x1dR'
p2997
ssS'user_system_views_signups_hardcoded_tests_test_test_account_view'
p2998
(dp2999
g42
(dp3000
g44
S'user_system_views_signups_hardcoded_tests_test_test_account_view.html'
p3001
sg46
S'user_system/views/signups/hardcoded/tests/test_test_account_view'
p3002
sg48
g13
(g14
g15
NtRp3003
(dp3004
g18
I1
sg19
I0
sg20
I24
sg21
I0
sg22
I0
sg23
I0
sg24
I0
sbssg51
S'@\xc3::\xf8h\x1aT\x9f\x83\xee1\xb7\x9a\xe0\xf9'
p3005
ssS'create_models_tags_concept_model'
p3006
(dp3007
g380
(dp3008
g44
S'create_models_tags_concept_model.html'
p3009
sg46
S'create/models/tags/concept_model'
p3010
sg48
g13
(g14
g15
NtRp3011
(dp3012
g18
I1
sg19
I0
sg20
I10
sg21
I0
sg22
I0
sg23
I0
sg24
I0
sbssg386
S'@vb\xbd\xcay\xb1b\x9e\xaf\xc0v/\xd6\x13\xd3'
p3013
ssS'create_models_tags_tests___init__'
p3014
(dp3015
g380
(dp3016
S'html_filename'
p3017
S'create_models_tags_tests___init__.html'
p3018
sS'name'
p3019
S'create/models/tags/tests/__init__'
p3020
sS'nums'
p3021
g13
(g14
g15
NtRp3022
(dp3023
g18
I1
sg19
I0
sg20
I1
sg21
I0
sg22
I0
sg23
I0
sg24
I0
sbssg386
S'\xbc\xd6\xeb\xb3\xba\xcaz\xf7{\xd4B\xb5}l\xdf\x96'
p3024
ssS'learn_admin'
p3025
(dp3026
g55
(dp3027
g174
S'learn_admin.html'
p3028
sg176
S'learn/admin'
p3029
sg178
g13
(g14
g15
NtRp3030
(dp3031
g18
I1
sg19
I0
sg20
I6
sg21
I0
sg22
I0
sg23
I0
sg24
I0
sbssg64
S'\x01\xff=[_\x13,\xf8ES\x17G)\x1e\xfb\x10'
p3032
ssS'user_system_models_schools_classroom_model'
p3033
(dp3034
g226
(dp3035
g174
S'user_system_models_schools_classroom_model.html'
p3036
sg176
S'user_system/models/schools/classroom_model'
p3037
sg178
g13
(g14
g15
NtRp3038
(dp3039
g18
I1
sg19
I2
sg20
I24
sg21
I0
sg22
I0
sg23
I0
sg24
I0
sbssg232
S'\xb4}\xd2\xf3\xe4P\x96mC/hd\x0c\x17\x97m'
p3040
ssS'user_system_models_schools_semester_model'
p3041
(dp3042
g200
(dp3043
g328
S'user_system_models_schools_semester_model.html'
p3044
sg330
S'user_system/models/schools/semester_model'
p3045
sg332
g13
(g14
g15
NtRp3046
(dp3047
g18
I1
sg19
I0
sg20
I23
sg21
I0
sg22
I0
sg23
I0
sg24
I0
sbssg209
S'\x9f&7d<%\x13 \xcaht\xc4\xd4N\xee&'
p3048
ssS'create_views_daily_quest_copies_daily_quest_copy_view'
p3049
(dp3050
g398
(dp3051
g1484
S'create_views_daily_quest_copies_daily_quest_copy_view.html'
p3052
sg1486
S'create/views/daily_quest_copies/daily_quest_copy_view'
p3053
sg1488
g13
(g14
g15
NtRp3054
(dp3055
g18
I1
sg19
I0
sg20
I14
sg21
I0
sg22
I0
sg23
I0
sg24
I0
sbssg407
S'?\x95&\\\xae\xf0@\xfc\x96\xc15\xc9\x13\xf6_R'
p3056
ssS'flipped_helpers_parameters_helper'
p3057
(dp3058
g42
(dp3059
g31
S'flipped_helpers_parameters_helper.html'
p3060
sg33
S'flipped/helpers/parameters_helper'
p3061
sg35
g13
(g14
g15
NtRp3062
(dp3063
g18
I1
sg19
I14
sg20
I22
sg21
I0
sg22
I1
sg23
I4
sg24
I3
sbssg51
S'v\xe1\xf5\xb3r\x1f\xae\xee\x872U\xa1I\xf8\xef\x00'
p3064
ssS'user_system_models___init__'
p3065
(dp3066
g42
(dp3067
g2774
S'user_system_models___init__.html'
p3068
sg2776
S'user_system/models/__init__'
p3069
sg2778
g13
(g14
g15
NtRp3070
(dp3071
g18
I1
sg19
I0
sg20
I4
sg21
I0
sg22
I0
sg23
I0
sg24
I0
sbssg51
S"\xe9'\xed1xn\xd7\xe4\x91\x8ei\xc0\x0f\x1b\x9eY"
p3072
ssS'create_models_questions_tests_test_question_model'
p3073
(dp3074
g42
(dp3075
g1180
S'create_models_questions_tests_test_question_model.html'
p3076
sg1182
S'create/models/questions/tests/test_question_model'
p3077
sg1184
g13
(g14
g15
NtRp3078
(dp3079
g18
I1
sg19
I8
sg20
I58
sg21
I0
sg22
I0
sg23
I0
sg24
I0
sbssg51
S'l\x9e\xee!<,L\xbf\xa0\xe6\r\xd7W\xc9tu'
p3080
ssS'user_system_models_users_tests_test_user_profile_history_model'
p3081
(dp3082
g116
(dp3083
g31
S'user_system_models_users_tests_test_user_profile_history_model.html'
p3084
sg33
S'user_system/models/users/tests/test_user_profile_history_model'
p3085
sg35
g13
(g14
g15
NtRp3086
(dp3087
g18
I1
sg19
I0
sg20
I54
sg21
I0
sg22
I0
sg23
I0
sg24
I0
sbssg122
S'<IT\xa7\x05\xe0ML\xb0gu{\xd2>\xc8$'
p3088
ssS'create_models_question_datasets_question_dataset_model'
p3089
(dp3090
g144
(dp3091
g146
S'create_models_question_datasets_question_dataset_model.html'
p3092
sg148
S'create/models/question_datasets/question_dataset_model'
p3093
sg150
g13
(g14
g15
NtRp3094
(dp3095
g18
I1
sg19
I0
sg20
I25
sg21
I0
sg22
I0
sg23
I0
sg24
I0
sbssg153
S'\x9e\x8d\xc6\xe6\xe4\x9f#\xfdc\xc9q\r\x17Y\x8e\xb1'
p3096
ssS'create_serializers_questions___init__'
p3097
(dp3098
g42
(dp3099
g174
S'create_serializers_questions___init__.html'
p3100
sg176
S'create/serializers/questions/__init__'
p3101
sg178
g13
(g14
g15
NtRp3102
(dp3103
g18
I1
sg19
I0
sg20
I5
sg21
I0
sg22
I0
sg23
I0
sg24
I0
sbssg51
S'\xe6(4O\xf6\xd4\xe4\x154\xe9\xa1;\x0cD\x90\t'
p3104
ssS'user_system_views_signups_hardcoded_tests___init__'
p3105
(dp3106
g42
(dp3107
g428
S'user_system_views_signups_hardcoded_tests___init__.html'
p3108
sg430
S'user_system/views/signups/hardcoded/tests/__init__'
p3109
sg432
g13
(g14
g15
NtRp3110
(dp3111
g18
I1
sg19
I0
sg20
I0
sg21
I0
sg22
I0
sg23
I0
sg24
I0
sbssg51
S'\x19g\xdfM\x1a\x019\xaf\x1baIeR\xe5u\xa7'
p3112
ssS'create_serializers_questions_question_serializer'
p3113
(dp3114
g42
(dp3115
g93
S'create_serializers_questions_question_serializer.html'
p3116
sg95
S'create/serializers/questions/question_serializer'
p3117
sg97
g13
(g14
g15
NtRp3118
(dp3119
g18
I1
sg19
I0
sg20
I59
sg21
I0
sg22
I0
sg23
I11
sg24
I0
sbssg51
S'\xd6f\xc4\xe6\x97\xe4~\xa4n\xcc+|\xcc\xdayh'
p3120
ssS'user_system_views___init__'
p3121
(dp3122
g42
(dp3123
g31
S'user_system_views___init__.html'
p3124
sg33
S'user_system/views/__init__'
p3125
sg35
g13
(g14
g15
NtRp3126
(dp3127
g18
I1
sg19
I0
sg20
I5
sg21
I0
sg22
I0
sg23
I0
sg24
I0
sbssg51
S'&v35\x98Nv\xc2>un\xb1\x9a\x93\xd2\xea'
p3128
ssS'user_system_views_users_user_profile_update_request_view'
p3129
(dp3130
g116
(dp3131
g2020
S'user_system_views_users_user_profile_update_request_view.html'
p3132
sg2022
S'user_system/views/users/user_profile_update_request_view'
p3133
sg2024
g13
(g14
g15
NtRp3134
(dp3135
g18
I1
sg19
I20
sg20
I61
sg21
I0
sg22
I0
sg23
I42
sg24
I20
sbssg122
S'\xd2\xb5\x7f4\xf7\x92\x8d4iq{\xc4\x98\xaet\n'
p3136
ssS'user_system_models_roles_role_model'
p3137
(dp3138
g42
(dp3139
g44
S'user_system_models_roles_role_model.html'
p3140
sg46
S'user_system/models/roles/role_model'
p3141
sg48
g13
(g14
g15
NtRp3142
(dp3143
g18
I1
sg19
I0
sg20
I16
sg21
I0
sg22
I0
sg23
I0
sg24
I0
sbssg51
S'\x180j\xc8\x05 \xa05\xa7\xffj\x1dJ\x8a6\xcb'
p3144
ssS'user_system_views_roles_user_role_view'
p3145
(dp3146
g42
(dp3147
g44
S'user_system_views_roles_user_role_view.html'
p3148
sg46
S'user_system/views/roles/user_role_view'
p3149
sg48
g13
(g14
g15
NtRp3150
(dp3151
g18
I1
sg19
I8
sg20
I31
sg21
I0
sg22
I0
sg23
I0
sg24
I0
sbssg51
S'S@\xea\xb7\xd6\xe1\x1b\x1dU\x18a\x9d\x80\xe3A\xb9'
p3152
ssS'create_models_questions_tests_test_question_history_remark_model'
p3153
(dp3154
g568
(dp3155
g570
S'create_models_questions_tests_test_question_history_remark_model.html'
p3156
sg572
S'create/models/questions/tests/test_question_history_remark_model'
p3157
sg574
g13
(g14
g15
NtRp3158
(dp3159
g18
I1
sg19
I0
sg20
I30
sg21
I0
sg22
I0
sg23
I0
sg24
I0
sbssg577
S'K>pG_\xbd\x15\x8b\xd8\x05\xd4\x15\xb3\x9b\xcaP'
p3160
ssS'api_logging_serializers___init__'
p3161
(dp3162
g291
(dp3163
g174
S'api_logging_serializers___init__.html'
p3164
sg176
S'api_logging/serializers/__init__'
p3165
sg178
g13
(g14
g15
NtRp3166
(dp3167
g18
I1
sg19
I0
sg20
I2
sg21
I0
sg22
I0
sg23
I0
sg24
I0
sbssg297
S'\x02\xac\xc4\x02\x172\x90\xf3=\xcb\x89>\x99\xbc\x19\xd9'
p3168
ssS'user_system_models_users_tests_test_user_facebook_model'
p3169
(dp3170
g42
(dp3171
g44
S'user_system_models_users_tests_test_user_facebook_model.html'
p3172
sg46
S'user_system/models/users/tests/test_user_facebook_model'
p3173
sg48
g13
(g14
g15
NtRp3174
(dp3175
g18
I1
sg19
I0
sg20
I29
sg21
I0
sg22
I0
sg23
I0
sg24
I0
sbssg51
S'B\xac\x06Z\x1f7\xba2\x81\xd7\xb4\x17\xaf\x84u+'
p3176
ssS'user_system_models_users_user_credentials_model'
p3177
(dp3178
S'index'
p3179
(dp3180
g2020
S'user_system_models_users_user_credentials_model.html'
p3181
sg2022
S'user_system/models/users/user_credentials_model'
p3182
sg2024
g13
(g14
g15
NtRp3183
(dp3184
g18
I1
sg19
I0
sg20
I7
sg21
I0
sg22
I0
sg23
I0
sg24
I0
sbssS'hash'
p3185
S'g\x10U/\x1f\x83\x0bO\x95o\x9c9\xefV\x81\x8e'
p3186
ssS'create_serializers_books___init__'
p3187
(dp3188
g346
(dp3189
g755
S'create_serializers_books___init__.html'
p3190
sg757
S'create/serializers/books/__init__'
p3191
sg759
g13
(g14
g15
NtRp3192
(dp3193
g18
I1
sg19
I0
sg20
I0
sg21
I0
sg22
I0
sg23
I0
sg24
I0
sbssg352
S'\x19g\xdfM\x1a\x019\xaf\x1baIeR\xe5u\xa7'
p3194
ssS'create_models_questions_tests_test_question_template_model'
p3195
(dp3196
g103
(dp3197
g968
S'create_models_questions_tests_test_question_template_model.html'
p3198
sg970
S'create/models/questions/tests/test_question_template_model'
p3199
sg972
g13
(g14
g15
NtRp3200
(dp3201
g18
I1
sg19
I8
sg20
I74
sg21
I0
sg22
I0
sg23
I0
sg24
I0
sbssg112
S"~\xca\x9c'\x89\x11\x82V\xb3v\x0c4]\x9c\xce4"
p3202
ssS'create_views_quests_tests_test_add_question_template_view'
p3203
(dp3204
g6
(dp3205
g8
S'create_views_quests_tests_test_add_question_template_view.html'
p3206
sg10
S'create/views/quests/tests/test_add_question_template_view'
p3207
sg12
g13
(g14
g15
NtRp3208
(dp3209
g18
I1
sg19
I0
sg20
I0
sg21
I0
sg22
I0
sg23
I0
sg24
I0
sbssg25
S'\x19g\xdfM\x1a\x019\xaf\x1baIeR\xe5u\xa7'
p3210
ssS'learn_models_points_tests___init__'
p3211
(dp3212
g291
(dp3213
g174
S'learn_models_points_tests___init__.html'
p3214
sg176
S'learn/models/points/tests/__init__'
p3215
sg178
g13
(g14
g15
NtRp3216
(dp3217
g18
I1
sg19
I0
sg20
I1
sg21
I0
sg22
I0
sg23
I0
sg24
I0
sbssg297
S'\xbc\xd6\xeb\xb3\xba\xcaz\xf7{\xd4B\xb5}l\xdf\x96'
p3218
ssS'create_views_tags_tests_test_hide_tag_view'
p3219
(dp3220
g672
(dp3221
g44
S'create_views_tags_tests_test_hide_tag_view.html'
p3222
sg46
S'create/views/tags/tests/test_hide_tag_view'
p3223
sg48
g13
(g14
g15
NtRp3224
(dp3225
g18
I1
sg19
I0
sg20
I25
sg21
I0
sg22
I0
sg23
I0
sg24
I0
sbssg678
S'\x8a\x07\xe0\xe1Q\x820\x05R\x14E\xd0\xdf\x8e\xc5\x8a'
p3226
ssS'learn_views_daily_quests___init__'
p3227
(dp3228
g55
(dp3229
g57
S'learn_views_daily_quests___init__.html'
p3230
sg59
S'learn/views/daily_quests/__init__'
p3231
sg61
g13
(g14
g15
NtRp3232
(dp3233
g18
I1
sg19
I0
sg20
I1
sg21
I0
sg22
I0
sg23
I0
sg24
I0
sbssg64
S'\xa3\x08\xf3\xbaF\xd5u\x88\x12\xa3V\x05K\xe5\xd0\xa9'
p3234
ssS'create_views_books_tests___init__'
p3235
(dp3236
g914
(dp3237
S'html_filename'
p3238
S'create_views_books_tests___init__.html'
p3239
sS'name'
p3240
S'create/views/books/tests/__init__'
p3241
sS'nums'
p3242
g13
(g14
g15
NtRp3243
(dp3244
g18
I1
sg19
I0
sg20
I0
sg21
I0
sg22
I0
sg23
I0
sg24
I0
sbssg920
S'\x19g\xdfM\x1a\x019\xaf\x1baIeR\xe5u\xa7'
p3245
sssS'version'
p3246
S'3.7.1'
p3247
sS'settings'
p3248
S'\x961E{\x0c29\xd1#\x83\xd3j9"\xd8\x10'
p3249
sS'format'
p3250
I1
s.