(dp1
S'files'
p2
(dp3
S'create_views_quests_tests_test_add_tag_view'
p4
(dp5
S'index'
p6
(dp7
S'html_filename'
p8
S'create_views_quests_tests_test_add_tag_view.html'
p9
sS'name'
p10
S'create/views/quests/tests/test_add_tag_view'
p11
sS'nums'
p12
ccopy_reg
_reconstructor
p13
(ccoverage.results
Numbers
p14
c__builtin__
object
p15
NtRp16
(dp17
S'n_files'
p18
I1
sS'n_branches'
p19
I0
sS'n_statements'
p20
I35
sS'n_excluded'
p21
I0
sS'n_partial_branches'
p22
I0
sS'n_missing'
p23
I0
sS'n_missing_branches'
p24
I0
sbssS'hash'
p25
S'o\xbe\xf1\xf9\x80\xe5|\xbab\xcc\xe2F=\x1e\xacp'
p26
ssS'teach_views_summaries_top_answered_questions_summary_view'
p27
(dp28
g6
(dp29
g8
S'teach_views_summaries_top_answered_questions_summary_view.html'
p30
sg10
S'teach/views/summaries/top_answered_questions_summary_view'
p31
sg12
g13
(g14
g15
NtRp32
(dp33
g18
I1
sg19
I34
sg20
I77
sg21
I0
sg22
I0
sg23
I54
sg24
I34
sbssg25
S'\x9e\xb0khf9\xceHZ\x1e\x91\x1ac,\x8c\x0c'
p34
ssS'learn_views_daily_quests_daily_quest_history_date_group_view'
p35
(dp36
g6
(dp37
g8
S'learn_views_daily_quests_daily_quest_history_date_group_view.html'
p38
sg10
S'learn/views/daily_quests/daily_quest_history_date_group_view'
p39
sg12
g13
(g14
g15
NtRp40
(dp41
g18
I1
sg19
I36
sg20
I94
sg21
I0
sg22
I0
sg23
I71
sg24
I36
sbssg25
S'N}\x1am\x00\xe8_\xd4\xa8T\xd2R\xf7l^\xd3'
p42
ssS'api_logging_views_modal_loggings_modal_user_history_view'
p43
(dp44
g6
(dp45
g8
S'api_logging_views_modal_loggings_modal_user_history_view.html'
p46
sg10
S'api_logging/views/modal_loggings/modal_user_history_view'
p47
sg12
g13
(g14
g15
NtRp48
(dp49
g18
I1
sg19
I0
sg20
I12
sg21
I0
sg22
I0
sg23
I0
sg24
I0
sbssg25
S'\xe0g\x1c\xea/\xf3m\xa8\x9d\x1f7\xba\x82w\x88\x9c'
p50
ssS'create_views_quests_tests_test_remove_tag_view'
p51
(dp52
g6
(dp53
g8
S'create_views_quests_tests_test_remove_tag_view.html'
p54
sg10
S'create/views/quests/tests/test_remove_tag_view'
p55
sg12
g13
(g14
g15
NtRp56
(dp57
g18
I1
sg19
I0
sg20
I35
sg21
I0
sg22
I0
sg23
I0
sg24
I0
sbssg25
S"P\xa31=\xda\x96\xb2M#\x01\x0cTr\xe5a'"
p58
ssS'user_system_views_signups_facebook_signup_view'
p59
(dp60
g6
(dp61
g8
S'user_system_views_signups_facebook_signup_view.html'
p62
sg10
S'user_system/views/signups/facebook_signup_view'
p63
sg12
g13
(g14
g15
NtRp64
(dp65
g18
I1
sg19
I8
sg20
I38
sg21
I0
sg22
I0
sg23
I0
sg24
I0
sbssg25
S'\x04E\'\x17r8\x14\xf6 \x98\xb5\xa0sx"@'
p66
ssS'user_system_views_logins_tests_test_email_login_view'
p67
(dp68
g6
(dp69
g8
S'user_system_views_logins_tests_test_email_login_view.html'
p70
sg10
S'user_system/views/logins/tests/test_email_login_view'
p71
sg12
g13
(g14
g15
NtRp72
(dp73
g18
I1
sg19
I0
sg20
I61
sg21
I0
sg22
I0
sg23
I0
sg24
I0
sbssg25
S'\x926\xe8\xcdL\xf3U\xc1C\x1b\x0f\xaf\xf0c\x9b\xd0'
p74
ssS'create_views_books_book_chapter_view'
p75
(dp76
g6
(dp77
g8
S'create_views_books_book_chapter_view.html'
p78
sg10
S'create/views/books/book_chapter_view'
p79
sg12
g13
(g14
g15
NtRp80
(dp81
g18
I1
sg19
I12
sg20
I44
sg21
I0
sg22
I0
sg23
I22
sg24
I12
sbssg25
S'\x0b3\xd8 \xe1\x08#79\x0c\x7f\x1f6\xad0\xe9'
p82
ssS'api_logging_views___init__'
p83
(dp84
g6
(dp85
g8
S'api_logging_views___init__.html'
p86
sg10
S'api_logging/views/__init__'
p87
sg12
g13
(g14
g15
NtRp88
(dp89
g18
I1
sg19
I0
sg20
I5
sg21
I0
sg22
I0
sg23
I0
sg24
I0
sbssg25
S'E\xf0\xc8*y9Q5\x96\xa8]\xdf\x95Zq\xed'
p90
ssS'create_managers___init__'
p91
(dp92
g6
(dp93
g8
S'create_managers___init__.html'
p94
sg10
S'create/managers/__init__'
p95
sg12
g13
(g14
g15
NtRp96
(dp97
g18
I1
sg19
I0
sg20
I1
sg21
I0
sg22
I0
sg23
I0
sg24
I0
sbssg25
S"C3'\xf8\x96\xc3\xae\x05\xa1\xc4\xe9\xad\xb0\xda\x0f\xe6"
p98
ssS'create_views___init__'
p99
(dp100
g6
(dp101
g8
S'create_views___init__.html'
p102
sg10
S'create/views/__init__'
p103
sg12
g13
(g14
g15
NtRp104
(dp105
g18
I1
sg19
I0
sg20
I7
sg21
I0
sg22
I0
sg23
I0
sg24
I0
sbssg25
S'\x8f\x98\x9b$~\xde\xc2\xfc\x97/\x14^\xe8\xf8\x10M'
p106
ssS'teach_managers_summaries_tests_test_update_class_ranking_manager'
p107
(dp108
S'index'
p109
(dp110
S'html_filename'
p111
S'teach_managers_summaries_tests_test_update_class_ranking_manager.html'
p112
sS'name'
p113
S'teach/managers/summaries/tests/test_update_class_ranking_manager'
p114
sS'nums'
p115
g13
(g14
g15
NtRp116
(dp117
g18
I1
sg19
I0
sg20
I10
sg21
I0
sg22
I0
sg23
I1
sg24
I0
sbssS'hash'
p118
S')\x0b\xdc\xcd\x8b"\x0f\xdcX\xc4\x10\xbd\xb8\x0f~Z'
p119
ssS'api_logging_views_query_stat_query_stat_view'
p120
(dp121
g6
(dp122
g8
S'api_logging_views_query_stat_query_stat_view.html'
p123
sg10
S'api_logging/views/query_stat/query_stat_view'
p124
sg12
g13
(g14
g15
NtRp125
(dp126
g18
I1
sg19
I2
sg20
I57
sg21
I0
sg22
I0
sg23
I32
sg24
I2
sbssg25
S"\xcct\xdf\xc6\x93\xa3\x11\x8dfs\xaf\x01C'\xa5o"
p127
ssS'privilege_views_privileges_user_privilege_view'
p128
(dp129
g6
(dp130
g8
S'privilege_views_privileges_user_privilege_view.html'
p131
sg10
S'privilege/views/privileges/user_privilege_view'
p132
sg12
g13
(g14
g15
NtRp133
(dp134
g18
I1
sg19
I10
sg20
I38
sg21
I0
sg22
I0
sg23
I22
sg24
I10
sbssg25
S'\xf699\xa5A\xca\x9e\x91,l\xf8\x8dI[PR'
p135
ssS'teach_views_summaries_migrations_class_ranking_migration_view'
p136
(dp137
g6
(dp138
g8
S'teach_views_summaries_migrations_class_ranking_migration_view.html'
p139
sg10
S'teach/views/summaries/migrations/class_ranking_migration_view'
p140
sg12
g13
(g14
g15
NtRp141
(dp142
g18
I1
sg19
I8
sg20
I36
sg21
I0
sg22
I0
sg23
I24
sg24
I8
sbssg25
S'\xe2JF\xb0\xd3c+\xb8\x1a*\x1f\xa5\xb3oY\x1d'
p143
ssS'create_views_books_tests_test_add_chapter_view'
p144
(dp145
g6
(dp146
g8
S'create_views_books_tests_test_add_chapter_view.html'
p147
sg10
S'create/views/books/tests/test_add_chapter_view'
p148
sg12
g13
(g14
g15
NtRp149
(dp150
g18
I1
sg19
I0
sg20
I69
sg21
I0
sg22
I0
sg23
I0
sg24
I0
sbssg25
S'\xea\xcd\x81\xff\xe6p74\xe3\xab\xc2R\x1aZ#Y'
p151
ssS'create_views_tags_tests_test_update_tag_view'
p152
(dp153
g6
(dp154
g8
S'create_views_tags_tests_test_update_tag_view.html'
p155
sg10
S'create/views/tags/tests/test_update_tag_view'
p156
sg12
g13
(g14
g15
NtRp157
(dp158
g18
I1
sg19
I0
sg20
I23
sg21
I0
sg22
I0
sg23
I0
sg24
I0
sbssg25
S'\x03\xa8\x8c\xae\x18\x9b>/f\x80\xadcj\xe8gj'
p159
ssS'privilege_views___init__'
p160
(dp161
g6
(dp162
g8
S'privilege_views___init__.html'
p163
sg10
S'privilege/views/__init__'
p164
sg12
g13
(g14
g15
NtRp165
(dp166
g18
I1
sg19
I0
sg20
I0
sg21
I0
sg22
I0
sg23
I0
sg24
I0
sbssg25
S'\x19g\xdfM\x1a\x019\xaf\x1baIeR\xe5u\xa7'
p167
ssS'teach_views_daily_quest_templates_daily_quest_template_view'
p168
(dp169
g6
(dp170
g8
S'teach_views_daily_quest_templates_daily_quest_template_view.html'
p171
sg10
S'teach/views/daily_quest_templates/daily_quest_template_view'
p172
sg12
g13
(g14
g15
NtRp173
(dp174
g18
I1
sg19
I18
sg20
I54
sg21
I0
sg22
I0
sg23
I33
sg24
I18
sbssg25
S'\x97J\xccM\x9b\xcd1\xaf\x95\xea\xd8\x8d\xdc(\x89['
p175
ssS'user_system_views_logins_facebook_login_view'
p176
(dp177
g6
(dp178
g8
S'user_system_views_logins_facebook_login_view.html'
p179
sg10
S'user_system/views/logins/facebook_login_view'
p180
sg12
g13
(g14
g15
NtRp181
(dp182
g18
I1
sg19
I4
sg20
I24
sg21
I0
sg22
I0
sg23
I0
sg24
I0
sbssg25
S',\xf8~\x8d\x9b\xfe\xa6wQ5\x92t\x15\xe5\x95\x8d'
p183
ssS'api_logging_views_query_stat___init__'
p184
(dp185
g6
(dp186
g8
S'api_logging_views_query_stat___init__.html'
p187
sg10
S'api_logging/views/query_stat/__init__'
p188
sg12
g13
(g14
g15
NtRp189
(dp190
g18
I1
sg19
I0
sg20
I1
sg21
I0
sg22
I0
sg23
I0
sg24
I0
sbssg25
S'\xbe{\x9f#C\x83\xe9\xa5\xf6B\xf2\xd6\x8a\x0eB\xd0'
p191
ssS'create_views_questions_question_view'
p192
(dp193
g6
(dp194
g8
S'create_views_questions_question_view.html'
p195
sg10
S'create/views/questions/question_view'
p196
sg12
g13
(g14
g15
NtRp197
(dp198
g18
I1
sg19
I34
sg20
I113
sg21
I0
sg22
I1
sg23
I40
sg24
I21
sbssg25
S'x\x1b\xf3\x9b\x13Z\xdalU\x8bJ\x89\xb3qc\x8d'
p199
ssS'user_system_views_users_tests___init__'
p200
(dp201
g6
(dp202
g8
S'user_system_views_users_tests___init__.html'
p203
sg10
S'user_system/views/users/tests/__init__'
p204
sg12
g13
(g14
g15
NtRp205
(dp206
g18
I1
sg19
I0
sg20
I0
sg21
I0
sg22
I0
sg23
I0
sg24
I0
sbssg25
S'\x19g\xdfM\x1a\x019\xaf\x1baIeR\xe5u\xa7'
p207
ssS'api_logging_views_summary___init__'
p208
(dp209
g6
(dp210
g8
S'api_logging_views_summary___init__.html'
p211
sg10
S'api_logging/views/summary/__init__'
p212
sg12
g13
(g14
g15
NtRp213
(dp214
g18
I1
sg19
I0
sg20
I1
sg21
I0
sg22
I0
sg23
I0
sg24
I0
sbssg25
S'\x04\x12bh\x96\xc5j\x88dm\x0e\xd7\xe1\x94Lq'
p215
ssS'create_views_quests_tests_test_remove_question_view'
p216
(dp217
g6
(dp218
g8
S'create_views_quests_tests_test_remove_question_view.html'
p219
sg10
S'create/views/quests/tests/test_remove_question_view'
p220
sg12
g13
(g14
g15
NtRp221
(dp222
g18
I1
sg19
I0
sg20
I35
sg21
I0
sg22
I0
sg23
I0
sg24
I0
sbssg25
S'b\x04\xa3\x02\x16\x98^\x10Y:\x15N\xb4\x9fvE'
p223
ssS'teach_managers_summaries_update_class_ranking_manager'
p224
(dp225
g6
(dp226
g111
S'teach_managers_summaries_update_class_ranking_manager.html'
p227
sg113
S'teach/managers/summaries/update_class_ranking_manager'
p228
sg115
g13
(g14
g15
NtRp229
(dp230
g18
I1
sg19
I6
sg20
I46
sg21
I0
sg22
I1
sg23
I0
sg24
I1
sbssg25
S'|\xff^-\xc0\x01\x90\xa1\x03\x06\x9e? &]\x8d'
p231
ssS'create_views_questions_tests___init__'
p232
(dp233
g6
(dp234
g8
S'create_views_questions_tests___init__.html'
p235
sg10
S'create/views/questions/tests/__init__'
p236
sg12
g13
(g14
g15
NtRp237
(dp238
g18
I1
sg19
I0
sg20
I0
sg21
I0
sg22
I0
sg23
I0
sg24
I0
sbssg25
S'\x19g\xdfM\x1a\x019\xaf\x1baIeR\xe5u\xa7'
p239
ssS'create_views_tags_tests___init__'
p240
(dp241
g6
(dp242
g8
S'create_views_tags_tests___init__.html'
p243
sg10
S'create/views/tags/tests/__init__'
p244
sg12
g13
(g14
g15
NtRp245
(dp246
g18
I1
sg19
I0
sg20
I0
sg21
I0
sg22
I0
sg23
I0
sg24
I0
sbssg25
S'\x19g\xdfM\x1a\x019\xaf\x1baIeR\xe5u\xa7'
p247
ssS'user_system_views_roles___init__'
p248
(dp249
g6
(dp250
g8
S'user_system_views_roles___init__.html'
p251
sg10
S'user_system/views/roles/__init__'
p252
sg12
g13
(g14
g15
NtRp253
(dp254
g18
I1
sg19
I0
sg20
I1
sg21
I0
sg22
I0
sg23
I0
sg24
I0
sbssg25
S'\xeb\x15\r\x85I\x9e<\xbc\x15\xd1P\xef\x16\x8c\xe0l'
p255
ssS'create_views_tags___init__'
p256
(dp257
g6
(dp258
g8
S'create_views_tags___init__.html'
p259
sg10
S'create/views/tags/__init__'
p260
sg12
g13
(g14
g15
NtRp261
(dp262
g18
I1
sg19
I0
sg20
I1
sg21
I0
sg22
I0
sg23
I0
sg24
I0
sbssg25
S'|r<\xaap\x01\xb1\xbc"\xe5\xbb\xd8\x87\xa5\xd2H'
p263
ssS'user_system_views_signups_hardcoded___init__'
p264
(dp265
g6
(dp266
g8
S'user_system_views_signups_hardcoded___init__.html'
p267
sg10
S'user_system/views/signups/hardcoded/__init__'
p268
sg12
g13
(g14
g15
NtRp269
(dp270
g18
I1
sg19
I0
sg20
I1
sg21
I0
sg22
I0
sg23
I0
sg24
I0
sbssg25
S'?\xfac\x0c\x91\xa4\xd6\xd4\x1d\xe4\x99\xc2[\x83\xfc\xdf'
p271
ssS'learn_views_daily_quests_student_submission_view'
p272
(dp273
g6
(dp274
g8
S'learn_views_daily_quests_student_submission_view.html'
p275
sg10
S'learn/views/daily_quests/student_submission_view'
p276
sg12
g13
(g14
g15
NtRp277
(dp278
g18
I1
sg19
I12
sg20
I47
sg21
I0
sg22
I0
sg23
I29
sg24
I12
sbssg25
S'wq\xe9%\x06 [\x13\x98L\xc4\xe9\x90\xfc\x9e\xff'
p279
ssS'learn_managers_daily_quests_daily_quest_completion_manager'
p280
(dp281
g6
(dp282
g111
S'learn_managers_daily_quests_daily_quest_completion_manager.html'
p283
sg113
S'learn/managers/daily_quests/daily_quest_completion_manager'
p284
sg115
g13
(g14
g15
NtRp285
(dp286
g18
I1
sg19
I2
sg20
I10
sg21
I0
sg22
I0
sg23
I0
sg24
I0
sbssg25
S'JN\xaf\x16\xa0L\xbd\xae+\xc6\xd5\x1b\x83\xb3\x17\xe0'
p287
ssS'teach_views_summaries___init__'
p288
(dp289
g6
(dp290
g8
S'teach_views_summaries___init__.html'
p291
sg10
S'teach/views/summaries/__init__'
p292
sg12
g13
(g14
g15
NtRp293
(dp294
g18
I1
sg19
I0
sg20
I7
sg21
I0
sg22
I0
sg23
I0
sg24
I0
sbssg25
S'3#\xb2[\xd25\x02\xaaPxM*gV\x97D'
p295
ssS'create_views_questions_question_history_remark_view'
p296
(dp297
g6
(dp298
g8
S'create_views_questions_question_history_remark_view.html'
p299
sg10
S'create/views/questions/question_history_remark_view'
p300
sg12
g13
(g14
g15
NtRp301
(dp302
g18
I1
sg19
I0
sg20
I14
sg21
I0
sg22
I0
sg23
I0
sg24
I0
sbssg25
S'{4O\x0e\xb3\xad\xc8\xb72\x8f\x1f\x11\xc0\x9e\xa0\xd6'
p303
ssS'user_system_views_signups_tests_test_verify_email_view'
p304
(dp305
g6
(dp306
g8
S'user_system_views_signups_tests_test_verify_email_view.html'
p307
sg10
S'user_system/views/signups/tests/test_verify_email_view'
p308
sg12
g13
(g14
g15
NtRp309
(dp310
g18
I1
sg19
I0
sg20
I51
sg21
I0
sg22
I0
sg23
I0
sg24
I0
sbssg25
S'\x81\xacj\x9d\x1f\xa9o\xcc\x1e\xa3\xe59^YT\x9e'
p311
ssS'teach_managers_summaries_tests___init__'
p312
(dp313
g109
(dp314
g111
S'teach_managers_summaries_tests___init__.html'
p315
sg113
S'teach/managers/summaries/tests/__init__'
p316
sg115
g13
(g14
g15
NtRp317
(dp318
g18
I1
sg19
I0
sg20
I1
sg21
I0
sg22
I0
sg23
I0
sg24
I0
sbssg118
S'\xbc\xd6\xeb\xb3\xba\xcaz\xf7{\xd4B\xb5}l\xdf\x96'
p319
ssS'user_system_views_users_user_view'
p320
(dp321
g6
(dp322
g8
S'user_system_views_users_user_view.html'
p323
sg10
S'user_system/views/users/user_view'
p324
sg12
g13
(g14
g15
NtRp325
(dp326
g18
I1
sg19
I66
sg20
I191
sg21
I0
sg22
I0
sg23
I110
sg24
I44
sbssg25
S'r\x15\x08\xf19P\x7f\xfc\xc01\xae\xf5\xf4X\xc4\xab'
p327
ssS'teach_views_campaigns___init__'
p328
(dp329
g6
(dp330
g8
S'teach_views_campaigns___init__.html'
p331
sg10
S'teach/views/campaigns/__init__'
p332
sg12
g13
(g14
g15
NtRp333
(dp334
g18
I1
sg19
I0
sg20
I1
sg21
I0
sg22
I0
sg23
I0
sg24
I0
sbssg25
S'\xdd3^z\xa4\xd5\x95X\x1fk\x83<\xed@\x053'
p335
ssS'user_system_views_apps___init__'
p336
(dp337
g6
(dp338
g8
S'user_system_views_apps___init__.html'
p339
sg10
S'user_system/views/apps/__init__'
p340
sg12
g13
(g14
g15
NtRp341
(dp342
g18
I1
sg19
I0
sg20
I1
sg21
I0
sg22
I0
sg23
I0
sg24
I0
sbssg25
S'?:\xf2A\xfa^]\xc5NR\xc9\x13\xb0\xe4\xfa\x9e'
p343
ssS'user_system_views_users_tests_test_get_users_list_view'
p344
(dp345
g6
(dp346
g8
S'user_system_views_users_tests_test_get_users_list_view.html'
p347
sg10
S'user_system/views/users/tests/test_get_users_list_view'
p348
sg12
g13
(g14
g15
NtRp349
(dp350
g18
I1
sg19
I0
sg20
I34
sg21
I0
sg22
I0
sg23
I0
sg24
I0
sbssg25
S'\xf5\xe3\x1a\x14e\xf8\xc2\xf0\xa8^$\xf7\x9dv\xb8f'
p351
ssS'create_views_books_tests_test_remove_tag_from_subchapter_view'
p352
(dp353
g6
(dp354
g8
S'create_views_books_tests_test_remove_tag_from_subchapter_view.html'
p355
sg10
S'create/views/books/tests/test_remove_tag_from_subchapter_view'
p356
sg12
g13
(g14
g15
NtRp357
(dp358
g18
I1
sg19
I0
sg20
I40
sg21
I0
sg22
I0
sg23
I0
sg24
I0
sbssg25
S"(Vo#\xdd\x9a\xbc\x11\xff\xd6'\xd7\xeb\xca\x1aM"
p359
ssS'teach_managers___init__'
p360
(dp361
g6
(dp362
g8
S'teach_managers___init__.html'
p363
sg10
S'teach/managers/__init__'
p364
sg12
g13
(g14
g15
NtRp365
(dp366
g18
I1
sg19
I0
sg20
I1
sg21
I0
sg22
I0
sg23
I0
sg24
I0
sbssg25
S'Z\xdd\x15\x7f;\xd3\xa2\x07\xf8\xf6\xecz\x055\xd6\xf6'
p367
ssS'teach_views_teacher_news_feed_teacher_news_feed_view'
p368
(dp369
g6
(dp370
g8
S'teach_views_teacher_news_feed_teacher_news_feed_view.html'
p371
sg10
S'teach/views/teacher_news_feed/teacher_news_feed_view'
p372
sg12
g13
(g14
g15
NtRp373
(dp374
g18
I1
sg19
I8
sg20
I60
sg21
I0
sg22
I0
sg23
I38
sg24
I8
sbssg25
S'\n]Y\xde\x93\x8f\xd7O\x05\xcd\x92\x98!=\xcdd'
p375
ssS'user_system_managers_tests___init__'
p376
(dp377
g6
(dp378
g8
S'user_system_managers_tests___init__.html'
p379
sg10
S'user_system/managers/tests/__init__'
p380
sg12
g13
(g14
g15
NtRp381
(dp382
g18
I1
sg19
I0
sg20
I0
sg21
I0
sg22
I0
sg23
I0
sg24
I0
sbssg25
S'\x19g\xdfM\x1a\x019\xaf\x1baIeR\xe5u\xa7'
p383
ssS'create_managers_assigning_daily_quest_manager'
p384
(dp385
g6
(dp386
g8
S'create_managers_assigning_daily_quest_manager.html'
p387
sg10
S'create/managers/assigning_daily_quest_manager'
p388
sg12
g13
(g14
g15
NtRp389
(dp390
g18
I1
sg19
I14
sg20
I47
sg21
I0
sg22
I0
sg23
I26
sg24
I14
sbssg25
S'>\x9f\xc5\xd2)n\xf5Pa\x12\xd8\xea\x03\x95/\xd4'
p391
ssS'user_system_views_apps_app_view'
p392
(dp393
g6
(dp394
g8
S'user_system_views_apps_app_view.html'
p395
sg10
S'user_system/views/apps/app_view'
p396
sg12
g13
(g14
g15
NtRp397
(dp398
g18
I1
sg19
I0
sg20
I13
sg21
I0
sg22
I0
sg23
I0
sg24
I0
sbssg25
S'\xf7n\xffX\xe7\xd2\xb6\xa5\xc5\xe5\x96\x13\xf4\x9c\xac\x1e'
p399
ssS'create_views_books_book_subchapter_view'
p400
(dp401
g6
(dp402
g8
S'create_views_books_book_subchapter_view.html'
p403
sg10
S'create/views/books/book_subchapter_view'
p404
sg12
g13
(g14
g15
NtRp405
(dp406
g18
I1
sg19
I8
sg20
I46
sg21
I0
sg22
I0
sg23
I0
sg24
I0
sbssg25
S'\x0e\xa6\x19V\xf0\xf3;\xa2\x8d \xd8i\xb7*D\x87'
p407
ssS'create_views_tags_tests_test_get_tag_by_id_view'
p408
(dp409
g6
(dp410
g8
S'create_views_tags_tests_test_get_tag_by_id_view.html'
p411
sg10
S'create/views/tags/tests/test_get_tag_by_id_view'
p412
sg12
g13
(g14
g15
NtRp413
(dp414
g18
I1
sg19
I0
sg20
I20
sg21
I0
sg22
I0
sg23
I0
sg24
I0
sbssg25
S'T\xd5\xd7\xd9\xb8\x12\x81xj\xca\x90\xa41\xcf\x02]'
p415
ssS'create_views_questions_tests_test_remove_tag_view'
p416
(dp417
g6
(dp418
g8
S'create_views_questions_tests_test_remove_tag_view.html'
p419
sg10
S'create/views/questions/tests/test_remove_tag_view'
p420
sg12
g13
(g14
g15
NtRp421
(dp422
g18
I1
sg19
I0
sg20
I36
sg21
I0
sg22
I0
sg23
I0
sg24
I0
sbssg25
S'\xbdV1EN\xfe\x8e;\xe4\x92\x91r\xd6Q\x03\x80'
p423
ssS'teach_views_summaries_leaderboard_view'
p424
(dp425
g6
(dp426
g8
S'teach_views_summaries_leaderboard_view.html'
p427
sg10
S'teach/views/summaries/leaderboard_view'
p428
sg12
g13
(g14
g15
NtRp429
(dp430
g18
I1
sg19
I66
sg20
I161
sg21
I0
sg22
I0
sg23
I131
sg24
I66
sbssg25
S'\xa4\xa5\xc0\x98\xe91S\x81\xc4\xb2\xb9\xe7C\xe7\n\x8f'
p431
ssS'create_views_questions_tests_test_add_tag_view'
p432
(dp433
g6
(dp434
g8
S'create_views_questions_tests_test_add_tag_view.html'
p435
sg10
S'create/views/questions/tests/test_add_tag_view'
p436
sg12
g13
(g14
g15
NtRp437
(dp438
g18
I1
sg19
I0
sg20
I35
sg21
I0
sg22
I0
sg23
I0
sg24
I0
sbssg25
S'\x8e\x13\xdd\xbd\xba\r&,-|&W-a`\x7f'
p439
ssS'create_views_quests_quest_view'
p440
(dp441
g6
(dp442
g8
S'create_views_quests_quest_view.html'
p443
sg10
S'create/views/quests/quest_view'
p444
sg12
g13
(g14
g15
NtRp445
(dp446
g18
I1
sg19
I78
sg20
I229
sg21
I0
sg22
I1
sg23
I117
sg24
I59
sbssg25
S'\x98\xfc\xdc\xc4}\x8cb\xb1l\xe52!\xa6\x12\x03\xee'
p447
ssS'create_views_tags_tests_test_add_prerequisite_view'
p448
(dp449
g6
(dp450
g8
S'create_views_tags_tests_test_add_prerequisite_view.html'
p451
sg10
S'create/views/tags/tests/test_add_prerequisite_view'
p452
sg12
g13
(g14
g15
NtRp453
(dp454
g18
I1
sg19
I0
sg20
I33
sg21
I0
sg22
I0
sg23
I0
sg24
I0
sbssg25
S'\x08g\x8ed\x97\x9d\xb1\x04\xd6\xd5\x82T\xc4\xe6\xbd\xad'
p455
ssS'teach_managers_summaries_tests_test_class_ranking_manager'
p456
(dp457
g109
(dp458
g111
S'teach_managers_summaries_tests_test_class_ranking_manager.html'
p459
sg113
S'teach/managers/summaries/tests/test_class_ranking_manager'
p460
sg115
g13
(g14
g15
NtRp461
(dp462
g18
I1
sg19
I0
sg20
I10
sg21
I0
sg22
I0
sg23
I1
sg24
I0
sbssg118
S'.\xc93\x19\x92<) \xe8\x00\xb9\x98\n\xac\x96\xc2'
p463
ssS'user_system_views_schools_school_view'
p464
(dp465
g6
(dp466
g8
S'user_system_views_schools_school_view.html'
p467
sg10
S'user_system/views/schools/school_view'
p468
sg12
g13
(g14
g15
NtRp469
(dp470
g18
I1
sg19
I0
sg20
I16
sg21
I0
sg22
I0
sg23
I0
sg24
I0
sbssg25
S'\xc8\x0b\xef\x9e86\xe5\x19\xaa\x9e\x93+\x03\xfb\x98\x99'
p471
ssS'teach_views_teacher_chapters___init__'
p472
(dp473
g6
(dp474
g8
S'teach_views_teacher_chapters___init__.html'
p475
sg10
S'teach/views/teacher_chapters/__init__'
p476
sg12
g13
(g14
g15
NtRp477
(dp478
g18
I1
sg19
I0
sg20
I1
sg21
I0
sg22
I0
sg23
I0
sg24
I0
sbssg25
S'\x10AP\xc9\nC\xd2REz\xf6\xe5\xd2(\xee`'
p479
ssS'create_views_books_tests_test_remove_chapter_view'
p480
(dp481
g6
(dp482
g8
S'create_views_books_tests_test_remove_chapter_view.html'
p483
sg10
S'create/views/books/tests/test_remove_chapter_view'
p484
sg12
g13
(g14
g15
NtRp485
(dp486
g18
I1
sg19
I0
sg20
I39
sg21
I0
sg22
I0
sg23
I0
sg24
I0
sbssg25
S'lJ\xdc\xbe\xe2>\x9d\xde\xb5+ia5;\x042'
p487
ssS'user_system_views_batch_processing___init__'
p488
(dp489
g6
(dp490
g8
S'user_system_views_batch_processing___init__.html'
p491
sg10
S'user_system/views/batch_processing/__init__'
p492
sg12
g13
(g14
g15
NtRp493
(dp494
g18
I1
sg19
I0
sg20
I1
sg21
I0
sg22
I0
sg23
I0
sg24
I0
sbssg25
S'\x11\xaa\xa5O\xecz\xb9\x06\xf9\x1bZ\xd3\xf3\x8bm]'
p495
ssS'user_system_views_logins_tests_test_facebook_login_view'
p496
(dp497
g6
(dp498
g8
S'user_system_views_logins_tests_test_facebook_login_view.html'
p499
sg10
S'user_system/views/logins/tests/test_facebook_login_view'
p500
sg12
g13
(g14
g15
NtRp501
(dp502
g18
I1
sg19
I0
sg20
I51
sg21
I0
sg22
I0
sg23
I0
sg24
I0
sbssg25
S'\x8eg\xfbA\xbdf+\x81\xe9\x8a\x16\x82\xe9\xe3\xc0\xf4'
p503
ssS'user_system_views_signups_tests_test_email_signup_view'
p504
(dp505
g6
(dp506
g8
S'user_system_views_signups_tests_test_email_signup_view.html'
p507
sg10
S'user_system/views/signups/tests/test_email_signup_view'
p508
sg12
g13
(g14
g15
NtRp509
(dp510
g18
I1
sg19
I0
sg20
I51
sg21
I0
sg22
I0
sg23
I0
sg24
I0
sbssg25
S'\xa3\xb2\xaf-\x99\xe3]\xcc\xe6\x8b\xeb\xf63=I\xb4'
p511
ssS'user_system_views_users_teacher_mapping_view'
p512
(dp513
g6
(dp514
g8
S'user_system_views_users_teacher_mapping_view.html'
p515
sg10
S'user_system/views/users/teacher_mapping_view'
p516
sg12
g13
(g14
g15
NtRp517
(dp518
g18
I1
sg19
I0
sg20
I14
sg21
I0
sg22
I0
sg23
I0
sg24
I0
sbssg25
S'B\x04t\x93Z\x86Q.\x17\xf9\xa0*\xf6\x86\xcf\x10'
p519
ssS'create_views_tags_tests_test_search_tag_view'
p520
(dp521
g6
(dp522
g8
S'create_views_tags_tests_test_search_tag_view.html'
p523
sg10
S'create/views/tags/tests/test_search_tag_view'
p524
sg12
g13
(g14
g15
NtRp525
(dp526
g18
I1
sg19
I0
sg20
I28
sg21
I0
sg22
I0
sg23
I0
sg24
I0
sbssg25
S'\xbc\x80\xceQ\xf1\xc5\xfa\xd5\xf1/g\x12l*,\x1c'
p527
ssS'user_system_views_schools_grade_view'
p528
(dp529
g6
(dp530
g8
S'user_system_views_schools_grade_view.html'
p531
sg10
S'user_system/views/schools/grade_view'
p532
sg12
g13
(g14
g15
NtRp533
(dp534
g18
I1
sg19
I0
sg20
I16
sg21
I0
sg22
I0
sg23
I0
sg24
I0
sbssg25
S'_i&b\x01\x08$\xe7\xbe\nW\x92\x80\x97\xf1Q'
p535
ssS'user_system_views_signups_email_signup_view'
p536
(dp537
g6
(dp538
g8
S'user_system_views_signups_email_signup_view.html'
p539
sg10
S'user_system/views/signups/email_signup_view'
p540
sg12
g13
(g14
g15
NtRp541
(dp542
g18
I1
sg19
I8
sg20
I44
sg21
I0
sg22
I0
sg23
I0
sg24
I0
sbssg25
S'&G\xd1\xc4{\x9b\xbf\x14\x92F\xbe\x13\xeer\x84\x1b'
p543
ssS'teach_views_teacher_tags___init__'
p544
(dp545
g6
(dp546
g8
S'teach_views_teacher_tags___init__.html'
p547
sg10
S'teach/views/teacher_tags/__init__'
p548
sg12
g13
(g14
g15
NtRp549
(dp550
g18
I1
sg19
I0
sg20
I1
sg21
I0
sg22
I0
sg23
I0
sg24
I0
sbssg25
S'cp\x00\xdc\x00\xe5M\x9f\x1f\xaa\xb2Y\xd9%\x1d"'
p551
ssS'user_system_views_apps_tests_test_get_app_by_id_view'
p552
(dp553
g6
(dp554
g8
S'user_system_views_apps_tests_test_get_app_by_id_view.html'
p555
sg10
S'user_system/views/apps/tests/test_get_app_by_id_view'
p556
sg12
g13
(g14
g15
NtRp557
(dp558
g18
I1
sg19
I0
sg20
I17
sg21
I0
sg22
I0
sg23
I0
sg24
I0
sbssg25
S"\xa2\x1eG%r{-~\xc5=\x8aj\x99X!'"
p559
ssS'create_views_questions_tests_test_hide_question_view'
p560
(dp561
g6
(dp562
g8
S'create_views_questions_tests_test_hide_question_view.html'
p563
sg10
S'create/views/questions/tests/test_hide_question_view'
p564
sg12
g13
(g14
g15
NtRp565
(dp566
g18
I1
sg19
I0
sg20
I30
sg21
I0
sg22
I0
sg23
I0
sg24
I0
sbssg25
S'\xb3\x10S\x8a\x9b\xecw\xaa\xd3\x81\x1b\xf2\xab\xb2QG'
p567
ssS'create_views_questions_question_template_view'
p568
(dp569
g6
(dp570
g8
S'create_views_questions_question_template_view.html'
p571
sg10
S'create/views/questions/question_template_view'
p572
sg12
g13
(g14
g15
NtRp573
(dp574
g18
I1
sg19
I40
sg20
I116
sg21
I0
sg22
I0
sg23
I86
sg24
I40
sbssg25
S'w\xa9\xc2U|\xff\xfdz/\x01\x02\xd6P<\x16('
p575
ssS'user_system_views_logins_email_login_view'
p576
(dp577
g6
(dp578
g8
S'user_system_views_logins_email_login_view.html'
p579
sg10
S'user_system/views/logins/email_login_view'
p580
sg12
g13
(g14
g15
NtRp581
(dp582
g18
I1
sg19
I8
sg20
I35
sg21
I0
sg22
I0
sg23
I0
sg24
I0
sbssg25
S'\x9e\xe3\x8e\xf9o\x8aYC\xa2\xcb\xe7\xbd\x94\xe1O\x1a'
p583
ssS'user_system_views_signups_tests_test_facebook_signup_view'
p584
(dp585
g6
(dp586
g8
S'user_system_views_signups_tests_test_facebook_signup_view.html'
p587
sg10
S'user_system/views/signups/tests/test_facebook_signup_view'
p588
sg12
g13
(g14
g15
NtRp589
(dp590
g18
I1
sg19
I0
sg20
I60
sg21
I0
sg22
I0
sg23
I0
sg24
I0
sbssg25
S'\x93<\xc8]\x14\t\xa8/\xdd\xd1\xa4]\xfbp!\xbd'
p591
ssS'create_views_question_datasets_question_dataset_view'
p592
(dp593
g6
(dp594
g8
S'create_views_question_datasets_question_dataset_view.html'
p595
sg10
S'create/views/question_datasets/question_dataset_view'
p596
sg12
g13
(g14
g15
NtRp597
(dp598
g18
I1
sg19
I4
sg20
I20
sg21
I0
sg22
I0
sg23
I5
sg24
I4
sbssg25
S'\x01\xfb\xf2\x86m\xd4\xf9\xc3\xe6\xb6\x11\x96u;\x1ez'
p599
ssS'create_views_quests_tests_test_remove_question_template_view'
p600
(dp601
g6
(dp602
g8
S'create_views_quests_tests_test_remove_question_template_view.html'
p603
sg10
S'create/views/quests/tests/test_remove_question_template_view'
p604
sg12
g13
(g14
g15
NtRp605
(dp606
g18
I1
sg19
I0
sg20
I0
sg21
I0
sg22
I0
sg23
I0
sg24
I0
sbssg25
S'\x19g\xdfM\x1a\x019\xaf\x1baIeR\xe5u\xa7'
p607
ssS'create_views_summary_create_summary_view'
p608
(dp609
g6
(dp610
g8
S'create_views_summary_create_summary_view.html'
p611
sg10
S'create/views/summary/create_summary_view'
p612
sg12
g13
(g14
g15
NtRp613
(dp614
g18
I1
sg19
I0
sg20
I59
sg21
I0
sg22
I0
sg23
I48
sg24
I0
sbssg25
S"'\xfe\xf4\x8c\xed2\xc3\x18\xf6\x85\x1f\xb0\xf0G\xb7\x8f"
p615
ssS'user_system_views_batch_processing_tests___init__'
p616
(dp617
g6
(dp618
g8
S'user_system_views_batch_processing_tests___init__.html'
p619
sg10
S'user_system/views/batch_processing/tests/__init__'
p620
sg12
g13
(g14
g15
NtRp621
(dp622
g18
I1
sg19
I0
sg20
I1
sg21
I0
sg22
I0
sg23
I0
sg24
I0
sbssg25
S'\xbc\xd6\xeb\xb3\xba\xcaz\xf7{\xd4B\xb5}l\xdf\x96'
p623
ssS'create_views_books_tests_test_get_books_list_view'
p624
(dp625
g6
(dp626
g8
S'create_views_books_tests_test_get_books_list_view.html'
p627
sg10
S'create/views/books/tests/test_get_books_list_view'
p628
sg12
g13
(g14
g15
NtRp629
(dp630
g18
I1
sg19
I0
sg20
I21
sg21
I0
sg22
I0
sg23
I0
sg24
I0
sbssg25
S'\x16\x8f\xf1\x81>\x0f\xb4S\x19\xff\xcd\xc1Y\xe9;\x98'
p631
ssS'api_logging_views_summary_user_activity_summary_view'
p632
(dp633
g6
(dp634
g8
S'api_logging_views_summary_user_activity_summary_view.html'
p635
sg10
S'api_logging/views/summary/user_activity_summary_view'
p636
sg12
g13
(g14
g15
NtRp637
(dp638
g18
I1
sg19
I8
sg20
I27
sg21
I0
sg22
I0
sg23
I13
sg24
I8
sbssg25
S'\x99\xfc\\\x0e\x10\x840(\x94\xd3(k\x9f\xb4\xd9M'
p639
ssS'teach_views_summaries_tests_test_class_ranking_view'
p640
(dp641
g6
(dp642
g8
S'teach_views_summaries_tests_test_class_ranking_view.html'
p643
sg10
S'teach/views/summaries/tests/test_class_ranking_view'
p644
sg12
g13
(g14
g15
NtRp645
(dp646
g18
I1
sg19
I0
sg20
I9
sg21
I0
sg22
I0
sg23
I1
sg24
I0
sbssg25
S'(X\xecwo\x8e\xea\xcf\x80(J\x98&\xb8|\xdc'
p647
ssS'create_views_tags_tests_test_get_tags_list_view'
p648
(dp649
g6
(dp650
g8
S'create_views_tags_tests_test_get_tags_list_view.html'
p651
sg10
S'create/views/tags/tests/test_get_tags_list_view'
p652
sg12
g13
(g14
g15
NtRp653
(dp654
g18
I1
sg19
I0
sg20
I21
sg21
I0
sg22
I0
sg23
I0
sg24
I0
sbssg25
S'F\xf6yk?\xb2\xc12\x93\x8b\xe6Bx\xa09\x89'
p655
ssS'learn_views_daily_quests_daily_quest_view'
p656
(dp657
g6
(dp658
g8
S'learn_views_daily_quests_daily_quest_view.html'
p659
sg10
S'learn/views/daily_quests/daily_quest_view'
p660
sg12
g13
(g14
g15
NtRp661
(dp662
g18
I1
sg19
I20
sg20
I75
sg21
I0
sg22
I0
sg23
I51
sg24
I20
sbssg25
S'w\xa4\xc2\x94?\x89\x03\xe0g\xae\xea\x86\x880\xfb\xa8'
p663
ssS'privilege_views_privileges___init__'
p664
(dp665
g6
(dp666
g8
S'privilege_views_privileges___init__.html'
p667
sg10
S'privilege/views/privileges/__init__'
p668
sg12
g13
(g14
g15
NtRp669
(dp670
g18
I1
sg19
I0
sg20
I1
sg21
I0
sg22
I0
sg23
I0
sg24
I0
sbssg25
S']\x14S\xdf\xb4:Tx\xb9\x98\x89\xe7\x01%DZ'
p671
ssS'learn_views_daily_quests___init__'
p672
(dp673
g6
(dp674
g8
S'learn_views_daily_quests___init__.html'
p675
sg10
S'learn/views/daily_quests/__init__'
p676
sg12
g13
(g14
g15
NtRp677
(dp678
g18
I1
sg19
I0
sg20
I4
sg21
I0
sg22
I0
sg23
I0
sg24
I0
sbssg25
S'<\xb7\x9f\x967\xb6\x85\x96\x7frG\x80\x7f\xacB\xb0'
p679
ssS'learn_managers_daily_quests_tests_test_daily_quest_completion_manager'
p680
(dp681
g109
(dp682
g111
S'learn_managers_daily_quests_tests_test_daily_quest_completion_manager.html'
p683
sg113
S'learn/managers/daily_quests/tests/test_daily_quest_completion_manager'
p684
sg115
g13
(g14
g15
NtRp685
(dp686
g18
I1
sg19
I0
sg20
I33
sg21
I0
sg22
I0
sg23
I0
sg24
I0
sbssg118
S'\x8e\x1aq\x1e\x07\xa1\xed\xf8\xf9,m\xe6(d1\xa7'
p687
ssS'teach_views_summaries_class_ranking_view'
p688
(dp689
g6
(dp690
g8
S'teach_views_summaries_class_ranking_view.html'
p691
sg10
S'teach/views/summaries/class_ranking_view'
p692
sg12
g13
(g14
g15
NtRp693
(dp694
g18
I1
sg19
I2
sg20
I17
sg21
I0
sg22
I0
sg23
I8
sg24
I2
sbssg25
S'\xf7\xf8\x7f4\xf6\xe2`\x1d\xaf\xe4(/\xc61\x13\x83'
p695
ssS'teach_views_summaries_tests_test_leaderboard_view'
p696
(dp697
g6
(dp698
g8
S'teach_views_summaries_tests_test_leaderboard_view.html'
p699
sg10
S'teach/views/summaries/tests/test_leaderboard_view'
p700
sg12
g13
(g14
g15
NtRp701
(dp702
g18
I1
sg19
I0
sg20
I7
sg21
I0
sg22
I0
sg23
I1
sg24
I0
sbssg25
S'7\xbd _\xbf\xdc\xe7/\xf9\xdb\x16\xd9&v\xd6S'
p703
ssS'create_managers_tests_test_assigning_daily_quest_manager'
p704
(dp705
g6
(dp706
g8
S'create_managers_tests_test_assigning_daily_quest_manager.html'
p707
sg10
S'create/managers/tests/test_assigning_daily_quest_manager'
p708
sg12
g13
(g14
g15
NtRp709
(dp710
g18
I1
sg19
I0
sg20
I13
sg21
I0
sg22
I0
sg23
I0
sg24
I0
sbssg25
S'?c\xcb\xeb\xab\xb5\xd7\xd9\xec\xd3u\x06d\xbe\x0e\xb2'
p711
ssS'teach_views_daily_quest_templates___init__'
p712
(dp713
g6
(dp714
g8
S'teach_views_daily_quest_templates___init__.html'
p715
sg10
S'teach/views/daily_quest_templates/__init__'
p716
sg12
g13
(g14
g15
NtRp717
(dp718
g18
I1
sg19
I0
sg20
I1
sg21
I0
sg22
I0
sg23
I0
sg24
I0
sbssg25
S'\xc1b\x1f\x95\xabR`C\xe80\xb9tNC\r3'
p719
ssS'learn_managers_daily_quests_tests___init__'
p720
(dp721
g109
(dp722
g111
S'learn_managers_daily_quests_tests___init__.html'
p723
sg113
S'learn/managers/daily_quests/tests/__init__'
p724
sg115
g13
(g14
g15
NtRp725
(dp726
g18
I1
sg19
I0
sg20
I0
sg21
I0
sg22
I0
sg23
I0
sg24
I0
sbssg118
S'\x19g\xdfM\x1a\x019\xaf\x1baIeR\xe5u\xa7'
p727
ssS'create_views_tests_test_question_view'
p728
(dp729
g6
(dp730
g8
S'create_views_tests_test_question_view.html'
p731
sg10
S'create/views/tests/test_question_view'
p732
sg12
g13
(g14
g15
NtRp733
(dp734
g18
I1
sg19
I6
sg20
I25
sg21
I0
sg22
I0
sg23
I6
sg24
I6
sbssg25
S'C.?b\xec\xd3\x8d\x04\x8b\xf4\xd3\xad\xa9^}\x03'
p735
ssS'user_system_views_users___init__'
p736
(dp737
g6
(dp738
g8
S'user_system_views_users___init__.html'
p739
sg10
S'user_system/views/users/__init__'
p740
sg12
g13
(g14
g15
NtRp741
(dp742
g18
I1
sg19
I0
sg20
I7
sg21
I0
sg22
I0
sg23
I0
sg24
I0
sbssg25
S']\x15\xfe\xc7\xefw\x97\xcc\x87v\xa2Z\x9b\xb1\x91\xaf'
p743
ssS'user_system_views_roles_tests___init__'
p744
(dp745
g6
(dp746
g8
S'user_system_views_roles_tests___init__.html'
p747
sg10
S'user_system/views/roles/tests/__init__'
p748
sg12
g13
(g14
g15
NtRp749
(dp750
g18
I1
sg19
I0
sg20
I0
sg21
I0
sg22
I0
sg23
I0
sg24
I0
sbssg25
S'\x19g\xdfM\x1a\x019\xaf\x1baIeR\xe5u\xa7'
p751
ssS'create_views_tags_tests_test_create_tag_view'
p752
(dp753
g6
(dp754
g8
S'create_views_tags_tests_test_create_tag_view.html'
p755
sg10
S'create/views/tags/tests/test_create_tag_view'
p756
sg12
g13
(g14
g15
NtRp757
(dp758
g18
I1
sg19
I0
sg20
I33
sg21
I0
sg22
I0
sg23
I0
sg24
I0
sbssg25
S'\\\x91{\x1a ;Qg\xbd\x81\xe2\xaf\xa41\xac\x1b'
p759
ssS'teach_views_teacher_tags_teacher_tag_view'
p760
(dp761
g6
(dp762
g8
S'teach_views_teacher_tags_teacher_tag_view.html'
p763
sg10
S'teach/views/teacher_tags/teacher_tag_view'
p764
sg12
g13
(g14
g15
NtRp765
(dp766
g18
I1
sg19
I20
sg20
I55
sg21
I0
sg22
I2
sg23
I30
sg24
I18
sbssg25
S'\xd6\xdf\xb7\xf7\xc0\x9b\xae\x8c\x81\x0f\x89C\xb0k\xaf\xd5'
p767
ssS'create_views_books_tests_test_get_book_by_id_view'
p768
(dp769
g6
(dp770
g8
S'create_views_books_tests_test_get_book_by_id_view.html'
p771
sg10
S'create/views/books/tests/test_get_book_by_id_view'
p772
sg12
g13
(g14
g15
NtRp773
(dp774
g18
I1
sg19
I0
sg20
I20
sg21
I0
sg22
I0
sg23
I0
sg24
I0
sbssg25
S'\xc88x\xaf\x84e\xaa6\x17\xdf\x0e\x8c`\xcaAO'
p775
ssS'user_system_views_apps_tests___init__'
p776
(dp777
g6
(dp778
g8
S'user_system_views_apps_tests___init__.html'
p779
sg10
S'user_system/views/apps/tests/__init__'
p780
sg12
g13
(g14
g15
NtRp781
(dp782
g18
I1
sg19
I0
sg20
I0
sg21
I0
sg22
I0
sg23
I0
sg24
I0
sbssg25
S'\x19g\xdfM\x1a\x019\xaf\x1baIeR\xe5u\xa7'
p783
ssS'create_views_quests_tests_test_add_question_view'
p784
(dp785
g6
(dp786
g8
S'create_views_quests_tests_test_add_question_view.html'
p787
sg10
S'create/views/quests/tests/test_add_question_view'
p788
sg12
g13
(g14
g15
NtRp789
(dp790
g18
I1
sg19
I0
sg20
I35
sg21
I0
sg22
I0
sg23
I0
sg24
I0
sbssg25
S'!\xc5U\xa1\x17\x85\xb4\xfb\x1c\xc1\xb3h\xfa\x93\xb7\xf0'
p791
ssS'create_views_books___init__'
p792
(dp793
g6
(dp794
g8
S'create_views_books___init__.html'
p795
sg10
S'create/views/books/__init__'
p796
sg12
g13
(g14
g15
NtRp797
(dp798
g18
I1
sg19
I0
sg20
I3
sg21
I0
sg22
I0
sg23
I0
sg24
I0
sbssg25
S'\xce\x13\xc8S|wF\xe3\x148\xa0?ez,\xc4'
p799
ssS'teach_managers_summaries_class_ranking_manager'
p800
(dp801
g6
(dp802
g111
S'teach_managers_summaries_class_ranking_manager.html'
p803
sg113
S'teach/managers/summaries/class_ranking_manager'
p804
sg115
g13
(g14
g15
NtRp805
(dp806
g18
I1
sg19
I28
sg20
I114
sg21
I0
sg22
I5
sg23
I30
sg24
I11
sbssg25
S'\x8b1V\xab\xf4\xb9C5\xbb&\xe2\x99\xc7\xed\x8a\xa9'
p807
ssS'teach_managers_summaries___init__'
p808
(dp809
g6
(dp810
g8
S'teach_managers_summaries___init__.html'
p811
sg10
S'teach/managers/summaries/__init__'
p812
sg12
g13
(g14
g15
NtRp813
(dp814
g18
I1
sg19
I0
sg20
I2
sg21
I0
sg22
I0
sg23
I0
sg24
I0
sbssg25
S'\x0c/\x90\x17\r\xb7\xb8Q\x0f)d\xf4c\x02\xa1\xdc'
p815
ssS'create_views_tests_test_view'
p816
(dp817
g6
(dp818
g8
S'create_views_tests_test_view.html'
p819
sg10
S'create/views/tests/test_view'
p820
sg12
g13
(g14
g15
NtRp821
(dp822
g18
I1
sg19
I14
sg20
I52
sg21
I0
sg22
I0
sg23
I25
sg24
I14
sbssg25
S'\x86q^I)\xc4\xd1\x11bs\xa3\x18S\xaa\x8b\xdd'
p823
ssS'teach_views___init__'
p824
(dp825
g6
(dp826
g8
S'teach_views___init__.html'
p827
sg10
S'teach/views/__init__'
p828
sg12
g13
(g14
g15
NtRp829
(dp830
g18
I1
sg19
I0
sg20
I4
sg21
I0
sg22
I0
sg23
I0
sg24
I0
sbssg25
S'\xbb\xd5\x19}\x18\xa2M\x81f\xac\xd2>+1\xda@'
p831
ssS'user_system_managers_streak_manager'
p832
(dp833
g6
(dp834
g8
S'user_system_managers_streak_manager.html'
p835
sg10
S'user_system/managers/streak_manager'
p836
sg12
g13
(g14
g15
NtRp837
(dp838
g18
I1
sg19
I30
sg20
I66
sg21
I0
sg22
I2
sg23
I48
sg24
I28
sbssg25
S'9\x9e\xa2\xbd\x80\x8b\xa4\xb3N>\xb8ZsW\xe8\xd0'
p839
ssS'user_system_views_signups_map_demo_signup_view'
p840
(dp841
g6
(dp842
g8
S'user_system_views_signups_map_demo_signup_view.html'
p843
sg10
S'user_system/views/signups/map_demo_signup_view'
p844
sg12
g13
(g14
g15
NtRp845
(dp846
g18
I1
sg19
I18
sg20
I134
sg21
I0
sg22
I0
sg23
I115
sg24
I18
sbssg25
S"\xc8(\xb1Q\xfb\xb0\xdfc\x94\xe2\x99\r\xb4'G["
p847
ssS'teach_views_summaries_student_list_summary'
p848
(dp849
g6
(dp850
g8
S'teach_views_summaries_student_list_summary.html'
p851
sg10
S'teach/views/summaries/student_list_summary'
p852
sg12
g13
(g14
g15
NtRp853
(dp854
g18
I1
sg19
I36
sg20
I97
sg21
I0
sg22
I0
sg23
I77
sg24
I36
sbssg25
S'\xbd\xc1?\xb03$0J \x16\xe0\xb7\xa3\x1f\x92\x81'
p855
ssS'learn_views_student_news_feed_student_news_feed_view'
p856
(dp857
g6
(dp858
g8
S'learn_views_student_news_feed_student_news_feed_view.html'
p859
sg10
S'learn/views/student_news_feed/student_news_feed_view'
p860
sg12
g13
(g14
g15
NtRp861
(dp862
g18
I1
sg19
I14
sg20
I64
sg21
I0
sg22
I0
sg23
I39
sg24
I12
sbssg25
S'G\xa9|~;\x15\x07\x19\xf9\xf2\x04\x9f)i\xdb\x13'
p863
ssS'create_views_quests_tests___init__'
p864
(dp865
g6
(dp866
g8
S'create_views_quests_tests___init__.html'
p867
sg10
S'create/views/quests/tests/__init__'
p868
sg12
g13
(g14
g15
NtRp869
(dp870
g18
I1
sg19
I0
sg20
I0
sg21
I0
sg22
I0
sg23
I0
sg24
I0
sbssg25
S'\x19g\xdfM\x1a\x019\xaf\x1baIeR\xe5u\xa7'
p871
ssS'user_system_views_schools_course_view'
p872
(dp873
g6
(dp874
g8
S'user_system_views_schools_course_view.html'
p875
sg10
S'user_system/views/schools/course_view'
p876
sg12
g13
(g14
g15
NtRp877
(dp878
g18
I1
sg19
I0
sg20
I17
sg21
I0
sg22
I0
sg23
I0
sg24
I0
sbssg25
S'\xd7\xc8\x06z,\xe1\xceN\xa2.OL]\xcd\xb1\x83'
p879
ssS'user_system_views_users_tests_test_delete_user_view'
p880
(dp881
g6
(dp882
g8
S'user_system_views_users_tests_test_delete_user_view.html'
p883
sg10
S'user_system/views/users/tests/test_delete_user_view'
p884
sg12
g13
(g14
g15
NtRp885
(dp886
g18
I1
sg19
I0
sg20
I22
sg21
I0
sg22
I0
sg23
I0
sg24
I0
sbssg25
S'\xe4S$\xa1t\xc6\xbe\xc7\xb9^Y\x05{\x92KQ'
p887
ssS'create_views_books_tests_test_hide_book_view'
p888
(dp889
g6
(dp890
g8
S'create_views_books_tests_test_hide_book_view.html'
p891
sg10
S'create/views/books/tests/test_hide_book_view'
p892
sg12
g13
(g14
g15
NtRp893
(dp894
g18
I1
sg19
I0
sg20
I25
sg21
I0
sg22
I0
sg23
I0
sg24
I0
sbssg25
S'\xe1\x17\x16\xca\x8a\xc5c\x1b\xce\xab\xb8\xf9G\x03\x9dQ'
p895
ssS'user_system_views_batch_processing_update_user_streak_view'
p896
(dp897
g6
(dp898
g8
S'user_system_views_batch_processing_update_user_streak_view.html'
p899
sg10
S'user_system/views/batch_processing/update_user_streak_view'
p900
sg12
g13
(g14
g15
NtRp901
(dp902
g18
I1
sg19
I4
sg20
I25
sg21
I0
sg22
I0
sg23
I0
sg24
I0
sbssg25
S'\xa6k\xedW\xa7\x11(\x87{\x15\x19{\xb8\xb4&\x98'
p903
ssS'create_views_books_tests_test_add_subchapter_view'
p904
(dp905
g6
(dp906
g8
S'create_views_books_tests_test_add_subchapter_view.html'
p907
sg10
S'create/views/books/tests/test_add_subchapter_view'
p908
sg12
g13
(g14
g15
NtRp909
(dp910
g18
I1
sg19
I0
sg20
I60
sg21
I0
sg22
I0
sg23
I0
sg24
I0
sbssg25
S"\xcc^2\xc4\xf2\xb1\xdc\xe8\xf0t\xb6\xcc\x1f\xce\xf1'"
p911
ssS'user_system_views_roles_user_role_view'
p912
(dp913
g6
(dp914
g8
S'user_system_views_roles_user_role_view.html'
p915
sg10
S'user_system/views/roles/user_role_view'
p916
sg12
g13
(g14
g15
NtRp917
(dp918
g18
I1
sg19
I8
sg20
I31
sg21
I0
sg22
I0
sg23
I0
sg24
I0
sbssg25
S'S@\xea\xb7\xd6\xe1\x1b\x1dU\x18a\x9d\x80\xe3A\xb9'
p919
ssS'create_views_questions_tests_test_get_question_list_view'
p920
(dp921
g6
(dp922
g8
S'create_views_questions_tests_test_get_question_list_view.html'
p923
sg10
S'create/views/questions/tests/test_get_question_list_view'
p924
sg12
g13
(g14
g15
NtRp925
(dp926
g18
I1
sg19
I0
sg20
I32
sg21
I0
sg22
I0
sg23
I0
sg24
I0
sbssg25
S'\xa2&\x88;1\\\xa2 \xb4&ejB\xd1%\x06'
p927
ssS'teach_views_teacher_news_feed___init__'
p928
(dp929
g6
(dp930
g8
S'teach_views_teacher_news_feed___init__.html'
p931
sg10
S'teach/views/teacher_news_feed/__init__'
p932
sg12
g13
(g14
g15
NtRp933
(dp934
g18
I1
sg19
I0
sg20
I1
sg21
I0
sg22
I0
sg23
I0
sg24
I0
sbssg25
S'\xe8\xcd\xf3\x9f\xa3=;`\xf0oZ\xcb!\x98\xac\x1c'
p935
ssS'user_system_views_logins___init__'
p936
(dp937
g6
(dp938
g8
S'user_system_views_logins___init__.html'
p939
sg10
S'user_system/views/logins/__init__'
p940
sg12
g13
(g14
g15
NtRp941
(dp942
g18
I1
sg19
I0
sg20
I2
sg21
I0
sg22
I0
sg23
I0
sg24
I0
sbssg25
S'\xa0\xd3\xaas\xc2\xb93+ED.\xe5\xfe\xf2\xad\x87'
p943
ssS'user_system_views_signups_hardcoded_tests_test_test_account_view'
p944
(dp945
g6
(dp946
g8
S'user_system_views_signups_hardcoded_tests_test_test_account_view.html'
p947
sg10
S'user_system/views/signups/hardcoded/tests/test_test_account_view'
p948
sg12
g13
(g14
g15
NtRp949
(dp950
g18
I1
sg19
I0
sg20
I24
sg21
I0
sg22
I0
sg23
I0
sg24
I0
sbssg25
S'@\xc3::\xf8h\x1aT\x9f\x83\xee1\xb7\x9a\xe0\xf9'
p951
ssS'create_views_daily_quest_copies___init__'
p952
(dp953
g6
(dp954
g8
S'create_views_daily_quest_copies___init__.html'
p955
sg10
S'create/views/daily_quest_copies/__init__'
p956
sg12
g13
(g14
g15
NtRp957
(dp958
g18
I1
sg19
I0
sg20
I1
sg21
I0
sg22
I0
sg23
I0
sg24
I0
sbssg25
S"'\xb6_z\x90s\x92\xdd\xc7\xb2\x87d\xba\xe24X"
p959
ssS'create_views_tests___init__'
p960
(dp961
g6
(dp962
g8
S'create_views_tests___init__.html'
p963
sg10
S'create/views/tests/__init__'
p964
sg12
g13
(g14
g15
NtRp965
(dp966
g18
I1
sg19
I0
sg20
I2
sg21
I0
sg22
I0
sg23
I0
sg24
I0
sbssg25
S'\xd5\xdb\x9e\xf0\xb4h\x98\xd4K\x0b\xaf\x16M\x13\xcf\x88'
p967
ssS'create_views_quests_tests_test_hide_quest_view'
p968
(dp969
g6
(dp970
g8
S'create_views_quests_tests_test_hide_quest_view.html'
p971
sg10
S'create/views/quests/tests/test_hide_quest_view'
p972
sg12
g13
(g14
g15
NtRp973
(dp974
g18
I1
sg19
I0
sg20
I26
sg21
I0
sg22
I0
sg23
I0
sg24
I0
sbssg25
S'G\xcb\xcf\xbb~*\xa2i\xd2\xff\x81\x81\xf0)G\xda'
p975
ssS'learn_views_student_news_feed_tests___init__'
p976
(dp977
g6
(dp978
g8
S'learn_views_student_news_feed_tests___init__.html'
p979
sg10
S'learn/views/student_news_feed/tests/__init__'
p980
sg12
g13
(g14
g15
NtRp981
(dp982
g18
I1
sg19
I0
sg20
I0
sg21
I0
sg22
I0
sg23
I0
sg24
I0
sbssg25
S'\x19g\xdfM\x1a\x019\xaf\x1baIeR\xe5u\xa7'
p983
ssS'create_views_books_tests_test_add_tag_to_subchapter_view'
p984
(dp985
g6
(dp986
g8
S'create_views_books_tests_test_add_tag_to_subchapter_view.html'
p987
sg10
S'create/views/books/tests/test_add_tag_to_subchapter_view'
p988
sg12
g13
(g14
g15
NtRp989
(dp990
g18
I1
sg19
I0
sg20
I40
sg21
I0
sg22
I0
sg23
I0
sg24
I0
sbssg25
S'\xb78\xf4p\xcd\xec\xca\xaa\x93\xb9\xda\xa8Yo37'
p991
ssS'create_views_questions_tests_test_get_question_by_id_view'
p992
(dp993
g6
(dp994
g8
S'create_views_questions_tests_test_get_question_by_id_view.html'
p995
sg10
S'create/views/questions/tests/test_get_question_by_id_view'
p996
sg12
g13
(g14
g15
NtRp997
(dp998
g18
I1
sg19
I0
sg20
I24
sg21
I0
sg22
I0
sg23
I0
sg24
I0
sbssg25
S'\xa7[\x91\xa9\xa6\xb4\xbd&n$O^O\xec\xf2X'
p999
ssS'user_system_views_schools_classroom_view'
p1000
(dp1001
g6
(dp1002
g8
S'user_system_views_schools_classroom_view.html'
p1003
sg10
S'user_system/views/schools/classroom_view'
p1004
sg12
g13
(g14
g15
NtRp1005
(dp1006
g18
I1
sg19
I2
sg20
I25
sg21
I0
sg22
I0
sg23
I6
sg24
I2
sbssg25
S'\xc5\x9bb\xc9\x83\xc2\x88\xd8,\x01\xeb\x94.\x8b\xf7\xd6'
p1007
ssS'user_system_views_signups_verify_email_view'
p1008
(dp1009
g6
(dp1010
g8
S'user_system_views_signups_verify_email_view.html'
p1011
sg10
S'user_system/views/signups/verify_email_view'
p1012
sg12
g13
(g14
g15
NtRp1013
(dp1014
g18
I1
sg19
I6
sg20
I26
sg21
I0
sg22
I0
sg23
I0
sg24
I0
sbssg25
S"B+;\xbf\xb1A\x1f\n\x94\x0e\xeb\xd0\xf1Y'l"
p1015
ssS'user_system_views_schools___init__'
p1016
(dp1017
g6
(dp1018
g8
S'user_system_views_schools___init__.html'
p1019
sg10
S'user_system/views/schools/__init__'
p1020
sg12
g13
(g14
g15
NtRp1021
(dp1022
g18
I1
sg19
I0
sg20
I4
sg21
I0
sg22
I0
sg23
I0
sg24
I0
sbssg25
S'\xb7\x05\xb1\x95\xf1V\x04[\x0e\xa0\xf7\x96.@Iw'
p1023
ssS'create_views_quests___init__'
p1024
(dp1025
g6
(dp1026
g8
S'create_views_quests___init__.html'
p1027
sg10
S'create/views/quests/__init__'
p1028
sg12
g13
(g14
g15
NtRp1029
(dp1030
g18
I1
sg19
I0
sg20
I1
sg21
I0
sg22
I0
sg23
I0
sg24
I0
sbssg25
S'\x8d\x97\x8c^6\xf0o\xc3_\x8dRQ}\xd2]a'
p1031
ssS'create_views_books_tests_test_remove_subchapter_view'
p1032
(dp1033
g6
(dp1034
g8
S'create_views_books_tests_test_remove_subchapter_view.html'
p1035
sg10
S'create/views/books/tests/test_remove_subchapter_view'
p1036
sg12
g13
(g14
g15
NtRp1037
(dp1038
g18
I1
sg19
I0
sg20
I44
sg21
I0
sg22
I0
sg23
I0
sg24
I0
sbssg25
S'\x0b\xddi\xaa_d\x8c\xf3b\xa2\x12\xbc\xce\xa5\xbf\x8b'
p1039
ssS'teach_views_campaigns_campaign_view'
p1040
(dp1041
g6
(dp1042
g8
S'teach_views_campaigns_campaign_view.html'
p1043
sg10
S'teach/views/campaigns/campaign_view'
p1044
sg12
g13
(g14
g15
NtRp1045
(dp1046
g18
I1
sg19
I8
sg20
I38
sg21
I0
sg22
I0
sg23
I18
sg24
I8
sbssg25
S'90\xbcHZ\xe7\x8e\xed\x1f\xed%@\xe6P\xe0O'
p1047
ssS'user_system_managers_user_manager'
p1048
(dp1049
g6
(dp1050
g8
S'user_system_managers_user_manager.html'
p1051
sg10
S'user_system/managers/user_manager'
p1052
sg12
g13
(g14
g15
NtRp1053
(dp1054
g18
I1
sg19
I28
sg20
I64
sg21
I0
sg22
I1
sg23
I0
sg24
I1
sbssg25
S'\xb9U\xa3],\xb4\xc8\xd1iE\xf6\x04;\xf0-h'
p1055
ssS'create_views_daily_quest_copies_daily_quest_copy_view'
p1056
(dp1057
g6
(dp1058
g8
S'create_views_daily_quest_copies_daily_quest_copy_view.html'
p1059
sg10
S'create/views/daily_quest_copies/daily_quest_copy_view'
p1060
sg12
g13
(g14
g15
NtRp1061
(dp1062
g18
I1
sg19
I0
sg20
I14
sg21
I0
sg22
I0
sg23
I0
sg24
I0
sbssg25
S'?\x95&\\\xae\xf0@\xfc\x96\xc15\xc9\x13\xf6_R'
p1063
ssS'create_views_questions___init__'
p1064
(dp1065
g6
(dp1066
g8
S'create_views_questions___init__.html'
p1067
sg10
S'create/views/questions/__init__'
p1068
sg12
g13
(g14
g15
NtRp1069
(dp1070
g18
I1
sg19
I0
sg20
I3
sg21
I0
sg22
I0
sg23
I0
sg24
I0
sbssg25
S'h\x154\xc5\xe58\xa8\xc8\xa9\xa6\xbea?\xcf?i'
p1071
ssS'user_system_views_users_create_teacher_view'
p1072
(dp1073
g6
(dp1074
g8
S'user_system_views_users_create_teacher_view.html'
p1075
sg10
S'user_system/views/users/create_teacher_view'
p1076
sg12
g13
(g14
g15
NtRp1077
(dp1078
g18
I1
sg19
I2
sg20
I34
sg21
I0
sg22
I0
sg23
I21
sg24
I2
sbssg25
S'=\xee\xed^jo\xc1\xebz\xedP\xf9\x91n\xec\x8d'
p1079
ssS'learn_views_student_news_feed_tests_test_student_news_feed_view'
p1080
(dp1081
g6
(dp1082
g8
S'learn_views_student_news_feed_tests_test_student_news_feed_view.html'
p1083
sg10
S'learn/views/student_news_feed/tests/test_student_news_feed_view'
p1084
sg12
g13
(g14
g15
NtRp1085
(dp1086
g18
I1
sg19
I2
sg20
I20
sg21
I0
sg22
I0
sg23
I0
sg24
I0
sbssg25
S'$\xe5\xe2\r\x17\x08S\x8f\xb4\xb4\xe6\x19\t\x1e\x7f\xfe'
p1087
ssS'learn_managers___init__'
p1088
(dp1089
g6
(dp1090
g8
S'learn_managers___init__.html'
p1091
sg10
S'learn/managers/__init__'
p1092
sg12
g13
(g14
g15
NtRp1093
(dp1094
g18
I1
sg19
I0
sg20
I0
sg21
I0
sg22
I0
sg23
I0
sg24
I0
sbssg25
S'\x19g\xdfM\x1a\x019\xaf\x1baIeR\xe5u\xa7'
p1095
ssS'teach_views_summaries_daily_quest_daily_summary_view'
p1096
(dp1097
g6
(dp1098
g8
S'teach_views_summaries_daily_quest_daily_summary_view.html'
p1099
sg10
S'teach/views/summaries/daily_quest_daily_summary_view'
p1100
sg12
g13
(g14
g15
NtRp1101
(dp1102
g18
I1
sg19
I12
sg20
I61
sg21
I0
sg22
I0
sg23
I39
sg24
I12
sbssg25
S'\x06\\F.\x8c\xd3M\x8e\xc5\xc9\xd5<\x13V\xd6C'
p1103
ssS'create_views_summary___init__'
p1104
(dp1105
g6
(dp1106
g8
S'create_views_summary___init__.html'
p1107
sg10
S'create/views/summary/__init__'
p1108
sg12
g13
(g14
g15
NtRp1109
(dp1110
g18
I1
sg19
I0
sg20
I1
sg21
I0
sg22
I0
sg23
I0
sg24
I0
sbssg25
S'#\xb7\xbd\xa1M\xe4\xa0\x05\xf5x\x057hU[\xca'
p1111
ssS'user_system_views_batch_processing_tests_test_update_user_streak_view'
p1112
(dp1113
g6
(dp1114
g8
S'user_system_views_batch_processing_tests_test_update_user_streak_view.html'
p1115
sg10
S'user_system/views/batch_processing/tests/test_update_user_streak_view'
p1116
sg12
g13
(g14
g15
NtRp1117
(dp1118
g18
I1
sg19
I4
sg20
I32
sg21
I0
sg22
I0
sg23
I0
sg24
I0
sbssg25
S'\xbd \x8b5\xc6\xac5\x9f\xc4l\r\xd9i\x8f\xbe\x90'
p1119
ssS'user_system_views_signups_hardcoded_test_account_view'
p1120
(dp1121
g6
(dp1122
g8
S'user_system_views_signups_hardcoded_test_account_view.html'
p1123
sg10
S'user_system/views/signups/hardcoded/test_account_view'
p1124
sg12
g13
(g14
g15
NtRp1125
(dp1126
g18
I1
sg19
I2
sg20
I18
sg21
I0
sg22
I0
sg23
I0
sg24
I0
sbssg25
S"\xb4\xf1\xfdH\x8f\xf1QX7'\\\xd3\xab.\xbc\x80"
p1127
ssS'learn_views___init__'
p1128
(dp1129
g6
(dp1130
g8
S'learn_views___init__.html'
p1131
sg10
S'learn/views/__init__'
p1132
sg12
g13
(g14
g15
NtRp1133
(dp1134
g18
I1
sg19
I0
sg20
I2
sg21
I0
sg22
I0
sg23
I0
sg24
I0
sbssg25
S"?\xc0'\xcb\x1c\xf1\xaa\xf0\x9d\xc7\x0e\xf1\xda\x0eU\x17"
p1135
ssS'user_system_views_users_create_student_view'
p1136
(dp1137
g6
(dp1138
g8
S'user_system_views_users_create_student_view.html'
p1139
sg10
S'user_system/views/users/create_student_view'
p1140
sg12
g13
(g14
g15
NtRp1141
(dp1142
g18
I1
sg19
I2
sg20
I37
sg21
I0
sg22
I0
sg23
I24
sg24
I2
sbssg25
S'\x8e\xce\xac\xe9\xe3J4\xbb\x88$\xefFS\x06Ow'
p1143
ssS'create_views_question_datasets___init__'
p1144
(dp1145
g6
(dp1146
g8
S'create_views_question_datasets___init__.html'
p1147
sg10
S'create/views/question_datasets/__init__'
p1148
sg12
g13
(g14
g15
NtRp1149
(dp1150
g18
I1
sg19
I0
sg20
I1
sg21
I0
sg22
I0
sg23
I0
sg24
I0
sbssg25
S'\x87x\xd1\xbe\x15\xd3\xbc\x99\x86\x08\xf8\x06S\xcf\x00\x87'
p1151
ssS'user_system_views_users_user_streak_history_view'
p1152
(dp1153
g6
(dp1154
g8
S'user_system_views_users_user_streak_history_view.html'
p1155
sg10
S'user_system/views/users/user_streak_history_view'
p1156
sg12
g13
(g14
g15
NtRp1157
(dp1158
g18
I1
sg19
I0
sg20
I15
sg21
I0
sg22
I0
sg23
I0
sg24
I0
sbssg25
S'\x82\xa4:\x84\x8dJE7\xc0"\xbb\xceU\xa9\xd6\x07'
p1159
ssS'user_system_views_roles_tests_test_user_role_view'
p1160
(dp1161
g6
(dp1162
g8
S'user_system_views_roles_tests_test_user_role_view.html'
p1163
sg10
S'user_system/views/roles/tests/test_user_role_view'
p1164
sg12
g13
(g14
g15
NtRp1165
(dp1166
g18
I1
sg19
I0
sg20
I41
sg21
I0
sg22
I0
sg23
I0
sg24
I0
sbssg25
S'\xaf \x02-\xd3\xa9\xee\x1e7\x87\xa8[\xd9\xd8V\xd8'
p1167
ssS'user_system_views_signups_hardcoded_tests___init__'
p1168
(dp1169
g6
(dp1170
g8
S'user_system_views_signups_hardcoded_tests___init__.html'
p1171
sg10
S'user_system/views/signups/hardcoded/tests/__init__'
p1172
sg12
g13
(g14
g15
NtRp1173
(dp1174
g18
I1
sg19
I0
sg20
I0
sg21
I0
sg22
I0
sg23
I0
sg24
I0
sbssg25
S'\x19g\xdfM\x1a\x019\xaf\x1baIeR\xe5u\xa7'
p1175
ssS'user_system_views_signups___init__'
p1176
(dp1177
g6
(dp1178
g8
S'user_system_views_signups___init__.html'
p1179
sg10
S'user_system/views/signups/__init__'
p1180
sg12
g13
(g14
g15
NtRp1181
(dp1182
g18
I1
sg19
I0
sg20
I5
sg21
I0
sg22
I0
sg23
I0
sg24
I0
sbssg25
S'\xad\xb5\x1c"8P^k\xe3\xaa\x7fv\xbc\xc9\xc6\x01'
p1183
ssS'create_views_tags_tag_view'
p1184
(dp1185
g6
(dp1186
g8
S'create_views_tags_tag_view.html'
p1187
sg10
S'create/views/tags/tag_view'
p1188
sg12
g13
(g14
g15
NtRp1189
(dp1190
g18
I1
sg19
I32
sg20
I93
sg21
I0
sg22
I4
sg23
I9
sg24
I12
sbssg25
S'\xcfpO\\\xdb"\xc2Q\xb2D\xa7\x93x\xbd\x18a'
p1191
ssS'user_system_views_apps_tests_test_get_apps_list_view'
p1192
(dp1193
g6
(dp1194
g8
S'user_system_views_apps_tests_test_get_apps_list_view.html'
p1195
sg10
S'user_system/views/apps/tests/test_get_apps_list_view'
p1196
sg12
g13
(g14
g15
NtRp1197
(dp1198
g18
I1
sg19
I0
sg20
I18
sg21
I0
sg22
I0
sg23
I0
sg24
I0
sbssg25
S'\x87\xab;"\x01p\xf9\xe5\xa6\xb1\xaej\x8egl\x99'
p1199
ssS'user_system_views___init__'
p1200
(dp1201
g6
(dp1202
g8
S'user_system_views___init__.html'
p1203
sg10
S'user_system/views/__init__'
p1204
sg12
g13
(g14
g15
NtRp1205
(dp1206
g18
I1
sg19
I0
sg20
I6
sg21
I0
sg22
I0
sg23
I0
sg24
I0
sbssg25
S'F\xa0L<\x89\xf6\x17C\x98\xb9\xf9\x9c\x08\xff\x8d\x8a'
p1207
ssS'create_views_books_tests_test_update_book_view'
p1208
(dp1209
g6
(dp1210
g8
S'create_views_books_tests_test_update_book_view.html'
p1211
sg10
S'create/views/books/tests/test_update_book_view'
p1212
sg12
g13
(g14
g15
NtRp1213
(dp1214
g18
I1
sg19
I0
sg20
I25
sg21
I0
sg22
I0
sg23
I0
sg24
I0
sbssg25
S'\xafH\xe5\x82r\xb2\x17\x84b\xfb\x1c\x9a\xf0\x0f\xbd\xf2'
p1215
ssS'user_system_views_users_tests_test_add_role_view'
p1216
(dp1217
g6
(dp1218
g8
S'user_system_views_users_tests_test_add_role_view.html'
p1219
sg10
S'user_system/views/users/tests/test_add_role_view'
p1220
sg12
g13
(g14
g15
NtRp1221
(dp1222
g18
I1
sg19
I0
sg20
I36
sg21
I0
sg22
I0
sg23
I0
sg24
I0
sbssg25
S'\x0eh\xf7\xba\x08_N\xdeM\xdf\x03\xbd\x8c\x8a\x89\xd0'
p1223
ssS'user_system_views_users_user_profile_update_request_view'
p1224
(dp1225
g6
(dp1226
g8
S'user_system_views_users_user_profile_update_request_view.html'
p1227
sg10
S'user_system/views/users/user_profile_update_request_view'
p1228
sg12
g13
(g14
g15
NtRp1229
(dp1230
g18
I1
sg19
I24
sg20
I70
sg21
I0
sg22
I0
sg23
I51
sg24
I24
sbssg25
S"\x04\xfd\x81?\x1e<^\xb0%\xad\xa6'\xcf\xa1\xc3)"
p1231
ssS'learn_views_student_news_feed___init__'
p1232
(dp1233
g6
(dp1234
g8
S'learn_views_student_news_feed___init__.html'
p1235
sg10
S'learn/views/student_news_feed/__init__'
p1236
sg12
g13
(g14
g15
NtRp1237
(dp1238
g18
I1
sg19
I0
sg20
I1
sg21
I0
sg22
I0
sg23
I0
sg24
I0
sbssg25
S'\xc5\x87\xccQ|\xa2\xee\x11p\x84\xfe\xed\xe3W\xfa\x07'
p1239
ssS'create_views_books_tests_test_create_new_book'
p1240
(dp1241
g6
(dp1242
g8
S'create_views_books_tests_test_create_new_book.html'
p1243
sg10
S'create/views/books/tests/test_create_new_book'
p1244
sg12
g13
(g14
g15
NtRp1245
(dp1246
g18
I1
sg19
I0
sg20
I18
sg21
I0
sg22
I0
sg23
I0
sg24
I0
sbssg25
S'\xe3\xaew\xf8\xd7\x8f\xc5 \x85\xc1\xb6I\x82X(-'
p1247
ssS'user_system_views_users_tests_test_remove_role_view'
p1248
(dp1249
g6
(dp1250
g8
S'user_system_views_users_tests_test_remove_role_view.html'
p1251
sg10
S'user_system/views/users/tests/test_remove_role_view'
p1252
sg12
g13
(g14
g15
NtRp1253
(dp1254
g18
I1
sg19
I0
sg20
I42
sg21
I0
sg22
I0
sg23
I0
sg24
I0
sbssg25
S'\xfb\x9b\xa3\xe5\x90\xe7q99\x19\x10"<@L\x8c'
p1255
ssS'api_logging_views_user_activities___init__'
p1256
(dp1257
g6
(dp1258
g8
S'api_logging_views_user_activities___init__.html'
p1259
sg10
S'api_logging/views/user_activities/__init__'
p1260
sg12
g13
(g14
g15
NtRp1261
(dp1262
g18
I1
sg19
I0
sg20
I1
sg21
I0
sg22
I0
sg23
I0
sg24
I0
sbssg25
S'\xbc\x87\xa7&\xe2B=>v\tt\x06,\x1d<['
p1263
ssS'learn_managers_daily_quests___init__'
p1264
(dp1265
g6
(dp1266
g8
S'learn_managers_daily_quests___init__.html'
p1267
sg10
S'learn/managers/daily_quests/__init__'
p1268
sg12
g13
(g14
g15
NtRp1269
(dp1270
g18
I1
sg19
I0
sg20
I0
sg21
I0
sg22
I0
sg23
I0
sg24
I0
sbssg25
S'\x19g\xdfM\x1a\x019\xaf\x1baIeR\xe5u\xa7'
p1271
ssS'learn_views_daily_quests_daily_quest_submission_view'
p1272
(dp1273
g6
(dp1274
g8
S'learn_views_daily_quests_daily_quest_submission_view.html'
p1275
sg10
S'learn/views/daily_quests/daily_quest_submission_view'
p1276
sg12
g13
(g14
g15
NtRp1277
(dp1278
g18
I1
sg19
I30
sg20
I79
sg21
I0
sg22
I0
sg23
I61
sg24
I30
sbssg25
S'\t}\x01u\xd14"\x14\x84\x02\xe9\xc4\xcf(\x08\xa4'
p1279
ssS'teach_views_summaries_tests___init__'
p1280
(dp1281
g6
(dp1282
g8
S'teach_views_summaries_tests___init__.html'
p1283
sg10
S'teach/views/summaries/tests/__init__'
p1284
sg12
g13
(g14
g15
NtRp1285
(dp1286
g18
I1
sg19
I0
sg20
I0
sg21
I0
sg22
I0
sg23
I0
sg24
I0
sbssg25
S'\x19g\xdfM\x1a\x019\xaf\x1baIeR\xe5u\xa7'
p1287
ssS'api_logging_views_user_activities_user_agent_view'
p1288
(dp1289
g6
(dp1290
g8
S'api_logging_views_user_activities_user_agent_view.html'
p1291
sg10
S'api_logging/views/user_activities/user_agent_view'
p1292
sg12
g13
(g14
g15
NtRp1293
(dp1294
g18
I1
sg19
I26
sg20
I68
sg21
I0
sg22
I0
sg23
I50
sg24
I26
sbssg25
S'\xc4\xc5\xa3P\xc7\xa8\xdc\x1b#\x14\xe4\xe7o\x17\xba\x82'
p1295
ssS'teach_views_summaries_daily_quest_summary_view'
p1296
(dp1297
g6
(dp1298
g8
S'teach_views_summaries_daily_quest_summary_view.html'
p1299
sg10
S'teach/views/summaries/daily_quest_summary_view'
p1300
sg12
g13
(g14
g15
NtRp1301
(dp1302
g18
I1
sg19
I28
sg20
I80
sg21
I0
sg22
I0
sg23
I59
sg24
I28
sbssg25
S'\x9fe\xf9\x1c\x8a\xe2\xf4dr\xd6i\xd4\x89\xae\x1b\xf6'
p1303
ssS'user_system_views_users_student_profile_request_view'
p1304
(dp1305
g6
(dp1306
g8
S'user_system_views_users_student_profile_request_view.html'
p1307
sg10
S'user_system/views/users/student_profile_request_view'
p1308
sg12
g13
(g14
g15
NtRp1309
(dp1310
g18
I1
sg19
I0
sg20
I14
sg21
I0
sg22
I0
sg23
I0
sg24
I0
sbssg25
S'\x87:\xd0\xef\x04\xf3-q\r\xe7\xec \xceS\xee<'
p1311
ssS'teach_views_teacher_chapters_teacher_chapter_view'
p1312
(dp1313
g6
(dp1314
g8
S'teach_views_teacher_chapters_teacher_chapter_view.html'
p1315
sg10
S'teach/views/teacher_chapters/teacher_chapter_view'
p1316
sg12
g13
(g14
g15
NtRp1317
(dp1318
g18
I1
sg19
I12
sg20
I44
sg21
I0
sg22
I0
sg23
I25
sg24
I12
sbssg25
S'Z\xc5\n\xdb\xe5!2~7\xe3i\xa7j\xd4\x10\x8c'
p1319
ssS'user_system_views_logins_tests___init__'
p1320
(dp1321
g6
(dp1322
g8
S'user_system_views_logins_tests___init__.html'
p1323
sg10
S'user_system/views/logins/tests/__init__'
p1324
sg12
g13
(g14
g15
NtRp1325
(dp1326
g18
I1
sg19
I0
sg20
I1
sg21
I0
sg22
I0
sg23
I0
sg24
I0
sbssg25
S'\xbc\xd6\xeb\xb3\xba\xcaz\xf7{\xd4B\xb5}l\xdf\x96'
p1327
ssS'create_views_books_book_view'
p1328
(dp1329
g6
(dp1330
g8
S'create_views_books_book_view.html'
p1331
sg10
S'create/views/books/book_view'
p1332
sg12
g13
(g14
g15
NtRp1333
(dp1334
g18
I1
sg19
I34
sg20
I125
sg21
I0
sg22
I2
sg23
I0
sg24
I2
sbssg25
S'\x0e\x85v\xe8\xe85\r\x00\x94\xa2c/G\xdd\x9dE'
p1335
ssS'api_logging_views_modal_loggings___init__'
p1336
(dp1337
g6
(dp1338
g8
S'api_logging_views_modal_loggings___init__.html'
p1339
sg10
S'api_logging/views/modal_loggings/__init__'
p1340
sg12
g13
(g14
g15
NtRp1341
(dp1342
g18
I1
sg19
I0
sg20
I1
sg21
I0
sg22
I0
sg23
I0
sg24
I0
sbssg25
S'\xf1\x0fWK\x0c\x9eD\xe8\x12\xaf\x93\xfa\xd7q\xa8\x91'
p1343
ssS'user_system_views_users_tests_test_get_users_by_signup_type_view'
p1344
(dp1345
g6
(dp1346
g8
S'user_system_views_users_tests_test_get_users_by_signup_type_view.html'
p1347
sg10
S'user_system/views/users/tests/test_get_users_by_signup_type_view'
p1348
sg12
g13
(g14
g15
NtRp1349
(dp1350
g18
I1
sg19
I0
sg20
I44
sg21
I0
sg22
I0
sg23
I0
sg24
I0
sbssg25
S'T/\xf9\xf8\x94\xd6Lm\x89o\xb6\x99/Z\xc1]'
p1351
ssS'create_views_quests_tests_test_add_question_template_view'
p1352
(dp1353
g6
(dp1354
g8
S'create_views_quests_tests_test_add_question_template_view.html'
p1355
sg10
S'create/views/quests/tests/test_add_question_template_view'
p1356
sg12
g13
(g14
g15
NtRp1357
(dp1358
g18
I1
sg19
I0
sg20
I0
sg21
I0
sg22
I0
sg23
I0
sg24
I0
sbssg25
S'\x19g\xdfM\x1a\x019\xaf\x1baIeR\xe5u\xa7'
p1359
ssS'create_views_tags_tests_test_remove_prerequisite_view'
p1360
(dp1361
g6
(dp1362
g8
S'create_views_tags_tests_test_remove_prerequisite_view.html'
p1363
sg10
S'create/views/tags/tests/test_remove_prerequisite_view'
p1364
sg12
g13
(g14
g15
NtRp1365
(dp1366
g18
I1
sg19
I0
sg20
I38
sg21
I0
sg22
I0
sg23
I0
sg24
I0
sbssg25
S'\xb4-c8G7\x8c\x02p\xb3\xc2\x9d}nI\xc6'
p1367
ssS'create_managers_tests___init__'
p1368
(dp1369
g6
(dp1370
g8
S'create_managers_tests___init__.html'
p1371
sg10
S'create/managers/tests/__init__'
p1372
sg12
g13
(g14
g15
NtRp1373
(dp1374
g18
I1
sg19
I0
sg20
I0
sg21
I0
sg22
I0
sg23
I0
sg24
I0
sbssg25
S'\x19g\xdfM\x1a\x019\xaf\x1baIeR\xe5u\xa7'
p1375
ssS'create_views_tags_tests_test_hide_tag_view'
p1376
(dp1377
g6
(dp1378
g8
S'create_views_tags_tests_test_hide_tag_view.html'
p1379
sg10
S'create/views/tags/tests/test_hide_tag_view'
p1380
sg12
g13
(g14
g15
NtRp1381
(dp1382
g18
I1
sg19
I0
sg20
I25
sg21
I0
sg22
I0
sg23
I0
sg24
I0
sbssg25
S'\x8a\x07\xe0\xe1Q\x820\x05R\x14E\xd0\xdf\x8e\xc5\x8a'
p1383
ssS'user_system_managers_tests_test_user_manager'
p1384
(dp1385
g6
(dp1386
g8
S'user_system_managers_tests_test_user_manager.html'
p1387
sg10
S'user_system/managers/tests/test_user_manager'
p1388
sg12
g13
(g14
g15
NtRp1389
(dp1390
g18
I1
sg19
I22
sg20
I99
sg21
I0
sg22
I1
sg23
I0
sg24
I1
sbssg25
S'ns\xdd\x8c\x1c\x1a\x12Q5\x15\x132\x836o\xe1'
p1391
ssS'create_views_books_tests_test_chapters_view'
p1392
(dp1393
g6
(dp1394
g8
S'create_views_books_tests_test_chapters_view.html'
p1395
sg10
S'create/views/books/tests/test_chapters_view'
p1396
sg12
g13
(g14
g15
NtRp1397
(dp1398
g18
I1
sg19
I0
sg20
I24
sg21
I0
sg22
I0
sg23
I0
sg24
I0
sbssg25
S'\x00\xb1\x9d\xc1\x84\x85\x83\x03X\x7fF~y\xed\xe3\xd5'
p1399
ssS'user_system_managers___init__'
p1400
(dp1401
g6
(dp1402
g8
S'user_system_managers___init__.html'
p1403
sg10
S'user_system/managers/__init__'
p1404
sg12
g13
(g14
g15
NtRp1405
(dp1406
g18
I1
sg19
I0
sg20
I2
sg21
I0
sg22
I0
sg23
I0
sg24
I0
sbssg25
S'\xa5\xc9\x8d9\xe4\xb5\xce\xe3R\xccW\x976\xcdI\xa4'
p1407
ssS'user_system_views_signups_tests___init__'
p1408
(dp1409
g6
(dp1410
g8
S'user_system_views_signups_tests___init__.html'
p1411
sg10
S'user_system/views/signups/tests/__init__'
p1412
sg12
g13
(g14
g15
NtRp1413
(dp1414
g18
I1
sg19
I0
sg20
I1
sg21
I0
sg22
I0
sg23
I0
sg24
I0
sbssg25
S'\xbc\xd6\xeb\xb3\xba\xcaz\xf7{\xd4B\xb5}l\xdf\x96'
p1415
ssS'api_logging_views_LoggingView'
p1416
(dp1417
g6
(dp1418
g8
S'api_logging_views_LoggingView.html'
p1419
sg10
S'api_logging/views/LoggingView'
p1420
sg12
g13
(g14
g15
NtRp1421
(dp1422
g18
I1
sg19
I16
sg20
I59
sg21
I0
sg22
I0
sg23
I44
sg24
I16
sbssg25
S'\\Z\xb6\x1d\xfe\xcc\x80\xfe\xfa\xd6\xdc\x19\x85\x87<\xdd'
p1423
ssS'create_views_books_tests___init__'
p1424
(dp1425
g6
(dp1426
g8
S'create_views_books_tests___init__.html'
p1427
sg10
S'create/views/books/tests/__init__'
p1428
sg12
g13
(g14
g15
NtRp1429
(dp1430
g18
I1
sg19
I0
sg20
I0
sg21
I0
sg22
I0
sg23
I0
sg24
I0
sbssg25
S'\x19g\xdfM\x1a\x019\xaf\x1baIeR\xe5u\xa7'
p1431
ssS'user_system_views_users_tests_test_get_user_by_id_view'
p1432
(dp1433
g6
(dp1434
g8
S'user_system_views_users_tests_test_get_user_by_id_view.html'
p1435
sg10
S'user_system/views/users/tests/test_get_user_by_id_view'
p1436
sg12
g13
(g14
g15
NtRp1437
(dp1438
g18
I1
sg19
I0
sg20
I27
sg21
I0
sg22
I0
sg23
I0
sg24
I0
sbssg25
S'\xd7\x7f\x0c\xb9\xda.\xf1\x82\xb4\xdf*z\x10(o)'
p1439
ssS'teach_views_summaries_migrations___init__'
p1440
(dp1441
g6
(dp1442
g8
S'teach_views_summaries_migrations___init__.html'
p1443
sg10
S'teach/views/summaries/migrations/__init__'
p1444
sg12
g13
(g14
g15
NtRp1445
(dp1446
g18
I1
sg19
I0
sg20
I1
sg21
I0
sg22
I0
sg23
I0
sg24
I0
sbssg25
S'\xc3\x93h\xecbZ\x11\xb6]\x83\\\xb8]L\xd2 '
p1447
sssS'version'
p1448
S'3.7.1'
p1449
sS'settings'
p1450
S'+\xf7\x98\xd3\xe8x9\x12:]\x1e\xdc\x9c\xa4T\xb6'
p1451
sS'format'
p1452
I1
s.