(dp1
S'files'
p2
(dp3
S'create_views_quests_tests_test_add_tag_view'
p4
(dp5
S'index'
p6
(dp7
S'html_filename'
p8
S'create_views_quests_tests_test_add_tag_view.html'
p9
sS'name'
p10
S'create/views/quests/tests/test_add_tag_view'
p11
sS'nums'
p12
ccopy_reg
_reconstructor
p13
(ccoverage.results
Numbers
p14
c__builtin__
object
p15
NtRp16
(dp17
S'n_files'
p18
I1
sS'n_branches'
p19
I0
sS'n_statements'
p20
I35
sS'n_excluded'
p21
I0
sS'n_partial_branches'
p22
I0
sS'n_missing'
p23
I0
sS'n_missing_branches'
p24
I0
sbssS'hash'
p25
S'o\xbe\xf1\xf9\x80\xe5|\xbab\xcc\xe2F=\x1e\xacp'
p26
ssS'learn_views_daily_quests_daily_quest_history_date_group_view'
p27
(dp28
g6
(dp29
g8
S'learn_views_daily_quests_daily_quest_history_date_group_view.html'
p30
sg10
S'learn/views/daily_quests/daily_quest_history_date_group_view'
p31
sg12
g13
(g14
g15
NtRp32
(dp33
g18
I1
sg19
I36
sg20
I94
sg21
I0
sg22
I0
sg23
I71
sg24
I36
sbssg25
S'N}\x1am\x00\xe8_\xd4\xa8T\xd2R\xf7l^\xd3'
p34
ssS'api_logging_views_modal_loggings_modal_user_history_view'
p35
(dp36
g6
(dp37
g8
S'api_logging_views_modal_loggings_modal_user_history_view.html'
p38
sg10
S'api_logging/views/modal_loggings/modal_user_history_view'
p39
sg12
g13
(g14
g15
NtRp40
(dp41
g18
I1
sg19
I0
sg20
I12
sg21
I0
sg22
I0
sg23
I0
sg24
I0
sbssg25
S'\xe0g\x1c\xea/\xf3m\xa8\x9d\x1f7\xba\x82w\x88\x9c'
p42
ssS'create_views_quests_tests_test_remove_tag_view'
p43
(dp44
g6
(dp45
g8
S'create_views_quests_tests_test_remove_tag_view.html'
p46
sg10
S'create/views/quests/tests/test_remove_tag_view'
p47
sg12
g13
(g14
g15
NtRp48
(dp49
g18
I1
sg19
I0
sg20
I0
sg21
I0
sg22
I0
sg23
I0
sg24
I0
sbssg25
S'\x19g\xdfM\x1a\x019\xaf\x1baIeR\xe5u\xa7'
p50
ssS'user_system_views_signups_facebook_signup_view'
p51
(dp52
g6
(dp53
g8
S'user_system_views_signups_facebook_signup_view.html'
p54
sg10
S'user_system/views/signups/facebook_signup_view'
p55
sg12
g13
(g14
g15
NtRp56
(dp57
g18
I1
sg19
I8
sg20
I38
sg21
I0
sg22
I0
sg23
I0
sg24
I0
sbssg25
S'\x04E\'\x17r8\x14\xf6 \x98\xb5\xa0sx"@'
p58
ssS'user_system_views_logins_tests_test_email_login_view'
p59
(dp60
g6
(dp61
g8
S'user_system_views_logins_tests_test_email_login_view.html'
p62
sg10
S'user_system/views/logins/tests/test_email_login_view'
p63
sg12
g13
(g14
g15
NtRp64
(dp65
g18
I1
sg19
I0
sg20
I61
sg21
I0
sg22
I0
sg23
I0
sg24
I0
sbssg25
S'\x926\xe8\xcdL\xf3U\xc1C\x1b\x0f\xaf\xf0c\x9b\xd0'
p66
ssS'create_views_books_book_chapter_view'
p67
(dp68
g6
(dp69
g8
S'create_views_books_book_chapter_view.html'
p70
sg10
S'create/views/books/book_chapter_view'
p71
sg12
g13
(g14
g15
NtRp72
(dp73
g18
I1
sg19
I12
sg20
I44
sg21
I0
sg22
I0
sg23
I22
sg24
I12
sbssg25
S'\x0b3\xd8 \xe1\x08#79\x0c\x7f\x1f6\xad0\xe9'
p74
ssS'api_logging_views___init__'
p75
(dp76
g6
(dp77
g8
S'api_logging_views___init__.html'
p78
sg10
S'api_logging/views/__init__'
p79
sg12
g13
(g14
g15
NtRp80
(dp81
g18
I1
sg19
I0
sg20
I5
sg21
I0
sg22
I0
sg23
I0
sg24
I0
sbssg25
S'E\xf0\xc8*y9Q5\x96\xa8]\xdf\x95Zq\xed'
p82
ssS'create_views___init__'
p83
(dp84
g6
(dp85
g8
S'create_views___init__.html'
p86
sg10
S'create/views/__init__'
p87
sg12
g13
(g14
g15
NtRp88
(dp89
g18
I1
sg19
I0
sg20
I7
sg21
I0
sg22
I0
sg23
I0
sg24
I0
sbssg25
S'\x8f\x98\x9b$~\xde\xc2\xfc\x97/\x14^\xe8\xf8\x10M'
p90
ssS'create_views_books_tests_test_remove_chapter_view'
p91
(dp92
g6
(dp93
g8
S'create_views_books_tests_test_remove_chapter_view.html'
p94
sg10
S'create/views/books/tests/test_remove_chapter_view'
p95
sg12
g13
(g14
g15
NtRp96
(dp97
g18
I1
sg19
I0
sg20
I39
sg21
I0
sg22
I0
sg23
I0
sg24
I0
sbssg25
S'lJ\xdc\xbe\xe2>\x9d\xde\xb5+ia5;\x042'
p98
ssS'privilege_views_privileges_user_privilege_view'
p99
(dp100
g6
(dp101
g8
S'privilege_views_privileges_user_privilege_view.html'
p102
sg10
S'privilege/views/privileges/user_privilege_view'
p103
sg12
g13
(g14
g15
NtRp104
(dp105
g18
I1
sg19
I10
sg20
I38
sg21
I0
sg22
I0
sg23
I22
sg24
I10
sbssg25
S'\xf699\xa5A\xca\x9e\x91,l\xf8\x8dI[PR'
p106
ssS'create_views_books_tests_test_add_chapter_view'
p107
(dp108
g6
(dp109
g8
S'create_views_books_tests_test_add_chapter_view.html'
p110
sg10
S'create/views/books/tests/test_add_chapter_view'
p111
sg12
g13
(g14
g15
NtRp112
(dp113
g18
I1
sg19
I0
sg20
I69
sg21
I0
sg22
I0
sg23
I0
sg24
I0
sbssg25
S'\xea\xcd\x81\xff\xe6p74\xe3\xab\xc2R\x1aZ#Y'
p114
ssS'privilege_views___init__'
p115
(dp116
g6
(dp117
g8
S'privilege_views___init__.html'
p118
sg10
S'privilege/views/__init__'
p119
sg12
g13
(g14
g15
NtRp120
(dp121
g18
I1
sg19
I0
sg20
I0
sg21
I0
sg22
I0
sg23
I0
sg24
I0
sbssg25
S'\x19g\xdfM\x1a\x019\xaf\x1baIeR\xe5u\xa7'
p122
ssS'teach_views_teacher_tags_teacher_tag_view'
p123
(dp124
g6
(dp125
g8
S'teach_views_teacher_tags_teacher_tag_view.html'
p126
sg10
S'teach/views/teacher_tags/teacher_tag_view'
p127
sg12
g13
(g14
g15
NtRp128
(dp129
g18
I1
sg19
I20
sg20
I55
sg21
I0
sg22
I2
sg23
I30
sg24
I18
sbssg25
S'\xd6\xdf\xb7\xf7\xc0\x9b\xae\x8c\x81\x0f\x89C\xb0k\xaf\xd5'
p130
ssS'user_system_views_logins_facebook_login_view'
p131
(dp132
g6
(dp133
g8
S'user_system_views_logins_facebook_login_view.html'
p134
sg10
S'user_system/views/logins/facebook_login_view'
p135
sg12
g13
(g14
g15
NtRp136
(dp137
g18
I1
sg19
I4
sg20
I24
sg21
I0
sg22
I0
sg23
I0
sg24
I0
sbssg25
S',\xf8~\x8d\x9b\xfe\xa6wQ5\x92t\x15\xe5\x95\x8d'
p138
ssS'api_logging_views_query_stat___init__'
p139
(dp140
g6
(dp141
g8
S'api_logging_views_query_stat___init__.html'
p142
sg10
S'api_logging/views/query_stat/__init__'
p143
sg12
g13
(g14
g15
NtRp144
(dp145
g18
I1
sg19
I0
sg20
I1
sg21
I0
sg22
I0
sg23
I0
sg24
I0
sbssg25
S'\xbe{\x9f#C\x83\xe9\xa5\xf6B\xf2\xd6\x8a\x0eB\xd0'
p146
ssS'create_views_tags_tests_test_create_tag_view'
p147
(dp148
g6
(dp149
g8
S'create_views_tags_tests_test_create_tag_view.html'
p150
sg10
S'create/views/tags/tests/test_create_tag_view'
p151
sg12
g13
(g14
g15
NtRp152
(dp153
g18
I1
sg19
I0
sg20
I33
sg21
I0
sg22
I0
sg23
I0
sg24
I0
sbssg25
S'\\\x91{\x1a ;Qg\xbd\x81\xe2\xaf\xa41\xac\x1b'
p154
ssS'user_system_views_users_tests___init__'
p155
(dp156
g6
(dp157
g8
S'user_system_views_users_tests___init__.html'
p158
sg10
S'user_system/views/users/tests/__init__'
p159
sg12
g13
(g14
g15
NtRp160
(dp161
g18
I1
sg19
I0
sg20
I0
sg21
I0
sg22
I0
sg23
I0
sg24
I0
sbssg25
S'\x19g\xdfM\x1a\x019\xaf\x1baIeR\xe5u\xa7'
p162
ssS'api_logging_views_summary___init__'
p163
(dp164
g6
(dp165
g8
S'api_logging_views_summary___init__.html'
p166
sg10
S'api_logging/views/summary/__init__'
p167
sg12
g13
(g14
g15
NtRp168
(dp169
g18
I1
sg19
I0
sg20
I1
sg21
I0
sg22
I0
sg23
I0
sg24
I0
sbssg25
S'\x04\x12bh\x96\xc5j\x88dm\x0e\xd7\xe1\x94Lq'
p170
ssS'create_views_questions_tests___init__'
p171
(dp172
g6
(dp173
g8
S'create_views_questions_tests___init__.html'
p174
sg10
S'create/views/questions/tests/__init__'
p175
sg12
g13
(g14
g15
NtRp176
(dp177
g18
I1
sg19
I0
sg20
I0
sg21
I0
sg22
I0
sg23
I0
sg24
I0
sbssg25
S'\x19g\xdfM\x1a\x019\xaf\x1baIeR\xe5u\xa7'
p178
ssS'create_views_books_tests_test_chapters_view'
p179
(dp180
g6
(dp181
g8
S'create_views_books_tests_test_chapters_view.html'
p182
sg10
S'create/views/books/tests/test_chapters_view'
p183
sg12
g13
(g14
g15
NtRp184
(dp185
g18
I1
sg19
I0
sg20
I24
sg21
I0
sg22
I0
sg23
I0
sg24
I0
sbssg25
S'\x00\xb1\x9d\xc1\x84\x85\x83\x03X\x7fF~y\xed\xe3\xd5'
p186
ssS'user_system_views_roles___init__'
p187
(dp188
g6
(dp189
g8
S'user_system_views_roles___init__.html'
p190
sg10
S'user_system/views/roles/__init__'
p191
sg12
g13
(g14
g15
NtRp192
(dp193
g18
I1
sg19
I0
sg20
I1
sg21
I0
sg22
I0
sg23
I0
sg24
I0
sbssg25
S'\xeb\x15\r\x85I\x9e<\xbc\x15\xd1P\xef\x16\x8c\xe0l'
p194
ssS'create_views_tags___init__'
p195
(dp196
g6
(dp197
g8
S'create_views_tags___init__.html'
p198
sg10
S'create/views/tags/__init__'
p199
sg12
g13
(g14
g15
NtRp200
(dp201
g18
I1
sg19
I0
sg20
I1
sg21
I0
sg22
I0
sg23
I0
sg24
I0
sbssg25
S'|r<\xaap\x01\xb1\xbc"\xe5\xbb\xd8\x87\xa5\xd2H'
p202
ssS'user_system_views_signups_hardcoded___init__'
p203
(dp204
g6
(dp205
g8
S'user_system_views_signups_hardcoded___init__.html'
p206
sg10
S'user_system/views/signups/hardcoded/__init__'
p207
sg12
g13
(g14
g15
NtRp208
(dp209
g18
I1
sg19
I0
sg20
I1
sg21
I0
sg22
I0
sg23
I0
sg24
I0
sbssg25
S'?\xfac\x0c\x91\xa4\xd6\xd4\x1d\xe4\x99\xc2[\x83\xfc\xdf'
p210
ssS'learn_views_daily_quests_student_submission_view'
p211
(dp212
g6
(dp213
g8
S'learn_views_daily_quests_student_submission_view.html'
p214
sg10
S'learn/views/daily_quests/student_submission_view'
p215
sg12
g13
(g14
g15
NtRp216
(dp217
g18
I1
sg19
I10
sg20
I39
sg21
I0
sg22
I0
sg23
I22
sg24
I10
sbssg25
S'\xa1\xb8\xa5\x15\xe6;\xce4\xd7\x05\x02\xc5]N\x7f\x91'
p218
ssS'teach_views_summaries___init__'
p219
(dp220
g6
(dp221
g8
S'teach_views_summaries___init__.html'
p222
sg10
S'teach/views/summaries/__init__'
p223
sg12
g13
(g14
g15
NtRp224
(dp225
g18
I1
sg19
I0
sg20
I6
sg21
I0
sg22
I0
sg23
I0
sg24
I0
sbssg25
S'\xf1\xa7@\xae\xc1+T\x8d\tr\xacb\x91s,\xbf'
p226
ssS'create_views_questions_question_history_remark_view'
p227
(dp228
g6
(dp229
g8
S'create_views_questions_question_history_remark_view.html'
p230
sg10
S'create/views/questions/question_history_remark_view'
p231
sg12
g13
(g14
g15
NtRp232
(dp233
g18
I1
sg19
I0
sg20
I14
sg21
I0
sg22
I0
sg23
I0
sg24
I0
sbssg25
S'{4O\x0e\xb3\xad\xc8\xb72\x8f\x1f\x11\xc0\x9e\xa0\xd6'
p234
ssS'user_system_views_apps_tests_test_get_app_by_id_view'
p235
(dp236
g6
(dp237
g8
S'user_system_views_apps_tests_test_get_app_by_id_view.html'
p238
sg10
S'user_system/views/apps/tests/test_get_app_by_id_view'
p239
sg12
g13
(g14
g15
NtRp240
(dp241
g18
I1
sg19
I0
sg20
I17
sg21
I0
sg22
I0
sg23
I0
sg24
I0
sbssg25
S"\xa2\x1eG%r{-~\xc5=\x8aj\x99X!'"
p242
ssS'user_system_views_signups_tests_test_verify_email_view'
p243
(dp244
g6
(dp245
g8
S'user_system_views_signups_tests_test_verify_email_view.html'
p246
sg10
S'user_system/views/signups/tests/test_verify_email_view'
p247
sg12
g13
(g14
g15
NtRp248
(dp249
g18
I1
sg19
I0
sg20
I51
sg21
I0
sg22
I0
sg23
I0
sg24
I0
sbssg25
S'\x81\xacj\x9d\x1f\xa9o\xcc\x1e\xa3\xe59^YT\x9e'
p250
ssS'user_system_views_users_user_view'
p251
(dp252
g6
(dp253
g8
S'user_system_views_users_user_view.html'
p254
sg10
S'user_system/views/users/user_view'
p255
sg12
g13
(g14
g15
NtRp256
(dp257
g18
I1
sg19
I66
sg20
I191
sg21
I0
sg22
I0
sg23
I110
sg24
I44
sbssg25
S'\xc15\x8d)\x8f\xca@r\xd5%m#\x11{\x13\x9b'
p258
ssS'teach_views_campaigns___init__'
p259
(dp260
g6
(dp261
g8
S'teach_views_campaigns___init__.html'
p262
sg10
S'teach/views/campaigns/__init__'
p263
sg12
g13
(g14
g15
NtRp264
(dp265
g18
I1
sg19
I0
sg20
I1
sg21
I0
sg22
I0
sg23
I0
sg24
I0
sbssg25
S'\xdd3^z\xa4\xd5\x95X\x1fk\x83<\xed@\x053'
p266
ssS'user_system_views_apps___init__'
p267
(dp268
g6
(dp269
g8
S'user_system_views_apps___init__.html'
p270
sg10
S'user_system/views/apps/__init__'
p271
sg12
g13
(g14
g15
NtRp272
(dp273
g18
I1
sg19
I0
sg20
I1
sg21
I0
sg22
I0
sg23
I0
sg24
I0
sbssg25
S'?:\xf2A\xfa^]\xc5NR\xc9\x13\xb0\xe4\xfa\x9e'
p274
ssS'user_system_views_users_tests_test_get_users_list_view'
p275
(dp276
g6
(dp277
g8
S'user_system_views_users_tests_test_get_users_list_view.html'
p278
sg10
S'user_system/views/users/tests/test_get_users_list_view'
p279
sg12
g13
(g14
g15
NtRp280
(dp281
g18
I1
sg19
I0
sg20
I34
sg21
I0
sg22
I0
sg23
I0
sg24
I0
sbssg25
S'\xf5\xe3\x1a\x14e\xf8\xc2\xf0\xa8^$\xf7\x9dv\xb8f'
p282
ssS'create_views_books_tests_test_remove_tag_from_subchapter_view'
p283
(dp284
g6
(dp285
g8
S'create_views_books_tests_test_remove_tag_from_subchapter_view.html'
p286
sg10
S'create/views/books/tests/test_remove_tag_from_subchapter_view'
p287
sg12
g13
(g14
g15
NtRp288
(dp289
g18
I1
sg19
I0
sg20
I40
sg21
I0
sg22
I0
sg23
I0
sg24
I0
sbssg25
S"(Vo#\xdd\x9a\xbc\x11\xff\xd6'\xd7\xeb\xca\x1aM"
p290
ssS'teach_views_teacher_news_feed_teacher_news_feed_view'
p291
(dp292
g6
(dp293
g8
S'teach_views_teacher_news_feed_teacher_news_feed_view.html'
p294
sg10
S'teach/views/teacher_news_feed/teacher_news_feed_view'
p295
sg12
g13
(g14
g15
NtRp296
(dp297
g18
I1
sg19
I8
sg20
I60
sg21
I0
sg22
I0
sg23
I38
sg24
I8
sbssg25
S'\n]Y\xde\x93\x8f\xd7O\x05\xcd\x92\x98!=\xcdd'
p298
ssS'user_system_views_apps_app_view'
p299
(dp300
g6
(dp301
g8
S'user_system_views_apps_app_view.html'
p302
sg10
S'user_system/views/apps/app_view'
p303
sg12
g13
(g14
g15
NtRp304
(dp305
g18
I1
sg19
I0
sg20
I13
sg21
I0
sg22
I0
sg23
I0
sg24
I0
sbssg25
S'\xf7n\xffX\xe7\xd2\xb6\xa5\xc5\xe5\x96\x13\xf4\x9c\xac\x1e'
p306
ssS'teach_views_summaries_student_list_summary'
p307
(dp308
g6
(dp309
g8
S'teach_views_summaries_student_list_summary.html'
p310
sg10
S'teach/views/summaries/student_list_summary'
p311
sg12
g13
(g14
g15
NtRp312
(dp313
g18
I1
sg19
I26
sg20
I81
sg21
I0
sg22
I0
sg23
I63
sg24
I26
sbssg25
S'\x17\x86$I\x85\xac/p\xf1\x8b\x14(r\xb5\x82O'
p314
ssS'create_views_questions_tests_test_remove_tag_view'
p315
(dp316
g6
(dp317
g8
S'create_views_questions_tests_test_remove_tag_view.html'
p318
sg10
S'create/views/questions/tests/test_remove_tag_view'
p319
sg12
g13
(g14
g15
NtRp320
(dp321
g18
I1
sg19
I0
sg20
I36
sg21
I0
sg22
I0
sg23
I0
sg24
I0
sbssg25
S'\xbdV1EN\xfe\x8e;\xe4\x92\x91r\xd6Q\x03\x80'
p322
ssS'teach_views_summaries_leaderboard_view'
p323
(dp324
g6
(dp325
g8
S'teach_views_summaries_leaderboard_view.html'
p326
sg10
S'teach/views/summaries/leaderboard_view'
p327
sg12
g13
(g14
g15
NtRp328
(dp329
g18
I1
sg19
I64
sg20
I159
sg21
I0
sg22
I0
sg23
I129
sg24
I64
sbssg25
S'\xc4A\xb6\x15>\xf4\xb1\x89\x13Ef?r\x92\xab\xac'
p330
ssS'create_views_questions_tests_test_add_tag_view'
p331
(dp332
g6
(dp333
g8
S'create_views_questions_tests_test_add_tag_view.html'
p334
sg10
S'create/views/questions/tests/test_add_tag_view'
p335
sg12
g13
(g14
g15
NtRp336
(dp337
g18
I1
sg19
I0
sg20
I35
sg21
I0
sg22
I0
sg23
I0
sg24
I0
sbssg25
S'\x8e\x13\xdd\xbd\xba\r&,-|&W-a`\x7f'
p338
ssS'create_views_quests_quest_view'
p339
(dp340
g6
(dp341
S'html_filename'
p342
S'create_views_quests_quest_view.html'
p343
sS'name'
p344
S'create/views/quests/quest_view'
p345
sS'nums'
p346
g13
(g14
g15
NtRp347
(dp348
g18
I1
sg19
I84
sg20
I252
sg21
I0
sg22
I0
sg23
I178
sg24
I78
sbssg25
S'\x9eT\x7f\x8e\xb7\x03K\x97\xbc\x97\xb8\x96\xd9u\xe6\x98'
p349
ssS'api_logging_views_query_stat_query_stat_view'
p350
(dp351
g6
(dp352
g8
S'api_logging_views_query_stat_query_stat_view.html'
p353
sg10
S'api_logging/views/query_stat/query_stat_view'
p354
sg12
g13
(g14
g15
NtRp355
(dp356
g18
I1
sg19
I2
sg20
I57
sg21
I0
sg22
I0
sg23
I32
sg24
I2
sbssg25
S'\xda\xed\xc2\xc9\xf2\xd0NNT\xb8h\xcd\xc8\x88\x19\xdd'
p357
ssS'user_system_views_schools_school_view'
p358
(dp359
g6
(dp360
g8
S'user_system_views_schools_school_view.html'
p361
sg10
S'user_system/views/schools/school_view'
p362
sg12
g13
(g14
g15
NtRp363
(dp364
g18
I1
sg19
I0
sg20
I16
sg21
I0
sg22
I0
sg23
I0
sg24
I0
sbssg25
S'\xc8\x0b\xef\x9e86\xe5\x19\xaa\x9e\x93+\x03\xfb\x98\x99'
p365
ssS'teach_views_teacher_chapters___init__'
p366
(dp367
g6
(dp368
g8
S'teach_views_teacher_chapters___init__.html'
p369
sg10
S'teach/views/teacher_chapters/__init__'
p370
sg12
g13
(g14
g15
NtRp371
(dp372
g18
I1
sg19
I0
sg20
I1
sg21
I0
sg22
I0
sg23
I0
sg24
I0
sbssg25
S'\x10AP\xc9\nC\xd2REz\xf6\xe5\xd2(\xee`'
p373
ssS'user_system_views_batch_processing___init__'
p374
(dp375
g6
(dp376
g8
S'user_system_views_batch_processing___init__.html'
p377
sg10
S'user_system/views/batch_processing/__init__'
p378
sg12
g13
(g14
g15
NtRp379
(dp380
g18
I1
sg19
I0
sg20
I1
sg21
I0
sg22
I0
sg23
I0
sg24
I0
sbssg25
S'\x11\xaa\xa5O\xecz\xb9\x06\xf9\x1bZ\xd3\xf3\x8bm]'
p381
ssS'user_system_views_logins_tests_test_facebook_login_view'
p382
(dp383
g6
(dp384
g8
S'user_system_views_logins_tests_test_facebook_login_view.html'
p385
sg10
S'user_system/views/logins/tests/test_facebook_login_view'
p386
sg12
g13
(g14
g15
NtRp387
(dp388
g18
I1
sg19
I0
sg20
I51
sg21
I0
sg22
I0
sg23
I0
sg24
I0
sbssg25
S'\x8eg\xfbA\xbdf+\x81\xe9\x8a\x16\x82\xe9\xe3\xc0\xf4'
p389
ssS'user_system_views_signups_tests_test_email_signup_view'
p390
(dp391
g6
(dp392
g8
S'user_system_views_signups_tests_test_email_signup_view.html'
p393
sg10
S'user_system/views/signups/tests/test_email_signup_view'
p394
sg12
g13
(g14
g15
NtRp395
(dp396
g18
I1
sg19
I0
sg20
I51
sg21
I0
sg22
I0
sg23
I0
sg24
I0
sbssg25
S'\xa3\xb2\xaf-\x99\xe3]\xcc\xe6\x8b\xeb\xf63=I\xb4'
p397
ssS'user_system_views_users_teacher_mapping_view'
p398
(dp399
g6
(dp400
g8
S'user_system_views_users_teacher_mapping_view.html'
p401
sg10
S'user_system/views/users/teacher_mapping_view'
p402
sg12
g13
(g14
g15
NtRp403
(dp404
g18
I1
sg19
I0
sg20
I14
sg21
I0
sg22
I0
sg23
I0
sg24
I0
sbssg25
S'B\x04t\x93Z\x86Q.\x17\xf9\xa0*\xf6\x86\xcf\x10'
p405
ssS'create_views_tags_tests_test_search_tag_view'
p406
(dp407
g6
(dp408
g8
S'create_views_tags_tests_test_search_tag_view.html'
p409
sg10
S'create/views/tags/tests/test_search_tag_view'
p410
sg12
g13
(g14
g15
NtRp411
(dp412
g18
I1
sg19
I0
sg20
I28
sg21
I0
sg22
I0
sg23
I0
sg24
I0
sbssg25
S'\xbc\x80\xceQ\xf1\xc5\xfa\xd5\xf1/g\x12l*,\x1c'
p413
ssS'user_system_views_schools_grade_view'
p414
(dp415
g6
(dp416
g8
S'user_system_views_schools_grade_view.html'
p417
sg10
S'user_system/views/schools/grade_view'
p418
sg12
g13
(g14
g15
NtRp419
(dp420
g18
I1
sg19
I0
sg20
I16
sg21
I0
sg22
I0
sg23
I0
sg24
I0
sbssg25
S'_i&b\x01\x08$\xe7\xbe\nW\x92\x80\x97\xf1Q'
p421
ssS'user_system_views_signups_email_signup_view'
p422
(dp423
g6
(dp424
g8
S'user_system_views_signups_email_signup_view.html'
p425
sg10
S'user_system/views/signups/email_signup_view'
p426
sg12
g13
(g14
g15
NtRp427
(dp428
g18
I1
sg19
I8
sg20
I44
sg21
I0
sg22
I0
sg23
I0
sg24
I0
sbssg25
S'&G\xd1\xc4{\x9b\xbf\x14\x92F\xbe\x13\xeer\x84\x1b'
p429
ssS'teach_views_teacher_tags___init__'
p430
(dp431
g6
(dp432
g8
S'teach_views_teacher_tags___init__.html'
p433
sg10
S'teach/views/teacher_tags/__init__'
p434
sg12
g13
(g14
g15
NtRp435
(dp436
g18
I1
sg19
I0
sg20
I1
sg21
I0
sg22
I0
sg23
I0
sg24
I0
sbssg25
S'cp\x00\xdc\x00\xe5M\x9f\x1f\xaa\xb2Y\xd9%\x1d"'
p437
ssS'create_views_books_book_subchapter_view'
p438
(dp439
g6
(dp440
g8
S'create_views_books_book_subchapter_view.html'
p441
sg10
S'create/views/books/book_subchapter_view'
p442
sg12
g13
(g14
g15
NtRp443
(dp444
g18
I1
sg19
I8
sg20
I46
sg21
I0
sg22
I0
sg23
I0
sg24
I0
sbssg25
S'\x0e\xa6\x19V\xf0\xf3;\xa2\x8d \xd8i\xb7*D\x87'
p445
ssS'create_views_questions_tests_test_hide_question_view'
p446
(dp447
g6
(dp448
g8
S'create_views_questions_tests_test_hide_question_view.html'
p449
sg10
S'create/views/questions/tests/test_hide_question_view'
p450
sg12
g13
(g14
g15
NtRp451
(dp452
g18
I1
sg19
I0
sg20
I30
sg21
I0
sg22
I0
sg23
I0
sg24
I0
sbssg25
S'\xb3\x10S\x8a\x9b\xecw\xaa\xd3\x81\x1b\xf2\xab\xb2QG'
p453
ssS'create_views_questions_question_template_view'
p454
(dp455
g6
(dp456
g8
S'create_views_questions_question_template_view.html'
p457
sg10
S'create/views/questions/question_template_view'
p458
sg12
g13
(g14
g15
NtRp459
(dp460
g18
I1
sg19
I40
sg20
I115
sg21
I0
sg22
I0
sg23
I86
sg24
I40
sbssg25
S'\x15\xd2EN\xe9c\xe5\x17\xc5Fh\x02\x1a\xd3\xc4*'
p461
ssS'user_system_views_logins_email_login_view'
p462
(dp463
g6
(dp464
g8
S'user_system_views_logins_email_login_view.html'
p465
sg10
S'user_system/views/logins/email_login_view'
p466
sg12
g13
(g14
g15
NtRp467
(dp468
g18
I1
sg19
I8
sg20
I35
sg21
I0
sg22
I0
sg23
I0
sg24
I0
sbssg25
S'\x9e\xe3\x8e\xf9o\x8aYC\xa2\xcb\xe7\xbd\x94\xe1O\x1a'
p469
ssS'user_system_views_signups_tests_test_facebook_signup_view'
p470
(dp471
g6
(dp472
g8
S'user_system_views_signups_tests_test_facebook_signup_view.html'
p473
sg10
S'user_system/views/signups/tests/test_facebook_signup_view'
p474
sg12
g13
(g14
g15
NtRp475
(dp476
g18
I1
sg19
I0
sg20
I60
sg21
I0
sg22
I0
sg23
I0
sg24
I0
sbssg25
S'\x93<\xc8]\x14\t\xa8/\xdd\xd1\xa4]\xfbp!\xbd'
p477
ssS'create_views_question_datasets_question_dataset_view'
p478
(dp479
g6
(dp480
g8
S'create_views_question_datasets_question_dataset_view.html'
p481
sg10
S'create/views/question_datasets/question_dataset_view'
p482
sg12
g13
(g14
g15
NtRp483
(dp484
g18
I1
sg19
I4
sg20
I20
sg21
I0
sg22
I0
sg23
I5
sg24
I4
sbssg25
S'\x01\xfb\xf2\x86m\xd4\xf9\xc3\xe6\xb6\x11\x96u;\x1ez'
p485
ssS'create_views_quests_tests_test_remove_question_template_view'
p486
(dp487
g6
(dp488
g8
S'create_views_quests_tests_test_remove_question_template_view.html'
p489
sg10
S'create/views/quests/tests/test_remove_question_template_view'
p490
sg12
g13
(g14
g15
NtRp491
(dp492
g18
I1
sg19
I0
sg20
I0
sg21
I0
sg22
I0
sg23
I0
sg24
I0
sbssg25
S'\x19g\xdfM\x1a\x019\xaf\x1baIeR\xe5u\xa7'
p493
ssS'create_views_summary_create_summary_view'
p494
(dp495
g6
(dp496
g8
S'create_views_summary_create_summary_view.html'
p497
sg10
S'create/views/summary/create_summary_view'
p498
sg12
g13
(g14
g15
NtRp499
(dp500
g18
I1
sg19
I0
sg20
I59
sg21
I0
sg22
I0
sg23
I48
sg24
I0
sbssg25
S"'\xfe\xf4\x8c\xed2\xc3\x18\xf6\x85\x1f\xb0\xf0G\xb7\x8f"
p501
ssS'create_views_books_tests_test_get_books_list_view'
p502
(dp503
g6
(dp504
g8
S'create_views_books_tests_test_get_books_list_view.html'
p505
sg10
S'create/views/books/tests/test_get_books_list_view'
p506
sg12
g13
(g14
g15
NtRp507
(dp508
g18
I1
sg19
I0
sg20
I21
sg21
I0
sg22
I0
sg23
I0
sg24
I0
sbssg25
S'\x16\x8f\xf1\x81>\x0f\xb4S\x19\xff\xcd\xc1Y\xe9;\x98'
p509
ssS'api_logging_views_summary_user_activity_summary_view'
p510
(dp511
g6
(dp512
g8
S'api_logging_views_summary_user_activity_summary_view.html'
p513
sg10
S'api_logging/views/summary/user_activity_summary_view'
p514
sg12
g13
(g14
g15
NtRp515
(dp516
g18
I1
sg19
I8
sg20
I27
sg21
I0
sg22
I0
sg23
I13
sg24
I8
sbssg25
S'\x99\xfc\\\x0e\x10\x840(\x94\xd3(k\x9f\xb4\xd9M'
p517
ssS'create_views_tags_tests_test_get_tags_list_view'
p518
(dp519
g6
(dp520
g8
S'create_views_tags_tests_test_get_tags_list_view.html'
p521
sg10
S'create/views/tags/tests/test_get_tags_list_view'
p522
sg12
g13
(g14
g15
NtRp523
(dp524
g18
I1
sg19
I0
sg20
I21
sg21
I0
sg22
I0
sg23
I0
sg24
I0
sbssg25
S'F\xf6yk?\xb2\xc12\x93\x8b\xe6Bx\xa09\x89'
p525
ssS'learn_views_daily_quests_daily_quest_view'
p526
(dp527
g6
(dp528
g8
S'learn_views_daily_quests_daily_quest_view.html'
p529
sg10
S'learn/views/daily_quests/daily_quest_view'
p530
sg12
g13
(g14
g15
NtRp531
(dp532
g18
I1
sg19
I16
sg20
I61
sg21
I0
sg22
I0
sg23
I40
sg24
I16
sbssg25
S'\xceiA\x93\xcd>Y\x85L\x07Oz\x9aw\xae;'
p533
ssS'privilege_views_privileges___init__'
p534
(dp535
g6
(dp536
g8
S'privilege_views_privileges___init__.html'
p537
sg10
S'privilege/views/privileges/__init__'
p538
sg12
g13
(g14
g15
NtRp539
(dp540
g18
I1
sg19
I0
sg20
I1
sg21
I0
sg22
I0
sg23
I0
sg24
I0
sbssg25
S']\x14S\xdf\xb4:Tx\xb9\x98\x89\xe7\x01%DZ'
p541
ssS'teach_views_summaries_class_ranking_view'
p542
(dp543
g6
(dp544
g8
S'teach_views_summaries_class_ranking_view.html'
p545
sg10
S'teach/views/summaries/class_ranking_view'
p546
sg12
g13
(g14
g15
NtRp547
(dp548
g18
I1
sg19
I18
sg20
I78
sg21
I0
sg22
I0
sg23
I55
sg24
I18
sbssg25
S'\x86\xe0\x0e\x1e\xa5A\x94Fv\xfb-|]\x1aq\x7f'
p549
ssS'user_system_views_users_tests_test_get_users_by_signup_type_view'
p550
(dp551
g6
(dp552
g8
S'user_system_views_users_tests_test_get_users_by_signup_type_view.html'
p553
sg10
S'user_system/views/users/tests/test_get_users_by_signup_type_view'
p554
sg12
g13
(g14
g15
NtRp555
(dp556
g18
I1
sg19
I0
sg20
I44
sg21
I0
sg22
I0
sg23
I0
sg24
I0
sbssg25
S'T/\xf9\xf8\x94\xd6Lm\x89o\xb6\x99/Z\xc1]'
p557
ssS'user_system_views_users_tests_test_add_role_view'
p558
(dp559
g6
(dp560
g8
S'user_system_views_users_tests_test_add_role_view.html'
p561
sg10
S'user_system/views/users/tests/test_add_role_view'
p562
sg12
g13
(g14
g15
NtRp563
(dp564
g18
I1
sg19
I0
sg20
I36
sg21
I0
sg22
I0
sg23
I0
sg24
I0
sbssg25
S'\x0eh\xf7\xba\x08_N\xdeM\xdf\x03\xbd\x8c\x8a\x89\xd0'
p565
ssS'user_system_views_users_tests_test_get_user_by_id_view'
p566
(dp567
g6
(dp568
g8
S'user_system_views_users_tests_test_get_user_by_id_view.html'
p569
sg10
S'user_system/views/users/tests/test_get_user_by_id_view'
p570
sg12
g13
(g14
g15
NtRp571
(dp572
g18
I1
sg19
I0
sg20
I27
sg21
I0
sg22
I0
sg23
I0
sg24
I0
sbssg25
S'\xd7\x7f\x0c\xb9\xda.\xf1\x82\xb4\xdf*z\x10(o)'
p573
ssS'teach_views_daily_quest_templates___init__'
p574
(dp575
g6
(dp576
g8
S'teach_views_daily_quest_templates___init__.html'
p577
sg10
S'teach/views/daily_quest_templates/__init__'
p578
sg12
g13
(g14
g15
NtRp579
(dp580
g18
I1
sg19
I0
sg20
I1
sg21
I0
sg22
I0
sg23
I0
sg24
I0
sbssg25
S'\xc1b\x1f\x95\xabR`C\xe80\xb9tNC\r3'
p581
ssS'create_views_tags_tests___init__'
p582
(dp583
g6
(dp584
g8
S'create_views_tags_tests___init__.html'
p585
sg10
S'create/views/tags/tests/__init__'
p586
sg12
g13
(g14
g15
NtRp587
(dp588
g18
I1
sg19
I0
sg20
I0
sg21
I0
sg22
I0
sg23
I0
sg24
I0
sbssg25
S'\x19g\xdfM\x1a\x019\xaf\x1baIeR\xe5u\xa7'
p589
ssS'user_system_views___init__'
p590
(dp591
g6
(dp592
g8
S'user_system_views___init__.html'
p593
sg10
S'user_system/views/__init__'
p594
sg12
g13
(g14
g15
NtRp595
(dp596
g18
I1
sg19
I0
sg20
I6
sg21
I0
sg22
I0
sg23
I0
sg24
I0
sbssg25
S'F\xa0L<\x89\xf6\x17C\x98\xb9\xf9\x9c\x08\xff\x8d\x8a'
p597
ssS'user_system_views_users___init__'
p598
(dp599
g6
(dp600
g8
S'user_system_views_users___init__.html'
p601
sg10
S'user_system/views/users/__init__'
p602
sg12
g13
(g14
g15
NtRp603
(dp604
g18
I1
sg19
I0
sg20
I7
sg21
I0
sg22
I0
sg23
I0
sg24
I0
sbssg25
S']\x15\xfe\xc7\xefw\x97\xcc\x87v\xa2Z\x9b\xb1\x91\xaf'
p605
ssS'user_system_views_roles_tests___init__'
p606
(dp607
g6
(dp608
g8
S'user_system_views_roles_tests___init__.html'
p609
sg10
S'user_system/views/roles/tests/__init__'
p610
sg12
g13
(g14
g15
NtRp611
(dp612
g18
I1
sg19
I0
sg20
I0
sg21
I0
sg22
I0
sg23
I0
sg24
I0
sbssg25
S'\x19g\xdfM\x1a\x019\xaf\x1baIeR\xe5u\xa7'
p613
ssS'create_views_questions_question_view'
p614
(dp615
g6
(dp616
g8
S'create_views_questions_question_view.html'
p617
sg10
S'create/views/questions/question_view'
p618
sg12
g13
(g14
g15
NtRp619
(dp620
g18
I1
sg19
I34
sg20
I113
sg21
I0
sg22
I1
sg23
I40
sg24
I21
sbssg25
S'x\x1b\xf3\x9b\x13Z\xdalU\x8bJ\x89\xb3qc\x8d'
p621
ssS'teach_views_daily_quest_templates_daily_quest_template_view'
p622
(dp623
g6
(dp624
g8
S'teach_views_daily_quest_templates_daily_quest_template_view.html'
p625
sg10
S'teach/views/daily_quest_templates/daily_quest_template_view'
p626
sg12
g13
(g14
g15
NtRp627
(dp628
g18
I1
sg19
I18
sg20
I54
sg21
I0
sg22
I0
sg23
I33
sg24
I18
sbssg25
S'\x97J\xccM\x9b\xcd1\xaf\x95\xea\xd8\x8d\xdc(\x89['
p629
ssS'create_views_books_tests_test_get_book_by_id_view'
p630
(dp631
g6
(dp632
g8
S'create_views_books_tests_test_get_book_by_id_view.html'
p633
sg10
S'create/views/books/tests/test_get_book_by_id_view'
p634
sg12
g13
(g14
g15
NtRp635
(dp636
g18
I1
sg19
I0
sg20
I20
sg21
I0
sg22
I0
sg23
I0
sg24
I0
sbssg25
S'\xc88x\xaf\x84e\xaa6\x17\xdf\x0e\x8c`\xcaAO'
p637
ssS'user_system_views_apps_tests___init__'
p638
(dp639
g6
(dp640
g8
S'user_system_views_apps_tests___init__.html'
p641
sg10
S'user_system/views/apps/tests/__init__'
p642
sg12
g13
(g14
g15
NtRp643
(dp644
g18
I1
sg19
I0
sg20
I0
sg21
I0
sg22
I0
sg23
I0
sg24
I0
sbssg25
S'\x19g\xdfM\x1a\x019\xaf\x1baIeR\xe5u\xa7'
p645
ssS'create_views_quests_tests_test_add_question_view'
p646
(dp647
g6
(dp648
g8
S'create_views_quests_tests_test_add_question_view.html'
p649
sg10
S'create/views/quests/tests/test_add_question_view'
p650
sg12
g13
(g14
g15
NtRp651
(dp652
g18
I1
sg19
I0
sg20
I0
sg21
I0
sg22
I0
sg23
I0
sg24
I0
sbssg25
S'\x19g\xdfM\x1a\x019\xaf\x1baIeR\xe5u\xa7'
p653
ssS'create_views_books___init__'
p654
(dp655
g6
(dp656
g8
S'create_views_books___init__.html'
p657
sg10
S'create/views/books/__init__'
p658
sg12
g13
(g14
g15
NtRp659
(dp660
g18
I1
sg19
I0
sg20
I3
sg21
I0
sg22
I0
sg23
I0
sg24
I0
sbssg25
S'\xce\x13\xc8S|wF\xe3\x148\xa0?ez,\xc4'
p661
ssS'teach_views___init__'
p662
(dp663
g6
(dp664
g8
S'teach_views___init__.html'
p665
sg10
S'teach/views/__init__'
p666
sg12
g13
(g14
g15
NtRp667
(dp668
g18
I1
sg19
I0
sg20
I4
sg21
I0
sg22
I0
sg23
I0
sg24
I0
sbssg25
S'\xbb\xd5\x19}\x18\xa2M\x81f\xac\xd2>+1\xda@'
p669
ssS'user_system_views_logins_tests___init__'
p670
(dp671
g6
(dp672
g8
S'user_system_views_logins_tests___init__.html'
p673
sg10
S'user_system/views/logins/tests/__init__'
p674
sg12
g13
(g14
g15
NtRp675
(dp676
g18
I1
sg19
I0
sg20
I1
sg21
I0
sg22
I0
sg23
I0
sg24
I0
sbssg25
S'\xbc\xd6\xeb\xb3\xba\xcaz\xf7{\xd4B\xb5}l\xdf\x96'
p677
ssS'user_system_views_signups_map_demo_signup_view'
p678
(dp679
g6
(dp680
g8
S'user_system_views_signups_map_demo_signup_view.html'
p681
sg10
S'user_system/views/signups/map_demo_signup_view'
p682
sg12
g13
(g14
g15
NtRp683
(dp684
g18
I1
sg19
I18
sg20
I134
sg21
I0
sg22
I0
sg23
I115
sg24
I18
sbssg25
S"\xc8(\xb1Q\xfb\xb0\xdfc\x94\xe2\x99\r\xb4'G["
p685
ssS'learn_views_student_news_feed_student_news_feed_view'
p686
(dp687
g6
(dp688
g8
S'learn_views_student_news_feed_student_news_feed_view.html'
p689
sg10
S'learn/views/student_news_feed/student_news_feed_view'
p690
sg12
g13
(g14
g15
NtRp691
(dp692
g18
I1
sg19
I14
sg20
I64
sg21
I0
sg22
I0
sg23
I43
sg24
I14
sbssg25
S'$\x9f\xf4\xd0\x91\x0e\xf7\xe7\xb3\x8b\x1f\x87S:\xa0\xec'
p693
ssS'create_views_quests_tests___init__'
p694
(dp695
g6
(dp696
g8
S'create_views_quests_tests___init__.html'
p697
sg10
S'create/views/quests/tests/__init__'
p698
sg12
g13
(g14
g15
NtRp699
(dp700
g18
I1
sg19
I0
sg20
I0
sg21
I0
sg22
I0
sg23
I0
sg24
I0
sbssg25
S'\x19g\xdfM\x1a\x019\xaf\x1baIeR\xe5u\xa7'
p701
ssS'user_system_views_schools_course_view'
p702
(dp703
g6
(dp704
g8
S'user_system_views_schools_course_view.html'
p705
sg10
S'user_system/views/schools/course_view'
p706
sg12
g13
(g14
g15
NtRp707
(dp708
g18
I1
sg19
I0
sg20
I17
sg21
I0
sg22
I0
sg23
I0
sg24
I0
sbssg25
S'\xd7\xc8\x06z,\xe1\xceN\xa2.OL]\xcd\xb1\x83'
p709
ssS'user_system_views_users_tests_test_delete_user_view'
p710
(dp711
g6
(dp712
g8
S'user_system_views_users_tests_test_delete_user_view.html'
p713
sg10
S'user_system/views/users/tests/test_delete_user_view'
p714
sg12
g13
(g14
g15
NtRp715
(dp716
g18
I1
sg19
I0
sg20
I22
sg21
I0
sg22
I0
sg23
I0
sg24
I0
sbssg25
S'\xe4S$\xa1t\xc6\xbe\xc7\xb9^Y\x05{\x92KQ'
p717
ssS'create_views_books_tests_test_hide_book_view'
p718
(dp719
g6
(dp720
g8
S'create_views_books_tests_test_hide_book_view.html'
p721
sg10
S'create/views/books/tests/test_hide_book_view'
p722
sg12
g13
(g14
g15
NtRp723
(dp724
g18
I1
sg19
I0
sg20
I25
sg21
I0
sg22
I0
sg23
I0
sg24
I0
sbssg25
S'\xe1\x17\x16\xca\x8a\xc5c\x1b\xce\xab\xb8\xf9G\x03\x9dQ'
p725
ssS'user_system_views_batch_processing_update_user_streak_view'
p726
(dp727
g6
(dp728
g8
S'user_system_views_batch_processing_update_user_streak_view.html'
p729
sg10
S'user_system/views/batch_processing/update_user_streak_view'
p730
sg12
g13
(g14
g15
NtRp731
(dp732
g18
I1
sg19
I4
sg20
I26
sg21
I0
sg22
I0
sg23
I13
sg24
I4
sbssg25
S'\x0c\xa4\xfc<-\xca\x06\xe7\x99B\xd5\x0bFC\x94c'
p733
ssS'create_views_books_tests_test_add_subchapter_view'
p734
(dp735
g6
(dp736
g8
S'create_views_books_tests_test_add_subchapter_view.html'
p737
sg10
S'create/views/books/tests/test_add_subchapter_view'
p738
sg12
g13
(g14
g15
NtRp739
(dp740
g18
I1
sg19
I0
sg20
I60
sg21
I0
sg22
I0
sg23
I0
sg24
I0
sbssg25
S"\xcc^2\xc4\xf2\xb1\xdc\xe8\xf0t\xb6\xcc\x1f\xce\xf1'"
p741
ssS'user_system_views_roles_user_role_view'
p742
(dp743
g6
(dp744
g8
S'user_system_views_roles_user_role_view.html'
p745
sg10
S'user_system/views/roles/user_role_view'
p746
sg12
g13
(g14
g15
NtRp747
(dp748
g18
I1
sg19
I8
sg20
I31
sg21
I0
sg22
I0
sg23
I0
sg24
I0
sbssg25
S'S@\xea\xb7\xd6\xe1\x1b\x1dU\x18a\x9d\x80\xe3A\xb9'
p749
ssS'create_views_questions_tests_test_get_question_list_view'
p750
(dp751
g6
(dp752
g8
S'create_views_questions_tests_test_get_question_list_view.html'
p753
sg10
S'create/views/questions/tests/test_get_question_list_view'
p754
sg12
g13
(g14
g15
NtRp755
(dp756
g18
I1
sg19
I0
sg20
I32
sg21
I0
sg22
I0
sg23
I0
sg24
I0
sbssg25
S'\xa2&\x88;1\\\xa2 \xb4&ejB\xd1%\x06'
p757
ssS'teach_views_teacher_news_feed___init__'
p758
(dp759
g6
(dp760
g8
S'teach_views_teacher_news_feed___init__.html'
p761
sg10
S'teach/views/teacher_news_feed/__init__'
p762
sg12
g13
(g14
g15
NtRp763
(dp764
g18
I1
sg19
I0
sg20
I1
sg21
I0
sg22
I0
sg23
I0
sg24
I0
sbssg25
S'\xe8\xcd\xf3\x9f\xa3=;`\xf0oZ\xcb!\x98\xac\x1c'
p765
ssS'user_system_views_logins___init__'
p766
(dp767
g6
(dp768
g8
S'user_system_views_logins___init__.html'
p769
sg10
S'user_system/views/logins/__init__'
p770
sg12
g13
(g14
g15
NtRp771
(dp772
g18
I1
sg19
I0
sg20
I2
sg21
I0
sg22
I0
sg23
I0
sg24
I0
sbssg25
S'\xa0\xd3\xaas\xc2\xb93+ED.\xe5\xfe\xf2\xad\x87'
p773
ssS'user_system_views_signups_hardcoded_tests_test_test_account_view'
p774
(dp775
g6
(dp776
g8
S'user_system_views_signups_hardcoded_tests_test_test_account_view.html'
p777
sg10
S'user_system/views/signups/hardcoded/tests/test_test_account_view'
p778
sg12
g13
(g14
g15
NtRp779
(dp780
g18
I1
sg19
I0
sg20
I24
sg21
I0
sg22
I0
sg23
I0
sg24
I0
sbssg25
S'@\xc3::\xf8h\x1aT\x9f\x83\xee1\xb7\x9a\xe0\xf9'
p781
ssS'create_views_daily_quest_copies___init__'
p782
(dp783
g6
(dp784
g8
S'create_views_daily_quest_copies___init__.html'
p785
sg10
S'create/views/daily_quest_copies/__init__'
p786
sg12
g13
(g14
g15
NtRp787
(dp788
g18
I1
sg19
I0
sg20
I1
sg21
I0
sg22
I0
sg23
I0
sg24
I0
sbssg25
S"'\xb6_z\x90s\x92\xdd\xc7\xb2\x87d\xba\xe24X"
p789
ssS'create_views_quests_tests_test_hide_quest_view'
p790
(dp791
g6
(dp792
g8
S'create_views_quests_tests_test_hide_quest_view.html'
p793
sg10
S'create/views/quests/tests/test_hide_quest_view'
p794
sg12
g13
(g14
g15
NtRp795
(dp796
g18
I1
sg19
I0
sg20
I26
sg21
I0
sg22
I0
sg23
I0
sg24
I0
sbssg25
S'G\xcb\xcf\xbb~*\xa2i\xd2\xff\x81\x81\xf0)G\xda'
p797
ssS'create_views_books_tests_test_add_tag_to_subchapter_view'
p798
(dp799
g6
(dp800
g8
S'create_views_books_tests_test_add_tag_to_subchapter_view.html'
p801
sg10
S'create/views/books/tests/test_add_tag_to_subchapter_view'
p802
sg12
g13
(g14
g15
NtRp803
(dp804
g18
I1
sg19
I0
sg20
I40
sg21
I0
sg22
I0
sg23
I0
sg24
I0
sbssg25
S'\xb78\xf4p\xcd\xec\xca\xaa\x93\xb9\xda\xa8Yo37'
p805
ssS'create_views_questions_tests_test_get_question_by_id_view'
p806
(dp807
g6
(dp808
g8
S'create_views_questions_tests_test_get_question_by_id_view.html'
p809
sg10
S'create/views/questions/tests/test_get_question_by_id_view'
p810
sg12
g13
(g14
g15
NtRp811
(dp812
g18
I1
sg19
I0
sg20
I24
sg21
I0
sg22
I0
sg23
I0
sg24
I0
sbssg25
S'\xa7[\x91\xa9\xa6\xb4\xbd&n$O^O\xec\xf2X'
p813
ssS'user_system_views_schools_classroom_view'
p814
(dp815
g6
(dp816
g8
S'user_system_views_schools_classroom_view.html'
p817
sg10
S'user_system/views/schools/classroom_view'
p818
sg12
g13
(g14
g15
NtRp819
(dp820
g18
I1
sg19
I2
sg20
I25
sg21
I0
sg22
I0
sg23
I6
sg24
I2
sbssg25
S'\xc5\x9bb\xc9\x83\xc2\x88\xd8,\x01\xeb\x94.\x8b\xf7\xd6'
p821
ssS'user_system_views_signups_verify_email_view'
p822
(dp823
g6
(dp824
g8
S'user_system_views_signups_verify_email_view.html'
p825
sg10
S'user_system/views/signups/verify_email_view'
p826
sg12
g13
(g14
g15
NtRp827
(dp828
g18
I1
sg19
I6
sg20
I26
sg21
I0
sg22
I0
sg23
I0
sg24
I0
sbssg25
S"B+;\xbf\xb1A\x1f\n\x94\x0e\xeb\xd0\xf1Y'l"
p829
ssS'user_system_views_schools___init__'
p830
(dp831
g6
(dp832
g8
S'user_system_views_schools___init__.html'
p833
sg10
S'user_system/views/schools/__init__'
p834
sg12
g13
(g14
g15
NtRp835
(dp836
g18
I1
sg19
I0
sg20
I4
sg21
I0
sg22
I0
sg23
I0
sg24
I0
sbssg25
S'\xb7\x05\xb1\x95\xf1V\x04[\x0e\xa0\xf7\x96.@Iw'
p837
ssS'create_views_quests___init__'
p838
(dp839
g6
(dp840
g8
S'create_views_quests___init__.html'
p841
sg10
S'create/views/quests/__init__'
p842
sg12
g13
(g14
g15
NtRp843
(dp844
g18
I1
sg19
I0
sg20
I1
sg21
I0
sg22
I0
sg23
I0
sg24
I0
sbssg25
S'\x8d\x97\x8c^6\xf0o\xc3_\x8dRQ}\xd2]a'
p845
ssS'create_views_books_tests_test_remove_subchapter_view'
p846
(dp847
g6
(dp848
g8
S'create_views_books_tests_test_remove_subchapter_view.html'
p849
sg10
S'create/views/books/tests/test_remove_subchapter_view'
p850
sg12
g13
(g14
g15
NtRp851
(dp852
g18
I1
sg19
I0
sg20
I44
sg21
I0
sg22
I0
sg23
I0
sg24
I0
sbssg25
S'\x0b\xddi\xaa_d\x8c\xf3b\xa2\x12\xbc\xce\xa5\xbf\x8b'
p853
ssS'teach_views_campaigns_campaign_view'
p854
(dp855
g6
(dp856
g8
S'teach_views_campaigns_campaign_view.html'
p857
sg10
S'teach/views/campaigns/campaign_view'
p858
sg12
g13
(g14
g15
NtRp859
(dp860
g18
I1
sg19
I4
sg20
I32
sg21
I0
sg22
I0
sg23
I12
sg24
I4
sbssg25
S'\xb5\xbcP\n\xf1\xe8z\x0bC`h\xbf\x08\x16\x16\x17'
p861
ssS'create_views_daily_quest_copies_daily_quest_copy_view'
p862
(dp863
g6
(dp864
g8
S'create_views_daily_quest_copies_daily_quest_copy_view.html'
p865
sg10
S'create/views/daily_quest_copies/daily_quest_copy_view'
p866
sg12
g13
(g14
g15
NtRp867
(dp868
g18
I1
sg19
I0
sg20
I14
sg21
I0
sg22
I0
sg23
I0
sg24
I0
sbssg25
S'?\x95&\\\xae\xf0@\xfc\x96\xc15\xc9\x13\xf6_R'
p869
ssS'create_views_questions___init__'
p870
(dp871
g6
(dp872
g8
S'create_views_questions___init__.html'
p873
sg10
S'create/views/questions/__init__'
p874
sg12
g13
(g14
g15
NtRp875
(dp876
g18
I1
sg19
I0
sg20
I3
sg21
I0
sg22
I0
sg23
I0
sg24
I0
sbssg25
S'h\x154\xc5\xe58\xa8\xc8\xa9\xa6\xbea?\xcf?i'
p877
ssS'user_system_views_users_create_teacher_view'
p878
(dp879
g6
(dp880
g8
S'user_system_views_users_create_teacher_view.html'
p881
sg10
S'user_system/views/users/create_teacher_view'
p882
sg12
g13
(g14
g15
NtRp883
(dp884
g18
I1
sg19
I2
sg20
I34
sg21
I0
sg22
I0
sg23
I21
sg24
I2
sbssg25
S'=\xee\xed^jo\xc1\xebz\xedP\xf9\x91n\xec\x8d'
p885
ssS'teach_views_summaries_daily_quest_daily_summary_view'
p886
(dp887
g6
(dp888
g8
S'teach_views_summaries_daily_quest_daily_summary_view.html'
p889
sg10
S'teach/views/summaries/daily_quest_daily_summary_view'
p890
sg12
g13
(g14
g15
NtRp891
(dp892
g18
I1
sg19
I12
sg20
I61
sg21
I0
sg22
I0
sg23
I39
sg24
I12
sbssg25
S'\x06\\F.\x8c\xd3M\x8e\xc5\xc9\xd5<\x13V\xd6C'
p893
ssS'create_views_summary___init__'
p894
(dp895
g6
(dp896
g8
S'create_views_summary___init__.html'
p897
sg10
S'create/views/summary/__init__'
p898
sg12
g13
(g14
g15
NtRp899
(dp900
g18
I1
sg19
I0
sg20
I1
sg21
I0
sg22
I0
sg23
I0
sg24
I0
sbssg25
S'#\xb7\xbd\xa1M\xe4\xa0\x05\xf5x\x057hU[\xca'
p901
ssS'learn_views___init__'
p902
(dp903
g6
(dp904
g8
S'learn_views___init__.html'
p905
sg10
S'learn/views/__init__'
p906
sg12
g13
(g14
g15
NtRp907
(dp908
g18
I1
sg19
I0
sg20
I2
sg21
I0
sg22
I0
sg23
I0
sg24
I0
sbssg25
S"?\xc0'\xcb\x1c\xf1\xaa\xf0\x9d\xc7\x0e\xf1\xda\x0eU\x17"
p909
ssS'user_system_views_signups_hardcoded_test_account_view'
p910
(dp911
g6
(dp912
g8
S'user_system_views_signups_hardcoded_test_account_view.html'
p913
sg10
S'user_system/views/signups/hardcoded/test_account_view'
p914
sg12
g13
(g14
g15
NtRp915
(dp916
g18
I1
sg19
I2
sg20
I18
sg21
I0
sg22
I0
sg23
I0
sg24
I0
sbssg25
S"\xb4\xf1\xfdH\x8f\xf1QX7'\\\xd3\xab.\xbc\x80"
p917
ssS'create_views_tags_tests_test_get_tag_by_id_view'
p918
(dp919
g6
(dp920
g8
S'create_views_tags_tests_test_get_tag_by_id_view.html'
p921
sg10
S'create/views/tags/tests/test_get_tag_by_id_view'
p922
sg12
g13
(g14
g15
NtRp923
(dp924
g18
I1
sg19
I0
sg20
I20
sg21
I0
sg22
I0
sg23
I0
sg24
I0
sbssg25
S'T\xd5\xd7\xd9\xb8\x12\x81xj\xca\x90\xa41\xcf\x02]'
p925
ssS'user_system_views_users_create_student_view'
p926
(dp927
g6
(dp928
g8
S'user_system_views_users_create_student_view.html'
p929
sg10
S'user_system/views/users/create_student_view'
p930
sg12
g13
(g14
g15
NtRp931
(dp932
g18
I1
sg19
I2
sg20
I37
sg21
I0
sg22
I0
sg23
I24
sg24
I2
sbssg25
S'\x8e\xce\xac\xe9\xe3J4\xbb\x88$\xefFS\x06Ow'
p933
ssS'create_views_question_datasets___init__'
p934
(dp935
g6
(dp936
g8
S'create_views_question_datasets___init__.html'
p937
sg10
S'create/views/question_datasets/__init__'
p938
sg12
g13
(g14
g15
NtRp939
(dp940
g18
I1
sg19
I0
sg20
I1
sg21
I0
sg22
I0
sg23
I0
sg24
I0
sbssg25
S'\x87x\xd1\xbe\x15\xd3\xbc\x99\x86\x08\xf8\x06S\xcf\x00\x87'
p941
ssS'user_system_views_users_user_streak_history_view'
p942
(dp943
g6
(dp944
g8
S'user_system_views_users_user_streak_history_view.html'
p945
sg10
S'user_system/views/users/user_streak_history_view'
p946
sg12
g13
(g14
g15
NtRp947
(dp948
g18
I1
sg19
I0
sg20
I15
sg21
I0
sg22
I0
sg23
I0
sg24
I0
sbssg25
S'\x82\xa4:\x84\x8dJE7\xc0"\xbb\xceU\xa9\xd6\x07'
p949
ssS'user_system_views_roles_tests_test_user_role_view'
p950
(dp951
g6
(dp952
g8
S'user_system_views_roles_tests_test_user_role_view.html'
p953
sg10
S'user_system/views/roles/tests/test_user_role_view'
p954
sg12
g13
(g14
g15
NtRp955
(dp956
g18
I1
sg19
I0
sg20
I41
sg21
I0
sg22
I0
sg23
I0
sg24
I0
sbssg25
S'\xaf \x02-\xd3\xa9\xee\x1e7\x87\xa8[\xd9\xd8V\xd8'
p957
ssS'user_system_views_signups_hardcoded_tests___init__'
p958
(dp959
g6
(dp960
g8
S'user_system_views_signups_hardcoded_tests___init__.html'
p961
sg10
S'user_system/views/signups/hardcoded/tests/__init__'
p962
sg12
g13
(g14
g15
NtRp963
(dp964
g18
I1
sg19
I0
sg20
I0
sg21
I0
sg22
I0
sg23
I0
sg24
I0
sbssg25
S'\x19g\xdfM\x1a\x019\xaf\x1baIeR\xe5u\xa7'
p965
ssS'user_system_views_signups___init__'
p966
(dp967
g6
(dp968
g8
S'user_system_views_signups___init__.html'
p969
sg10
S'user_system/views/signups/__init__'
p970
sg12
g13
(g14
g15
NtRp971
(dp972
g18
I1
sg19
I0
sg20
I5
sg21
I0
sg22
I0
sg23
I0
sg24
I0
sbssg25
S'\xad\xb5\x1c"8P^k\xe3\xaa\x7fv\xbc\xc9\xc6\x01'
p973
ssS'create_views_tags_tag_view'
p974
(dp975
g6
(dp976
g8
S'create_views_tags_tag_view.html'
p977
sg10
S'create/views/tags/tag_view'
p978
sg12
g13
(g14
g15
NtRp979
(dp980
g18
I1
sg19
I32
sg20
I92
sg21
I0
sg22
I5
sg23
I10
sg24
I13
sbssg25
S'\xe8E\x1d\x96\xf3A\x0e\x1b\x08n\x84\xe8\xf5`[\xb4'
p981
ssS'user_system_views_apps_tests_test_get_apps_list_view'
p982
(dp983
g6
(dp984
g8
S'user_system_views_apps_tests_test_get_apps_list_view.html'
p985
sg10
S'user_system/views/apps/tests/test_get_apps_list_view'
p986
sg12
g13
(g14
g15
NtRp987
(dp988
g18
I1
sg19
I0
sg20
I18
sg21
I0
sg22
I0
sg23
I0
sg24
I0
sbssg25
S'\x87\xab;"\x01p\xf9\xe5\xa6\xb1\xaej\x8egl\x99'
p989
ssS'create_views_tags_tests_test_add_prerequisite_view'
p990
(dp991
g6
(dp992
g8
S'create_views_tags_tests_test_add_prerequisite_view.html'
p993
sg10
S'create/views/tags/tests/test_add_prerequisite_view'
p994
sg12
g13
(g14
g15
NtRp995
(dp996
g18
I1
sg19
I0
sg20
I33
sg21
I0
sg22
I0
sg23
I0
sg24
I0
sbssg25
S'\x08g\x8ed\x97\x9d\xb1\x04\xd6\xd5\x82T\xc4\xe6\xbd\xad'
p997
ssS'user_system_views_users_user_profile_update_request_view'
p998
(dp999
g6
(dp1000
g8
S'user_system_views_users_user_profile_update_request_view.html'
p1001
sg10
S'user_system/views/users/user_profile_update_request_view'
p1002
sg12
g13
(g14
g15
NtRp1003
(dp1004
g18
I1
sg19
I24
sg20
I70
sg21
I0
sg22
I0
sg23
I51
sg24
I24
sbssg25
S"\x04\xfd\x81?\x1e<^\xb0%\xad\xa6'\xcf\xa1\xc3)"
p1005
ssS'learn_views_student_news_feed___init__'
p1006
(dp1007
g6
(dp1008
g8
S'learn_views_student_news_feed___init__.html'
p1009
sg10
S'learn/views/student_news_feed/__init__'
p1010
sg12
g13
(g14
g15
NtRp1011
(dp1012
g18
I1
sg19
I0
sg20
I1
sg21
I0
sg22
I0
sg23
I0
sg24
I0
sbssg25
S'\xc5\x87\xccQ|\xa2\xee\x11p\x84\xfe\xed\xe3W\xfa\x07'
p1013
ssS'create_views_books_tests_test_create_new_book'
p1014
(dp1015
g6
(dp1016
g8
S'create_views_books_tests_test_create_new_book.html'
p1017
sg10
S'create/views/books/tests/test_create_new_book'
p1018
sg12
g13
(g14
g15
NtRp1019
(dp1020
g18
I1
sg19
I0
sg20
I18
sg21
I0
sg22
I0
sg23
I0
sg24
I0
sbssg25
S'\xe3\xaew\xf8\xd7\x8f\xc5 \x85\xc1\xb6I\x82X(-'
p1021
ssS'user_system_views_users_tests_test_remove_role_view'
p1022
(dp1023
g6
(dp1024
g8
S'user_system_views_users_tests_test_remove_role_view.html'
p1025
sg10
S'user_system/views/users/tests/test_remove_role_view'
p1026
sg12
g13
(g14
g15
NtRp1027
(dp1028
g18
I1
sg19
I0
sg20
I42
sg21
I0
sg22
I0
sg23
I0
sg24
I0
sbssg25
S'\xfb\x9b\xa3\xe5\x90\xe7q99\x19\x10"<@L\x8c'
p1029
ssS'api_logging_views_user_activities_user_agent_view'
p1030
(dp1031
g6
(dp1032
g8
S'api_logging_views_user_activities_user_agent_view.html'
p1033
sg10
S'api_logging/views/user_activities/user_agent_view'
p1034
sg12
g13
(g14
g15
NtRp1035
(dp1036
g18
I1
sg19
I26
sg20
I68
sg21
I0
sg22
I0
sg23
I50
sg24
I26
sbssg25
S'\xc4\xc5\xa3P\xc7\xa8\xdc\x1b#\x14\xe4\xe7o\x17\xba\x82'
p1037
ssS'teach_views_summaries_daily_quest_summary_view'
p1038
(dp1039
g6
(dp1040
g8
S'teach_views_summaries_daily_quest_summary_view.html'
p1041
sg10
S'teach/views/summaries/daily_quest_summary_view'
p1042
sg12
g13
(g14
g15
NtRp1043
(dp1044
g18
I1
sg19
I28
sg20
I80
sg21
I0
sg22
I0
sg23
I59
sg24
I28
sbssg25
S'\x9fe\xf9\x1c\x8a\xe2\xf4dr\xd6i\xd4\x89\xae\x1b\xf6'
p1045
ssS'user_system_views_users_student_profile_request_view'
p1046
(dp1047
g6
(dp1048
g8
S'user_system_views_users_student_profile_request_view.html'
p1049
sg10
S'user_system/views/users/student_profile_request_view'
p1050
sg12
g13
(g14
g15
NtRp1051
(dp1052
g18
I1
sg19
I0
sg20
I14
sg21
I0
sg22
I0
sg23
I0
sg24
I0
sbssg25
S'\x87:\xd0\xef\x04\xf3-q\r\xe7\xec \xceS\xee<'
p1053
ssS'teach_views_teacher_chapters_teacher_chapter_view'
p1054
(dp1055
g6
(dp1056
g8
S'teach_views_teacher_chapters_teacher_chapter_view.html'
p1057
sg10
S'teach/views/teacher_chapters/teacher_chapter_view'
p1058
sg12
g13
(g14
g15
NtRp1059
(dp1060
g18
I1
sg19
I12
sg20
I44
sg21
I0
sg22
I0
sg23
I25
sg24
I12
sbssg25
S'Z\xc5\n\xdb\xe5!2~7\xe3i\xa7j\xd4\x10\x8c'
p1061
ssS'teach_views_summaries_top_answered_questions_summary_view'
p1062
(dp1063
g6
(dp1064
g8
S'teach_views_summaries_top_answered_questions_summary_view.html'
p1065
sg10
S'teach/views/summaries/top_answered_questions_summary_view'
p1066
sg12
g13
(g14
g15
NtRp1067
(dp1068
g18
I1
sg19
I34
sg20
I77
sg21
I0
sg22
I0
sg23
I54
sg24
I34
sbssg25
S'\x9e\xb0khf9\xceHZ\x1e\x91\x1ac,\x8c\x0c'
p1069
ssS'api_logging_views_modal_loggings___init__'
p1070
(dp1071
g6
(dp1072
g8
S'api_logging_views_modal_loggings___init__.html'
p1073
sg10
S'api_logging/views/modal_loggings/__init__'
p1074
sg12
g13
(g14
g15
NtRp1075
(dp1076
g18
I1
sg19
I0
sg20
I1
sg21
I0
sg22
I0
sg23
I0
sg24
I0
sbssg25
S'\xf1\x0fWK\x0c\x9eD\xe8\x12\xaf\x93\xfa\xd7q\xa8\x91'
p1077
ssS'create_views_books_book_view'
p1078
(dp1079
g6
(dp1080
g8
S'create_views_books_book_view.html'
p1081
sg10
S'create/views/books/book_view'
p1082
sg12
g13
(g14
g15
NtRp1083
(dp1084
g18
I1
sg19
I34
sg20
I124
sg21
I0
sg22
I3
sg23
I1
sg24
I3
sbssg25
S'\x95#\xf7\xfe\xa5A\xc4\xa5\xfa\x1fM\xef\x1b\xc3\x18\xef'
p1085
ssS'create_views_quests_tests_test_add_question_template_view'
p1086
(dp1087
g6
(dp1088
g8
S'create_views_quests_tests_test_add_question_template_view.html'
p1089
sg10
S'create/views/quests/tests/test_add_question_template_view'
p1090
sg12
g13
(g14
g15
NtRp1091
(dp1092
g18
I1
sg19
I0
sg20
I0
sg21
I0
sg22
I0
sg23
I0
sg24
I0
sbssg25
S'\x19g\xdfM\x1a\x019\xaf\x1baIeR\xe5u\xa7'
p1093
ssS'create_views_tags_tests_test_remove_prerequisite_view'
p1094
(dp1095
g6
(dp1096
g8
S'create_views_tags_tests_test_remove_prerequisite_view.html'
p1097
sg10
S'create/views/tags/tests/test_remove_prerequisite_view'
p1098
sg12
g13
(g14
g15
NtRp1099
(dp1100
g18
I1
sg19
I0
sg20
I38
sg21
I0
sg22
I0
sg23
I0
sg24
I0
sbssg25
S'\xb4-c8G7\x8c\x02p\xb3\xc2\x9d}nI\xc6'
p1101
ssS'create_views_tags_tests_test_hide_tag_view'
p1102
(dp1103
g6
(dp1104
g8
S'create_views_tags_tests_test_hide_tag_view.html'
p1105
sg10
S'create/views/tags/tests/test_hide_tag_view'
p1106
sg12
g13
(g14
g15
NtRp1107
(dp1108
g18
I1
sg19
I0
sg20
I25
sg21
I0
sg22
I0
sg23
I0
sg24
I0
sbssg25
S'\x8a\x07\xe0\xe1Q\x820\x05R\x14E\xd0\xdf\x8e\xc5\x8a'
p1109
ssS'create_views_quests_tests_test_remove_question_view'
p1110
(dp1111
g6
(dp1112
g8
S'create_views_quests_tests_test_remove_question_view.html'
p1113
sg10
S'create/views/quests/tests/test_remove_question_view'
p1114
sg12
g13
(g14
g15
NtRp1115
(dp1116
g18
I1
sg19
I0
sg20
I0
sg21
I0
sg22
I0
sg23
I0
sg24
I0
sbssg25
S'\x19g\xdfM\x1a\x019\xaf\x1baIeR\xe5u\xa7'
p1117
ssS'api_logging_views_user_activities___init__'
p1118
(dp1119
g6
(dp1120
g8
S'api_logging_views_user_activities___init__.html'
p1121
sg10
S'api_logging/views/user_activities/__init__'
p1122
sg12
g13
(g14
g15
NtRp1123
(dp1124
g18
I1
sg19
I0
sg20
I1
sg21
I0
sg22
I0
sg23
I0
sg24
I0
sbssg25
S'\xbc\x87\xa7&\xe2B=>v\tt\x06,\x1d<['
p1125
ssS'user_system_views_signups_tests___init__'
p1126
(dp1127
g6
(dp1128
g8
S'user_system_views_signups_tests___init__.html'
p1129
sg10
S'user_system/views/signups/tests/__init__'
p1130
sg12
g13
(g14
g15
NtRp1131
(dp1132
g18
I1
sg19
I0
sg20
I1
sg21
I0
sg22
I0
sg23
I0
sg24
I0
sbssg25
S'\xbc\xd6\xeb\xb3\xba\xcaz\xf7{\xd4B\xb5}l\xdf\x96'
p1133
ssS'api_logging_views_LoggingView'
p1134
(dp1135
g6
(dp1136
g8
S'api_logging_views_LoggingView.html'
p1137
sg10
S'api_logging/views/LoggingView'
p1138
sg12
g13
(g14
g15
NtRp1139
(dp1140
g18
I1
sg19
I8
sg20
I41
sg21
I0
sg22
I0
sg23
I27
sg24
I8
sbssg25
S'\xe3\xefQ\x1e\x9e\xec\xea\xa7\xc5\x05\xb9\x90\xf6\xf3\x88\x9b'
p1141
ssS'create_views_books_tests___init__'
p1142
(dp1143
g6
(dp1144
g8
S'create_views_books_tests___init__.html'
p1145
sg10
S'create/views/books/tests/__init__'
p1146
sg12
g13
(g14
g15
NtRp1147
(dp1148
g18
I1
sg19
I0
sg20
I0
sg21
I0
sg22
I0
sg23
I0
sg24
I0
sbssg25
S'\x19g\xdfM\x1a\x019\xaf\x1baIeR\xe5u\xa7'
p1149
ssS'learn_views_daily_quests___init__'
p1150
(dp1151
g6
(dp1152
g8
S'learn_views_daily_quests___init__.html'
p1153
sg10
S'learn/views/daily_quests/__init__'
p1154
sg12
g13
(g14
g15
NtRp1155
(dp1156
g18
I1
sg19
I0
sg20
I3
sg21
I0
sg22
I0
sg23
I0
sg24
I0
sbssg25
S'\xabgT\x8f\xf6_\xecD=h\x94\xa6\x8fk\x9b\xd1'
p1157
sssS'version'
p1158
S'3.7.1'
p1159
sS'settings'
p1160
S'\x9bD*$\xc6\xbc\x8e\xef2h\xbe"\xdb\xe4\xa2\xe1'
p1161
sS'format'
p1162
I1
s.