(dp1
S'files'
p2
(dp3
S'create_views_quests_tests_test_add_tag_view'
p4
(dp5
S'index'
p6
(dp7
S'html_filename'
p8
S'create_views_quests_tests_test_add_tag_view.html'
p9
sS'name'
p10
S'create/views/quests/tests/test_add_tag_view'
p11
sS'nums'
p12
ccopy_reg
_reconstructor
p13
(ccoverage.results
Numbers
p14
c__builtin__
object
p15
NtRp16
(dp17
S'n_files'
p18
I1
sS'n_branches'
p19
I0
sS'n_statements'
p20
I35
sS'n_excluded'
p21
I0
sS'n_partial_branches'
p22
I0
sS'n_missing'
p23
I0
sS'n_missing_branches'
p24
I0
sbssS'hash'
p25
S'o\xbe\xf1\xf9\x80\xe5|\xbab\xcc\xe2F=\x1e\xacp'
p26
ssS'learn_views_daily_quests_daily_quest_history_date_group_view'
p27
(dp28
g6
(dp29
g8
S'learn_views_daily_quests_daily_quest_history_date_group_view.html'
p30
sg10
S'learn/views/daily_quests/daily_quest_history_date_group_view'
p31
sg12
g13
(g14
g15
NtRp32
(dp33
g18
I1
sg19
I36
sg20
I94
sg21
I0
sg22
I0
sg23
I71
sg24
I36
sbssg25
S'N}\x1am\x00\xe8_\xd4\xa8T\xd2R\xf7l^\xd3'
p34
ssS'api_logging_views_modal_loggings_modal_user_history_view'
p35
(dp36
g6
(dp37
g8
S'api_logging_views_modal_loggings_modal_user_history_view.html'
p38
sg10
S'api_logging/views/modal_loggings/modal_user_history_view'
p39
sg12
g13
(g14
g15
NtRp40
(dp41
g18
I1
sg19
I0
sg20
I12
sg21
I0
sg22
I0
sg23
I0
sg24
I0
sbssg25
S'\xe0g\x1c\xea/\xf3m\xa8\x9d\x1f7\xba\x82w\x88\x9c'
p42
ssS'create_views_quests_tests_test_remove_tag_view'
p43
(dp44
g6
(dp45
S'html_filename'
p46
S'create_views_quests_tests_test_remove_tag_view.html'
p47
sS'name'
p48
S'create/views/quests/tests/test_remove_tag_view'
p49
sS'nums'
p50
g13
(g14
g15
NtRp51
(dp52
g18
I1
sg19
I0
sg20
I35
sg21
I0
sg22
I0
sg23
I0
sg24
I0
sbssg25
S"P\xa31=\xda\x96\xb2M#\x01\x0cTr\xe5a'"
p53
ssS'user_system_views_signups_facebook_signup_view'
p54
(dp55
g6
(dp56
g8
S'user_system_views_signups_facebook_signup_view.html'
p57
sg10
S'user_system/views/signups/facebook_signup_view'
p58
sg12
g13
(g14
g15
NtRp59
(dp60
g18
I1
sg19
I8
sg20
I38
sg21
I0
sg22
I0
sg23
I0
sg24
I0
sbssg25
S'\x04E\'\x17r8\x14\xf6 \x98\xb5\xa0sx"@'
p61
ssS'user_system_views_logins_tests_test_email_login_view'
p62
(dp63
g6
(dp64
g8
S'user_system_views_logins_tests_test_email_login_view.html'
p65
sg10
S'user_system/views/logins/tests/test_email_login_view'
p66
sg12
g13
(g14
g15
NtRp67
(dp68
g18
I1
sg19
I0
sg20
I61
sg21
I0
sg22
I0
sg23
I0
sg24
I0
sbssg25
S'\x926\xe8\xcdL\xf3U\xc1C\x1b\x0f\xaf\xf0c\x9b\xd0'
p69
ssS'create_views_books_book_chapter_view'
p70
(dp71
g6
(dp72
g8
S'create_views_books_book_chapter_view.html'
p73
sg10
S'create/views/books/book_chapter_view'
p74
sg12
g13
(g14
g15
NtRp75
(dp76
g18
I1
sg19
I12
sg20
I44
sg21
I0
sg22
I0
sg23
I22
sg24
I12
sbssg25
S'\x0b3\xd8 \xe1\x08#79\x0c\x7f\x1f6\xad0\xe9'
p77
ssS'api_logging_views___init__'
p78
(dp79
g6
(dp80
g8
S'api_logging_views___init__.html'
p81
sg10
S'api_logging/views/__init__'
p82
sg12
g13
(g14
g15
NtRp83
(dp84
g18
I1
sg19
I0
sg20
I5
sg21
I0
sg22
I0
sg23
I0
sg24
I0
sbssg25
S'E\xf0\xc8*y9Q5\x96\xa8]\xdf\x95Zq\xed'
p85
ssS'create_views___init__'
p86
(dp87
g6
(dp88
g8
S'create_views___init__.html'
p89
sg10
S'create/views/__init__'
p90
sg12
g13
(g14
g15
NtRp91
(dp92
g18
I1
sg19
I0
sg20
I7
sg21
I0
sg22
I0
sg23
I0
sg24
I0
sbssg25
S'\x8f\x98\x9b$~\xde\xc2\xfc\x97/\x14^\xe8\xf8\x10M'
p93
ssS'create_views_books_tests_test_remove_chapter_view'
p94
(dp95
g6
(dp96
g8
S'create_views_books_tests_test_remove_chapter_view.html'
p97
sg10
S'create/views/books/tests/test_remove_chapter_view'
p98
sg12
g13
(g14
g15
NtRp99
(dp100
g18
I1
sg19
I0
sg20
I39
sg21
I0
sg22
I0
sg23
I0
sg24
I0
sbssg25
S'lJ\xdc\xbe\xe2>\x9d\xde\xb5+ia5;\x042'
p101
ssS'privilege_views_privileges_user_privilege_view'
p102
(dp103
g6
(dp104
g8
S'privilege_views_privileges_user_privilege_view.html'
p105
sg10
S'privilege/views/privileges/user_privilege_view'
p106
sg12
g13
(g14
g15
NtRp107
(dp108
g18
I1
sg19
I10
sg20
I38
sg21
I0
sg22
I0
sg23
I22
sg24
I10
sbssg25
S'\xf699\xa5A\xca\x9e\x91,l\xf8\x8dI[PR'
p109
ssS'teach_views_summaries_migrations_class_ranking_migration_view'
p110
(dp111
g6
(dp112
S'html_filename'
p113
S'teach_views_summaries_migrations_class_ranking_migration_view.html'
p114
sS'name'
p115
S'teach/views/summaries/migrations/class_ranking_migration_view'
p116
sS'nums'
p117
g13
(g14
g15
NtRp118
(dp119
g18
I1
sg19
I8
sg20
I36
sg21
I0
sg22
I0
sg23
I24
sg24
I8
sbssg25
S'\xe2JF\xb0\xd3c+\xb8\x1a*\x1f\xa5\xb3oY\x1d'
p120
ssS'create_views_books_tests_test_add_chapter_view'
p121
(dp122
g6
(dp123
g8
S'create_views_books_tests_test_add_chapter_view.html'
p124
sg10
S'create/views/books/tests/test_add_chapter_view'
p125
sg12
g13
(g14
g15
NtRp126
(dp127
g18
I1
sg19
I0
sg20
I69
sg21
I0
sg22
I0
sg23
I0
sg24
I0
sbssg25
S'\xea\xcd\x81\xff\xe6p74\xe3\xab\xc2R\x1aZ#Y'
p128
ssS'create_views_tags_tests_test_update_tag_view'
p129
(dp130
S'index'
p131
(dp132
S'html_filename'
p133
S'create_views_tags_tests_test_update_tag_view.html'
p134
sS'name'
p135
S'create/views/tags/tests/test_update_tag_view'
p136
sS'nums'
p137
g13
(g14
g15
NtRp138
(dp139
g18
I1
sg19
I0
sg20
I23
sg21
I0
sg22
I0
sg23
I0
sg24
I0
sbssS'hash'
p140
S'\x03\xa8\x8c\xae\x18\x9b>/f\x80\xadcj\xe8gj'
p141
ssS'privilege_views___init__'
p142
(dp143
g6
(dp144
g8
S'privilege_views___init__.html'
p145
sg10
S'privilege/views/__init__'
p146
sg12
g13
(g14
g15
NtRp147
(dp148
g18
I1
sg19
I0
sg20
I0
sg21
I0
sg22
I0
sg23
I0
sg24
I0
sbssg25
S'\x19g\xdfM\x1a\x019\xaf\x1baIeR\xe5u\xa7'
p149
ssS'teach_views_teacher_tags_teacher_tag_view'
p150
(dp151
g6
(dp152
g8
S'teach_views_teacher_tags_teacher_tag_view.html'
p153
sg10
S'teach/views/teacher_tags/teacher_tag_view'
p154
sg12
g13
(g14
g15
NtRp155
(dp156
g18
I1
sg19
I20
sg20
I55
sg21
I0
sg22
I2
sg23
I30
sg24
I18
sbssg25
S'\xd6\xdf\xb7\xf7\xc0\x9b\xae\x8c\x81\x0f\x89C\xb0k\xaf\xd5'
p157
ssS'user_system_views_logins_facebook_login_view'
p158
(dp159
g6
(dp160
g8
S'user_system_views_logins_facebook_login_view.html'
p161
sg10
S'user_system/views/logins/facebook_login_view'
p162
sg12
g13
(g14
g15
NtRp163
(dp164
g18
I1
sg19
I4
sg20
I24
sg21
I0
sg22
I0
sg23
I0
sg24
I0
sbssg25
S',\xf8~\x8d\x9b\xfe\xa6wQ5\x92t\x15\xe5\x95\x8d'
p165
ssS'api_logging_views_query_stat___init__'
p166
(dp167
g6
(dp168
g8
S'api_logging_views_query_stat___init__.html'
p169
sg10
S'api_logging/views/query_stat/__init__'
p170
sg12
g13
(g14
g15
NtRp171
(dp172
g18
I1
sg19
I0
sg20
I1
sg21
I0
sg22
I0
sg23
I0
sg24
I0
sbssg25
S'\xbe{\x9f#C\x83\xe9\xa5\xf6B\xf2\xd6\x8a\x0eB\xd0'
p173
ssS'create_views_tags_tests_test_create_tag_view'
p174
(dp175
g6
(dp176
g8
S'create_views_tags_tests_test_create_tag_view.html'
p177
sg10
S'create/views/tags/tests/test_create_tag_view'
p178
sg12
g13
(g14
g15
NtRp179
(dp180
g18
I1
sg19
I0
sg20
I33
sg21
I0
sg22
I0
sg23
I0
sg24
I0
sbssg25
S'\\\x91{\x1a ;Qg\xbd\x81\xe2\xaf\xa41\xac\x1b'
p181
ssS'user_system_views_users_tests___init__'
p182
(dp183
g6
(dp184
g8
S'user_system_views_users_tests___init__.html'
p185
sg10
S'user_system/views/users/tests/__init__'
p186
sg12
g13
(g14
g15
NtRp187
(dp188
g18
I1
sg19
I0
sg20
I0
sg21
I0
sg22
I0
sg23
I0
sg24
I0
sbssg25
S'\x19g\xdfM\x1a\x019\xaf\x1baIeR\xe5u\xa7'
p189
ssS'api_logging_views_summary___init__'
p190
(dp191
g6
(dp192
g8
S'api_logging_views_summary___init__.html'
p193
sg10
S'api_logging/views/summary/__init__'
p194
sg12
g13
(g14
g15
NtRp195
(dp196
g18
I1
sg19
I0
sg20
I1
sg21
I0
sg22
I0
sg23
I0
sg24
I0
sbssg25
S'\x04\x12bh\x96\xc5j\x88dm\x0e\xd7\xe1\x94Lq'
p197
ssS'create_views_tests_test_question_view'
p198
(dp199
S'index'
p200
(dp201
S'html_filename'
p202
S'create_views_tests_test_question_view.html'
p203
sS'name'
p204
S'create/views/tests/test_question_view'
p205
sS'nums'
p206
g13
(g14
g15
NtRp207
(dp208
g18
I1
sg19
I6
sg20
I25
sg21
I0
sg22
I0
sg23
I6
sg24
I6
sbssS'hash'
p209
S'C.?b\xec\xd3\x8d\x04\x8b\xf4\xd3\xad\xa9^}\x03'
p210
ssS'create_views_questions_tests___init__'
p211
(dp212
g6
(dp213
g8
S'create_views_questions_tests___init__.html'
p214
sg10
S'create/views/questions/tests/__init__'
p215
sg12
g13
(g14
g15
NtRp216
(dp217
g18
I1
sg19
I0
sg20
I0
sg21
I0
sg22
I0
sg23
I0
sg24
I0
sbssg25
S'\x19g\xdfM\x1a\x019\xaf\x1baIeR\xe5u\xa7'
p218
ssS'create_views_books_tests_test_chapters_view'
p219
(dp220
g6
(dp221
g8
S'create_views_books_tests_test_chapters_view.html'
p222
sg10
S'create/views/books/tests/test_chapters_view'
p223
sg12
g13
(g14
g15
NtRp224
(dp225
g18
I1
sg19
I0
sg20
I24
sg21
I0
sg22
I0
sg23
I0
sg24
I0
sbssg25
S'\x00\xb1\x9d\xc1\x84\x85\x83\x03X\x7fF~y\xed\xe3\xd5'
p226
ssS'user_system_views_roles___init__'
p227
(dp228
g6
(dp229
g8
S'user_system_views_roles___init__.html'
p230
sg10
S'user_system/views/roles/__init__'
p231
sg12
g13
(g14
g15
NtRp232
(dp233
g18
I1
sg19
I0
sg20
I1
sg21
I0
sg22
I0
sg23
I0
sg24
I0
sbssg25
S'\xeb\x15\r\x85I\x9e<\xbc\x15\xd1P\xef\x16\x8c\xe0l'
p234
ssS'create_views_tags___init__'
p235
(dp236
g6
(dp237
g8
S'create_views_tags___init__.html'
p238
sg10
S'create/views/tags/__init__'
p239
sg12
g13
(g14
g15
NtRp240
(dp241
g18
I1
sg19
I0
sg20
I1
sg21
I0
sg22
I0
sg23
I0
sg24
I0
sbssg25
S'|r<\xaap\x01\xb1\xbc"\xe5\xbb\xd8\x87\xa5\xd2H'
p242
ssS'user_system_views_signups_hardcoded___init__'
p243
(dp244
g6
(dp245
g8
S'user_system_views_signups_hardcoded___init__.html'
p246
sg10
S'user_system/views/signups/hardcoded/__init__'
p247
sg12
g13
(g14
g15
NtRp248
(dp249
g18
I1
sg19
I0
sg20
I1
sg21
I0
sg22
I0
sg23
I0
sg24
I0
sbssg25
S'?\xfac\x0c\x91\xa4\xd6\xd4\x1d\xe4\x99\xc2[\x83\xfc\xdf'
p250
ssS'learn_views_daily_quests_student_submission_view'
p251
(dp252
g6
(dp253
g8
S'learn_views_daily_quests_student_submission_view.html'
p254
sg10
S'learn/views/daily_quests/student_submission_view'
p255
sg12
g13
(g14
g15
NtRp256
(dp257
g18
I1
sg19
I12
sg20
I47
sg21
I0
sg22
I0
sg23
I29
sg24
I12
sbssg25
S'wq\xe9%\x06 [\x13\x98L\xc4\xe9\x90\xfc\x9e\xff'
p258
ssS'teach_views_summaries___init__'
p259
(dp260
g6
(dp261
g8
S'teach_views_summaries___init__.html'
p262
sg10
S'teach/views/summaries/__init__'
p263
sg12
g13
(g14
g15
NtRp264
(dp265
g18
I1
sg19
I0
sg20
I7
sg21
I0
sg22
I0
sg23
I0
sg24
I0
sbssg25
S'3#\xb2[\xd25\x02\xaaPxM*gV\x97D'
p266
ssS'create_views_questions_question_history_remark_view'
p267
(dp268
g6
(dp269
g8
S'create_views_questions_question_history_remark_view.html'
p270
sg10
S'create/views/questions/question_history_remark_view'
p271
sg12
g13
(g14
g15
NtRp272
(dp273
g18
I1
sg19
I0
sg20
I14
sg21
I0
sg22
I0
sg23
I0
sg24
I0
sbssg25
S'{4O\x0e\xb3\xad\xc8\xb72\x8f\x1f\x11\xc0\x9e\xa0\xd6'
p274
ssS'user_system_views_apps_tests_test_get_app_by_id_view'
p275
(dp276
g6
(dp277
g8
S'user_system_views_apps_tests_test_get_app_by_id_view.html'
p278
sg10
S'user_system/views/apps/tests/test_get_app_by_id_view'
p279
sg12
g13
(g14
g15
NtRp280
(dp281
g18
I1
sg19
I0
sg20
I17
sg21
I0
sg22
I0
sg23
I0
sg24
I0
sbssg25
S"\xa2\x1eG%r{-~\xc5=\x8aj\x99X!'"
p282
ssS'user_system_views_signups_tests_test_verify_email_view'
p283
(dp284
g6
(dp285
g8
S'user_system_views_signups_tests_test_verify_email_view.html'
p286
sg10
S'user_system/views/signups/tests/test_verify_email_view'
p287
sg12
g13
(g14
g15
NtRp288
(dp289
g18
I1
sg19
I0
sg20
I51
sg21
I0
sg22
I0
sg23
I0
sg24
I0
sbssg25
S'\x81\xacj\x9d\x1f\xa9o\xcc\x1e\xa3\xe59^YT\x9e'
p290
ssS'user_system_views_users_user_view'
p291
(dp292
g6
(dp293
g8
S'user_system_views_users_user_view.html'
p294
sg10
S'user_system/views/users/user_view'
p295
sg12
g13
(g14
g15
NtRp296
(dp297
g18
I1
sg19
I66
sg20
I191
sg21
I0
sg22
I0
sg23
I110
sg24
I44
sbssg25
S'r\x15\x08\xf19P\x7f\xfc\xc01\xae\xf5\xf4X\xc4\xab'
p298
ssS'teach_views_campaigns___init__'
p299
(dp300
g6
(dp301
g8
S'teach_views_campaigns___init__.html'
p302
sg10
S'teach/views/campaigns/__init__'
p303
sg12
g13
(g14
g15
NtRp304
(dp305
g18
I1
sg19
I0
sg20
I1
sg21
I0
sg22
I0
sg23
I0
sg24
I0
sbssg25
S'\xdd3^z\xa4\xd5\x95X\x1fk\x83<\xed@\x053'
p306
ssS'user_system_views_apps___init__'
p307
(dp308
g6
(dp309
g8
S'user_system_views_apps___init__.html'
p310
sg10
S'user_system/views/apps/__init__'
p311
sg12
g13
(g14
g15
NtRp312
(dp313
g18
I1
sg19
I0
sg20
I1
sg21
I0
sg22
I0
sg23
I0
sg24
I0
sbssg25
S'?:\xf2A\xfa^]\xc5NR\xc9\x13\xb0\xe4\xfa\x9e'
p314
ssS'user_system_views_users_tests_test_get_users_list_view'
p315
(dp316
g6
(dp317
g8
S'user_system_views_users_tests_test_get_users_list_view.html'
p318
sg10
S'user_system/views/users/tests/test_get_users_list_view'
p319
sg12
g13
(g14
g15
NtRp320
(dp321
g18
I1
sg19
I0
sg20
I34
sg21
I0
sg22
I0
sg23
I0
sg24
I0
sbssg25
S'\xf5\xe3\x1a\x14e\xf8\xc2\xf0\xa8^$\xf7\x9dv\xb8f'
p322
ssS'create_views_books_tests_test_remove_tag_from_subchapter_view'
p323
(dp324
g6
(dp325
g8
S'create_views_books_tests_test_remove_tag_from_subchapter_view.html'
p326
sg10
S'create/views/books/tests/test_remove_tag_from_subchapter_view'
p327
sg12
g13
(g14
g15
NtRp328
(dp329
g18
I1
sg19
I0
sg20
I40
sg21
I0
sg22
I0
sg23
I0
sg24
I0
sbssg25
S"(Vo#\xdd\x9a\xbc\x11\xff\xd6'\xd7\xeb\xca\x1aM"
p330
ssS'teach_views_teacher_news_feed_teacher_news_feed_view'
p331
(dp332
g6
(dp333
g8
S'teach_views_teacher_news_feed_teacher_news_feed_view.html'
p334
sg10
S'teach/views/teacher_news_feed/teacher_news_feed_view'
p335
sg12
g13
(g14
g15
NtRp336
(dp337
g18
I1
sg19
I8
sg20
I60
sg21
I0
sg22
I0
sg23
I38
sg24
I8
sbssg25
S'\n]Y\xde\x93\x8f\xd7O\x05\xcd\x92\x98!=\xcdd'
p338
ssS'user_system_views_apps_app_view'
p339
(dp340
g6
(dp341
g8
S'user_system_views_apps_app_view.html'
p342
sg10
S'user_system/views/apps/app_view'
p343
sg12
g13
(g14
g15
NtRp344
(dp345
g18
I1
sg19
I0
sg20
I13
sg21
I0
sg22
I0
sg23
I0
sg24
I0
sbssg25
S'\xf7n\xffX\xe7\xd2\xb6\xa5\xc5\xe5\x96\x13\xf4\x9c\xac\x1e'
p346
ssS'teach_views_summaries_student_list_summary'
p347
(dp348
g6
(dp349
g202
S'teach_views_summaries_student_list_summary.html'
p350
sg204
S'teach/views/summaries/student_list_summary'
p351
sg206
g13
(g14
g15
NtRp352
(dp353
g18
I1
sg19
I36
sg20
I97
sg21
I0
sg22
I0
sg23
I77
sg24
I36
sbssg25
S'\xbd\xc1?\xb03$0J \x16\xe0\xb7\xa3\x1f\x92\x81'
p354
ssS'create_views_tags_tests_test_get_tag_by_id_view'
p355
(dp356
g6
(dp357
g8
S'create_views_tags_tests_test_get_tag_by_id_view.html'
p358
sg10
S'create/views/tags/tests/test_get_tag_by_id_view'
p359
sg12
g13
(g14
g15
NtRp360
(dp361
g18
I1
sg19
I0
sg20
I20
sg21
I0
sg22
I0
sg23
I0
sg24
I0
sbssg25
S'T\xd5\xd7\xd9\xb8\x12\x81xj\xca\x90\xa41\xcf\x02]'
p362
ssS'create_views_questions_tests_test_remove_tag_view'
p363
(dp364
g6
(dp365
g8
S'create_views_questions_tests_test_remove_tag_view.html'
p366
sg10
S'create/views/questions/tests/test_remove_tag_view'
p367
sg12
g13
(g14
g15
NtRp368
(dp369
g18
I1
sg19
I0
sg20
I36
sg21
I0
sg22
I0
sg23
I0
sg24
I0
sbssg25
S'\xbdV1EN\xfe\x8e;\xe4\x92\x91r\xd6Q\x03\x80'
p370
ssS'teach_views_summaries_leaderboard_view'
p371
(dp372
g6
(dp373
g113
S'teach_views_summaries_leaderboard_view.html'
p374
sg115
S'teach/views/summaries/leaderboard_view'
p375
sg117
g13
(g14
g15
NtRp376
(dp377
g18
I1
sg19
I66
sg20
I161
sg21
I0
sg22
I0
sg23
I131
sg24
I66
sbssg25
S'\xa4\xa5\xc0\x98\xe91S\x81\xc4\xb2\xb9\xe7C\xe7\n\x8f'
p378
ssS'create_views_questions_tests_test_add_tag_view'
p379
(dp380
g6
(dp381
g8
S'create_views_questions_tests_test_add_tag_view.html'
p382
sg10
S'create/views/questions/tests/test_add_tag_view'
p383
sg12
g13
(g14
g15
NtRp384
(dp385
g18
I1
sg19
I0
sg20
I35
sg21
I0
sg22
I0
sg23
I0
sg24
I0
sbssg25
S'\x8e\x13\xdd\xbd\xba\r&,-|&W-a`\x7f'
p386
ssS'create_views_quests_quest_view'
p387
(dp388
g6
(dp389
g113
S'create_views_quests_quest_view.html'
p390
sg115
S'create/views/quests/quest_view'
p391
sg117
g13
(g14
g15
NtRp392
(dp393
g18
I1
sg19
I78
sg20
I229
sg21
I0
sg22
I1
sg23
I117
sg24
I59
sbssg25
S'\x98\xfc\xdc\xc4}\x8cb\xb1l\xe52!\xa6\x12\x03\xee'
p394
ssS'api_logging_views_query_stat_query_stat_view'
p395
(dp396
g6
(dp397
S'html_filename'
p398
S'api_logging_views_query_stat_query_stat_view.html'
p399
sS'name'
p400
S'api_logging/views/query_stat/query_stat_view'
p401
sS'nums'
p402
g13
(g14
g15
NtRp403
(dp404
g18
I1
sg19
I2
sg20
I57
sg21
I0
sg22
I0
sg23
I32
sg24
I2
sbssg25
S"\xcct\xdf\xc6\x93\xa3\x11\x8dfs\xaf\x01C'\xa5o"
p405
ssS'user_system_views_schools_school_view'
p406
(dp407
g6
(dp408
g8
S'user_system_views_schools_school_view.html'
p409
sg10
S'user_system/views/schools/school_view'
p410
sg12
g13
(g14
g15
NtRp411
(dp412
g18
I1
sg19
I0
sg20
I16
sg21
I0
sg22
I0
sg23
I0
sg24
I0
sbssg25
S'\xc8\x0b\xef\x9e86\xe5\x19\xaa\x9e\x93+\x03\xfb\x98\x99'
p413
ssS'teach_views_teacher_chapters___init__'
p414
(dp415
g6
(dp416
g8
S'teach_views_teacher_chapters___init__.html'
p417
sg10
S'teach/views/teacher_chapters/__init__'
p418
sg12
g13
(g14
g15
NtRp419
(dp420
g18
I1
sg19
I0
sg20
I1
sg21
I0
sg22
I0
sg23
I0
sg24
I0
sbssg25
S'\x10AP\xc9\nC\xd2REz\xf6\xe5\xd2(\xee`'
p421
ssS'user_system_views_batch_processing___init__'
p422
(dp423
g6
(dp424
g8
S'user_system_views_batch_processing___init__.html'
p425
sg10
S'user_system/views/batch_processing/__init__'
p426
sg12
g13
(g14
g15
NtRp427
(dp428
g18
I1
sg19
I0
sg20
I1
sg21
I0
sg22
I0
sg23
I0
sg24
I0
sbssg25
S'\x11\xaa\xa5O\xecz\xb9\x06\xf9\x1bZ\xd3\xf3\x8bm]'
p429
ssS'user_system_views_logins_tests_test_facebook_login_view'
p430
(dp431
g6
(dp432
g8
S'user_system_views_logins_tests_test_facebook_login_view.html'
p433
sg10
S'user_system/views/logins/tests/test_facebook_login_view'
p434
sg12
g13
(g14
g15
NtRp435
(dp436
g18
I1
sg19
I0
sg20
I51
sg21
I0
sg22
I0
sg23
I0
sg24
I0
sbssg25
S'\x8eg\xfbA\xbdf+\x81\xe9\x8a\x16\x82\xe9\xe3\xc0\xf4'
p437
ssS'user_system_views_signups_tests_test_email_signup_view'
p438
(dp439
g6
(dp440
g8
S'user_system_views_signups_tests_test_email_signup_view.html'
p441
sg10
S'user_system/views/signups/tests/test_email_signup_view'
p442
sg12
g13
(g14
g15
NtRp443
(dp444
g18
I1
sg19
I0
sg20
I51
sg21
I0
sg22
I0
sg23
I0
sg24
I0
sbssg25
S'\xa3\xb2\xaf-\x99\xe3]\xcc\xe6\x8b\xeb\xf63=I\xb4'
p445
ssS'user_system_views_users_teacher_mapping_view'
p446
(dp447
g6
(dp448
g8
S'user_system_views_users_teacher_mapping_view.html'
p449
sg10
S'user_system/views/users/teacher_mapping_view'
p450
sg12
g13
(g14
g15
NtRp451
(dp452
g18
I1
sg19
I0
sg20
I14
sg21
I0
sg22
I0
sg23
I0
sg24
I0
sbssg25
S'B\x04t\x93Z\x86Q.\x17\xf9\xa0*\xf6\x86\xcf\x10'
p453
ssS'create_views_tags_tests_test_search_tag_view'
p454
(dp455
g6
(dp456
g8
S'create_views_tags_tests_test_search_tag_view.html'
p457
sg10
S'create/views/tags/tests/test_search_tag_view'
p458
sg12
g13
(g14
g15
NtRp459
(dp460
g18
I1
sg19
I0
sg20
I28
sg21
I0
sg22
I0
sg23
I0
sg24
I0
sbssg25
S'\xbc\x80\xceQ\xf1\xc5\xfa\xd5\xf1/g\x12l*,\x1c'
p461
ssS'user_system_views_schools_grade_view'
p462
(dp463
g6
(dp464
g8
S'user_system_views_schools_grade_view.html'
p465
sg10
S'user_system/views/schools/grade_view'
p466
sg12
g13
(g14
g15
NtRp467
(dp468
g18
I1
sg19
I0
sg20
I16
sg21
I0
sg22
I0
sg23
I0
sg24
I0
sbssg25
S'_i&b\x01\x08$\xe7\xbe\nW\x92\x80\x97\xf1Q'
p469
ssS'user_system_views_signups_email_signup_view'
p470
(dp471
g6
(dp472
g8
S'user_system_views_signups_email_signup_view.html'
p473
sg10
S'user_system/views/signups/email_signup_view'
p474
sg12
g13
(g14
g15
NtRp475
(dp476
g18
I1
sg19
I8
sg20
I44
sg21
I0
sg22
I0
sg23
I0
sg24
I0
sbssg25
S'&G\xd1\xc4{\x9b\xbf\x14\x92F\xbe\x13\xeer\x84\x1b'
p477
ssS'teach_views_teacher_tags___init__'
p478
(dp479
g6
(dp480
g8
S'teach_views_teacher_tags___init__.html'
p481
sg10
S'teach/views/teacher_tags/__init__'
p482
sg12
g13
(g14
g15
NtRp483
(dp484
g18
I1
sg19
I0
sg20
I1
sg21
I0
sg22
I0
sg23
I0
sg24
I0
sbssg25
S'cp\x00\xdc\x00\xe5M\x9f\x1f\xaa\xb2Y\xd9%\x1d"'
p485
ssS'create_views_books_book_subchapter_view'
p486
(dp487
g6
(dp488
g8
S'create_views_books_book_subchapter_view.html'
p489
sg10
S'create/views/books/book_subchapter_view'
p490
sg12
g13
(g14
g15
NtRp491
(dp492
g18
I1
sg19
I8
sg20
I46
sg21
I0
sg22
I0
sg23
I0
sg24
I0
sbssg25
S'\x0e\xa6\x19V\xf0\xf3;\xa2\x8d \xd8i\xb7*D\x87'
p493
ssS'create_views_questions_tests_test_hide_question_view'
p494
(dp495
g6
(dp496
g8
S'create_views_questions_tests_test_hide_question_view.html'
p497
sg10
S'create/views/questions/tests/test_hide_question_view'
p498
sg12
g13
(g14
g15
NtRp499
(dp500
g18
I1
sg19
I0
sg20
I30
sg21
I0
sg22
I0
sg23
I0
sg24
I0
sbssg25
S'\xb3\x10S\x8a\x9b\xecw\xaa\xd3\x81\x1b\xf2\xab\xb2QG'
p501
ssS'create_views_questions_question_template_view'
p502
(dp503
g6
(dp504
g8
S'create_views_questions_question_template_view.html'
p505
sg10
S'create/views/questions/question_template_view'
p506
sg12
g13
(g14
g15
NtRp507
(dp508
g18
I1
sg19
I40
sg20
I116
sg21
I0
sg22
I0
sg23
I86
sg24
I40
sbssg25
S'w\xa9\xc2U|\xff\xfdz/\x01\x02\xd6P<\x16('
p509
ssS'user_system_views_logins_email_login_view'
p510
(dp511
g6
(dp512
g8
S'user_system_views_logins_email_login_view.html'
p513
sg10
S'user_system/views/logins/email_login_view'
p514
sg12
g13
(g14
g15
NtRp515
(dp516
g18
I1
sg19
I8
sg20
I35
sg21
I0
sg22
I0
sg23
I0
sg24
I0
sbssg25
S'\x9e\xe3\x8e\xf9o\x8aYC\xa2\xcb\xe7\xbd\x94\xe1O\x1a'
p517
ssS'user_system_views_signups_tests_test_facebook_signup_view'
p518
(dp519
g6
(dp520
g8
S'user_system_views_signups_tests_test_facebook_signup_view.html'
p521
sg10
S'user_system/views/signups/tests/test_facebook_signup_view'
p522
sg12
g13
(g14
g15
NtRp523
(dp524
g18
I1
sg19
I0
sg20
I60
sg21
I0
sg22
I0
sg23
I0
sg24
I0
sbssg25
S'\x93<\xc8]\x14\t\xa8/\xdd\xd1\xa4]\xfbp!\xbd'
p525
ssS'create_views_question_datasets_question_dataset_view'
p526
(dp527
g6
(dp528
g8
S'create_views_question_datasets_question_dataset_view.html'
p529
sg10
S'create/views/question_datasets/question_dataset_view'
p530
sg12
g13
(g14
g15
NtRp531
(dp532
g18
I1
sg19
I4
sg20
I20
sg21
I0
sg22
I0
sg23
I5
sg24
I4
sbssg25
S'\x01\xfb\xf2\x86m\xd4\xf9\xc3\xe6\xb6\x11\x96u;\x1ez'
p533
ssS'create_views_quests_tests_test_remove_question_template_view'
p534
(dp535
g6
(dp536
g8
S'create_views_quests_tests_test_remove_question_template_view.html'
p537
sg10
S'create/views/quests/tests/test_remove_question_template_view'
p538
sg12
g13
(g14
g15
NtRp539
(dp540
g18
I1
sg19
I0
sg20
I0
sg21
I0
sg22
I0
sg23
I0
sg24
I0
sbssg25
S'\x19g\xdfM\x1a\x019\xaf\x1baIeR\xe5u\xa7'
p541
ssS'create_views_summary_create_summary_view'
p542
(dp543
g6
(dp544
g8
S'create_views_summary_create_summary_view.html'
p545
sg10
S'create/views/summary/create_summary_view'
p546
sg12
g13
(g14
g15
NtRp547
(dp548
g18
I1
sg19
I0
sg20
I59
sg21
I0
sg22
I0
sg23
I48
sg24
I0
sbssg25
S"'\xfe\xf4\x8c\xed2\xc3\x18\xf6\x85\x1f\xb0\xf0G\xb7\x8f"
p549
ssS'user_system_views_batch_processing_tests___init__'
p550
(dp551
g131
(dp552
g398
S'user_system_views_batch_processing_tests___init__.html'
p553
sg400
S'user_system/views/batch_processing/tests/__init__'
p554
sg402
g13
(g14
g15
NtRp555
(dp556
g18
I1
sg19
I0
sg20
I1
sg21
I0
sg22
I0
sg23
I0
sg24
I0
sbssg140
S'\xbc\xd6\xeb\xb3\xba\xcaz\xf7{\xd4B\xb5}l\xdf\x96'
p557
ssS'create_views_books_tests_test_get_books_list_view'
p558
(dp559
g6
(dp560
g8
S'create_views_books_tests_test_get_books_list_view.html'
p561
sg10
S'create/views/books/tests/test_get_books_list_view'
p562
sg12
g13
(g14
g15
NtRp563
(dp564
g18
I1
sg19
I0
sg20
I21
sg21
I0
sg22
I0
sg23
I0
sg24
I0
sbssg25
S'\x16\x8f\xf1\x81>\x0f\xb4S\x19\xff\xcd\xc1Y\xe9;\x98'
p565
ssS'api_logging_views_summary_user_activity_summary_view'
p566
(dp567
g6
(dp568
g8
S'api_logging_views_summary_user_activity_summary_view.html'
p569
sg10
S'api_logging/views/summary/user_activity_summary_view'
p570
sg12
g13
(g14
g15
NtRp571
(dp572
g18
I1
sg19
I8
sg20
I27
sg21
I0
sg22
I0
sg23
I13
sg24
I8
sbssg25
S'\x99\xfc\\\x0e\x10\x840(\x94\xd3(k\x9f\xb4\xd9M'
p573
ssS'teach_views_summaries_tests_test_class_ranking_view'
p574
(dp575
g6
(dp576
g8
S'teach_views_summaries_tests_test_class_ranking_view.html'
p577
sg10
S'teach/views/summaries/tests/test_class_ranking_view'
p578
sg12
g13
(g14
g15
NtRp579
(dp580
g18
I1
sg19
I0
sg20
I9
sg21
I0
sg22
I0
sg23
I1
sg24
I0
sbssg25
S'(X\xecwo\x8e\xea\xcf\x80(J\x98&\xb8|\xdc'
p581
ssS'create_views_tags_tests_test_get_tags_list_view'
p582
(dp583
g6
(dp584
g8
S'create_views_tags_tests_test_get_tags_list_view.html'
p585
sg10
S'create/views/tags/tests/test_get_tags_list_view'
p586
sg12
g13
(g14
g15
NtRp587
(dp588
g18
I1
sg19
I0
sg20
I21
sg21
I0
sg22
I0
sg23
I0
sg24
I0
sbssg25
S'F\xf6yk?\xb2\xc12\x93\x8b\xe6Bx\xa09\x89'
p589
ssS'learn_views_daily_quests_daily_quest_view'
p590
(dp591
g6
(dp592
g113
S'learn_views_daily_quests_daily_quest_view.html'
p593
sg115
S'learn/views/daily_quests/daily_quest_view'
p594
sg117
g13
(g14
g15
NtRp595
(dp596
g18
I1
sg19
I20
sg20
I75
sg21
I0
sg22
I0
sg23
I51
sg24
I20
sbssg25
S'w\xa4\xc2\x94?\x89\x03\xe0g\xae\xea\x86\x880\xfb\xa8'
p597
ssS'privilege_views_privileges___init__'
p598
(dp599
g6
(dp600
g8
S'privilege_views_privileges___init__.html'
p601
sg10
S'privilege/views/privileges/__init__'
p602
sg12
g13
(g14
g15
NtRp603
(dp604
g18
I1
sg19
I0
sg20
I1
sg21
I0
sg22
I0
sg23
I0
sg24
I0
sbssg25
S']\x14S\xdf\xb4:Tx\xb9\x98\x89\xe7\x01%DZ'
p605
ssS'teach_views_summaries_class_ranking_view'
p606
(dp607
g6
(dp608
g113
S'teach_views_summaries_class_ranking_view.html'
p609
sg115
S'teach/views/summaries/class_ranking_view'
p610
sg117
g13
(g14
g15
NtRp611
(dp612
g18
I1
sg19
I2
sg20
I17
sg21
I0
sg22
I0
sg23
I8
sg24
I2
sbssg25
S'\xf7\xf8\x7f4\xf6\xe2`\x1d\xaf\xe4(/\xc61\x13\x83'
p613
ssS'user_system_views_users_tests_test_get_users_by_signup_type_view'
p614
(dp615
g6
(dp616
g8
S'user_system_views_users_tests_test_get_users_by_signup_type_view.html'
p617
sg10
S'user_system/views/users/tests/test_get_users_by_signup_type_view'
p618
sg12
g13
(g14
g15
NtRp619
(dp620
g18
I1
sg19
I0
sg20
I44
sg21
I0
sg22
I0
sg23
I0
sg24
I0
sbssg25
S'T/\xf9\xf8\x94\xd6Lm\x89o\xb6\x99/Z\xc1]'
p621
ssS'teach_views_summaries_tests_test_leaderboard_view'
p622
(dp623
g6
(dp624
g8
S'teach_views_summaries_tests_test_leaderboard_view.html'
p625
sg10
S'teach/views/summaries/tests/test_leaderboard_view'
p626
sg12
g13
(g14
g15
NtRp627
(dp628
g18
I1
sg19
I0
sg20
I7
sg21
I0
sg22
I0
sg23
I1
sg24
I0
sbssg25
S'7\xbd _\xbf\xdc\xe7/\xf9\xdb\x16\xd9&v\xd6S'
p629
ssS'user_system_views_users_tests_test_get_user_by_id_view'
p630
(dp631
g6
(dp632
g8
S'user_system_views_users_tests_test_get_user_by_id_view.html'
p633
sg10
S'user_system/views/users/tests/test_get_user_by_id_view'
p634
sg12
g13
(g14
g15
NtRp635
(dp636
g18
I1
sg19
I0
sg20
I27
sg21
I0
sg22
I0
sg23
I0
sg24
I0
sbssg25
S'\xd7\x7f\x0c\xb9\xda.\xf1\x82\xb4\xdf*z\x10(o)'
p637
ssS'teach_views_daily_quest_templates___init__'
p638
(dp639
g6
(dp640
g8
S'teach_views_daily_quest_templates___init__.html'
p641
sg10
S'teach/views/daily_quest_templates/__init__'
p642
sg12
g13
(g14
g15
NtRp643
(dp644
g18
I1
sg19
I0
sg20
I1
sg21
I0
sg22
I0
sg23
I0
sg24
I0
sbssg25
S'\xc1b\x1f\x95\xabR`C\xe80\xb9tNC\r3'
p645
ssS'create_views_tags_tests___init__'
p646
(dp647
g6
(dp648
g8
S'create_views_tags_tests___init__.html'
p649
sg10
S'create/views/tags/tests/__init__'
p650
sg12
g13
(g14
g15
NtRp651
(dp652
g18
I1
sg19
I0
sg20
I0
sg21
I0
sg22
I0
sg23
I0
sg24
I0
sbssg25
S'\x19g\xdfM\x1a\x019\xaf\x1baIeR\xe5u\xa7'
p653
ssS'user_system_views___init__'
p654
(dp655
g6
(dp656
g8
S'user_system_views___init__.html'
p657
sg10
S'user_system/views/__init__'
p658
sg12
g13
(g14
g15
NtRp659
(dp660
g18
I1
sg19
I0
sg20
I6
sg21
I0
sg22
I0
sg23
I0
sg24
I0
sbssg25
S'F\xa0L<\x89\xf6\x17C\x98\xb9\xf9\x9c\x08\xff\x8d\x8a'
p661
ssS'user_system_views_users___init__'
p662
(dp663
g6
(dp664
g8
S'user_system_views_users___init__.html'
p665
sg10
S'user_system/views/users/__init__'
p666
sg12
g13
(g14
g15
NtRp667
(dp668
g18
I1
sg19
I0
sg20
I7
sg21
I0
sg22
I0
sg23
I0
sg24
I0
sbssg25
S']\x15\xfe\xc7\xefw\x97\xcc\x87v\xa2Z\x9b\xb1\x91\xaf'
p669
ssS'user_system_views_roles_tests___init__'
p670
(dp671
g6
(dp672
g8
S'user_system_views_roles_tests___init__.html'
p673
sg10
S'user_system/views/roles/tests/__init__'
p674
sg12
g13
(g14
g15
NtRp675
(dp676
g18
I1
sg19
I0
sg20
I0
sg21
I0
sg22
I0
sg23
I0
sg24
I0
sbssg25
S'\x19g\xdfM\x1a\x019\xaf\x1baIeR\xe5u\xa7'
p677
ssS'create_views_questions_question_view'
p678
(dp679
g6
(dp680
g8
S'create_views_questions_question_view.html'
p681
sg10
S'create/views/questions/question_view'
p682
sg12
g13
(g14
g15
NtRp683
(dp684
g18
I1
sg19
I34
sg20
I113
sg21
I0
sg22
I1
sg23
I40
sg24
I21
sbssg25
S'x\x1b\xf3\x9b\x13Z\xdalU\x8bJ\x89\xb3qc\x8d'
p685
ssS'teach_views_daily_quest_templates_daily_quest_template_view'
p686
(dp687
g6
(dp688
g8
S'teach_views_daily_quest_templates_daily_quest_template_view.html'
p689
sg10
S'teach/views/daily_quest_templates/daily_quest_template_view'
p690
sg12
g13
(g14
g15
NtRp691
(dp692
g18
I1
sg19
I18
sg20
I54
sg21
I0
sg22
I0
sg23
I33
sg24
I18
sbssg25
S'\x97J\xccM\x9b\xcd1\xaf\x95\xea\xd8\x8d\xdc(\x89['
p693
ssS'create_views_books_tests_test_get_book_by_id_view'
p694
(dp695
g6
(dp696
g8
S'create_views_books_tests_test_get_book_by_id_view.html'
p697
sg10
S'create/views/books/tests/test_get_book_by_id_view'
p698
sg12
g13
(g14
g15
NtRp699
(dp700
g18
I1
sg19
I0
sg20
I20
sg21
I0
sg22
I0
sg23
I0
sg24
I0
sbssg25
S'\xc88x\xaf\x84e\xaa6\x17\xdf\x0e\x8c`\xcaAO'
p701
ssS'user_system_views_apps_tests___init__'
p702
(dp703
g6
(dp704
g8
S'user_system_views_apps_tests___init__.html'
p705
sg10
S'user_system/views/apps/tests/__init__'
p706
sg12
g13
(g14
g15
NtRp707
(dp708
g18
I1
sg19
I0
sg20
I0
sg21
I0
sg22
I0
sg23
I0
sg24
I0
sbssg25
S'\x19g\xdfM\x1a\x019\xaf\x1baIeR\xe5u\xa7'
p709
ssS'create_views_quests_tests_test_add_question_view'
p710
(dp711
g6
(dp712
S'html_filename'
p713
S'create_views_quests_tests_test_add_question_view.html'
p714
sS'name'
p715
S'create/views/quests/tests/test_add_question_view'
p716
sS'nums'
p717
g13
(g14
g15
NtRp718
(dp719
g18
I1
sg19
I0
sg20
I35
sg21
I0
sg22
I0
sg23
I0
sg24
I0
sbssg25
S'!\xc5U\xa1\x17\x85\xb4\xfb\x1c\xc1\xb3h\xfa\x93\xb7\xf0'
p720
ssS'create_views_books___init__'
p721
(dp722
g6
(dp723
g8
S'create_views_books___init__.html'
p724
sg10
S'create/views/books/__init__'
p725
sg12
g13
(g14
g15
NtRp726
(dp727
g18
I1
sg19
I0
sg20
I3
sg21
I0
sg22
I0
sg23
I0
sg24
I0
sbssg25
S'\xce\x13\xc8S|wF\xe3\x148\xa0?ez,\xc4'
p728
ssS'create_views_tests_test_view'
p729
(dp730
g200
(dp731
g202
S'create_views_tests_test_view.html'
p732
sg204
S'create/views/tests/test_view'
p733
sg206
g13
(g14
g15
NtRp734
(dp735
g18
I1
sg19
I14
sg20
I52
sg21
I0
sg22
I0
sg23
I25
sg24
I14
sbssg209
S'\x86q^I)\xc4\xd1\x11bs\xa3\x18S\xaa\x8b\xdd'
p736
ssS'teach_views___init__'
p737
(dp738
g6
(dp739
g8
S'teach_views___init__.html'
p740
sg10
S'teach/views/__init__'
p741
sg12
g13
(g14
g15
NtRp742
(dp743
g18
I1
sg19
I0
sg20
I4
sg21
I0
sg22
I0
sg23
I0
sg24
I0
sbssg25
S'\xbb\xd5\x19}\x18\xa2M\x81f\xac\xd2>+1\xda@'
p744
ssS'user_system_views_logins_tests___init__'
p745
(dp746
g6
(dp747
g8
S'user_system_views_logins_tests___init__.html'
p748
sg10
S'user_system/views/logins/tests/__init__'
p749
sg12
g13
(g14
g15
NtRp750
(dp751
g18
I1
sg19
I0
sg20
I1
sg21
I0
sg22
I0
sg23
I0
sg24
I0
sbssg25
S'\xbc\xd6\xeb\xb3\xba\xcaz\xf7{\xd4B\xb5}l\xdf\x96'
p752
ssS'user_system_views_signups_map_demo_signup_view'
p753
(dp754
g6
(dp755
g8
S'user_system_views_signups_map_demo_signup_view.html'
p756
sg10
S'user_system/views/signups/map_demo_signup_view'
p757
sg12
g13
(g14
g15
NtRp758
(dp759
g18
I1
sg19
I18
sg20
I134
sg21
I0
sg22
I0
sg23
I115
sg24
I18
sbssg25
S"\xc8(\xb1Q\xfb\xb0\xdfc\x94\xe2\x99\r\xb4'G["
p760
ssS'learn_views_student_news_feed_student_news_feed_view'
p761
(dp762
g6
(dp763
g202
S'learn_views_student_news_feed_student_news_feed_view.html'
p764
sg204
S'learn/views/student_news_feed/student_news_feed_view'
p765
sg206
g13
(g14
g15
NtRp766
(dp767
g18
I1
sg19
I14
sg20
I64
sg21
I0
sg22
I0
sg23
I39
sg24
I12
sbssg25
S'G\xa9|~;\x15\x07\x19\xf9\xf2\x04\x9f)i\xdb\x13'
p768
ssS'create_views_quests_tests___init__'
p769
(dp770
g6
(dp771
g8
S'create_views_quests_tests___init__.html'
p772
sg10
S'create/views/quests/tests/__init__'
p773
sg12
g13
(g14
g15
NtRp774
(dp775
g18
I1
sg19
I0
sg20
I0
sg21
I0
sg22
I0
sg23
I0
sg24
I0
sbssg25
S'\x19g\xdfM\x1a\x019\xaf\x1baIeR\xe5u\xa7'
p776
ssS'user_system_views_schools_course_view'
p777
(dp778
g6
(dp779
g8
S'user_system_views_schools_course_view.html'
p780
sg10
S'user_system/views/schools/course_view'
p781
sg12
g13
(g14
g15
NtRp782
(dp783
g18
I1
sg19
I0
sg20
I17
sg21
I0
sg22
I0
sg23
I0
sg24
I0
sbssg25
S'\xd7\xc8\x06z,\xe1\xceN\xa2.OL]\xcd\xb1\x83'
p784
ssS'user_system_views_users_tests_test_delete_user_view'
p785
(dp786
g6
(dp787
g8
S'user_system_views_users_tests_test_delete_user_view.html'
p788
sg10
S'user_system/views/users/tests/test_delete_user_view'
p789
sg12
g13
(g14
g15
NtRp790
(dp791
g18
I1
sg19
I0
sg20
I22
sg21
I0
sg22
I0
sg23
I0
sg24
I0
sbssg25
S'\xe4S$\xa1t\xc6\xbe\xc7\xb9^Y\x05{\x92KQ'
p792
ssS'create_views_books_tests_test_hide_book_view'
p793
(dp794
g6
(dp795
g8
S'create_views_books_tests_test_hide_book_view.html'
p796
sg10
S'create/views/books/tests/test_hide_book_view'
p797
sg12
g13
(g14
g15
NtRp798
(dp799
g18
I1
sg19
I0
sg20
I25
sg21
I0
sg22
I0
sg23
I0
sg24
I0
sbssg25
S'\xe1\x17\x16\xca\x8a\xc5c\x1b\xce\xab\xb8\xf9G\x03\x9dQ'
p800
ssS'user_system_views_batch_processing_update_user_streak_view'
p801
(dp802
g6
(dp803
g398
S'user_system_views_batch_processing_update_user_streak_view.html'
p804
sg400
S'user_system/views/batch_processing/update_user_streak_view'
p805
sg402
g13
(g14
g15
NtRp806
(dp807
g18
I1
sg19
I4
sg20
I25
sg21
I0
sg22
I0
sg23
I0
sg24
I0
sbssg25
S'\xa6k\xedW\xa7\x11(\x87{\x15\x19{\xb8\xb4&\x98'
p808
ssS'create_views_books_tests_test_add_subchapter_view'
p809
(dp810
g6
(dp811
g8
S'create_views_books_tests_test_add_subchapter_view.html'
p812
sg10
S'create/views/books/tests/test_add_subchapter_view'
p813
sg12
g13
(g14
g15
NtRp814
(dp815
g18
I1
sg19
I0
sg20
I60
sg21
I0
sg22
I0
sg23
I0
sg24
I0
sbssg25
S"\xcc^2\xc4\xf2\xb1\xdc\xe8\xf0t\xb6\xcc\x1f\xce\xf1'"
p816
ssS'user_system_views_roles_user_role_view'
p817
(dp818
g6
(dp819
g8
S'user_system_views_roles_user_role_view.html'
p820
sg10
S'user_system/views/roles/user_role_view'
p821
sg12
g13
(g14
g15
NtRp822
(dp823
g18
I1
sg19
I8
sg20
I31
sg21
I0
sg22
I0
sg23
I0
sg24
I0
sbssg25
S'S@\xea\xb7\xd6\xe1\x1b\x1dU\x18a\x9d\x80\xe3A\xb9'
p824
ssS'create_views_questions_tests_test_get_question_list_view'
p825
(dp826
g6
(dp827
g8
S'create_views_questions_tests_test_get_question_list_view.html'
p828
sg10
S'create/views/questions/tests/test_get_question_list_view'
p829
sg12
g13
(g14
g15
NtRp830
(dp831
g18
I1
sg19
I0
sg20
I32
sg21
I0
sg22
I0
sg23
I0
sg24
I0
sbssg25
S'\xa2&\x88;1\\\xa2 \xb4&ejB\xd1%\x06'
p832
ssS'teach_views_teacher_news_feed___init__'
p833
(dp834
g6
(dp835
g8
S'teach_views_teacher_news_feed___init__.html'
p836
sg10
S'teach/views/teacher_news_feed/__init__'
p837
sg12
g13
(g14
g15
NtRp838
(dp839
g18
I1
sg19
I0
sg20
I1
sg21
I0
sg22
I0
sg23
I0
sg24
I0
sbssg25
S'\xe8\xcd\xf3\x9f\xa3=;`\xf0oZ\xcb!\x98\xac\x1c'
p840
ssS'user_system_views_logins___init__'
p841
(dp842
g6
(dp843
g8
S'user_system_views_logins___init__.html'
p844
sg10
S'user_system/views/logins/__init__'
p845
sg12
g13
(g14
g15
NtRp846
(dp847
g18
I1
sg19
I0
sg20
I2
sg21
I0
sg22
I0
sg23
I0
sg24
I0
sbssg25
S'\xa0\xd3\xaas\xc2\xb93+ED.\xe5\xfe\xf2\xad\x87'
p848
ssS'user_system_views_signups_hardcoded_tests_test_test_account_view'
p849
(dp850
g6
(dp851
g8
S'user_system_views_signups_hardcoded_tests_test_test_account_view.html'
p852
sg10
S'user_system/views/signups/hardcoded/tests/test_test_account_view'
p853
sg12
g13
(g14
g15
NtRp854
(dp855
g18
I1
sg19
I0
sg20
I24
sg21
I0
sg22
I0
sg23
I0
sg24
I0
sbssg25
S'@\xc3::\xf8h\x1aT\x9f\x83\xee1\xb7\x9a\xe0\xf9'
p856
ssS'create_views_daily_quest_copies___init__'
p857
(dp858
g6
(dp859
g8
S'create_views_daily_quest_copies___init__.html'
p860
sg10
S'create/views/daily_quest_copies/__init__'
p861
sg12
g13
(g14
g15
NtRp862
(dp863
g18
I1
sg19
I0
sg20
I1
sg21
I0
sg22
I0
sg23
I0
sg24
I0
sbssg25
S"'\xb6_z\x90s\x92\xdd\xc7\xb2\x87d\xba\xe24X"
p864
ssS'create_views_tests___init__'
p865
(dp866
g200
(dp867
g202
S'create_views_tests___init__.html'
p868
sg204
S'create/views/tests/__init__'
p869
sg206
g13
(g14
g15
NtRp870
(dp871
g18
I1
sg19
I0
sg20
I2
sg21
I0
sg22
I0
sg23
I0
sg24
I0
sbssg209
S'\xd5\xdb\x9e\xf0\xb4h\x98\xd4K\x0b\xaf\x16M\x13\xcf\x88'
p872
ssS'create_views_quests_tests_test_hide_quest_view'
p873
(dp874
g6
(dp875
g8
S'create_views_quests_tests_test_hide_quest_view.html'
p876
sg10
S'create/views/quests/tests/test_hide_quest_view'
p877
sg12
g13
(g14
g15
NtRp878
(dp879
g18
I1
sg19
I0
sg20
I26
sg21
I0
sg22
I0
sg23
I0
sg24
I0
sbssg25
S'G\xcb\xcf\xbb~*\xa2i\xd2\xff\x81\x81\xf0)G\xda'
p880
ssS'learn_views_student_news_feed_tests___init__'
p881
(dp882
g6
(dp883
g8
S'learn_views_student_news_feed_tests___init__.html'
p884
sg10
S'learn/views/student_news_feed/tests/__init__'
p885
sg12
g13
(g14
g15
NtRp886
(dp887
g18
I1
sg19
I0
sg20
I0
sg21
I0
sg22
I0
sg23
I0
sg24
I0
sbssg25
S'\x19g\xdfM\x1a\x019\xaf\x1baIeR\xe5u\xa7'
p888
ssS'create_views_books_tests_test_add_tag_to_subchapter_view'
p889
(dp890
g6
(dp891
g8
S'create_views_books_tests_test_add_tag_to_subchapter_view.html'
p892
sg10
S'create/views/books/tests/test_add_tag_to_subchapter_view'
p893
sg12
g13
(g14
g15
NtRp894
(dp895
g18
I1
sg19
I0
sg20
I40
sg21
I0
sg22
I0
sg23
I0
sg24
I0
sbssg25
S'\xb78\xf4p\xcd\xec\xca\xaa\x93\xb9\xda\xa8Yo37'
p896
ssS'create_views_questions_tests_test_get_question_by_id_view'
p897
(dp898
g6
(dp899
g8
S'create_views_questions_tests_test_get_question_by_id_view.html'
p900
sg10
S'create/views/questions/tests/test_get_question_by_id_view'
p901
sg12
g13
(g14
g15
NtRp902
(dp903
g18
I1
sg19
I0
sg20
I24
sg21
I0
sg22
I0
sg23
I0
sg24
I0
sbssg25
S'\xa7[\x91\xa9\xa6\xb4\xbd&n$O^O\xec\xf2X'
p904
ssS'user_system_views_schools_classroom_view'
p905
(dp906
g6
(dp907
g8
S'user_system_views_schools_classroom_view.html'
p908
sg10
S'user_system/views/schools/classroom_view'
p909
sg12
g13
(g14
g15
NtRp910
(dp911
g18
I1
sg19
I2
sg20
I25
sg21
I0
sg22
I0
sg23
I6
sg24
I2
sbssg25
S'\xc5\x9bb\xc9\x83\xc2\x88\xd8,\x01\xeb\x94.\x8b\xf7\xd6'
p912
ssS'user_system_views_signups_verify_email_view'
p913
(dp914
g6
(dp915
g8
S'user_system_views_signups_verify_email_view.html'
p916
sg10
S'user_system/views/signups/verify_email_view'
p917
sg12
g13
(g14
g15
NtRp918
(dp919
g18
I1
sg19
I6
sg20
I26
sg21
I0
sg22
I0
sg23
I0
sg24
I0
sbssg25
S"B+;\xbf\xb1A\x1f\n\x94\x0e\xeb\xd0\xf1Y'l"
p920
ssS'user_system_views_schools___init__'
p921
(dp922
g6
(dp923
g8
S'user_system_views_schools___init__.html'
p924
sg10
S'user_system/views/schools/__init__'
p925
sg12
g13
(g14
g15
NtRp926
(dp927
g18
I1
sg19
I0
sg20
I4
sg21
I0
sg22
I0
sg23
I0
sg24
I0
sbssg25
S'\xb7\x05\xb1\x95\xf1V\x04[\x0e\xa0\xf7\x96.@Iw'
p928
ssS'create_views_quests___init__'
p929
(dp930
g6
(dp931
g8
S'create_views_quests___init__.html'
p932
sg10
S'create/views/quests/__init__'
p933
sg12
g13
(g14
g15
NtRp934
(dp935
g18
I1
sg19
I0
sg20
I1
sg21
I0
sg22
I0
sg23
I0
sg24
I0
sbssg25
S'\x8d\x97\x8c^6\xf0o\xc3_\x8dRQ}\xd2]a'
p936
ssS'create_views_books_tests_test_remove_subchapter_view'
p937
(dp938
g6
(dp939
g8
S'create_views_books_tests_test_remove_subchapter_view.html'
p940
sg10
S'create/views/books/tests/test_remove_subchapter_view'
p941
sg12
g13
(g14
g15
NtRp942
(dp943
g18
I1
sg19
I0
sg20
I44
sg21
I0
sg22
I0
sg23
I0
sg24
I0
sbssg25
S'\x0b\xddi\xaa_d\x8c\xf3b\xa2\x12\xbc\xce\xa5\xbf\x8b'
p944
ssS'teach_views_campaigns_campaign_view'
p945
(dp946
g6
(dp947
g202
S'teach_views_campaigns_campaign_view.html'
p948
sg204
S'teach/views/campaigns/campaign_view'
p949
sg206
g13
(g14
g15
NtRp950
(dp951
g18
I1
sg19
I8
sg20
I38
sg21
I0
sg22
I0
sg23
I18
sg24
I8
sbssg25
S'90\xbcHZ\xe7\x8e\xed\x1f\xed%@\xe6P\xe0O'
p952
ssS'create_views_daily_quest_copies_daily_quest_copy_view'
p953
(dp954
g6
(dp955
g8
S'create_views_daily_quest_copies_daily_quest_copy_view.html'
p956
sg10
S'create/views/daily_quest_copies/daily_quest_copy_view'
p957
sg12
g13
(g14
g15
NtRp958
(dp959
g18
I1
sg19
I0
sg20
I14
sg21
I0
sg22
I0
sg23
I0
sg24
I0
sbssg25
S'?\x95&\\\xae\xf0@\xfc\x96\xc15\xc9\x13\xf6_R'
p960
ssS'create_views_questions___init__'
p961
(dp962
g6
(dp963
g8
S'create_views_questions___init__.html'
p964
sg10
S'create/views/questions/__init__'
p965
sg12
g13
(g14
g15
NtRp966
(dp967
g18
I1
sg19
I0
sg20
I3
sg21
I0
sg22
I0
sg23
I0
sg24
I0
sbssg25
S'h\x154\xc5\xe58\xa8\xc8\xa9\xa6\xbea?\xcf?i'
p968
ssS'user_system_views_users_create_teacher_view'
p969
(dp970
g6
(dp971
g8
S'user_system_views_users_create_teacher_view.html'
p972
sg10
S'user_system/views/users/create_teacher_view'
p973
sg12
g13
(g14
g15
NtRp974
(dp975
g18
I1
sg19
I2
sg20
I34
sg21
I0
sg22
I0
sg23
I21
sg24
I2
sbssg25
S'=\xee\xed^jo\xc1\xebz\xedP\xf9\x91n\xec\x8d'
p976
ssS'learn_views_student_news_feed_tests_test_student_news_feed_view'
p977
(dp978
g6
(dp979
g8
S'learn_views_student_news_feed_tests_test_student_news_feed_view.html'
p980
sg10
S'learn/views/student_news_feed/tests/test_student_news_feed_view'
p981
sg12
g13
(g14
g15
NtRp982
(dp983
g18
I1
sg19
I2
sg20
I20
sg21
I0
sg22
I0
sg23
I0
sg24
I0
sbssg25
S'$\xe5\xe2\r\x17\x08S\x8f\xb4\xb4\xe6\x19\t\x1e\x7f\xfe'
p984
ssS'teach_views_summaries_daily_quest_daily_summary_view'
p985
(dp986
g6
(dp987
g8
S'teach_views_summaries_daily_quest_daily_summary_view.html'
p988
sg10
S'teach/views/summaries/daily_quest_daily_summary_view'
p989
sg12
g13
(g14
g15
NtRp990
(dp991
g18
I1
sg19
I12
sg20
I61
sg21
I0
sg22
I0
sg23
I39
sg24
I12
sbssg25
S'\x06\\F.\x8c\xd3M\x8e\xc5\xc9\xd5<\x13V\xd6C'
p992
ssS'create_views_summary___init__'
p993
(dp994
g6
(dp995
g8
S'create_views_summary___init__.html'
p996
sg10
S'create/views/summary/__init__'
p997
sg12
g13
(g14
g15
NtRp998
(dp999
g18
I1
sg19
I0
sg20
I1
sg21
I0
sg22
I0
sg23
I0
sg24
I0
sbssg25
S'#\xb7\xbd\xa1M\xe4\xa0\x05\xf5x\x057hU[\xca'
p1000
ssS'learn_views___init__'
p1001
(dp1002
g6
(dp1003
g8
S'learn_views___init__.html'
p1004
sg10
S'learn/views/__init__'
p1005
sg12
g13
(g14
g15
NtRp1006
(dp1007
g18
I1
sg19
I0
sg20
I2
sg21
I0
sg22
I0
sg23
I0
sg24
I0
sbssg25
S"?\xc0'\xcb\x1c\xf1\xaa\xf0\x9d\xc7\x0e\xf1\xda\x0eU\x17"
p1008
ssS'user_system_views_signups_hardcoded_test_account_view'
p1009
(dp1010
g6
(dp1011
g8
S'user_system_views_signups_hardcoded_test_account_view.html'
p1012
sg10
S'user_system/views/signups/hardcoded/test_account_view'
p1013
sg12
g13
(g14
g15
NtRp1014
(dp1015
g18
I1
sg19
I2
sg20
I18
sg21
I0
sg22
I0
sg23
I0
sg24
I0
sbssg25
S"\xb4\xf1\xfdH\x8f\xf1QX7'\\\xd3\xab.\xbc\x80"
p1016
ssS'user_system_views_batch_processing_tests_test_update_user_streak_view'
p1017
(dp1018
g131
(dp1019
g398
S'user_system_views_batch_processing_tests_test_update_user_streak_view.html'
p1020
sg400
S'user_system/views/batch_processing/tests/test_update_user_streak_view'
p1021
sg402
g13
(g14
g15
NtRp1022
(dp1023
g18
I1
sg19
I4
sg20
I32
sg21
I0
sg22
I0
sg23
I0
sg24
I0
sbssg140
S'\xbd \x8b5\xc6\xac5\x9f\xc4l\r\xd9i\x8f\xbe\x90'
p1024
ssS'user_system_views_users_create_student_view'
p1025
(dp1026
g6
(dp1027
g8
S'user_system_views_users_create_student_view.html'
p1028
sg10
S'user_system/views/users/create_student_view'
p1029
sg12
g13
(g14
g15
NtRp1030
(dp1031
g18
I1
sg19
I2
sg20
I37
sg21
I0
sg22
I0
sg23
I24
sg24
I2
sbssg25
S'\x8e\xce\xac\xe9\xe3J4\xbb\x88$\xefFS\x06Ow'
p1032
ssS'create_views_question_datasets___init__'
p1033
(dp1034
g6
(dp1035
g8
S'create_views_question_datasets___init__.html'
p1036
sg10
S'create/views/question_datasets/__init__'
p1037
sg12
g13
(g14
g15
NtRp1038
(dp1039
g18
I1
sg19
I0
sg20
I1
sg21
I0
sg22
I0
sg23
I0
sg24
I0
sbssg25
S'\x87x\xd1\xbe\x15\xd3\xbc\x99\x86\x08\xf8\x06S\xcf\x00\x87'
p1040
ssS'user_system_views_users_user_streak_history_view'
p1041
(dp1042
g6
(dp1043
g8
S'user_system_views_users_user_streak_history_view.html'
p1044
sg10
S'user_system/views/users/user_streak_history_view'
p1045
sg12
g13
(g14
g15
NtRp1046
(dp1047
g18
I1
sg19
I0
sg20
I15
sg21
I0
sg22
I0
sg23
I0
sg24
I0
sbssg25
S'\x82\xa4:\x84\x8dJE7\xc0"\xbb\xceU\xa9\xd6\x07'
p1048
ssS'user_system_views_roles_tests_test_user_role_view'
p1049
(dp1050
g6
(dp1051
g8
S'user_system_views_roles_tests_test_user_role_view.html'
p1052
sg10
S'user_system/views/roles/tests/test_user_role_view'
p1053
sg12
g13
(g14
g15
NtRp1054
(dp1055
g18
I1
sg19
I0
sg20
I41
sg21
I0
sg22
I0
sg23
I0
sg24
I0
sbssg25
S'\xaf \x02-\xd3\xa9\xee\x1e7\x87\xa8[\xd9\xd8V\xd8'
p1056
ssS'user_system_views_signups_hardcoded_tests___init__'
p1057
(dp1058
g6
(dp1059
g8
S'user_system_views_signups_hardcoded_tests___init__.html'
p1060
sg10
S'user_system/views/signups/hardcoded/tests/__init__'
p1061
sg12
g13
(g14
g15
NtRp1062
(dp1063
g18
I1
sg19
I0
sg20
I0
sg21
I0
sg22
I0
sg23
I0
sg24
I0
sbssg25
S'\x19g\xdfM\x1a\x019\xaf\x1baIeR\xe5u\xa7'
p1064
ssS'user_system_views_signups___init__'
p1065
(dp1066
g6
(dp1067
g8
S'user_system_views_signups___init__.html'
p1068
sg10
S'user_system/views/signups/__init__'
p1069
sg12
g13
(g14
g15
NtRp1070
(dp1071
g18
I1
sg19
I0
sg20
I5
sg21
I0
sg22
I0
sg23
I0
sg24
I0
sbssg25
S'\xad\xb5\x1c"8P^k\xe3\xaa\x7fv\xbc\xc9\xc6\x01'
p1072
ssS'create_views_tags_tag_view'
p1073
(dp1074
g6
(dp1075
g398
S'create_views_tags_tag_view.html'
p1076
sg400
S'create/views/tags/tag_view'
p1077
sg402
g13
(g14
g15
NtRp1078
(dp1079
g18
I1
sg19
I32
sg20
I93
sg21
I0
sg22
I4
sg23
I9
sg24
I12
sbssg25
S'\xcfpO\\\xdb"\xc2Q\xb2D\xa7\x93x\xbd\x18a'
p1080
ssS'user_system_views_apps_tests_test_get_apps_list_view'
p1081
(dp1082
g6
(dp1083
g8
S'user_system_views_apps_tests_test_get_apps_list_view.html'
p1084
sg10
S'user_system/views/apps/tests/test_get_apps_list_view'
p1085
sg12
g13
(g14
g15
NtRp1086
(dp1087
g18
I1
sg19
I0
sg20
I18
sg21
I0
sg22
I0
sg23
I0
sg24
I0
sbssg25
S'\x87\xab;"\x01p\xf9\xe5\xa6\xb1\xaej\x8egl\x99'
p1088
ssS'create_views_tags_tests_test_add_prerequisite_view'
p1089
(dp1090
g6
(dp1091
g8
S'create_views_tags_tests_test_add_prerequisite_view.html'
p1092
sg10
S'create/views/tags/tests/test_add_prerequisite_view'
p1093
sg12
g13
(g14
g15
NtRp1094
(dp1095
g18
I1
sg19
I0
sg20
I33
sg21
I0
sg22
I0
sg23
I0
sg24
I0
sbssg25
S'\x08g\x8ed\x97\x9d\xb1\x04\xd6\xd5\x82T\xc4\xe6\xbd\xad'
p1096
ssS'create_views_books_tests_test_update_book_view'
p1097
(dp1098
g131
(dp1099
g398
S'create_views_books_tests_test_update_book_view.html'
p1100
sg400
S'create/views/books/tests/test_update_book_view'
p1101
sg402
g13
(g14
g15
NtRp1102
(dp1103
g18
I1
sg19
I0
sg20
I25
sg21
I0
sg22
I0
sg23
I0
sg24
I0
sbssg140
S'\xafH\xe5\x82r\xb2\x17\x84b\xfb\x1c\x9a\xf0\x0f\xbd\xf2'
p1104
ssS'user_system_views_users_tests_test_add_role_view'
p1105
(dp1106
g6
(dp1107
g8
S'user_system_views_users_tests_test_add_role_view.html'
p1108
sg10
S'user_system/views/users/tests/test_add_role_view'
p1109
sg12
g13
(g14
g15
NtRp1110
(dp1111
g18
I1
sg19
I0
sg20
I36
sg21
I0
sg22
I0
sg23
I0
sg24
I0
sbssg25
S'\x0eh\xf7\xba\x08_N\xdeM\xdf\x03\xbd\x8c\x8a\x89\xd0'
p1112
ssS'user_system_views_users_user_profile_update_request_view'
p1113
(dp1114
g6
(dp1115
g8
S'user_system_views_users_user_profile_update_request_view.html'
p1116
sg10
S'user_system/views/users/user_profile_update_request_view'
p1117
sg12
g13
(g14
g15
NtRp1118
(dp1119
g18
I1
sg19
I24
sg20
I70
sg21
I0
sg22
I0
sg23
I51
sg24
I24
sbssg25
S"\x04\xfd\x81?\x1e<^\xb0%\xad\xa6'\xcf\xa1\xc3)"
p1120
ssS'learn_views_student_news_feed___init__'
p1121
(dp1122
g6
(dp1123
g8
S'learn_views_student_news_feed___init__.html'
p1124
sg10
S'learn/views/student_news_feed/__init__'
p1125
sg12
g13
(g14
g15
NtRp1126
(dp1127
g18
I1
sg19
I0
sg20
I1
sg21
I0
sg22
I0
sg23
I0
sg24
I0
sbssg25
S'\xc5\x87\xccQ|\xa2\xee\x11p\x84\xfe\xed\xe3W\xfa\x07'
p1128
ssS'create_views_books_tests_test_create_new_book'
p1129
(dp1130
g6
(dp1131
g8
S'create_views_books_tests_test_create_new_book.html'
p1132
sg10
S'create/views/books/tests/test_create_new_book'
p1133
sg12
g13
(g14
g15
NtRp1134
(dp1135
g18
I1
sg19
I0
sg20
I18
sg21
I0
sg22
I0
sg23
I0
sg24
I0
sbssg25
S'\xe3\xaew\xf8\xd7\x8f\xc5 \x85\xc1\xb6I\x82X(-'
p1136
ssS'user_system_views_users_tests_test_remove_role_view'
p1137
(dp1138
g6
(dp1139
g8
S'user_system_views_users_tests_test_remove_role_view.html'
p1140
sg10
S'user_system/views/users/tests/test_remove_role_view'
p1141
sg12
g13
(g14
g15
NtRp1142
(dp1143
g18
I1
sg19
I0
sg20
I42
sg21
I0
sg22
I0
sg23
I0
sg24
I0
sbssg25
S'\xfb\x9b\xa3\xe5\x90\xe7q99\x19\x10"<@L\x8c'
p1144
ssS'learn_views_daily_quests_daily_quest_submission_view'
p1145
(dp1146
g6
(dp1147
g8
S'learn_views_daily_quests_daily_quest_submission_view.html'
p1148
sg10
S'learn/views/daily_quests/daily_quest_submission_view'
p1149
sg12
g13
(g14
g15
NtRp1150
(dp1151
g18
I1
sg19
I30
sg20
I79
sg21
I0
sg22
I0
sg23
I61
sg24
I30
sbssg25
S'\t}\x01u\xd14"\x14\x84\x02\xe9\xc4\xcf(\x08\xa4'
p1152
ssS'teach_views_summaries_tests___init__'
p1153
(dp1154
g6
(dp1155
g8
S'teach_views_summaries_tests___init__.html'
p1156
sg10
S'teach/views/summaries/tests/__init__'
p1157
sg12
g13
(g14
g15
NtRp1158
(dp1159
g18
I1
sg19
I0
sg20
I0
sg21
I0
sg22
I0
sg23
I0
sg24
I0
sbssg25
S'\x19g\xdfM\x1a\x019\xaf\x1baIeR\xe5u\xa7'
p1160
ssS'api_logging_views_user_activities_user_agent_view'
p1161
(dp1162
g6
(dp1163
g8
S'api_logging_views_user_activities_user_agent_view.html'
p1164
sg10
S'api_logging/views/user_activities/user_agent_view'
p1165
sg12
g13
(g14
g15
NtRp1166
(dp1167
g18
I1
sg19
I26
sg20
I68
sg21
I0
sg22
I0
sg23
I50
sg24
I26
sbssg25
S'\xc4\xc5\xa3P\xc7\xa8\xdc\x1b#\x14\xe4\xe7o\x17\xba\x82'
p1168
ssS'teach_views_summaries_daily_quest_summary_view'
p1169
(dp1170
g6
(dp1171
g8
S'teach_views_summaries_daily_quest_summary_view.html'
p1172
sg10
S'teach/views/summaries/daily_quest_summary_view'
p1173
sg12
g13
(g14
g15
NtRp1174
(dp1175
g18
I1
sg19
I28
sg20
I80
sg21
I0
sg22
I0
sg23
I59
sg24
I28
sbssg25
S'\x9fe\xf9\x1c\x8a\xe2\xf4dr\xd6i\xd4\x89\xae\x1b\xf6'
p1176
ssS'user_system_views_users_student_profile_request_view'
p1177
(dp1178
g6
(dp1179
g8
S'user_system_views_users_student_profile_request_view.html'
p1180
sg10
S'user_system/views/users/student_profile_request_view'
p1181
sg12
g13
(g14
g15
NtRp1182
(dp1183
g18
I1
sg19
I0
sg20
I14
sg21
I0
sg22
I0
sg23
I0
sg24
I0
sbssg25
S'\x87:\xd0\xef\x04\xf3-q\r\xe7\xec \xceS\xee<'
p1184
ssS'teach_views_teacher_chapters_teacher_chapter_view'
p1185
(dp1186
g6
(dp1187
g8
S'teach_views_teacher_chapters_teacher_chapter_view.html'
p1188
sg10
S'teach/views/teacher_chapters/teacher_chapter_view'
p1189
sg12
g13
(g14
g15
NtRp1190
(dp1191
g18
I1
sg19
I12
sg20
I44
sg21
I0
sg22
I0
sg23
I25
sg24
I12
sbssg25
S'Z\xc5\n\xdb\xe5!2~7\xe3i\xa7j\xd4\x10\x8c'
p1192
ssS'teach_views_summaries_top_answered_questions_summary_view'
p1193
(dp1194
g6
(dp1195
g8
S'teach_views_summaries_top_answered_questions_summary_view.html'
p1196
sg10
S'teach/views/summaries/top_answered_questions_summary_view'
p1197
sg12
g13
(g14
g15
NtRp1198
(dp1199
g18
I1
sg19
I34
sg20
I77
sg21
I0
sg22
I0
sg23
I54
sg24
I34
sbssg25
S'\x9e\xb0khf9\xceHZ\x1e\x91\x1ac,\x8c\x0c'
p1200
ssS'api_logging_views_modal_loggings___init__'
p1201
(dp1202
g6
(dp1203
g8
S'api_logging_views_modal_loggings___init__.html'
p1204
sg10
S'api_logging/views/modal_loggings/__init__'
p1205
sg12
g13
(g14
g15
NtRp1206
(dp1207
g18
I1
sg19
I0
sg20
I1
sg21
I0
sg22
I0
sg23
I0
sg24
I0
sbssg25
S'\xf1\x0fWK\x0c\x9eD\xe8\x12\xaf\x93\xfa\xd7q\xa8\x91'
p1208
ssS'create_views_books_book_view'
p1209
(dp1210
g6
(dp1211
g398
S'create_views_books_book_view.html'
p1212
sg400
S'create/views/books/book_view'
p1213
sg402
g13
(g14
g15
NtRp1214
(dp1215
g18
I1
sg19
I34
sg20
I125
sg21
I0
sg22
I2
sg23
I0
sg24
I2
sbssg25
S'\x0e\x85v\xe8\xe85\r\x00\x94\xa2c/G\xdd\x9dE'
p1216
ssS'create_views_quests_tests_test_add_question_template_view'
p1217
(dp1218
g6
(dp1219
g8
S'create_views_quests_tests_test_add_question_template_view.html'
p1220
sg10
S'create/views/quests/tests/test_add_question_template_view'
p1221
sg12
g13
(g14
g15
NtRp1222
(dp1223
g18
I1
sg19
I0
sg20
I0
sg21
I0
sg22
I0
sg23
I0
sg24
I0
sbssg25
S'\x19g\xdfM\x1a\x019\xaf\x1baIeR\xe5u\xa7'
p1224
ssS'create_views_tags_tests_test_remove_prerequisite_view'
p1225
(dp1226
g6
(dp1227
g8
S'create_views_tags_tests_test_remove_prerequisite_view.html'
p1228
sg10
S'create/views/tags/tests/test_remove_prerequisite_view'
p1229
sg12
g13
(g14
g15
NtRp1230
(dp1231
g18
I1
sg19
I0
sg20
I38
sg21
I0
sg22
I0
sg23
I0
sg24
I0
sbssg25
S'\xb4-c8G7\x8c\x02p\xb3\xc2\x9d}nI\xc6'
p1232
ssS'create_views_tags_tests_test_hide_tag_view'
p1233
(dp1234
g6
(dp1235
g8
S'create_views_tags_tests_test_hide_tag_view.html'
p1236
sg10
S'create/views/tags/tests/test_hide_tag_view'
p1237
sg12
g13
(g14
g15
NtRp1238
(dp1239
g18
I1
sg19
I0
sg20
I25
sg21
I0
sg22
I0
sg23
I0
sg24
I0
sbssg25
S'\x8a\x07\xe0\xe1Q\x820\x05R\x14E\xd0\xdf\x8e\xc5\x8a'
p1240
ssS'teach_views_summaries_migrations___init__'
p1241
(dp1242
g6
(dp1243
g113
S'teach_views_summaries_migrations___init__.html'
p1244
sg115
S'teach/views/summaries/migrations/__init__'
p1245
sg117
g13
(g14
g15
NtRp1246
(dp1247
g18
I1
sg19
I0
sg20
I1
sg21
I0
sg22
I0
sg23
I0
sg24
I0
sbssg25
S'\xc3\x93h\xecbZ\x11\xb6]\x83\\\xb8]L\xd2 '
p1248
ssS'create_views_quests_tests_test_remove_question_view'
p1249
(dp1250
g6
(dp1251
g46
S'create_views_quests_tests_test_remove_question_view.html'
p1252
sg48
S'create/views/quests/tests/test_remove_question_view'
p1253
sg50
g13
(g14
g15
NtRp1254
(dp1255
g18
I1
sg19
I0
sg20
I35
sg21
I0
sg22
I0
sg23
I0
sg24
I0
sbssg25
S'b\x04\xa3\x02\x16\x98^\x10Y:\x15N\xb4\x9fvE'
p1256
ssS'api_logging_views_user_activities___init__'
p1257
(dp1258
g6
(dp1259
g8
S'api_logging_views_user_activities___init__.html'
p1260
sg10
S'api_logging/views/user_activities/__init__'
p1261
sg12
g13
(g14
g15
NtRp1262
(dp1263
g18
I1
sg19
I0
sg20
I1
sg21
I0
sg22
I0
sg23
I0
sg24
I0
sbssg25
S'\xbc\x87\xa7&\xe2B=>v\tt\x06,\x1d<['
p1264
ssS'user_system_views_signups_tests___init__'
p1265
(dp1266
g6
(dp1267
g8
S'user_system_views_signups_tests___init__.html'
p1268
sg10
S'user_system/views/signups/tests/__init__'
p1269
sg12
g13
(g14
g15
NtRp1270
(dp1271
g18
I1
sg19
I0
sg20
I1
sg21
I0
sg22
I0
sg23
I0
sg24
I0
sbssg25
S'\xbc\xd6\xeb\xb3\xba\xcaz\xf7{\xd4B\xb5}l\xdf\x96'
p1272
ssS'api_logging_views_LoggingView'
p1273
(dp1274
g6
(dp1275
S'html_filename'
p1276
S'api_logging_views_LoggingView.html'
p1277
sS'name'
p1278
S'api_logging/views/LoggingView'
p1279
sS'nums'
p1280
g13
(g14
g15
NtRp1281
(dp1282
g18
I1
sg19
I16
sg20
I59
sg21
I0
sg22
I0
sg23
I44
sg24
I16
sbssg25
S'\\Z\xb6\x1d\xfe\xcc\x80\xfe\xfa\xd6\xdc\x19\x85\x87<\xdd'
p1283
ssS'create_views_books_tests___init__'
p1284
(dp1285
g6
(dp1286
g8
S'create_views_books_tests___init__.html'
p1287
sg10
S'create/views/books/tests/__init__'
p1288
sg12
g13
(g14
g15
NtRp1289
(dp1290
g18
I1
sg19
I0
sg20
I0
sg21
I0
sg22
I0
sg23
I0
sg24
I0
sbssg25
S'\x19g\xdfM\x1a\x019\xaf\x1baIeR\xe5u\xa7'
p1291
ssS'learn_views_daily_quests___init__'
p1292
(dp1293
g6
(dp1294
g8
S'learn_views_daily_quests___init__.html'
p1295
sg10
S'learn/views/daily_quests/__init__'
p1296
sg12
g13
(g14
g15
NtRp1297
(dp1298
g18
I1
sg19
I0
sg20
I4
sg21
I0
sg22
I0
sg23
I0
sg24
I0
sbssg25
S'<\xb7\x9f\x967\xb6\x85\x96\x7frG\x80\x7f\xacB\xb0'
p1299
sssS'version'
p1300
S'3.7.1'
p1301
sS'settings'
p1302
S'\x9bD*$\xc6\xbc\x8e\xef2h\xbe"\xdb\xe4\xa2\xe1'
p1303
sS'format'
p1304
I1
s.