(dp1
S'files'
p2
(dp3
S'create_views_quests_tests_test_add_tag_view'
p4
(dp5
S'index'
p6
(dp7
S'html_filename'
p8
S'create_views_quests_tests_test_add_tag_view.html'
p9
sS'name'
p10
S'create/views/quests/tests/test_add_tag_view'
p11
sS'nums'
p12
ccopy_reg
_reconstructor
p13
(ccoverage.results
Numbers
p14
c__builtin__
object
p15
NtRp16
(dp17
S'n_files'
p18
I1
sS'n_branches'
p19
I0
sS'n_statements'
p20
I35
sS'n_excluded'
p21
I0
sS'n_partial_branches'
p22
I0
sS'n_missing'
p23
I0
sS'n_missing_branches'
p24
I0
sbssS'hash'
p25
S'y\xf6s\xd3\xcb_\x91M\x1agD\x90\xf3S \xf4'
p26
ssS'learn_views_daily_quests_daily_quest_history_date_group_view'
p27
(dp28
g6
(dp29
S'html_filename'
p30
S'learn_views_daily_quests_daily_quest_history_date_group_view.html'
p31
sS'name'
p32
S'learn/views/daily_quests/daily_quest_history_date_group_view'
p33
sS'nums'
p34
g13
(g14
g15
NtRp35
(dp36
g18
I1
sg19
I36
sg20
I94
sg21
I0
sg22
I0
sg23
I71
sg24
I36
sbssg25
S'N}\x1am\x00\xe8_\xd4\xa8T\xd2R\xf7l^\xd3'
p37
ssS'api_logging_views_modal_loggings_modal_user_history_view'
p38
(dp39
g6
(dp40
g30
S'api_logging_views_modal_loggings_modal_user_history_view.html'
p41
sg32
S'api_logging/views/modal_loggings/modal_user_history_view'
p42
sg34
g13
(g14
g15
NtRp43
(dp44
g18
I1
sg19
I0
sg20
I12
sg21
I0
sg22
I0
sg23
I0
sg24
I0
sbssg25
S'\xe0g\x1c\xea/\xf3m\xa8\x9d\x1f7\xba\x82w\x88\x9c'
p45
ssS'create_views_quests_tests_test_remove_tag_view'
p46
(dp47
g6
(dp48
g8
S'create_views_quests_tests_test_remove_tag_view.html'
p49
sg10
S'create/views/quests/tests/test_remove_tag_view'
p50
sg12
g13
(g14
g15
NtRp51
(dp52
g18
I1
sg19
I0
sg20
I35
sg21
I0
sg22
I0
sg23
I0
sg24
I0
sbssg25
S'\x80JC\xff\x14\x9b|\xed].\xc8\xe3\xbb\xe2\x0c\x96'
p53
ssS'user_system_views_signups_facebook_signup_view'
p54
(dp55
g6
(dp56
g30
S'user_system_views_signups_facebook_signup_view.html'
p57
sg32
S'user_system/views/signups/facebook_signup_view'
p58
sg34
g13
(g14
g15
NtRp59
(dp60
g18
I1
sg19
I8
sg20
I38
sg21
I0
sg22
I0
sg23
I0
sg24
I0
sbssg25
S'\x04E\'\x17r8\x14\xf6 \x98\xb5\xa0sx"@'
p61
ssS'user_system_views_logins_tests_test_email_login_view'
p62
(dp63
g6
(dp64
g8
S'user_system_views_logins_tests_test_email_login_view.html'
p65
sg10
S'user_system/views/logins/tests/test_email_login_view'
p66
sg12
g13
(g14
g15
NtRp67
(dp68
g18
I1
sg19
I0
sg20
I61
sg21
I0
sg22
I0
sg23
I0
sg24
I0
sbssg25
S"\x00?R\xd8\xeb`'\x1e\xf5`S\x88?v!r"
p69
ssS'create_views_books_book_chapter_view'
p70
(dp71
g6
(dp72
g30
S'create_views_books_book_chapter_view.html'
p73
sg32
S'create/views/books/book_chapter_view'
p74
sg34
g13
(g14
g15
NtRp75
(dp76
g18
I1
sg19
I12
sg20
I44
sg21
I0
sg22
I0
sg23
I22
sg24
I12
sbssg25
S'\x0b3\xd8 \xe1\x08#79\x0c\x7f\x1f6\xad0\xe9'
p77
ssS'api_logging_views___init__'
p78
(dp79
g6
(dp80
g30
S'api_logging_views___init__.html'
p81
sg32
S'api_logging/views/__init__'
p82
sg34
g13
(g14
g15
NtRp83
(dp84
g18
I1
sg19
I0
sg20
I5
sg21
I0
sg22
I0
sg23
I0
sg24
I0
sbssg25
S'E\xf0\xc8*y9Q5\x96\xa8]\xdf\x95Zq\xed'
p85
ssS'create_managers___init__'
p86
(dp87
g6
(dp88
g30
S'create_managers___init__.html'
p89
sg32
S'create/managers/__init__'
p90
sg34
g13
(g14
g15
NtRp91
(dp92
g18
I1
sg19
I0
sg20
I1
sg21
I0
sg22
I0
sg23
I0
sg24
I0
sbssg25
S"C3'\xf8\x96\xc3\xae\x05\xa1\xc4\xe9\xad\xb0\xda\x0f\xe6"
p93
ssS'create_views___init__'
p94
(dp95
g6
(dp96
g30
S'create_views___init__.html'
p97
sg32
S'create/views/__init__'
p98
sg34
g13
(g14
g15
NtRp99
(dp100
g18
I1
sg19
I0
sg20
I7
sg21
I0
sg22
I0
sg23
I0
sg24
I0
sbssg25
S'\x8f\x98\x9b$~\xde\xc2\xfc\x97/\x14^\xe8\xf8\x10M'
p101
ssS'teach_managers_summaries_tests_test_update_class_ranking_manager'
p102
(dp103
S'index'
p104
(dp105
S'html_filename'
p106
S'teach_managers_summaries_tests_test_update_class_ranking_manager.html'
p107
sS'name'
p108
S'teach/managers/summaries/tests/test_update_class_ranking_manager'
p109
sS'nums'
p110
g13
(g14
g15
NtRp111
(dp112
g18
I1
sg19
I0
sg20
I10
sg21
I0
sg22
I0
sg23
I1
sg24
I0
sbssS'hash'
p113
S')\x0b\xdc\xcd\x8b"\x0f\xdcX\xc4\x10\xbd\xb8\x0f~Z'
p114
ssS'create_views_books_tests_test_remove_chapter_view'
p115
(dp116
g6
(dp117
g8
S'create_views_books_tests_test_remove_chapter_view.html'
p118
sg10
S'create/views/books/tests/test_remove_chapter_view'
p119
sg12
g13
(g14
g15
NtRp120
(dp121
g18
I1
sg19
I0
sg20
I39
sg21
I0
sg22
I0
sg23
I0
sg24
I0
sbssg25
S'UD\\iU\xd2=\x00\x12\n`\xaeAB\xe3\xf3'
p122
ssS'privilege_views_privileges_user_privilege_view'
p123
(dp124
g6
(dp125
g30
S'privilege_views_privileges_user_privilege_view.html'
p126
sg32
S'privilege/views/privileges/user_privilege_view'
p127
sg34
g13
(g14
g15
NtRp128
(dp129
g18
I1
sg19
I10
sg20
I38
sg21
I0
sg22
I0
sg23
I22
sg24
I10
sbssg25
S'\xf699\xa5A\xca\x9e\x91,l\xf8\x8dI[PR'
p130
ssS'teach_views_summaries_migrations_class_ranking_migration_view'
p131
(dp132
g6
(dp133
g30
S'teach_views_summaries_migrations_class_ranking_migration_view.html'
p134
sg32
S'teach/views/summaries/migrations/class_ranking_migration_view'
p135
sg34
g13
(g14
g15
NtRp136
(dp137
g18
I1
sg19
I8
sg20
I36
sg21
I0
sg22
I0
sg23
I24
sg24
I8
sbssg25
S'\xe2JF\xb0\xd3c+\xb8\x1a*\x1f\xa5\xb3oY\x1d'
p138
ssS'create_views_books_tests_test_add_chapter_view'
p139
(dp140
g6
(dp141
g30
S'create_views_books_tests_test_add_chapter_view.html'
p142
sg32
S'create/views/books/tests/test_add_chapter_view'
p143
sg34
g13
(g14
g15
NtRp144
(dp145
g18
I1
sg19
I0
sg20
I69
sg21
I0
sg22
I0
sg23
I0
sg24
I0
sbssg25
S'\xea\xcd\x81\xff\xe6p74\xe3\xab\xc2R\x1aZ#Y'
p146
ssS'create_views_tags_tests_test_update_tag_view'
p147
(dp148
g6
(dp149
g30
S'create_views_tags_tests_test_update_tag_view.html'
p150
sg32
S'create/views/tags/tests/test_update_tag_view'
p151
sg34
g13
(g14
g15
NtRp152
(dp153
g18
I1
sg19
I0
sg20
I23
sg21
I0
sg22
I0
sg23
I0
sg24
I0
sbssg25
S'\x03\xa8\x8c\xae\x18\x9b>/f\x80\xadcj\xe8gj'
p154
ssS'privilege_views___init__'
p155
(dp156
g6
(dp157
g30
S'privilege_views___init__.html'
p158
sg32
S'privilege/views/__init__'
p159
sg34
g13
(g14
g15
NtRp160
(dp161
g18
I1
sg19
I0
sg20
I0
sg21
I0
sg22
I0
sg23
I0
sg24
I0
sbssg25
S'\x19g\xdfM\x1a\x019\xaf\x1baIeR\xe5u\xa7'
p162
ssS'teach_views_daily_quest_templates_daily_quest_template_view'
p163
(dp164
g6
(dp165
g30
S'teach_views_daily_quest_templates_daily_quest_template_view.html'
p166
sg32
S'teach/views/daily_quest_templates/daily_quest_template_view'
p167
sg34
g13
(g14
g15
NtRp168
(dp169
g18
I1
sg19
I18
sg20
I54
sg21
I0
sg22
I0
sg23
I33
sg24
I18
sbssg25
S'\x97J\xccM\x9b\xcd1\xaf\x95\xea\xd8\x8d\xdc(\x89['
p170
ssS'user_system_views_logins_facebook_login_view'
p171
(dp172
g6
(dp173
g30
S'user_system_views_logins_facebook_login_view.html'
p174
sg32
S'user_system/views/logins/facebook_login_view'
p175
sg34
g13
(g14
g15
NtRp176
(dp177
g18
I1
sg19
I4
sg20
I24
sg21
I0
sg22
I0
sg23
I0
sg24
I0
sbssg25
S',\xf8~\x8d\x9b\xfe\xa6wQ5\x92t\x15\xe5\x95\x8d'
p178
ssS'api_logging_views_query_stat___init__'
p179
(dp180
g6
(dp181
g30
S'api_logging_views_query_stat___init__.html'
p182
sg32
S'api_logging/views/query_stat/__init__'
p183
sg34
g13
(g14
g15
NtRp184
(dp185
g18
I1
sg19
I0
sg20
I1
sg21
I0
sg22
I0
sg23
I0
sg24
I0
sbssg25
S'\xbe{\x9f#C\x83\xe9\xa5\xf6B\xf2\xd6\x8a\x0eB\xd0'
p186
ssS'create_views_questions_question_view'
p187
(dp188
g6
(dp189
g30
S'create_views_questions_question_view.html'
p190
sg32
S'create/views/questions/question_view'
p191
sg34
g13
(g14
g15
NtRp192
(dp193
g18
I1
sg19
I34
sg20
I113
sg21
I0
sg22
I1
sg23
I40
sg24
I21
sbssg25
S'x\x1b\xf3\x9b\x13Z\xdalU\x8bJ\x89\xb3qc\x8d'
p194
ssS'user_system_views_users_tests___init__'
p195
(dp196
g6
(dp197
g30
S'user_system_views_users_tests___init__.html'
p198
sg32
S'user_system/views/users/tests/__init__'
p199
sg34
g13
(g14
g15
NtRp200
(dp201
g18
I1
sg19
I0
sg20
I0
sg21
I0
sg22
I0
sg23
I0
sg24
I0
sbssg25
S'\x19g\xdfM\x1a\x019\xaf\x1baIeR\xe5u\xa7'
p202
ssS'api_logging_views_summary___init__'
p203
(dp204
g6
(dp205
g30
S'api_logging_views_summary___init__.html'
p206
sg32
S'api_logging/views/summary/__init__'
p207
sg34
g13
(g14
g15
NtRp208
(dp209
g18
I1
sg19
I0
sg20
I1
sg21
I0
sg22
I0
sg23
I0
sg24
I0
sbssg25
S'\x04\x12bh\x96\xc5j\x88dm\x0e\xd7\xe1\x94Lq'
p210
ssS'create_views_quests_tests_test_remove_question_view'
p211
(dp212
g6
(dp213
g8
S'create_views_quests_tests_test_remove_question_view.html'
p214
sg10
S'create/views/quests/tests/test_remove_question_view'
p215
sg12
g13
(g14
g15
NtRp216
(dp217
g18
I1
sg19
I0
sg20
I35
sg21
I0
sg22
I0
sg23
I0
sg24
I0
sbssg25
S'rcV\x9f\xa6&\xc1\xa1\xae\x13\xeb\x18R\n\xc2\xc4'
p218
ssS'teach_managers_summaries_update_class_ranking_manager'
p219
(dp220
g6
(dp221
g106
S'teach_managers_summaries_update_class_ranking_manager.html'
p222
sg108
S'teach/managers/summaries/update_class_ranking_manager'
p223
sg110
g13
(g14
g15
NtRp224
(dp225
g18
I1
sg19
I6
sg20
I46
sg21
I0
sg22
I1
sg23
I0
sg24
I1
sbssg25
S'|\xff^-\xc0\x01\x90\xa1\x03\x06\x9e? &]\x8d'
p226
ssS'create_views_questions_tests___init__'
p227
(dp228
g6
(dp229
g30
S'create_views_questions_tests___init__.html'
p230
sg32
S'create/views/questions/tests/__init__'
p231
sg34
g13
(g14
g15
NtRp232
(dp233
g18
I1
sg19
I0
sg20
I0
sg21
I0
sg22
I0
sg23
I0
sg24
I0
sbssg25
S'\x19g\xdfM\x1a\x019\xaf\x1baIeR\xe5u\xa7'
p234
ssS'create_views_tags_tests___init__'
p235
(dp236
g6
(dp237
g30
S'create_views_tags_tests___init__.html'
p238
sg32
S'create/views/tags/tests/__init__'
p239
sg34
g13
(g14
g15
NtRp240
(dp241
g18
I1
sg19
I0
sg20
I0
sg21
I0
sg22
I0
sg23
I0
sg24
I0
sbssg25
S'\x19g\xdfM\x1a\x019\xaf\x1baIeR\xe5u\xa7'
p242
ssS'user_system_views_roles___init__'
p243
(dp244
g6
(dp245
g30
S'user_system_views_roles___init__.html'
p246
sg32
S'user_system/views/roles/__init__'
p247
sg34
g13
(g14
g15
NtRp248
(dp249
g18
I1
sg19
I0
sg20
I1
sg21
I0
sg22
I0
sg23
I0
sg24
I0
sbssg25
S'\xeb\x15\r\x85I\x9e<\xbc\x15\xd1P\xef\x16\x8c\xe0l'
p250
ssS'create_views_tags___init__'
p251
(dp252
g6
(dp253
g30
S'create_views_tags___init__.html'
p254
sg32
S'create/views/tags/__init__'
p255
sg34
g13
(g14
g15
NtRp256
(dp257
g18
I1
sg19
I0
sg20
I1
sg21
I0
sg22
I0
sg23
I0
sg24
I0
sbssg25
S'|r<\xaap\x01\xb1\xbc"\xe5\xbb\xd8\x87\xa5\xd2H'
p258
ssS'user_system_views_signups_hardcoded___init__'
p259
(dp260
g6
(dp261
g30
S'user_system_views_signups_hardcoded___init__.html'
p262
sg32
S'user_system/views/signups/hardcoded/__init__'
p263
sg34
g13
(g14
g15
NtRp264
(dp265
g18
I1
sg19
I0
sg20
I1
sg21
I0
sg22
I0
sg23
I0
sg24
I0
sbssg25
S'?\xfac\x0c\x91\xa4\xd6\xd4\x1d\xe4\x99\xc2[\x83\xfc\xdf'
p266
ssS'learn_views_daily_quests_student_submission_view'
p267
(dp268
g6
(dp269
g30
S'learn_views_daily_quests_student_submission_view.html'
p270
sg32
S'learn/views/daily_quests/student_submission_view'
p271
sg34
g13
(g14
g15
NtRp272
(dp273
g18
I1
sg19
I12
sg20
I47
sg21
I0
sg22
I0
sg23
I29
sg24
I12
sbssg25
S'wq\xe9%\x06 [\x13\x98L\xc4\xe9\x90\xfc\x9e\xff'
p274
ssS'learn_managers_daily_quests_daily_quest_completion_manager'
p275
(dp276
g6
(dp277
g106
S'learn_managers_daily_quests_daily_quest_completion_manager.html'
p278
sg108
S'learn/managers/daily_quests/daily_quest_completion_manager'
p279
sg110
g13
(g14
g15
NtRp280
(dp281
g18
I1
sg19
I2
sg20
I10
sg21
I0
sg22
I0
sg23
I0
sg24
I0
sbssg25
S'JN\xaf\x16\xa0L\xbd\xae+\xc6\xd5\x1b\x83\xb3\x17\xe0'
p282
ssS'teach_views_summaries___init__'
p283
(dp284
g6
(dp285
g30
S'teach_views_summaries___init__.html'
p286
sg32
S'teach/views/summaries/__init__'
p287
sg34
g13
(g14
g15
NtRp288
(dp289
g18
I1
sg19
I0
sg20
I7
sg21
I0
sg22
I0
sg23
I0
sg24
I0
sbssg25
S'3#\xb2[\xd25\x02\xaaPxM*gV\x97D'
p290
ssS'create_views_questions_question_history_remark_view'
p291
(dp292
g6
(dp293
g30
S'create_views_questions_question_history_remark_view.html'
p294
sg32
S'create/views/questions/question_history_remark_view'
p295
sg34
g13
(g14
g15
NtRp296
(dp297
g18
I1
sg19
I0
sg20
I14
sg21
I0
sg22
I0
sg23
I0
sg24
I0
sbssg25
S'{4O\x0e\xb3\xad\xc8\xb72\x8f\x1f\x11\xc0\x9e\xa0\xd6'
p298
ssS'user_system_views_apps_tests_test_get_app_by_id_view'
p299
(dp300
g6
(dp301
g30
S'user_system_views_apps_tests_test_get_app_by_id_view.html'
p302
sg32
S'user_system/views/apps/tests/test_get_app_by_id_view'
p303
sg34
g13
(g14
g15
NtRp304
(dp305
g18
I1
sg19
I0
sg20
I17
sg21
I0
sg22
I0
sg23
I0
sg24
I0
sbssg25
S"\xa2\x1eG%r{-~\xc5=\x8aj\x99X!'"
p306
ssS'user_system_views_signups_tests_test_verify_email_view'
p307
(dp308
g6
(dp309
g8
S'user_system_views_signups_tests_test_verify_email_view.html'
p310
sg10
S'user_system/views/signups/tests/test_verify_email_view'
p311
sg12
g13
(g14
g15
NtRp312
(dp313
g18
I1
sg19
I0
sg20
I51
sg21
I0
sg22
I0
sg23
I0
sg24
I0
sbssg25
S'E\x10\x97">\x8c\xceg\xb3K+\x06\x7f\xfe\xdb\xbe'
p314
ssS'teach_managers_summaries_tests___init__'
p315
(dp316
g104
(dp317
g106
S'teach_managers_summaries_tests___init__.html'
p318
sg108
S'teach/managers/summaries/tests/__init__'
p319
sg110
g13
(g14
g15
NtRp320
(dp321
g18
I1
sg19
I0
sg20
I1
sg21
I0
sg22
I0
sg23
I0
sg24
I0
sbssg113
S'\xbc\xd6\xeb\xb3\xba\xcaz\xf7{\xd4B\xb5}l\xdf\x96'
p322
ssS'user_system_views_users_user_view'
p323
(dp324
g6
(dp325
g30
S'user_system_views_users_user_view.html'
p326
sg32
S'user_system/views/users/user_view'
p327
sg34
g13
(g14
g15
NtRp328
(dp329
g18
I1
sg19
I66
sg20
I191
sg21
I0
sg22
I0
sg23
I110
sg24
I44
sbssg25
S'r\x15\x08\xf19P\x7f\xfc\xc01\xae\xf5\xf4X\xc4\xab'
p330
ssS'teach_views_campaigns___init__'
p331
(dp332
g6
(dp333
g30
S'teach_views_campaigns___init__.html'
p334
sg32
S'teach/views/campaigns/__init__'
p335
sg34
g13
(g14
g15
NtRp336
(dp337
g18
I1
sg19
I0
sg20
I1
sg21
I0
sg22
I0
sg23
I0
sg24
I0
sbssg25
S'\xdd3^z\xa4\xd5\x95X\x1fk\x83<\xed@\x053'
p338
ssS'user_system_views_apps___init__'
p339
(dp340
g6
(dp341
g30
S'user_system_views_apps___init__.html'
p342
sg32
S'user_system/views/apps/__init__'
p343
sg34
g13
(g14
g15
NtRp344
(dp345
g18
I1
sg19
I0
sg20
I1
sg21
I0
sg22
I0
sg23
I0
sg24
I0
sbssg25
S'?:\xf2A\xfa^]\xc5NR\xc9\x13\xb0\xe4\xfa\x9e'
p346
ssS'user_system_views_users_tests_test_get_users_list_view'
p347
(dp348
g6
(dp349
g30
S'user_system_views_users_tests_test_get_users_list_view.html'
p350
sg32
S'user_system/views/users/tests/test_get_users_list_view'
p351
sg34
g13
(g14
g15
NtRp352
(dp353
g18
I1
sg19
I0
sg20
I34
sg21
I0
sg22
I0
sg23
I0
sg24
I0
sbssg25
S'\xf5\xe3\x1a\x14e\xf8\xc2\xf0\xa8^$\xf7\x9dv\xb8f'
p354
ssS'create_views_books_tests_test_remove_tag_from_subchapter_view'
p355
(dp356
g6
(dp357
g8
S'create_views_books_tests_test_remove_tag_from_subchapter_view.html'
p358
sg10
S'create/views/books/tests/test_remove_tag_from_subchapter_view'
p359
sg12
g13
(g14
g15
NtRp360
(dp361
g18
I1
sg19
I0
sg20
I40
sg21
I0
sg22
I0
sg23
I0
sg24
I0
sbssg25
S'\xe5Z\t\xbb|\x91\xec#\x14\xc6\x13\xef\xd1@>1'
p362
ssS'teach_managers___init__'
p363
(dp364
g6
(dp365
g30
S'teach_managers___init__.html'
p366
sg32
S'teach/managers/__init__'
p367
sg34
g13
(g14
g15
NtRp368
(dp369
g18
I1
sg19
I0
sg20
I1
sg21
I0
sg22
I0
sg23
I0
sg24
I0
sbssg25
S'Z\xdd\x15\x7f;\xd3\xa2\x07\xf8\xf6\xecz\x055\xd6\xf6'
p370
ssS'teach_views_teacher_news_feed_teacher_news_feed_view'
p371
(dp372
g6
(dp373
g30
S'teach_views_teacher_news_feed_teacher_news_feed_view.html'
p374
sg32
S'teach/views/teacher_news_feed/teacher_news_feed_view'
p375
sg34
g13
(g14
g15
NtRp376
(dp377
g18
I1
sg19
I8
sg20
I60
sg21
I0
sg22
I0
sg23
I38
sg24
I8
sbssg25
S'\n]Y\xde\x93\x8f\xd7O\x05\xcd\x92\x98!=\xcdd'
p378
ssS'user_system_managers_tests___init__'
p379
(dp380
g6
(dp381
g30
S'user_system_managers_tests___init__.html'
p382
sg32
S'user_system/managers/tests/__init__'
p383
sg34
g13
(g14
g15
NtRp384
(dp385
g18
I1
sg19
I0
sg20
I0
sg21
I0
sg22
I0
sg23
I0
sg24
I0
sbssg25
S'\x19g\xdfM\x1a\x019\xaf\x1baIeR\xe5u\xa7'
p386
ssS'create_managers_assigning_daily_quest_manager'
p387
(dp388
g6
(dp389
g30
S'create_managers_assigning_daily_quest_manager.html'
p390
sg32
S'create/managers/assigning_daily_quest_manager'
p391
sg34
g13
(g14
g15
NtRp392
(dp393
g18
I1
sg19
I14
sg20
I47
sg21
I0
sg22
I0
sg23
I26
sg24
I14
sbssg25
S'>\x9f\xc5\xd2)n\xf5Pa\x12\xd8\xea\x03\x95/\xd4'
p394
ssS'user_system_views_apps_app_view'
p395
(dp396
g6
(dp397
g30
S'user_system_views_apps_app_view.html'
p398
sg32
S'user_system/views/apps/app_view'
p399
sg34
g13
(g14
g15
NtRp400
(dp401
g18
I1
sg19
I0
sg20
I13
sg21
I0
sg22
I0
sg23
I0
sg24
I0
sbssg25
S'\xf7n\xffX\xe7\xd2\xb6\xa5\xc5\xe5\x96\x13\xf4\x9c\xac\x1e'
p402
ssS'teach_views_summaries_student_list_summary'
p403
(dp404
g6
(dp405
g30
S'teach_views_summaries_student_list_summary.html'
p406
sg32
S'teach/views/summaries/student_list_summary'
p407
sg34
g13
(g14
g15
NtRp408
(dp409
g18
I1
sg19
I36
sg20
I97
sg21
I0
sg22
I0
sg23
I77
sg24
I36
sbssg25
S'\xbd\xc1?\xb03$0J \x16\xe0\xb7\xa3\x1f\x92\x81'
p410
ssS'create_views_tags_tests_test_get_tag_by_id_view'
p411
(dp412
g6
(dp413
g30
S'create_views_tags_tests_test_get_tag_by_id_view.html'
p414
sg32
S'create/views/tags/tests/test_get_tag_by_id_view'
p415
sg34
g13
(g14
g15
NtRp416
(dp417
g18
I1
sg19
I0
sg20
I20
sg21
I0
sg22
I0
sg23
I0
sg24
I0
sbssg25
S'T\xd5\xd7\xd9\xb8\x12\x81xj\xca\x90\xa41\xcf\x02]'
p418
ssS'create_views_questions_tests_test_remove_tag_view'
p419
(dp420
g6
(dp421
g8
S'create_views_questions_tests_test_remove_tag_view.html'
p422
sg10
S'create/views/questions/tests/test_remove_tag_view'
p423
sg12
g13
(g14
g15
NtRp424
(dp425
g18
I1
sg19
I0
sg20
I36
sg21
I0
sg22
I0
sg23
I0
sg24
I0
sbssg25
S'\xf5\xe1G\x04\xce\x9c\xea\x8cz\xa9\xc2J\x1e\xce\xd4y'
p426
ssS'teach_views_summaries_leaderboard_view'
p427
(dp428
g6
(dp429
g30
S'teach_views_summaries_leaderboard_view.html'
p430
sg32
S'teach/views/summaries/leaderboard_view'
p431
sg34
g13
(g14
g15
NtRp432
(dp433
g18
I1
sg19
I66
sg20
I161
sg21
I0
sg22
I0
sg23
I131
sg24
I66
sbssg25
S'\xa4\xa5\xc0\x98\xe91S\x81\xc4\xb2\xb9\xe7C\xe7\n\x8f'
p434
ssS'create_views_questions_tests_test_add_tag_view'
p435
(dp436
g6
(dp437
g8
S'create_views_questions_tests_test_add_tag_view.html'
p438
sg10
S'create/views/questions/tests/test_add_tag_view'
p439
sg12
g13
(g14
g15
NtRp440
(dp441
g18
I1
sg19
I0
sg20
I35
sg21
I0
sg22
I0
sg23
I0
sg24
I0
sbssg25
S'\xf2\xae\x88\x1eU\x9c\xdd\x98\xeb\xdax\xb2d\x93/n'
p442
ssS'create_views_quests_quest_view'
p443
(dp444
g6
(dp445
g30
S'create_views_quests_quest_view.html'
p446
sg32
S'create/views/quests/quest_view'
p447
sg34
g13
(g14
g15
NtRp448
(dp449
g18
I1
sg19
I78
sg20
I229
sg21
I0
sg22
I1
sg23
I117
sg24
I59
sbssg25
S'\x98\xfc\xdc\xc4}\x8cb\xb1l\xe52!\xa6\x12\x03\xee'
p450
ssS'create_views_tags_tests_test_add_prerequisite_view'
p451
(dp452
g6
(dp453
g8
S'create_views_tags_tests_test_add_prerequisite_view.html'
p454
sg10
S'create/views/tags/tests/test_add_prerequisite_view'
p455
sg12
g13
(g14
g15
NtRp456
(dp457
g18
I1
sg19
I0
sg20
I33
sg21
I0
sg22
I0
sg23
I0
sg24
I0
sbssg25
S'\xbc\x03N_\xc2t(\xe1?\xe2 \xfb\x8b\xf4@\xee'
p458
ssS'teach_managers_summaries_tests_test_class_ranking_manager'
p459
(dp460
g104
(dp461
g8
S'teach_managers_summaries_tests_test_class_ranking_manager.html'
p462
sg10
S'teach/managers/summaries/tests/test_class_ranking_manager'
p463
sg12
g13
(g14
g15
NtRp464
(dp465
g18
I1
sg19
I0
sg20
I13
sg21
I0
sg22
I0
sg23
I0
sg24
I0
sbssg113
S'\xec\xc0\xc6t\xa7.\xc9K\xed\xc1\xd7\x1acj\xc0\x11'
p466
ssS'user_system_views_schools_school_view'
p467
(dp468
g6
(dp469
g30
S'user_system_views_schools_school_view.html'
p470
sg32
S'user_system/views/schools/school_view'
p471
sg34
g13
(g14
g15
NtRp472
(dp473
g18
I1
sg19
I0
sg20
I16
sg21
I0
sg22
I0
sg23
I0
sg24
I0
sbssg25
S'\xc8\x0b\xef\x9e86\xe5\x19\xaa\x9e\x93+\x03\xfb\x98\x99'
p474
ssS'teach_views_teacher_chapters___init__'
p475
(dp476
g6
(dp477
g30
S'teach_views_teacher_chapters___init__.html'
p478
sg32
S'teach/views/teacher_chapters/__init__'
p479
sg34
g13
(g14
g15
NtRp480
(dp481
g18
I1
sg19
I0
sg20
I1
sg21
I0
sg22
I0
sg23
I0
sg24
I0
sbssg25
S'\x10AP\xc9\nC\xd2REz\xf6\xe5\xd2(\xee`'
p482
ssS'user_system_views_batch_processing___init__'
p483
(dp484
g6
(dp485
g30
S'user_system_views_batch_processing___init__.html'
p486
sg32
S'user_system/views/batch_processing/__init__'
p487
sg34
g13
(g14
g15
NtRp488
(dp489
g18
I1
sg19
I0
sg20
I1
sg21
I0
sg22
I0
sg23
I0
sg24
I0
sbssg25
S'\x11\xaa\xa5O\xecz\xb9\x06\xf9\x1bZ\xd3\xf3\x8bm]'
p490
ssS'user_system_views_logins_tests_test_facebook_login_view'
p491
(dp492
g6
(dp493
g8
S'user_system_views_logins_tests_test_facebook_login_view.html'
p494
sg10
S'user_system/views/logins/tests/test_facebook_login_view'
p495
sg12
g13
(g14
g15
NtRp496
(dp497
g18
I1
sg19
I0
sg20
I51
sg21
I0
sg22
I0
sg23
I0
sg24
I0
sbssg25
S'\xb0$>(\x88\xa5\xbc\xac\xe6\xbeyR\x89\x12\x00K'
p498
ssS'user_system_views_signups_tests_test_email_signup_view'
p499
(dp500
g6
(dp501
g8
S'user_system_views_signups_tests_test_email_signup_view.html'
p502
sg10
S'user_system/views/signups/tests/test_email_signup_view'
p503
sg12
g13
(g14
g15
NtRp504
(dp505
g18
I1
sg19
I0
sg20
I51
sg21
I0
sg22
I0
sg23
I0
sg24
I0
sbssg25
S'\x03l\xbesK\xe9\xe2\\t\x05\xa0*\xcdM\xd64'
p506
ssS'user_system_views_users_teacher_mapping_view'
p507
(dp508
g6
(dp509
g30
S'user_system_views_users_teacher_mapping_view.html'
p510
sg32
S'user_system/views/users/teacher_mapping_view'
p511
sg34
g13
(g14
g15
NtRp512
(dp513
g18
I1
sg19
I0
sg20
I14
sg21
I0
sg22
I0
sg23
I0
sg24
I0
sbssg25
S'B\x04t\x93Z\x86Q.\x17\xf9\xa0*\xf6\x86\xcf\x10'
p514
ssS'create_views_tags_tests_test_search_tag_view'
p515
(dp516
g6
(dp517
g30
S'create_views_tags_tests_test_search_tag_view.html'
p518
sg32
S'create/views/tags/tests/test_search_tag_view'
p519
sg34
g13
(g14
g15
NtRp520
(dp521
g18
I1
sg19
I0
sg20
I28
sg21
I0
sg22
I0
sg23
I0
sg24
I0
sbssg25
S'\xbc\x80\xceQ\xf1\xc5\xfa\xd5\xf1/g\x12l*,\x1c'
p522
ssS'user_system_views_schools_grade_view'
p523
(dp524
g6
(dp525
g30
S'user_system_views_schools_grade_view.html'
p526
sg32
S'user_system/views/schools/grade_view'
p527
sg34
g13
(g14
g15
NtRp528
(dp529
g18
I1
sg19
I0
sg20
I16
sg21
I0
sg22
I0
sg23
I0
sg24
I0
sbssg25
S'_i&b\x01\x08$\xe7\xbe\nW\x92\x80\x97\xf1Q'
p530
ssS'user_system_views_signups_email_signup_view'
p531
(dp532
g6
(dp533
g30
S'user_system_views_signups_email_signup_view.html'
p534
sg32
S'user_system/views/signups/email_signup_view'
p535
sg34
g13
(g14
g15
NtRp536
(dp537
g18
I1
sg19
I8
sg20
I44
sg21
I0
sg22
I0
sg23
I0
sg24
I0
sbssg25
S'&G\xd1\xc4{\x9b\xbf\x14\x92F\xbe\x13\xeer\x84\x1b'
p538
ssS'teach_views_teacher_tags___init__'
p539
(dp540
g6
(dp541
g30
S'teach_views_teacher_tags___init__.html'
p542
sg32
S'teach/views/teacher_tags/__init__'
p543
sg34
g13
(g14
g15
NtRp544
(dp545
g18
I1
sg19
I0
sg20
I1
sg21
I0
sg22
I0
sg23
I0
sg24
I0
sbssg25
S'cp\x00\xdc\x00\xe5M\x9f\x1f\xaa\xb2Y\xd9%\x1d"'
p546
ssS'create_views_books_book_subchapter_view'
p547
(dp548
g6
(dp549
g30
S'create_views_books_book_subchapter_view.html'
p550
sg32
S'create/views/books/book_subchapter_view'
p551
sg34
g13
(g14
g15
NtRp552
(dp553
g18
I1
sg19
I8
sg20
I46
sg21
I0
sg22
I0
sg23
I0
sg24
I0
sbssg25
S'\x0e\xa6\x19V\xf0\xf3;\xa2\x8d \xd8i\xb7*D\x87'
p554
ssS'create_views_questions_tests_test_hide_question_view'
p555
(dp556
g6
(dp557
g8
S'create_views_questions_tests_test_hide_question_view.html'
p558
sg10
S'create/views/questions/tests/test_hide_question_view'
p559
sg12
g13
(g14
g15
NtRp560
(dp561
g18
I1
sg19
I0
sg20
I30
sg21
I0
sg22
I0
sg23
I0
sg24
I0
sbssg25
S'|\xef\\\xd39\xd2Ica\xe7U\x98\xcfz\xae\xc1'
p562
ssS'create_views_questions_question_template_view'
p563
(dp564
g6
(dp565
g30
S'create_views_questions_question_template_view.html'
p566
sg32
S'create/views/questions/question_template_view'
p567
sg34
g13
(g14
g15
NtRp568
(dp569
g18
I1
sg19
I40
sg20
I116
sg21
I0
sg22
I0
sg23
I86
sg24
I40
sbssg25
S'w\xa9\xc2U|\xff\xfdz/\x01\x02\xd6P<\x16('
p570
ssS'user_system_views_logins_email_login_view'
p571
(dp572
g6
(dp573
g30
S'user_system_views_logins_email_login_view.html'
p574
sg32
S'user_system/views/logins/email_login_view'
p575
sg34
g13
(g14
g15
NtRp576
(dp577
g18
I1
sg19
I8
sg20
I35
sg21
I0
sg22
I0
sg23
I0
sg24
I0
sbssg25
S'\x9e\xe3\x8e\xf9o\x8aYC\xa2\xcb\xe7\xbd\x94\xe1O\x1a'
p578
ssS'user_system_views_signups_tests_test_facebook_signup_view'
p579
(dp580
g6
(dp581
g8
S'user_system_views_signups_tests_test_facebook_signup_view.html'
p582
sg10
S'user_system/views/signups/tests/test_facebook_signup_view'
p583
sg12
g13
(g14
g15
NtRp584
(dp585
g18
I1
sg19
I0
sg20
I60
sg21
I0
sg22
I0
sg23
I0
sg24
I0
sbssg25
S'\xfb\x95\xf2\xe4\xb0\x0c\x7fJn\xda\x97AX\xd5\xa9C'
p586
ssS'create_views_question_datasets_question_dataset_view'
p587
(dp588
g6
(dp589
g30
S'create_views_question_datasets_question_dataset_view.html'
p590
sg32
S'create/views/question_datasets/question_dataset_view'
p591
sg34
g13
(g14
g15
NtRp592
(dp593
g18
I1
sg19
I4
sg20
I20
sg21
I0
sg22
I0
sg23
I5
sg24
I4
sbssg25
S'\x01\xfb\xf2\x86m\xd4\xf9\xc3\xe6\xb6\x11\x96u;\x1ez'
p594
ssS'create_views_quests_tests_test_remove_question_template_view'
p595
(dp596
g6
(dp597
g30
S'create_views_quests_tests_test_remove_question_template_view.html'
p598
sg32
S'create/views/quests/tests/test_remove_question_template_view'
p599
sg34
g13
(g14
g15
NtRp600
(dp601
g18
I1
sg19
I0
sg20
I0
sg21
I0
sg22
I0
sg23
I0
sg24
I0
sbssg25
S'\x19g\xdfM\x1a\x019\xaf\x1baIeR\xe5u\xa7'
p602
ssS'create_views_summary_create_summary_view'
p603
(dp604
g6
(dp605
g30
S'create_views_summary_create_summary_view.html'
p606
sg32
S'create/views/summary/create_summary_view'
p607
sg34
g13
(g14
g15
NtRp608
(dp609
g18
I1
sg19
I0
sg20
I59
sg21
I0
sg22
I0
sg23
I48
sg24
I0
sbssg25
S"'\xfe\xf4\x8c\xed2\xc3\x18\xf6\x85\x1f\xb0\xf0G\xb7\x8f"
p610
ssS'user_system_views_batch_processing_tests___init__'
p611
(dp612
g6
(dp613
g30
S'user_system_views_batch_processing_tests___init__.html'
p614
sg32
S'user_system/views/batch_processing/tests/__init__'
p615
sg34
g13
(g14
g15
NtRp616
(dp617
g18
I1
sg19
I0
sg20
I1
sg21
I0
sg22
I0
sg23
I0
sg24
I0
sbssg25
S'\xbc\xd6\xeb\xb3\xba\xcaz\xf7{\xd4B\xb5}l\xdf\x96'
p618
ssS'create_views_books_tests_test_get_books_list_view'
p619
(dp620
g6
(dp621
g30
S'create_views_books_tests_test_get_books_list_view.html'
p622
sg32
S'create/views/books/tests/test_get_books_list_view'
p623
sg34
g13
(g14
g15
NtRp624
(dp625
g18
I1
sg19
I0
sg20
I21
sg21
I0
sg22
I0
sg23
I0
sg24
I0
sbssg25
S'\x16\x8f\xf1\x81>\x0f\xb4S\x19\xff\xcd\xc1Y\xe9;\x98'
p626
ssS'api_logging_views_summary_user_activity_summary_view'
p627
(dp628
g6
(dp629
g30
S'api_logging_views_summary_user_activity_summary_view.html'
p630
sg32
S'api_logging/views/summary/user_activity_summary_view'
p631
sg34
g13
(g14
g15
NtRp632
(dp633
g18
I1
sg19
I8
sg20
I27
sg21
I0
sg22
I0
sg23
I13
sg24
I8
sbssg25
S'\x99\xfc\\\x0e\x10\x840(\x94\xd3(k\x9f\xb4\xd9M'
p634
ssS'teach_views_summaries_tests_test_class_ranking_view'
p635
(dp636
g6
(dp637
g30
S'teach_views_summaries_tests_test_class_ranking_view.html'
p638
sg32
S'teach/views/summaries/tests/test_class_ranking_view'
p639
sg34
g13
(g14
g15
NtRp640
(dp641
g18
I1
sg19
I0
sg20
I9
sg21
I0
sg22
I0
sg23
I1
sg24
I0
sbssg25
S'(X\xecwo\x8e\xea\xcf\x80(J\x98&\xb8|\xdc'
p642
ssS'create_views_tags_tests_test_get_tags_list_view'
p643
(dp644
g6
(dp645
g30
S'create_views_tags_tests_test_get_tags_list_view.html'
p646
sg32
S'create/views/tags/tests/test_get_tags_list_view'
p647
sg34
g13
(g14
g15
NtRp648
(dp649
g18
I1
sg19
I0
sg20
I21
sg21
I0
sg22
I0
sg23
I0
sg24
I0
sbssg25
S'F\xf6yk?\xb2\xc12\x93\x8b\xe6Bx\xa09\x89'
p650
ssS'create_views_questions_tests_test_get_question_list_view'
p651
(dp652
g6
(dp653
g30
S'create_views_questions_tests_test_get_question_list_view.html'
p654
sg32
S'create/views/questions/tests/test_get_question_list_view'
p655
sg34
g13
(g14
g15
NtRp656
(dp657
g18
I1
sg19
I0
sg20
I32
sg21
I0
sg22
I0
sg23
I0
sg24
I0
sbssg25
S'\xa2&\x88;1\\\xa2 \xb4&ejB\xd1%\x06'
p658
ssS'learn_views_daily_quests_daily_quest_view'
p659
(dp660
g6
(dp661
g8
S'learn_views_daily_quests_daily_quest_view.html'
p662
sg10
S'learn/views/daily_quests/daily_quest_view'
p663
sg12
g13
(g14
g15
NtRp664
(dp665
g18
I1
sg19
I22
sg20
I78
sg21
I0
sg22
I0
sg23
I54
sg24
I22
sbssg25
S'Zy\x17\xca\x00+$"\xd6\x0f\xbf\r\x99\x0fj\xe3'
p666
ssS'privilege_views_privileges___init__'
p667
(dp668
g6
(dp669
g30
S'privilege_views_privileges___init__.html'
p670
sg32
S'privilege/views/privileges/__init__'
p671
sg34
g13
(g14
g15
NtRp672
(dp673
g18
I1
sg19
I0
sg20
I1
sg21
I0
sg22
I0
sg23
I0
sg24
I0
sbssg25
S']\x14S\xdf\xb4:Tx\xb9\x98\x89\xe7\x01%DZ'
p674
ssS'learn_views_daily_quests___init__'
p675
(dp676
g6
(dp677
g30
S'learn_views_daily_quests___init__.html'
p678
sg32
S'learn/views/daily_quests/__init__'
p679
sg34
g13
(g14
g15
NtRp680
(dp681
g18
I1
sg19
I0
sg20
I4
sg21
I0
sg22
I0
sg23
I0
sg24
I0
sbssg25
S'<\xb7\x9f\x967\xb6\x85\x96\x7frG\x80\x7f\xacB\xb0'
p682
ssS'learn_managers_daily_quests_tests_test_daily_quest_completion_manager'
p683
(dp684
g104
(dp685
g106
S'learn_managers_daily_quests_tests_test_daily_quest_completion_manager.html'
p686
sg108
S'learn/managers/daily_quests/tests/test_daily_quest_completion_manager'
p687
sg110
g13
(g14
g15
NtRp688
(dp689
g18
I1
sg19
I0
sg20
I33
sg21
I0
sg22
I0
sg23
I0
sg24
I0
sbssg113
S'\x8e\x1aq\x1e\x07\xa1\xed\xf8\xf9,m\xe6(d1\xa7'
p690
ssS'teach_views_summaries_class_ranking_view'
p691
(dp692
g6
(dp693
g30
S'teach_views_summaries_class_ranking_view.html'
p694
sg32
S'teach/views/summaries/class_ranking_view'
p695
sg34
g13
(g14
g15
NtRp696
(dp697
g18
I1
sg19
I2
sg20
I17
sg21
I0
sg22
I0
sg23
I8
sg24
I2
sbssg25
S'\xf7\xf8\x7f4\xf6\xe2`\x1d\xaf\xe4(/\xc61\x13\x83'
p698
ssS'teach_views_summaries_tests_test_leaderboard_view'
p699
(dp700
g6
(dp701
g30
S'teach_views_summaries_tests_test_leaderboard_view.html'
p702
sg32
S'teach/views/summaries/tests/test_leaderboard_view'
p703
sg34
g13
(g14
g15
NtRp704
(dp705
g18
I1
sg19
I0
sg20
I7
sg21
I0
sg22
I0
sg23
I1
sg24
I0
sbssg25
S'7\xbd _\xbf\xdc\xe7/\xf9\xdb\x16\xd9&v\xd6S'
p706
ssS'create_managers_tests_test_assigning_daily_quest_manager'
p707
(dp708
g6
(dp709
g30
S'create_managers_tests_test_assigning_daily_quest_manager.html'
p710
sg32
S'create/managers/tests/test_assigning_daily_quest_manager'
p711
sg34
g13
(g14
g15
NtRp712
(dp713
g18
I1
sg19
I0
sg20
I13
sg21
I0
sg22
I0
sg23
I0
sg24
I0
sbssg25
S'?c\xcb\xeb\xab\xb5\xd7\xd9\xec\xd3u\x06d\xbe\x0e\xb2'
p714
ssS'teach_views_daily_quest_templates___init__'
p715
(dp716
g6
(dp717
g30
S'teach_views_daily_quest_templates___init__.html'
p718
sg32
S'teach/views/daily_quest_templates/__init__'
p719
sg34
g13
(g14
g15
NtRp720
(dp721
g18
I1
sg19
I0
sg20
I1
sg21
I0
sg22
I0
sg23
I0
sg24
I0
sbssg25
S'\xc1b\x1f\x95\xabR`C\xe80\xb9tNC\r3'
p722
ssS'learn_managers_daily_quests_tests___init__'
p723
(dp724
g104
(dp725
g106
S'learn_managers_daily_quests_tests___init__.html'
p726
sg108
S'learn/managers/daily_quests/tests/__init__'
p727
sg110
g13
(g14
g15
NtRp728
(dp729
g18
I1
sg19
I0
sg20
I0
sg21
I0
sg22
I0
sg23
I0
sg24
I0
sbssg113
S'\x19g\xdfM\x1a\x019\xaf\x1baIeR\xe5u\xa7'
p730
ssS'create_views_tests_test_question_view'
p731
(dp732
g6
(dp733
g30
S'create_views_tests_test_question_view.html'
p734
sg32
S'create/views/tests/test_question_view'
p735
sg34
g13
(g14
g15
NtRp736
(dp737
g18
I1
sg19
I6
sg20
I25
sg21
I0
sg22
I0
sg23
I6
sg24
I6
sbssg25
S'C.?b\xec\xd3\x8d\x04\x8b\xf4\xd3\xad\xa9^}\x03'
p738
ssS'user_system_views___init__'
p739
(dp740
g6
(dp741
g30
S'user_system_views___init__.html'
p742
sg32
S'user_system/views/__init__'
p743
sg34
g13
(g14
g15
NtRp744
(dp745
g18
I1
sg19
I0
sg20
I6
sg21
I0
sg22
I0
sg23
I0
sg24
I0
sbssg25
S'F\xa0L<\x89\xf6\x17C\x98\xb9\xf9\x9c\x08\xff\x8d\x8a'
p746
ssS'user_system_views_users___init__'
p747
(dp748
g6
(dp749
g30
S'user_system_views_users___init__.html'
p750
sg32
S'user_system/views/users/__init__'
p751
sg34
g13
(g14
g15
NtRp752
(dp753
g18
I1
sg19
I0
sg20
I7
sg21
I0
sg22
I0
sg23
I0
sg24
I0
sbssg25
S']\x15\xfe\xc7\xefw\x97\xcc\x87v\xa2Z\x9b\xb1\x91\xaf'
p754
ssS'user_system_views_roles_tests___init__'
p755
(dp756
g6
(dp757
g30
S'user_system_views_roles_tests___init__.html'
p758
sg32
S'user_system/views/roles/tests/__init__'
p759
sg34
g13
(g14
g15
NtRp760
(dp761
g18
I1
sg19
I0
sg20
I0
sg21
I0
sg22
I0
sg23
I0
sg24
I0
sbssg25
S'\x19g\xdfM\x1a\x019\xaf\x1baIeR\xe5u\xa7'
p762
ssS'create_views_tags_tests_test_create_tag_view'
p763
(dp764
g6
(dp765
g30
S'create_views_tags_tests_test_create_tag_view.html'
p766
sg32
S'create/views/tags/tests/test_create_tag_view'
p767
sg34
g13
(g14
g15
NtRp768
(dp769
g18
I1
sg19
I0
sg20
I33
sg21
I0
sg22
I0
sg23
I0
sg24
I0
sbssg25
S'\\\x91{\x1a ;Qg\xbd\x81\xe2\xaf\xa41\xac\x1b'
p770
ssS'teach_views_teacher_tags_teacher_tag_view'
p771
(dp772
g6
(dp773
g30
S'teach_views_teacher_tags_teacher_tag_view.html'
p774
sg32
S'teach/views/teacher_tags/teacher_tag_view'
p775
sg34
g13
(g14
g15
NtRp776
(dp777
g18
I1
sg19
I20
sg20
I55
sg21
I0
sg22
I2
sg23
I30
sg24
I18
sbssg25
S'\xd6\xdf\xb7\xf7\xc0\x9b\xae\x8c\x81\x0f\x89C\xb0k\xaf\xd5'
p778
ssS'create_views_books_tests_test_get_book_by_id_view'
p779
(dp780
g6
(dp781
g30
S'create_views_books_tests_test_get_book_by_id_view.html'
p782
sg32
S'create/views/books/tests/test_get_book_by_id_view'
p783
sg34
g13
(g14
g15
NtRp784
(dp785
g18
I1
sg19
I0
sg20
I20
sg21
I0
sg22
I0
sg23
I0
sg24
I0
sbssg25
S'\xc88x\xaf\x84e\xaa6\x17\xdf\x0e\x8c`\xcaAO'
p786
ssS'user_system_views_apps_tests___init__'
p787
(dp788
g6
(dp789
g30
S'user_system_views_apps_tests___init__.html'
p790
sg32
S'user_system/views/apps/tests/__init__'
p791
sg34
g13
(g14
g15
NtRp792
(dp793
g18
I1
sg19
I0
sg20
I0
sg21
I0
sg22
I0
sg23
I0
sg24
I0
sbssg25
S'\x19g\xdfM\x1a\x019\xaf\x1baIeR\xe5u\xa7'
p794
ssS'create_views_quests_tests_test_add_question_view'
p795
(dp796
g6
(dp797
g8
S'create_views_quests_tests_test_add_question_view.html'
p798
sg10
S'create/views/quests/tests/test_add_question_view'
p799
sg12
g13
(g14
g15
NtRp800
(dp801
g18
I1
sg19
I0
sg20
I35
sg21
I0
sg22
I0
sg23
I0
sg24
I0
sbssg25
S'7,\x1a\xbd\x96\xfc\xb4u\xf5\x01u\xce\x11n\xe5\x1b'
p802
ssS'create_views_books___init__'
p803
(dp804
g6
(dp805
g30
S'create_views_books___init__.html'
p806
sg32
S'create/views/books/__init__'
p807
sg34
g13
(g14
g15
NtRp808
(dp809
g18
I1
sg19
I0
sg20
I3
sg21
I0
sg22
I0
sg23
I0
sg24
I0
sbssg25
S'\xce\x13\xc8S|wF\xe3\x148\xa0?ez,\xc4'
p810
ssS'teach_managers_summaries_class_ranking_manager'
p811
(dp812
g6
(dp813
g8
S'teach_managers_summaries_class_ranking_manager.html'
p814
sg10
S'teach/managers/summaries/class_ranking_manager'
p815
sg12
g13
(g14
g15
NtRp816
(dp817
g18
I1
sg19
I28
sg20
I114
sg21
I0
sg22
I5
sg23
I29
sg24
I11
sbssg25
S'RZW\x95\xd2\x98\x95\xc6\xc5\xf9\xe8\xc5T\xf0\xddF'
p818
ssS'teach_managers_summaries___init__'
p819
(dp820
g6
(dp821
g30
S'teach_managers_summaries___init__.html'
p822
sg32
S'teach/managers/summaries/__init__'
p823
sg34
g13
(g14
g15
NtRp824
(dp825
g18
I1
sg19
I0
sg20
I2
sg21
I0
sg22
I0
sg23
I0
sg24
I0
sbssg25
S'\x0c/\x90\x17\r\xb7\xb8Q\x0f)d\xf4c\x02\xa1\xdc'
p826
ssS'create_views_tests_test_view'
p827
(dp828
g6
(dp829
g30
S'create_views_tests_test_view.html'
p830
sg32
S'create/views/tests/test_view'
p831
sg34
g13
(g14
g15
NtRp832
(dp833
g18
I1
sg19
I14
sg20
I52
sg21
I0
sg22
I0
sg23
I25
sg24
I14
sbssg25
S'\x86q^I)\xc4\xd1\x11bs\xa3\x18S\xaa\x8b\xdd'
p834
ssS'teach_views___init__'
p835
(dp836
g6
(dp837
g30
S'teach_views___init__.html'
p838
sg32
S'teach/views/__init__'
p839
sg34
g13
(g14
g15
NtRp840
(dp841
g18
I1
sg19
I0
sg20
I4
sg21
I0
sg22
I0
sg23
I0
sg24
I0
sbssg25
S'\xbb\xd5\x19}\x18\xa2M\x81f\xac\xd2>+1\xda@'
p842
ssS'user_system_managers_streak_manager'
p843
(dp844
g6
(dp845
g30
S'user_system_managers_streak_manager.html'
p846
sg32
S'user_system/managers/streak_manager'
p847
sg34
g13
(g14
g15
NtRp848
(dp849
g18
I1
sg19
I30
sg20
I66
sg21
I0
sg22
I2
sg23
I48
sg24
I28
sbssg25
S'9\x9e\xa2\xbd\x80\x8b\xa4\xb3N>\xb8ZsW\xe8\xd0'
p850
ssS'user_system_views_signups_map_demo_signup_view'
p851
(dp852
g6
(dp853
g30
S'user_system_views_signups_map_demo_signup_view.html'
p854
sg32
S'user_system/views/signups/map_demo_signup_view'
p855
sg34
g13
(g14
g15
NtRp856
(dp857
g18
I1
sg19
I18
sg20
I134
sg21
I0
sg22
I0
sg23
I115
sg24
I18
sbssg25
S"\xc8(\xb1Q\xfb\xb0\xdfc\x94\xe2\x99\r\xb4'G["
p858
ssS'learn_views_student_news_feed_student_news_feed_view'
p859
(dp860
g6
(dp861
g30
S'learn_views_student_news_feed_student_news_feed_view.html'
p862
sg32
S'learn/views/student_news_feed/student_news_feed_view'
p863
sg34
g13
(g14
g15
NtRp864
(dp865
g18
I1
sg19
I14
sg20
I64
sg21
I0
sg22
I0
sg23
I39
sg24
I12
sbssg25
S'G\xa9|~;\x15\x07\x19\xf9\xf2\x04\x9f)i\xdb\x13'
p866
ssS'create_views_quests_tests___init__'
p867
(dp868
g6
(dp869
g30
S'create_views_quests_tests___init__.html'
p870
sg32
S'create/views/quests/tests/__init__'
p871
sg34
g13
(g14
g15
NtRp872
(dp873
g18
I1
sg19
I0
sg20
I0
sg21
I0
sg22
I0
sg23
I0
sg24
I0
sbssg25
S'\x19g\xdfM\x1a\x019\xaf\x1baIeR\xe5u\xa7'
p874
ssS'user_system_views_schools_course_view'
p875
(dp876
g6
(dp877
g30
S'user_system_views_schools_course_view.html'
p878
sg32
S'user_system/views/schools/course_view'
p879
sg34
g13
(g14
g15
NtRp880
(dp881
g18
I1
sg19
I0
sg20
I17
sg21
I0
sg22
I0
sg23
I0
sg24
I0
sbssg25
S'\xd7\xc8\x06z,\xe1\xceN\xa2.OL]\xcd\xb1\x83'
p882
ssS'user_system_views_users_tests_test_delete_user_view'
p883
(dp884
g6
(dp885
g30
S'user_system_views_users_tests_test_delete_user_view.html'
p886
sg32
S'user_system/views/users/tests/test_delete_user_view'
p887
sg34
g13
(g14
g15
NtRp888
(dp889
g18
I1
sg19
I0
sg20
I22
sg21
I0
sg22
I0
sg23
I0
sg24
I0
sbssg25
S'\xe4S$\xa1t\xc6\xbe\xc7\xb9^Y\x05{\x92KQ'
p890
ssS'create_views_books_tests_test_hide_book_view'
p891
(dp892
g6
(dp893
g8
S'create_views_books_tests_test_hide_book_view.html'
p894
sg10
S'create/views/books/tests/test_hide_book_view'
p895
sg12
g13
(g14
g15
NtRp896
(dp897
g18
I1
sg19
I0
sg20
I25
sg21
I0
sg22
I0
sg23
I0
sg24
I0
sbssg25
S'\xab\xea\xfdqp\xbbVy\xff\x11\x9d\t\xce!\x89?'
p898
ssS'user_system_views_batch_processing_update_user_streak_view'
p899
(dp900
g6
(dp901
g30
S'user_system_views_batch_processing_update_user_streak_view.html'
p902
sg32
S'user_system/views/batch_processing/update_user_streak_view'
p903
sg34
g13
(g14
g15
NtRp904
(dp905
g18
I1
sg19
I4
sg20
I25
sg21
I0
sg22
I0
sg23
I0
sg24
I0
sbssg25
S'\xa6k\xedW\xa7\x11(\x87{\x15\x19{\xb8\xb4&\x98'
p906
ssS'create_views_books_tests_test_add_subchapter_view'
p907
(dp908
g6
(dp909
g8
S'create_views_books_tests_test_add_subchapter_view.html'
p910
sg10
S'create/views/books/tests/test_add_subchapter_view'
p911
sg12
g13
(g14
g15
NtRp912
(dp913
g18
I1
sg19
I0
sg20
I60
sg21
I0
sg22
I0
sg23
I0
sg24
I0
sbssg25
S'\xd5Y\xe6{\xa0\xec\x1a{z\xfe\xe5\x1c\x11}\xa6\x81'
p914
ssS'user_system_views_roles_user_role_view'
p915
(dp916
g6
(dp917
g30
S'user_system_views_roles_user_role_view.html'
p918
sg32
S'user_system/views/roles/user_role_view'
p919
sg34
g13
(g14
g15
NtRp920
(dp921
g18
I1
sg19
I8
sg20
I31
sg21
I0
sg22
I0
sg23
I0
sg24
I0
sbssg25
S'S@\xea\xb7\xd6\xe1\x1b\x1dU\x18a\x9d\x80\xe3A\xb9'
p922
ssS'teach_views_summaries_top_answered_questions_summary_view'
p923
(dp924
g6
(dp925
g30
S'teach_views_summaries_top_answered_questions_summary_view.html'
p926
sg32
S'teach/views/summaries/top_answered_questions_summary_view'
p927
sg34
g13
(g14
g15
NtRp928
(dp929
g18
I1
sg19
I34
sg20
I77
sg21
I0
sg22
I0
sg23
I54
sg24
I34
sbssg25
S'\x9e\xb0khf9\xceHZ\x1e\x91\x1ac,\x8c\x0c'
p930
ssS'teach_views_teacher_news_feed___init__'
p931
(dp932
g6
(dp933
g30
S'teach_views_teacher_news_feed___init__.html'
p934
sg32
S'teach/views/teacher_news_feed/__init__'
p935
sg34
g13
(g14
g15
NtRp936
(dp937
g18
I1
sg19
I0
sg20
I1
sg21
I0
sg22
I0
sg23
I0
sg24
I0
sbssg25
S'\xe8\xcd\xf3\x9f\xa3=;`\xf0oZ\xcb!\x98\xac\x1c'
p938
ssS'user_system_views_logins___init__'
p939
(dp940
g6
(dp941
g30
S'user_system_views_logins___init__.html'
p942
sg32
S'user_system/views/logins/__init__'
p943
sg34
g13
(g14
g15
NtRp944
(dp945
g18
I1
sg19
I0
sg20
I2
sg21
I0
sg22
I0
sg23
I0
sg24
I0
sbssg25
S'\xa0\xd3\xaas\xc2\xb93+ED.\xe5\xfe\xf2\xad\x87'
p946
ssS'user_system_views_signups_hardcoded_tests_test_test_account_view'
p947
(dp948
g6
(dp949
g8
S'user_system_views_signups_hardcoded_tests_test_test_account_view.html'
p950
sg10
S'user_system/views/signups/hardcoded/tests/test_test_account_view'
p951
sg12
g13
(g14
g15
NtRp952
(dp953
g18
I1
sg19
I0
sg20
I24
sg21
I0
sg22
I0
sg23
I0
sg24
I0
sbssg25
S'\x9c\xa3V\xfc\x12\xd8\xafa0:W\x0e@)\x91\x82'
p954
ssS'create_views_daily_quest_copies___init__'
p955
(dp956
g6
(dp957
g30
S'create_views_daily_quest_copies___init__.html'
p958
sg32
S'create/views/daily_quest_copies/__init__'
p959
sg34
g13
(g14
g15
NtRp960
(dp961
g18
I1
sg19
I0
sg20
I1
sg21
I0
sg22
I0
sg23
I0
sg24
I0
sbssg25
S"'\xb6_z\x90s\x92\xdd\xc7\xb2\x87d\xba\xe24X"
p962
ssS'create_views_tests___init__'
p963
(dp964
g6
(dp965
g30
S'create_views_tests___init__.html'
p966
sg32
S'create/views/tests/__init__'
p967
sg34
g13
(g14
g15
NtRp968
(dp969
g18
I1
sg19
I0
sg20
I2
sg21
I0
sg22
I0
sg23
I0
sg24
I0
sbssg25
S'\xd5\xdb\x9e\xf0\xb4h\x98\xd4K\x0b\xaf\x16M\x13\xcf\x88'
p970
ssS'create_views_quests_tests_test_hide_quest_view'
p971
(dp972
g6
(dp973
g8
S'create_views_quests_tests_test_hide_quest_view.html'
p974
sg10
S'create/views/quests/tests/test_hide_quest_view'
p975
sg12
g13
(g14
g15
NtRp976
(dp977
g18
I1
sg19
I0
sg20
I26
sg21
I0
sg22
I0
sg23
I0
sg24
I0
sbssg25
S']\xc5\xdb\x9c\xa3\x9dS\xc2|m\xf3\xca\x1b \xf4\xb0'
p978
ssS'learn_views_student_news_feed_tests___init__'
p979
(dp980
g6
(dp981
g30
S'learn_views_student_news_feed_tests___init__.html'
p982
sg32
S'learn/views/student_news_feed/tests/__init__'
p983
sg34
g13
(g14
g15
NtRp984
(dp985
g18
I1
sg19
I0
sg20
I0
sg21
I0
sg22
I0
sg23
I0
sg24
I0
sbssg25
S'\x19g\xdfM\x1a\x019\xaf\x1baIeR\xe5u\xa7'
p986
ssS'create_views_books_tests_test_add_tag_to_subchapter_view'
p987
(dp988
g6
(dp989
g8
S'create_views_books_tests_test_add_tag_to_subchapter_view.html'
p990
sg10
S'create/views/books/tests/test_add_tag_to_subchapter_view'
p991
sg12
g13
(g14
g15
NtRp992
(dp993
g18
I1
sg19
I0
sg20
I40
sg21
I0
sg22
I0
sg23
I0
sg24
I0
sbssg25
S',\xe9w[\xc1Q\xcf4V\xdaD\x94\xfa\xb8\x0bJ'
p994
ssS'create_views_questions_tests_test_get_question_by_id_view'
p995
(dp996
g6
(dp997
g30
S'create_views_questions_tests_test_get_question_by_id_view.html'
p998
sg32
S'create/views/questions/tests/test_get_question_by_id_view'
p999
sg34
g13
(g14
g15
NtRp1000
(dp1001
g18
I1
sg19
I0
sg20
I24
sg21
I0
sg22
I0
sg23
I0
sg24
I0
sbssg25
S'\xa7[\x91\xa9\xa6\xb4\xbd&n$O^O\xec\xf2X'
p1002
ssS'user_system_views_schools_classroom_view'
p1003
(dp1004
g6
(dp1005
g30
S'user_system_views_schools_classroom_view.html'
p1006
sg32
S'user_system/views/schools/classroom_view'
p1007
sg34
g13
(g14
g15
NtRp1008
(dp1009
g18
I1
sg19
I2
sg20
I25
sg21
I0
sg22
I0
sg23
I6
sg24
I2
sbssg25
S'\xc5\x9bb\xc9\x83\xc2\x88\xd8,\x01\xeb\x94.\x8b\xf7\xd6'
p1010
ssS'user_system_views_signups_verify_email_view'
p1011
(dp1012
g6
(dp1013
g30
S'user_system_views_signups_verify_email_view.html'
p1014
sg32
S'user_system/views/signups/verify_email_view'
p1015
sg34
g13
(g14
g15
NtRp1016
(dp1017
g18
I1
sg19
I6
sg20
I26
sg21
I0
sg22
I0
sg23
I0
sg24
I0
sbssg25
S"B+;\xbf\xb1A\x1f\n\x94\x0e\xeb\xd0\xf1Y'l"
p1018
ssS'user_system_views_schools___init__'
p1019
(dp1020
g6
(dp1021
g30
S'user_system_views_schools___init__.html'
p1022
sg32
S'user_system/views/schools/__init__'
p1023
sg34
g13
(g14
g15
NtRp1024
(dp1025
g18
I1
sg19
I0
sg20
I4
sg21
I0
sg22
I0
sg23
I0
sg24
I0
sbssg25
S'\xb7\x05\xb1\x95\xf1V\x04[\x0e\xa0\xf7\x96.@Iw'
p1026
ssS'create_views_quests___init__'
p1027
(dp1028
g6
(dp1029
g30
S'create_views_quests___init__.html'
p1030
sg32
S'create/views/quests/__init__'
p1031
sg34
g13
(g14
g15
NtRp1032
(dp1033
g18
I1
sg19
I0
sg20
I1
sg21
I0
sg22
I0
sg23
I0
sg24
I0
sbssg25
S'\x8d\x97\x8c^6\xf0o\xc3_\x8dRQ}\xd2]a'
p1034
ssS'create_views_books_tests_test_remove_subchapter_view'
p1035
(dp1036
g6
(dp1037
g8
S'create_views_books_tests_test_remove_subchapter_view.html'
p1038
sg10
S'create/views/books/tests/test_remove_subchapter_view'
p1039
sg12
g13
(g14
g15
NtRp1040
(dp1041
g18
I1
sg19
I0
sg20
I44
sg21
I0
sg22
I0
sg23
I0
sg24
I0
sbssg25
S'""\xca\xf9\xadH\xf0\x01\xe6\xdaBM\xb7\n\xbc\xaf'
p1042
ssS'teach_views_campaigns_campaign_view'
p1043
(dp1044
g6
(dp1045
g30
S'teach_views_campaigns_campaign_view.html'
p1046
sg32
S'teach/views/campaigns/campaign_view'
p1047
sg34
g13
(g14
g15
NtRp1048
(dp1049
g18
I1
sg19
I8
sg20
I38
sg21
I0
sg22
I0
sg23
I18
sg24
I8
sbssg25
S'90\xbcHZ\xe7\x8e\xed\x1f\xed%@\xe6P\xe0O'
p1050
ssS'user_system_managers_user_manager'
p1051
(dp1052
g6
(dp1053
g30
S'user_system_managers_user_manager.html'
p1054
sg32
S'user_system/managers/user_manager'
p1055
sg34
g13
(g14
g15
NtRp1056
(dp1057
g18
I1
sg19
I28
sg20
I64
sg21
I0
sg22
I1
sg23
I0
sg24
I1
sbssg25
S'\xb9U\xa3],\xb4\xc8\xd1iE\xf6\x04;\xf0-h'
p1058
ssS'create_views_daily_quest_copies_daily_quest_copy_view'
p1059
(dp1060
g6
(dp1061
g30
S'create_views_daily_quest_copies_daily_quest_copy_view.html'
p1062
sg32
S'create/views/daily_quest_copies/daily_quest_copy_view'
p1063
sg34
g13
(g14
g15
NtRp1064
(dp1065
g18
I1
sg19
I0
sg20
I14
sg21
I0
sg22
I0
sg23
I0
sg24
I0
sbssg25
S'?\x95&\\\xae\xf0@\xfc\x96\xc15\xc9\x13\xf6_R'
p1066
ssS'create_views_questions___init__'
p1067
(dp1068
g6
(dp1069
g30
S'create_views_questions___init__.html'
p1070
sg32
S'create/views/questions/__init__'
p1071
sg34
g13
(g14
g15
NtRp1072
(dp1073
g18
I1
sg19
I0
sg20
I3
sg21
I0
sg22
I0
sg23
I0
sg24
I0
sbssg25
S'h\x154\xc5\xe58\xa8\xc8\xa9\xa6\xbea?\xcf?i'
p1074
ssS'user_system_views_users_create_teacher_view'
p1075
(dp1076
g6
(dp1077
g30
S'user_system_views_users_create_teacher_view.html'
p1078
sg32
S'user_system/views/users/create_teacher_view'
p1079
sg34
g13
(g14
g15
NtRp1080
(dp1081
g18
I1
sg19
I2
sg20
I34
sg21
I0
sg22
I0
sg23
I21
sg24
I2
sbssg25
S'=\xee\xed^jo\xc1\xebz\xedP\xf9\x91n\xec\x8d'
p1082
ssS'learn_views_student_news_feed_tests_test_student_news_feed_view'
p1083
(dp1084
g6
(dp1085
g30
S'learn_views_student_news_feed_tests_test_student_news_feed_view.html'
p1086
sg32
S'learn/views/student_news_feed/tests/test_student_news_feed_view'
p1087
sg34
g13
(g14
g15
NtRp1088
(dp1089
g18
I1
sg19
I2
sg20
I20
sg21
I0
sg22
I0
sg23
I0
sg24
I0
sbssg25
S'$\xe5\xe2\r\x17\x08S\x8f\xb4\xb4\xe6\x19\t\x1e\x7f\xfe'
p1090
ssS'learn_managers___init__'
p1091
(dp1092
g6
(dp1093
g30
S'learn_managers___init__.html'
p1094
sg32
S'learn/managers/__init__'
p1095
sg34
g13
(g14
g15
NtRp1096
(dp1097
g18
I1
sg19
I0
sg20
I0
sg21
I0
sg22
I0
sg23
I0
sg24
I0
sbssg25
S'\x19g\xdfM\x1a\x019\xaf\x1baIeR\xe5u\xa7'
p1098
ssS'teach_views_summaries_daily_quest_daily_summary_view'
p1099
(dp1100
g6
(dp1101
g30
S'teach_views_summaries_daily_quest_daily_summary_view.html'
p1102
sg32
S'teach/views/summaries/daily_quest_daily_summary_view'
p1103
sg34
g13
(g14
g15
NtRp1104
(dp1105
g18
I1
sg19
I12
sg20
I61
sg21
I0
sg22
I0
sg23
I39
sg24
I12
sbssg25
S'\x06\\F.\x8c\xd3M\x8e\xc5\xc9\xd5<\x13V\xd6C'
p1106
ssS'create_views_summary___init__'
p1107
(dp1108
g6
(dp1109
g30
S'create_views_summary___init__.html'
p1110
sg32
S'create/views/summary/__init__'
p1111
sg34
g13
(g14
g15
NtRp1112
(dp1113
g18
I1
sg19
I0
sg20
I1
sg21
I0
sg22
I0
sg23
I0
sg24
I0
sbssg25
S'#\xb7\xbd\xa1M\xe4\xa0\x05\xf5x\x057hU[\xca'
p1114
ssS'learn_views___init__'
p1115
(dp1116
g6
(dp1117
g30
S'learn_views___init__.html'
p1118
sg32
S'learn/views/__init__'
p1119
sg34
g13
(g14
g15
NtRp1120
(dp1121
g18
I1
sg19
I0
sg20
I2
sg21
I0
sg22
I0
sg23
I0
sg24
I0
sbssg25
S"?\xc0'\xcb\x1c\xf1\xaa\xf0\x9d\xc7\x0e\xf1\xda\x0eU\x17"
p1122
ssS'user_system_views_signups_hardcoded_test_account_view'
p1123
(dp1124
g6
(dp1125
g30
S'user_system_views_signups_hardcoded_test_account_view.html'
p1126
sg32
S'user_system/views/signups/hardcoded/test_account_view'
p1127
sg34
g13
(g14
g15
NtRp1128
(dp1129
g18
I1
sg19
I2
sg20
I18
sg21
I0
sg22
I0
sg23
I0
sg24
I0
sbssg25
S"\xb4\xf1\xfdH\x8f\xf1QX7'\\\xd3\xab.\xbc\x80"
p1130
ssS'user_system_views_batch_processing_tests_test_update_user_streak_view'
p1131
(dp1132
g6
(dp1133
g30
S'user_system_views_batch_processing_tests_test_update_user_streak_view.html'
p1134
sg32
S'user_system/views/batch_processing/tests/test_update_user_streak_view'
p1135
sg34
g13
(g14
g15
NtRp1136
(dp1137
g18
I1
sg19
I4
sg20
I32
sg21
I0
sg22
I0
sg23
I0
sg24
I0
sbssg25
S'\xbd \x8b5\xc6\xac5\x9f\xc4l\r\xd9i\x8f\xbe\x90'
p1138
ssS'user_system_views_users_create_student_view'
p1139
(dp1140
g6
(dp1141
g30
S'user_system_views_users_create_student_view.html'
p1142
sg32
S'user_system/views/users/create_student_view'
p1143
sg34
g13
(g14
g15
NtRp1144
(dp1145
g18
I1
sg19
I2
sg20
I37
sg21
I0
sg22
I0
sg23
I24
sg24
I2
sbssg25
S'\x8e\xce\xac\xe9\xe3J4\xbb\x88$\xefFS\x06Ow'
p1146
ssS'create_views_question_datasets___init__'
p1147
(dp1148
g6
(dp1149
g30
S'create_views_question_datasets___init__.html'
p1150
sg32
S'create/views/question_datasets/__init__'
p1151
sg34
g13
(g14
g15
NtRp1152
(dp1153
g18
I1
sg19
I0
sg20
I1
sg21
I0
sg22
I0
sg23
I0
sg24
I0
sbssg25
S'\x87x\xd1\xbe\x15\xd3\xbc\x99\x86\x08\xf8\x06S\xcf\x00\x87'
p1154
ssS'user_system_views_users_user_streak_history_view'
p1155
(dp1156
g6
(dp1157
g30
S'user_system_views_users_user_streak_history_view.html'
p1158
sg32
S'user_system/views/users/user_streak_history_view'
p1159
sg34
g13
(g14
g15
NtRp1160
(dp1161
g18
I1
sg19
I0
sg20
I15
sg21
I0
sg22
I0
sg23
I0
sg24
I0
sbssg25
S'\x82\xa4:\x84\x8dJE7\xc0"\xbb\xceU\xa9\xd6\x07'
p1162
ssS'user_system_views_roles_tests_test_user_role_view'
p1163
(dp1164
g6
(dp1165
g8
S'user_system_views_roles_tests_test_user_role_view.html'
p1166
sg10
S'user_system/views/roles/tests/test_user_role_view'
p1167
sg12
g13
(g14
g15
NtRp1168
(dp1169
g18
I1
sg19
I0
sg20
I41
sg21
I0
sg22
I0
sg23
I0
sg24
I0
sbssg25
S'\x90\xc1\xc3\x98\x95e\xbed\xba3\x8ehl"\x80\x92'
p1170
ssS'user_system_views_signups_hardcoded_tests___init__'
p1171
(dp1172
g6
(dp1173
g30
S'user_system_views_signups_hardcoded_tests___init__.html'
p1174
sg32
S'user_system/views/signups/hardcoded/tests/__init__'
p1175
sg34
g13
(g14
g15
NtRp1176
(dp1177
g18
I1
sg19
I0
sg20
I0
sg21
I0
sg22
I0
sg23
I0
sg24
I0
sbssg25
S'\x19g\xdfM\x1a\x019\xaf\x1baIeR\xe5u\xa7'
p1178
ssS'user_system_views_signups___init__'
p1179
(dp1180
g6
(dp1181
g30
S'user_system_views_signups___init__.html'
p1182
sg32
S'user_system/views/signups/__init__'
p1183
sg34
g13
(g14
g15
NtRp1184
(dp1185
g18
I1
sg19
I0
sg20
I5
sg21
I0
sg22
I0
sg23
I0
sg24
I0
sbssg25
S'\xad\xb5\x1c"8P^k\xe3\xaa\x7fv\xbc\xc9\xc6\x01'
p1186
ssS'create_views_tags_tag_view'
p1187
(dp1188
g6
(dp1189
g30
S'create_views_tags_tag_view.html'
p1190
sg32
S'create/views/tags/tag_view'
p1191
sg34
g13
(g14
g15
NtRp1192
(dp1193
g18
I1
sg19
I32
sg20
I93
sg21
I0
sg22
I4
sg23
I9
sg24
I12
sbssg25
S'\xcfpO\\\xdb"\xc2Q\xb2D\xa7\x93x\xbd\x18a'
p1194
ssS'user_system_views_apps_tests_test_get_apps_list_view'
p1195
(dp1196
g6
(dp1197
g30
S'user_system_views_apps_tests_test_get_apps_list_view.html'
p1198
sg32
S'user_system/views/apps/tests/test_get_apps_list_view'
p1199
sg34
g13
(g14
g15
NtRp1200
(dp1201
g18
I1
sg19
I0
sg20
I18
sg21
I0
sg22
I0
sg23
I0
sg24
I0
sbssg25
S'\x87\xab;"\x01p\xf9\xe5\xa6\xb1\xaej\x8egl\x99'
p1202
ssS'api_logging_views_query_stat_query_stat_view'
p1203
(dp1204
g6
(dp1205
g30
S'api_logging_views_query_stat_query_stat_view.html'
p1206
sg32
S'api_logging/views/query_stat/query_stat_view'
p1207
sg34
g13
(g14
g15
NtRp1208
(dp1209
g18
I1
sg19
I2
sg20
I57
sg21
I0
sg22
I0
sg23
I32
sg24
I2
sbssg25
S"\xcct\xdf\xc6\x93\xa3\x11\x8dfs\xaf\x01C'\xa5o"
p1210
ssS'create_views_books_tests_test_update_book_view'
p1211
(dp1212
g6
(dp1213
g30
S'create_views_books_tests_test_update_book_view.html'
p1214
sg32
S'create/views/books/tests/test_update_book_view'
p1215
sg34
g13
(g14
g15
NtRp1216
(dp1217
g18
I1
sg19
I0
sg20
I25
sg21
I0
sg22
I0
sg23
I0
sg24
I0
sbssg25
S'\xafH\xe5\x82r\xb2\x17\x84b\xfb\x1c\x9a\xf0\x0f\xbd\xf2'
p1218
ssS'user_system_views_users_tests_test_add_role_view'
p1219
(dp1220
g6
(dp1221
g8
S'user_system_views_users_tests_test_add_role_view.html'
p1222
sg10
S'user_system/views/users/tests/test_add_role_view'
p1223
sg12
g13
(g14
g15
NtRp1224
(dp1225
g18
I1
sg19
I0
sg20
I36
sg21
I0
sg22
I0
sg23
I0
sg24
I0
sbssg25
S'&\x0eiXa\xfc\xfc\x7f&\xec\xc6\x90<\x8d\xd1<'
p1226
ssS'user_system_views_users_user_profile_update_request_view'
p1227
(dp1228
g6
(dp1229
g30
S'user_system_views_users_user_profile_update_request_view.html'
p1230
sg32
S'user_system/views/users/user_profile_update_request_view'
p1231
sg34
g13
(g14
g15
NtRp1232
(dp1233
g18
I1
sg19
I24
sg20
I70
sg21
I0
sg22
I0
sg23
I51
sg24
I24
sbssg25
S"\x04\xfd\x81?\x1e<^\xb0%\xad\xa6'\xcf\xa1\xc3)"
p1234
ssS'learn_views_student_news_feed___init__'
p1235
(dp1236
g6
(dp1237
g30
S'learn_views_student_news_feed___init__.html'
p1238
sg32
S'learn/views/student_news_feed/__init__'
p1239
sg34
g13
(g14
g15
NtRp1240
(dp1241
g18
I1
sg19
I0
sg20
I1
sg21
I0
sg22
I0
sg23
I0
sg24
I0
sbssg25
S'\xc5\x87\xccQ|\xa2\xee\x11p\x84\xfe\xed\xe3W\xfa\x07'
p1242
ssS'create_views_books_tests_test_create_new_book'
p1243
(dp1244
g6
(dp1245
g30
S'create_views_books_tests_test_create_new_book.html'
p1246
sg32
S'create/views/books/tests/test_create_new_book'
p1247
sg34
g13
(g14
g15
NtRp1248
(dp1249
g18
I1
sg19
I0
sg20
I18
sg21
I0
sg22
I0
sg23
I0
sg24
I0
sbssg25
S'\xe3\xaew\xf8\xd7\x8f\xc5 \x85\xc1\xb6I\x82X(-'
p1250
ssS'user_system_views_users_tests_test_remove_role_view'
p1251
(dp1252
g6
(dp1253
g8
S'user_system_views_users_tests_test_remove_role_view.html'
p1254
sg10
S'user_system/views/users/tests/test_remove_role_view'
p1255
sg12
g13
(g14
g15
NtRp1256
(dp1257
g18
I1
sg19
I0
sg20
I42
sg21
I0
sg22
I0
sg23
I0
sg24
I0
sbssg25
S'\xd2\x8c\x85\\\xfc]\xd5\x80\x15\x1f\x19S(\x99\xf3\t'
p1258
ssS'api_logging_views_user_activities___init__'
p1259
(dp1260
g6
(dp1261
g30
S'api_logging_views_user_activities___init__.html'
p1262
sg32
S'api_logging/views/user_activities/__init__'
p1263
sg34
g13
(g14
g15
NtRp1264
(dp1265
g18
I1
sg19
I0
sg20
I1
sg21
I0
sg22
I0
sg23
I0
sg24
I0
sbssg25
S'\xbc\x87\xa7&\xe2B=>v\tt\x06,\x1d<['
p1266
ssS'learn_managers_daily_quests___init__'
p1267
(dp1268
g6
(dp1269
g30
S'learn_managers_daily_quests___init__.html'
p1270
sg32
S'learn/managers/daily_quests/__init__'
p1271
sg34
g13
(g14
g15
NtRp1272
(dp1273
g18
I1
sg19
I0
sg20
I0
sg21
I0
sg22
I0
sg23
I0
sg24
I0
sbssg25
S'\x19g\xdfM\x1a\x019\xaf\x1baIeR\xe5u\xa7'
p1274
ssS'learn_views_daily_quests_daily_quest_submission_view'
p1275
(dp1276
g6
(dp1277
g30
S'learn_views_daily_quests_daily_quest_submission_view.html'
p1278
sg32
S'learn/views/daily_quests/daily_quest_submission_view'
p1279
sg34
g13
(g14
g15
NtRp1280
(dp1281
g18
I1
sg19
I30
sg20
I79
sg21
I0
sg22
I0
sg23
I61
sg24
I30
sbssg25
S'\t}\x01u\xd14"\x14\x84\x02\xe9\xc4\xcf(\x08\xa4'
p1282
ssS'teach_views_summaries_tests___init__'
p1283
(dp1284
g6
(dp1285
g30
S'teach_views_summaries_tests___init__.html'
p1286
sg32
S'teach/views/summaries/tests/__init__'
p1287
sg34
g13
(g14
g15
NtRp1288
(dp1289
g18
I1
sg19
I0
sg20
I0
sg21
I0
sg22
I0
sg23
I0
sg24
I0
sbssg25
S'\x19g\xdfM\x1a\x019\xaf\x1baIeR\xe5u\xa7'
p1290
ssS'api_logging_views_user_activities_user_agent_view'
p1291
(dp1292
g6
(dp1293
g30
S'api_logging_views_user_activities_user_agent_view.html'
p1294
sg32
S'api_logging/views/user_activities/user_agent_view'
p1295
sg34
g13
(g14
g15
NtRp1296
(dp1297
g18
I1
sg19
I26
sg20
I68
sg21
I0
sg22
I0
sg23
I50
sg24
I26
sbssg25
S'\xc4\xc5\xa3P\xc7\xa8\xdc\x1b#\x14\xe4\xe7o\x17\xba\x82'
p1298
ssS'teach_views_summaries_daily_quest_summary_view'
p1299
(dp1300
g6
(dp1301
g30
S'teach_views_summaries_daily_quest_summary_view.html'
p1302
sg32
S'teach/views/summaries/daily_quest_summary_view'
p1303
sg34
g13
(g14
g15
NtRp1304
(dp1305
g18
I1
sg19
I28
sg20
I80
sg21
I0
sg22
I0
sg23
I59
sg24
I28
sbssg25
S'\x9fe\xf9\x1c\x8a\xe2\xf4dr\xd6i\xd4\x89\xae\x1b\xf6'
p1306
ssS'user_system_views_users_student_profile_request_view'
p1307
(dp1308
g6
(dp1309
g30
S'user_system_views_users_student_profile_request_view.html'
p1310
sg32
S'user_system/views/users/student_profile_request_view'
p1311
sg34
g13
(g14
g15
NtRp1312
(dp1313
g18
I1
sg19
I0
sg20
I14
sg21
I0
sg22
I0
sg23
I0
sg24
I0
sbssg25
S'\x87:\xd0\xef\x04\xf3-q\r\xe7\xec \xceS\xee<'
p1314
ssS'teach_views_teacher_chapters_teacher_chapter_view'
p1315
(dp1316
g6
(dp1317
g30
S'teach_views_teacher_chapters_teacher_chapter_view.html'
p1318
sg32
S'teach/views/teacher_chapters/teacher_chapter_view'
p1319
sg34
g13
(g14
g15
NtRp1320
(dp1321
g18
I1
sg19
I12
sg20
I44
sg21
I0
sg22
I0
sg23
I25
sg24
I12
sbssg25
S'Z\xc5\n\xdb\xe5!2~7\xe3i\xa7j\xd4\x10\x8c'
p1322
ssS'user_system_views_logins_tests___init__'
p1323
(dp1324
g6
(dp1325
g30
S'user_system_views_logins_tests___init__.html'
p1326
sg32
S'user_system/views/logins/tests/__init__'
p1327
sg34
g13
(g14
g15
NtRp1328
(dp1329
g18
I1
sg19
I0
sg20
I1
sg21
I0
sg22
I0
sg23
I0
sg24
I0
sbssg25
S'\xbc\xd6\xeb\xb3\xba\xcaz\xf7{\xd4B\xb5}l\xdf\x96'
p1330
ssS'create_views_books_book_view'
p1331
(dp1332
g6
(dp1333
g30
S'create_views_books_book_view.html'
p1334
sg32
S'create/views/books/book_view'
p1335
sg34
g13
(g14
g15
NtRp1336
(dp1337
g18
I1
sg19
I34
sg20
I125
sg21
I0
sg22
I2
sg23
I0
sg24
I2
sbssg25
S'\x0e\x85v\xe8\xe85\r\x00\x94\xa2c/G\xdd\x9dE'
p1338
ssS'api_logging_views_modal_loggings___init__'
p1339
(dp1340
g6
(dp1341
g30
S'api_logging_views_modal_loggings___init__.html'
p1342
sg32
S'api_logging/views/modal_loggings/__init__'
p1343
sg34
g13
(g14
g15
NtRp1344
(dp1345
g18
I1
sg19
I0
sg20
I1
sg21
I0
sg22
I0
sg23
I0
sg24
I0
sbssg25
S'\xf1\x0fWK\x0c\x9eD\xe8\x12\xaf\x93\xfa\xd7q\xa8\x91'
p1346
ssS'user_system_views_users_tests_test_get_users_by_signup_type_view'
p1347
(dp1348
g6
(dp1349
g8
S'user_system_views_users_tests_test_get_users_by_signup_type_view.html'
p1350
sg10
S'user_system/views/users/tests/test_get_users_by_signup_type_view'
p1351
sg12
g13
(g14
g15
NtRp1352
(dp1353
g18
I1
sg19
I0
sg20
I44
sg21
I0
sg22
I0
sg23
I0
sg24
I0
sbssg25
S'\x14\xf6@\x08\xa4g\x9eO\xb9{\xc0\xdc\xba<^W'
p1354
ssS'create_views_quests_tests_test_add_question_template_view'
p1355
(dp1356
g6
(dp1357
g30
S'create_views_quests_tests_test_add_question_template_view.html'
p1358
sg32
S'create/views/quests/tests/test_add_question_template_view'
p1359
sg34
g13
(g14
g15
NtRp1360
(dp1361
g18
I1
sg19
I0
sg20
I0
sg21
I0
sg22
I0
sg23
I0
sg24
I0
sbssg25
S'\x19g\xdfM\x1a\x019\xaf\x1baIeR\xe5u\xa7'
p1362
ssS'create_views_tags_tests_test_remove_prerequisite_view'
p1363
(dp1364
g6
(dp1365
g8
S'create_views_tags_tests_test_remove_prerequisite_view.html'
p1366
sg10
S'create/views/tags/tests/test_remove_prerequisite_view'
p1367
sg12
g13
(g14
g15
NtRp1368
(dp1369
g18
I1
sg19
I0
sg20
I38
sg21
I0
sg22
I0
sg23
I0
sg24
I0
sbssg25
S'S\n\xe5J\x9e\xfa\xa8\xd9^\xe5E\x90\xcd`{\xa1'
p1370
ssS'create_managers_tests___init__'
p1371
(dp1372
g6
(dp1373
g30
S'create_managers_tests___init__.html'
p1374
sg32
S'create/managers/tests/__init__'
p1375
sg34
g13
(g14
g15
NtRp1376
(dp1377
g18
I1
sg19
I0
sg20
I0
sg21
I0
sg22
I0
sg23
I0
sg24
I0
sbssg25
S'\x19g\xdfM\x1a\x019\xaf\x1baIeR\xe5u\xa7'
p1378
ssS'create_views_tags_tests_test_hide_tag_view'
p1379
(dp1380
g6
(dp1381
g8
S'create_views_tags_tests_test_hide_tag_view.html'
p1382
sg10
S'create/views/tags/tests/test_hide_tag_view'
p1383
sg12
g13
(g14
g15
NtRp1384
(dp1385
g18
I1
sg19
I0
sg20
I25
sg21
I0
sg22
I0
sg23
I0
sg24
I0
sbssg25
S'\xd8\xda\xd1\xd9z\x19\xbc\x15\x86\xa4\x10\xda\xdaY\xa1\\'
p1386
ssS'user_system_managers_tests_test_user_manager'
p1387
(dp1388
g6
(dp1389
g30
S'user_system_managers_tests_test_user_manager.html'
p1390
sg32
S'user_system/managers/tests/test_user_manager'
p1391
sg34
g13
(g14
g15
NtRp1392
(dp1393
g18
I1
sg19
I22
sg20
I99
sg21
I0
sg22
I1
sg23
I0
sg24
I1
sbssg25
S'ns\xdd\x8c\x1c\x1a\x12Q5\x15\x132\x836o\xe1'
p1394
ssS'create_views_books_tests_test_chapters_view'
p1395
(dp1396
g6
(dp1397
g30
S'create_views_books_tests_test_chapters_view.html'
p1398
sg32
S'create/views/books/tests/test_chapters_view'
p1399
sg34
g13
(g14
g15
NtRp1400
(dp1401
g18
I1
sg19
I0
sg20
I24
sg21
I0
sg22
I0
sg23
I0
sg24
I0
sbssg25
S'\x00\xb1\x9d\xc1\x84\x85\x83\x03X\x7fF~y\xed\xe3\xd5'
p1402
ssS'user_system_managers___init__'
p1403
(dp1404
g6
(dp1405
g30
S'user_system_managers___init__.html'
p1406
sg32
S'user_system/managers/__init__'
p1407
sg34
g13
(g14
g15
NtRp1408
(dp1409
g18
I1
sg19
I0
sg20
I2
sg21
I0
sg22
I0
sg23
I0
sg24
I0
sbssg25
S'\xa5\xc9\x8d9\xe4\xb5\xce\xe3R\xccW\x976\xcdI\xa4'
p1410
ssS'user_system_views_signups_tests___init__'
p1411
(dp1412
g6
(dp1413
g30
S'user_system_views_signups_tests___init__.html'
p1414
sg32
S'user_system/views/signups/tests/__init__'
p1415
sg34
g13
(g14
g15
NtRp1416
(dp1417
g18
I1
sg19
I0
sg20
I1
sg21
I0
sg22
I0
sg23
I0
sg24
I0
sbssg25
S'\xbc\xd6\xeb\xb3\xba\xcaz\xf7{\xd4B\xb5}l\xdf\x96'
p1418
ssS'api_logging_views_LoggingView'
p1419
(dp1420
g6
(dp1421
g30
S'api_logging_views_LoggingView.html'
p1422
sg32
S'api_logging/views/LoggingView'
p1423
sg34
g13
(g14
g15
NtRp1424
(dp1425
g18
I1
sg19
I16
sg20
I59
sg21
I0
sg22
I0
sg23
I44
sg24
I16
sbssg25
S'\\Z\xb6\x1d\xfe\xcc\x80\xfe\xfa\xd6\xdc\x19\x85\x87<\xdd'
p1426
ssS'create_views_books_tests___init__'
p1427
(dp1428
g6
(dp1429
g30
S'create_views_books_tests___init__.html'
p1430
sg32
S'create/views/books/tests/__init__'
p1431
sg34
g13
(g14
g15
NtRp1432
(dp1433
g18
I1
sg19
I0
sg20
I0
sg21
I0
sg22
I0
sg23
I0
sg24
I0
sbssg25
S'\x19g\xdfM\x1a\x019\xaf\x1baIeR\xe5u\xa7'
p1434
ssS'user_system_views_users_tests_test_get_user_by_id_view'
p1435
(dp1436
g6
(dp1437
g30
S'user_system_views_users_tests_test_get_user_by_id_view.html'
p1438
sg32
S'user_system/views/users/tests/test_get_user_by_id_view'
p1439
sg34
g13
(g14
g15
NtRp1440
(dp1441
g18
I1
sg19
I0
sg20
I27
sg21
I0
sg22
I0
sg23
I0
sg24
I0
sbssg25
S'\xd7\x7f\x0c\xb9\xda.\xf1\x82\xb4\xdf*z\x10(o)'
p1442
ssS'teach_views_summaries_migrations___init__'
p1443
(dp1444
g6
(dp1445
g30
S'teach_views_summaries_migrations___init__.html'
p1446
sg32
S'teach/views/summaries/migrations/__init__'
p1447
sg34
g13
(g14
g15
NtRp1448
(dp1449
g18
I1
sg19
I0
sg20
I1
sg21
I0
sg22
I0
sg23
I0
sg24
I0
sbssg25
S'\xc3\x93h\xecbZ\x11\xb6]\x83\\\xb8]L\xd2 '
p1450
sssS'version'
p1451
S'3.7.1'
p1452
sS'settings'
p1453
S'+\xf7\x98\xd3\xe8x9\x12:]\x1e\xdc\x9c\xa4T\xb6'
p1454
sS'format'
p1455
I1
s.