(dp1
S'files'
p2
(dp3
S'create_views_quests_tests_test_add_tag_view'
p4
(dp5
S'index'
p6
(dp7
S'html_filename'
p8
S'create_views_quests_tests_test_add_tag_view.html'
p9
sS'name'
p10
S'create/views/quests/tests/test_add_tag_view'
p11
sS'nums'
p12
ccopy_reg
_reconstructor
p13
(ccoverage.results
Numbers
p14
c__builtin__
object
p15
NtRp16
(dp17
S'n_files'
p18
I1
sS'n_branches'
p19
I0
sS'n_statements'
p20
I35
sS'n_excluded'
p21
I0
sS'n_partial_branches'
p22
I0
sS'n_missing'
p23
I0
sS'n_missing_branches'
p24
I0
sbssS'hash'
p25
S'o\xbe\xf1\xf9\x80\xe5|\xbab\xcc\xe2F=\x1e\xacp'
p26
ssS'learn_views_daily_quests_daily_quest_history_date_group_view'
p27
(dp28
g6
(dp29
g8
S'learn_views_daily_quests_daily_quest_history_date_group_view.html'
p30
sg10
S'learn/views/daily_quests/daily_quest_history_date_group_view'
p31
sg12
g13
(g14
g15
NtRp32
(dp33
g18
I1
sg19
I36
sg20
I94
sg21
I0
sg22
I0
sg23
I71
sg24
I36
sbssg25
S'N}\x1am\x00\xe8_\xd4\xa8T\xd2R\xf7l^\xd3'
p34
ssS'api_logging_views_modal_loggings_modal_user_history_view'
p35
(dp36
g6
(dp37
g8
S'api_logging_views_modal_loggings_modal_user_history_view.html'
p38
sg10
S'api_logging/views/modal_loggings/modal_user_history_view'
p39
sg12
g13
(g14
g15
NtRp40
(dp41
g18
I1
sg19
I0
sg20
I12
sg21
I0
sg22
I0
sg23
I0
sg24
I0
sbssg25
S'\xe0g\x1c\xea/\xf3m\xa8\x9d\x1f7\xba\x82w\x88\x9c'
p42
ssS'create_views_quests_tests_test_remove_tag_view'
p43
(dp44
g6
(dp45
S'html_filename'
p46
S'create_views_quests_tests_test_remove_tag_view.html'
p47
sS'name'
p48
S'create/views/quests/tests/test_remove_tag_view'
p49
sS'nums'
p50
g13
(g14
g15
NtRp51
(dp52
g18
I1
sg19
I0
sg20
I35
sg21
I0
sg22
I0
sg23
I0
sg24
I0
sbssg25
S"P\xa31=\xda\x96\xb2M#\x01\x0cTr\xe5a'"
p53
ssS'user_system_views_signups_facebook_signup_view'
p54
(dp55
g6
(dp56
g8
S'user_system_views_signups_facebook_signup_view.html'
p57
sg10
S'user_system/views/signups/facebook_signup_view'
p58
sg12
g13
(g14
g15
NtRp59
(dp60
g18
I1
sg19
I8
sg20
I38
sg21
I0
sg22
I0
sg23
I0
sg24
I0
sbssg25
S'\x04E\'\x17r8\x14\xf6 \x98\xb5\xa0sx"@'
p61
ssS'user_system_views_logins_tests_test_email_login_view'
p62
(dp63
g6
(dp64
g8
S'user_system_views_logins_tests_test_email_login_view.html'
p65
sg10
S'user_system/views/logins/tests/test_email_login_view'
p66
sg12
g13
(g14
g15
NtRp67
(dp68
g18
I1
sg19
I0
sg20
I61
sg21
I0
sg22
I0
sg23
I0
sg24
I0
sbssg25
S'\x926\xe8\xcdL\xf3U\xc1C\x1b\x0f\xaf\xf0c\x9b\xd0'
p69
ssS'create_views_books_book_chapter_view'
p70
(dp71
g6
(dp72
g8
S'create_views_books_book_chapter_view.html'
p73
sg10
S'create/views/books/book_chapter_view'
p74
sg12
g13
(g14
g15
NtRp75
(dp76
g18
I1
sg19
I12
sg20
I44
sg21
I0
sg22
I0
sg23
I22
sg24
I12
sbssg25
S'\x0b3\xd8 \xe1\x08#79\x0c\x7f\x1f6\xad0\xe9'
p77
ssS'api_logging_views___init__'
p78
(dp79
g6
(dp80
g8
S'api_logging_views___init__.html'
p81
sg10
S'api_logging/views/__init__'
p82
sg12
g13
(g14
g15
NtRp83
(dp84
g18
I1
sg19
I0
sg20
I5
sg21
I0
sg22
I0
sg23
I0
sg24
I0
sbssg25
S'E\xf0\xc8*y9Q5\x96\xa8]\xdf\x95Zq\xed'
p85
ssS'create_views___init__'
p86
(dp87
g6
(dp88
g8
S'create_views___init__.html'
p89
sg10
S'create/views/__init__'
p90
sg12
g13
(g14
g15
NtRp91
(dp92
g18
I1
sg19
I0
sg20
I7
sg21
I0
sg22
I0
sg23
I0
sg24
I0
sbssg25
S'\x8f\x98\x9b$~\xde\xc2\xfc\x97/\x14^\xe8\xf8\x10M'
p93
ssS'api_logging_views_query_stat_query_stat_view'
p94
(dp95
g6
(dp96
S'html_filename'
p97
S'api_logging_views_query_stat_query_stat_view.html'
p98
sS'name'
p99
S'api_logging/views/query_stat/query_stat_view'
p100
sS'nums'
p101
g13
(g14
g15
NtRp102
(dp103
g18
I1
sg19
I2
sg20
I57
sg21
I0
sg22
I0
sg23
I32
sg24
I2
sbssg25
S"\xcct\xdf\xc6\x93\xa3\x11\x8dfs\xaf\x01C'\xa5o"
p104
ssS'privilege_views_privileges_user_privilege_view'
p105
(dp106
g6
(dp107
g8
S'privilege_views_privileges_user_privilege_view.html'
p108
sg10
S'privilege/views/privileges/user_privilege_view'
p109
sg12
g13
(g14
g15
NtRp110
(dp111
g18
I1
sg19
I10
sg20
I38
sg21
I0
sg22
I0
sg23
I22
sg24
I10
sbssg25
S'\xf699\xa5A\xca\x9e\x91,l\xf8\x8dI[PR'
p112
ssS'teach_views_summaries_migrations_class_ranking_migration_view'
p113
(dp114
g6
(dp115
S'html_filename'
p116
S'teach_views_summaries_migrations_class_ranking_migration_view.html'
p117
sS'name'
p118
S'teach/views/summaries/migrations/class_ranking_migration_view'
p119
sS'nums'
p120
g13
(g14
g15
NtRp121
(dp122
g18
I1
sg19
I8
sg20
I36
sg21
I0
sg22
I0
sg23
I24
sg24
I8
sbssg25
S'\xe2JF\xb0\xd3c+\xb8\x1a*\x1f\xa5\xb3oY\x1d'
p123
ssS'create_views_books_tests_test_add_chapter_view'
p124
(dp125
g6
(dp126
g8
S'create_views_books_tests_test_add_chapter_view.html'
p127
sg10
S'create/views/books/tests/test_add_chapter_view'
p128
sg12
g13
(g14
g15
NtRp129
(dp130
g18
I1
sg19
I0
sg20
I69
sg21
I0
sg22
I0
sg23
I0
sg24
I0
sbssg25
S'\xea\xcd\x81\xff\xe6p74\xe3\xab\xc2R\x1aZ#Y'
p131
ssS'create_views_tags_tests_test_update_tag_view'
p132
(dp133
S'index'
p134
(dp135
S'html_filename'
p136
S'create_views_tags_tests_test_update_tag_view.html'
p137
sS'name'
p138
S'create/views/tags/tests/test_update_tag_view'
p139
sS'nums'
p140
g13
(g14
g15
NtRp141
(dp142
g18
I1
sg19
I0
sg20
I23
sg21
I0
sg22
I0
sg23
I0
sg24
I0
sbssS'hash'
p143
S'\x03\xa8\x8c\xae\x18\x9b>/f\x80\xadcj\xe8gj'
p144
ssS'user_system_views_roles_tests___init__'
p145
(dp146
g6
(dp147
g8
S'user_system_views_roles_tests___init__.html'
p148
sg10
S'user_system/views/roles/tests/__init__'
p149
sg12
g13
(g14
g15
NtRp150
(dp151
g18
I1
sg19
I0
sg20
I0
sg21
I0
sg22
I0
sg23
I0
sg24
I0
sbssg25
S'\x19g\xdfM\x1a\x019\xaf\x1baIeR\xe5u\xa7'
p152
ssS'teach_views_teacher_tags_teacher_tag_view'
p153
(dp154
g6
(dp155
g8
S'teach_views_teacher_tags_teacher_tag_view.html'
p156
sg10
S'teach/views/teacher_tags/teacher_tag_view'
p157
sg12
g13
(g14
g15
NtRp158
(dp159
g18
I1
sg19
I20
sg20
I55
sg21
I0
sg22
I2
sg23
I30
sg24
I18
sbssg25
S'\xd6\xdf\xb7\xf7\xc0\x9b\xae\x8c\x81\x0f\x89C\xb0k\xaf\xd5'
p160
ssS'user_system_views_logins_facebook_login_view'
p161
(dp162
g6
(dp163
g8
S'user_system_views_logins_facebook_login_view.html'
p164
sg10
S'user_system/views/logins/facebook_login_view'
p165
sg12
g13
(g14
g15
NtRp166
(dp167
g18
I1
sg19
I4
sg20
I24
sg21
I0
sg22
I0
sg23
I0
sg24
I0
sbssg25
S',\xf8~\x8d\x9b\xfe\xa6wQ5\x92t\x15\xe5\x95\x8d'
p168
ssS'api_logging_views_query_stat___init__'
p169
(dp170
g6
(dp171
g8
S'api_logging_views_query_stat___init__.html'
p172
sg10
S'api_logging/views/query_stat/__init__'
p173
sg12
g13
(g14
g15
NtRp174
(dp175
g18
I1
sg19
I0
sg20
I1
sg21
I0
sg22
I0
sg23
I0
sg24
I0
sbssg25
S'\xbe{\x9f#C\x83\xe9\xa5\xf6B\xf2\xd6\x8a\x0eB\xd0'
p176
ssS'create_views_questions_question_view'
p177
(dp178
g6
(dp179
g8
S'create_views_questions_question_view.html'
p180
sg10
S'create/views/questions/question_view'
p181
sg12
g13
(g14
g15
NtRp182
(dp183
g18
I1
sg19
I34
sg20
I113
sg21
I0
sg22
I1
sg23
I40
sg24
I21
sbssg25
S'x\x1b\xf3\x9b\x13Z\xdalU\x8bJ\x89\xb3qc\x8d'
p184
ssS'user_system_views_users_tests___init__'
p185
(dp186
g6
(dp187
g8
S'user_system_views_users_tests___init__.html'
p188
sg10
S'user_system/views/users/tests/__init__'
p189
sg12
g13
(g14
g15
NtRp190
(dp191
g18
I1
sg19
I0
sg20
I0
sg21
I0
sg22
I0
sg23
I0
sg24
I0
sbssg25
S'\x19g\xdfM\x1a\x019\xaf\x1baIeR\xe5u\xa7'
p192
ssS'api_logging_views_summary___init__'
p193
(dp194
g6
(dp195
g8
S'api_logging_views_summary___init__.html'
p196
sg10
S'api_logging/views/summary/__init__'
p197
sg12
g13
(g14
g15
NtRp198
(dp199
g18
I1
sg19
I0
sg20
I1
sg21
I0
sg22
I0
sg23
I0
sg24
I0
sbssg25
S'\x04\x12bh\x96\xc5j\x88dm\x0e\xd7\xe1\x94Lq'
p200
ssS'create_views_quests_tests_test_remove_question_view'
p201
(dp202
g6
(dp203
g46
S'create_views_quests_tests_test_remove_question_view.html'
p204
sg48
S'create/views/quests/tests/test_remove_question_view'
p205
sg50
g13
(g14
g15
NtRp206
(dp207
g18
I1
sg19
I0
sg20
I35
sg21
I0
sg22
I0
sg23
I0
sg24
I0
sbssg25
S'b\x04\xa3\x02\x16\x98^\x10Y:\x15N\xb4\x9fvE'
p208
ssS'create_views_questions_tests___init__'
p209
(dp210
g6
(dp211
g8
S'create_views_questions_tests___init__.html'
p212
sg10
S'create/views/questions/tests/__init__'
p213
sg12
g13
(g14
g15
NtRp214
(dp215
g18
I1
sg19
I0
sg20
I0
sg21
I0
sg22
I0
sg23
I0
sg24
I0
sbssg25
S'\x19g\xdfM\x1a\x019\xaf\x1baIeR\xe5u\xa7'
p216
ssS'user_system_views_roles___init__'
p217
(dp218
g6
(dp219
g8
S'user_system_views_roles___init__.html'
p220
sg10
S'user_system/views/roles/__init__'
p221
sg12
g13
(g14
g15
NtRp222
(dp223
g18
I1
sg19
I0
sg20
I1
sg21
I0
sg22
I0
sg23
I0
sg24
I0
sbssg25
S'\xeb\x15\r\x85I\x9e<\xbc\x15\xd1P\xef\x16\x8c\xe0l'
p224
ssS'create_views_tags___init__'
p225
(dp226
g6
(dp227
g8
S'create_views_tags___init__.html'
p228
sg10
S'create/views/tags/__init__'
p229
sg12
g13
(g14
g15
NtRp230
(dp231
g18
I1
sg19
I0
sg20
I1
sg21
I0
sg22
I0
sg23
I0
sg24
I0
sbssg25
S'|r<\xaap\x01\xb1\xbc"\xe5\xbb\xd8\x87\xa5\xd2H'
p232
ssS'user_system_views_signups_hardcoded___init__'
p233
(dp234
g6
(dp235
g8
S'user_system_views_signups_hardcoded___init__.html'
p236
sg10
S'user_system/views/signups/hardcoded/__init__'
p237
sg12
g13
(g14
g15
NtRp238
(dp239
g18
I1
sg19
I0
sg20
I1
sg21
I0
sg22
I0
sg23
I0
sg24
I0
sbssg25
S'?\xfac\x0c\x91\xa4\xd6\xd4\x1d\xe4\x99\xc2[\x83\xfc\xdf'
p240
ssS'learn_views_daily_quests_student_submission_view'
p241
(dp242
g6
(dp243
g8
S'learn_views_daily_quests_student_submission_view.html'
p244
sg10
S'learn/views/daily_quests/student_submission_view'
p245
sg12
g13
(g14
g15
NtRp246
(dp247
g18
I1
sg19
I12
sg20
I47
sg21
I0
sg22
I0
sg23
I29
sg24
I12
sbssg25
S'wq\xe9%\x06 [\x13\x98L\xc4\xe9\x90\xfc\x9e\xff'
p248
ssS'teach_views_summaries___init__'
p249
(dp250
g6
(dp251
g8
S'teach_views_summaries___init__.html'
p252
sg10
S'teach/views/summaries/__init__'
p253
sg12
g13
(g14
g15
NtRp254
(dp255
g18
I1
sg19
I0
sg20
I7
sg21
I0
sg22
I0
sg23
I0
sg24
I0
sbssg25
S'3#\xb2[\xd25\x02\xaaPxM*gV\x97D'
p256
ssS'create_views_questions_question_history_remark_view'
p257
(dp258
g6
(dp259
g8
S'create_views_questions_question_history_remark_view.html'
p260
sg10
S'create/views/questions/question_history_remark_view'
p261
sg12
g13
(g14
g15
NtRp262
(dp263
g18
I1
sg19
I0
sg20
I14
sg21
I0
sg22
I0
sg23
I0
sg24
I0
sbssg25
S'{4O\x0e\xb3\xad\xc8\xb72\x8f\x1f\x11\xc0\x9e\xa0\xd6'
p264
ssS'user_system_views_signups_tests_test_verify_email_view'
p265
(dp266
g6
(dp267
g8
S'user_system_views_signups_tests_test_verify_email_view.html'
p268
sg10
S'user_system/views/signups/tests/test_verify_email_view'
p269
sg12
g13
(g14
g15
NtRp270
(dp271
g18
I1
sg19
I0
sg20
I51
sg21
I0
sg22
I0
sg23
I0
sg24
I0
sbssg25
S'\x81\xacj\x9d\x1f\xa9o\xcc\x1e\xa3\xe59^YT\x9e'
p272
ssS'user_system_views_users_user_view'
p273
(dp274
g6
(dp275
g8
S'user_system_views_users_user_view.html'
p276
sg10
S'user_system/views/users/user_view'
p277
sg12
g13
(g14
g15
NtRp278
(dp279
g18
I1
sg19
I66
sg20
I191
sg21
I0
sg22
I0
sg23
I110
sg24
I44
sbssg25
S'r\x15\x08\xf19P\x7f\xfc\xc01\xae\xf5\xf4X\xc4\xab'
p280
ssS'teach_views_campaigns___init__'
p281
(dp282
g6
(dp283
g8
S'teach_views_campaigns___init__.html'
p284
sg10
S'teach/views/campaigns/__init__'
p285
sg12
g13
(g14
g15
NtRp286
(dp287
g18
I1
sg19
I0
sg20
I1
sg21
I0
sg22
I0
sg23
I0
sg24
I0
sbssg25
S'\xdd3^z\xa4\xd5\x95X\x1fk\x83<\xed@\x053'
p288
ssS'user_system_views_apps___init__'
p289
(dp290
g6
(dp291
g8
S'user_system_views_apps___init__.html'
p292
sg10
S'user_system/views/apps/__init__'
p293
sg12
g13
(g14
g15
NtRp294
(dp295
g18
I1
sg19
I0
sg20
I1
sg21
I0
sg22
I0
sg23
I0
sg24
I0
sbssg25
S'?:\xf2A\xfa^]\xc5NR\xc9\x13\xb0\xe4\xfa\x9e'
p296
ssS'user_system_views_users_tests_test_get_users_list_view'
p297
(dp298
g6
(dp299
g8
S'user_system_views_users_tests_test_get_users_list_view.html'
p300
sg10
S'user_system/views/users/tests/test_get_users_list_view'
p301
sg12
g13
(g14
g15
NtRp302
(dp303
g18
I1
sg19
I0
sg20
I34
sg21
I0
sg22
I0
sg23
I0
sg24
I0
sbssg25
S'\xf5\xe3\x1a\x14e\xf8\xc2\xf0\xa8^$\xf7\x9dv\xb8f'
p304
ssS'create_views_books_tests_test_remove_tag_from_subchapter_view'
p305
(dp306
g6
(dp307
g8
S'create_views_books_tests_test_remove_tag_from_subchapter_view.html'
p308
sg10
S'create/views/books/tests/test_remove_tag_from_subchapter_view'
p309
sg12
g13
(g14
g15
NtRp310
(dp311
g18
I1
sg19
I0
sg20
I40
sg21
I0
sg22
I0
sg23
I0
sg24
I0
sbssg25
S"(Vo#\xdd\x9a\xbc\x11\xff\xd6'\xd7\xeb\xca\x1aM"
p312
ssS'teach_views_teacher_news_feed_teacher_news_feed_view'
p313
(dp314
g6
(dp315
g8
S'teach_views_teacher_news_feed_teacher_news_feed_view.html'
p316
sg10
S'teach/views/teacher_news_feed/teacher_news_feed_view'
p317
sg12
g13
(g14
g15
NtRp318
(dp319
g18
I1
sg19
I8
sg20
I60
sg21
I0
sg22
I0
sg23
I38
sg24
I8
sbssg25
S'\n]Y\xde\x93\x8f\xd7O\x05\xcd\x92\x98!=\xcdd'
p320
ssS'teach_views_summaries_top_answered_questions_summary_view'
p321
(dp322
g6
(dp323
g8
S'teach_views_summaries_top_answered_questions_summary_view.html'
p324
sg10
S'teach/views/summaries/top_answered_questions_summary_view'
p325
sg12
g13
(g14
g15
NtRp326
(dp327
g18
I1
sg19
I34
sg20
I77
sg21
I0
sg22
I0
sg23
I54
sg24
I34
sbssg25
S'\x9e\xb0khf9\xceHZ\x1e\x91\x1ac,\x8c\x0c'
p328
ssS'user_system_views_apps_app_view'
p329
(dp330
g6
(dp331
g8
S'user_system_views_apps_app_view.html'
p332
sg10
S'user_system/views/apps/app_view'
p333
sg12
g13
(g14
g15
NtRp334
(dp335
g18
I1
sg19
I0
sg20
I13
sg21
I0
sg22
I0
sg23
I0
sg24
I0
sbssg25
S'\xf7n\xffX\xe7\xd2\xb6\xa5\xc5\xe5\x96\x13\xf4\x9c\xac\x1e'
p336
ssS'teach_views_summaries_student_list_summary'
p337
(dp338
g6
(dp339
g116
S'teach_views_summaries_student_list_summary.html'
p340
sg118
S'teach/views/summaries/student_list_summary'
p341
sg120
g13
(g14
g15
NtRp342
(dp343
g18
I1
sg19
I32
sg20
I93
sg21
I0
sg22
I0
sg23
I73
sg24
I32
sbssg25
S'_\x04\'\xfa{\xd3/1\xfb\xa1U6\xf1-"\x97'
p344
ssS'create_views_questions_tests_test_remove_tag_view'
p345
(dp346
g6
(dp347
g8
S'create_views_questions_tests_test_remove_tag_view.html'
p348
sg10
S'create/views/questions/tests/test_remove_tag_view'
p349
sg12
g13
(g14
g15
NtRp350
(dp351
g18
I1
sg19
I0
sg20
I36
sg21
I0
sg22
I0
sg23
I0
sg24
I0
sbssg25
S'\xbdV1EN\xfe\x8e;\xe4\x92\x91r\xd6Q\x03\x80'
p352
ssS'teach_views_summaries_leaderboard_view'
p353
(dp354
g6
(dp355
g116
S'teach_views_summaries_leaderboard_view.html'
p356
sg118
S'teach/views/summaries/leaderboard_view'
p357
sg120
g13
(g14
g15
NtRp358
(dp359
g18
I1
sg19
I66
sg20
I161
sg21
I0
sg22
I0
sg23
I131
sg24
I66
sbssg25
S'\xa4\xa5\xc0\x98\xe91S\x81\xc4\xb2\xb9\xe7C\xe7\n\x8f'
p360
ssS'create_views_questions_tests_test_add_tag_view'
p361
(dp362
g6
(dp363
g8
S'create_views_questions_tests_test_add_tag_view.html'
p364
sg10
S'create/views/questions/tests/test_add_tag_view'
p365
sg12
g13
(g14
g15
NtRp366
(dp367
g18
I1
sg19
I0
sg20
I35
sg21
I0
sg22
I0
sg23
I0
sg24
I0
sbssg25
S'\x8e\x13\xdd\xbd\xba\r&,-|&W-a`\x7f'
p368
ssS'create_views_quests_quest_view'
p369
(dp370
g6
(dp371
g116
S'create_views_quests_quest_view.html'
p372
sg118
S'create/views/quests/quest_view'
p373
sg120
g13
(g14
g15
NtRp374
(dp375
g18
I1
sg19
I78
sg20
I229
sg21
I0
sg22
I1
sg23
I117
sg24
I59
sbssg25
S'\x98\xfc\xdc\xc4}\x8cb\xb1l\xe52!\xa6\x12\x03\xee'
p376
ssS'create_views_tags_tests_test_add_prerequisite_view'
p377
(dp378
g6
(dp379
g8
S'create_views_tags_tests_test_add_prerequisite_view.html'
p380
sg10
S'create/views/tags/tests/test_add_prerequisite_view'
p381
sg12
g13
(g14
g15
NtRp382
(dp383
g18
I1
sg19
I0
sg20
I33
sg21
I0
sg22
I0
sg23
I0
sg24
I0
sbssg25
S'\x08g\x8ed\x97\x9d\xb1\x04\xd6\xd5\x82T\xc4\xe6\xbd\xad'
p384
ssS'user_system_views_schools_school_view'
p385
(dp386
g6
(dp387
g8
S'user_system_views_schools_school_view.html'
p388
sg10
S'user_system/views/schools/school_view'
p389
sg12
g13
(g14
g15
NtRp390
(dp391
g18
I1
sg19
I0
sg20
I16
sg21
I0
sg22
I0
sg23
I0
sg24
I0
sbssg25
S'\xc8\x0b\xef\x9e86\xe5\x19\xaa\x9e\x93+\x03\xfb\x98\x99'
p392
ssS'teach_views_teacher_chapters___init__'
p393
(dp394
g6
(dp395
g8
S'teach_views_teacher_chapters___init__.html'
p396
sg10
S'teach/views/teacher_chapters/__init__'
p397
sg12
g13
(g14
g15
NtRp398
(dp399
g18
I1
sg19
I0
sg20
I1
sg21
I0
sg22
I0
sg23
I0
sg24
I0
sbssg25
S'\x10AP\xc9\nC\xd2REz\xf6\xe5\xd2(\xee`'
p400
ssS'create_views_books_tests_test_remove_chapter_view'
p401
(dp402
g6
(dp403
g8
S'create_views_books_tests_test_remove_chapter_view.html'
p404
sg10
S'create/views/books/tests/test_remove_chapter_view'
p405
sg12
g13
(g14
g15
NtRp406
(dp407
g18
I1
sg19
I0
sg20
I39
sg21
I0
sg22
I0
sg23
I0
sg24
I0
sbssg25
S'lJ\xdc\xbe\xe2>\x9d\xde\xb5+ia5;\x042'
p408
ssS'user_system_views_batch_processing___init__'
p409
(dp410
g6
(dp411
g8
S'user_system_views_batch_processing___init__.html'
p412
sg10
S'user_system/views/batch_processing/__init__'
p413
sg12
g13
(g14
g15
NtRp414
(dp415
g18
I1
sg19
I0
sg20
I1
sg21
I0
sg22
I0
sg23
I0
sg24
I0
sbssg25
S'\x11\xaa\xa5O\xecz\xb9\x06\xf9\x1bZ\xd3\xf3\x8bm]'
p416
ssS'user_system_views_logins_tests_test_facebook_login_view'
p417
(dp418
g6
(dp419
g8
S'user_system_views_logins_tests_test_facebook_login_view.html'
p420
sg10
S'user_system/views/logins/tests/test_facebook_login_view'
p421
sg12
g13
(g14
g15
NtRp422
(dp423
g18
I1
sg19
I0
sg20
I51
sg21
I0
sg22
I0
sg23
I0
sg24
I0
sbssg25
S'\x8eg\xfbA\xbdf+\x81\xe9\x8a\x16\x82\xe9\xe3\xc0\xf4'
p424
ssS'user_system_views_signups_tests_test_email_signup_view'
p425
(dp426
g6
(dp427
g8
S'user_system_views_signups_tests_test_email_signup_view.html'
p428
sg10
S'user_system/views/signups/tests/test_email_signup_view'
p429
sg12
g13
(g14
g15
NtRp430
(dp431
g18
I1
sg19
I0
sg20
I51
sg21
I0
sg22
I0
sg23
I0
sg24
I0
sbssg25
S'\xa3\xb2\xaf-\x99\xe3]\xcc\xe6\x8b\xeb\xf63=I\xb4'
p432
ssS'user_system_views_batch_processing_tests_test_update_user_streak_view'
p433
(dp434
g134
(dp435
g97
S'user_system_views_batch_processing_tests_test_update_user_streak_view.html'
p436
sg99
S'user_system/views/batch_processing/tests/test_update_user_streak_view'
p437
sg101
g13
(g14
g15
NtRp438
(dp439
g18
I1
sg19
I4
sg20
I32
sg21
I0
sg22
I0
sg23
I0
sg24
I0
sbssg143
S'\xbd \x8b5\xc6\xac5\x9f\xc4l\r\xd9i\x8f\xbe\x90'
p440
ssS'user_system_views_users_teacher_mapping_view'
p441
(dp442
g6
(dp443
g8
S'user_system_views_users_teacher_mapping_view.html'
p444
sg10
S'user_system/views/users/teacher_mapping_view'
p445
sg12
g13
(g14
g15
NtRp446
(dp447
g18
I1
sg19
I0
sg20
I14
sg21
I0
sg22
I0
sg23
I0
sg24
I0
sbssg25
S'B\x04t\x93Z\x86Q.\x17\xf9\xa0*\xf6\x86\xcf\x10'
p448
ssS'create_views_tags_tests_test_search_tag_view'
p449
(dp450
g6
(dp451
g8
S'create_views_tags_tests_test_search_tag_view.html'
p452
sg10
S'create/views/tags/tests/test_search_tag_view'
p453
sg12
g13
(g14
g15
NtRp454
(dp455
g18
I1
sg19
I0
sg20
I28
sg21
I0
sg22
I0
sg23
I0
sg24
I0
sbssg25
S'\xbc\x80\xceQ\xf1\xc5\xfa\xd5\xf1/g\x12l*,\x1c'
p456
ssS'user_system_views_schools_grade_view'
p457
(dp458
g6
(dp459
g8
S'user_system_views_schools_grade_view.html'
p460
sg10
S'user_system/views/schools/grade_view'
p461
sg12
g13
(g14
g15
NtRp462
(dp463
g18
I1
sg19
I0
sg20
I16
sg21
I0
sg22
I0
sg23
I0
sg24
I0
sbssg25
S'_i&b\x01\x08$\xe7\xbe\nW\x92\x80\x97\xf1Q'
p464
ssS'user_system_views_signups_email_signup_view'
p465
(dp466
g6
(dp467
g8
S'user_system_views_signups_email_signup_view.html'
p468
sg10
S'user_system/views/signups/email_signup_view'
p469
sg12
g13
(g14
g15
NtRp470
(dp471
g18
I1
sg19
I8
sg20
I44
sg21
I0
sg22
I0
sg23
I0
sg24
I0
sbssg25
S'&G\xd1\xc4{\x9b\xbf\x14\x92F\xbe\x13\xeer\x84\x1b'
p472
ssS'teach_views_teacher_tags___init__'
p473
(dp474
g6
(dp475
g8
S'teach_views_teacher_tags___init__.html'
p476
sg10
S'teach/views/teacher_tags/__init__'
p477
sg12
g13
(g14
g15
NtRp478
(dp479
g18
I1
sg19
I0
sg20
I1
sg21
I0
sg22
I0
sg23
I0
sg24
I0
sbssg25
S'cp\x00\xdc\x00\xe5M\x9f\x1f\xaa\xb2Y\xd9%\x1d"'
p480
ssS'create_views_books_book_subchapter_view'
p481
(dp482
g6
(dp483
g8
S'create_views_books_book_subchapter_view.html'
p484
sg10
S'create/views/books/book_subchapter_view'
p485
sg12
g13
(g14
g15
NtRp486
(dp487
g18
I1
sg19
I8
sg20
I46
sg21
I0
sg22
I0
sg23
I0
sg24
I0
sbssg25
S'\x0e\xa6\x19V\xf0\xf3;\xa2\x8d \xd8i\xb7*D\x87'
p488
ssS'create_views_questions_tests_test_hide_question_view'
p489
(dp490
g6
(dp491
g8
S'create_views_questions_tests_test_hide_question_view.html'
p492
sg10
S'create/views/questions/tests/test_hide_question_view'
p493
sg12
g13
(g14
g15
NtRp494
(dp495
g18
I1
sg19
I0
sg20
I30
sg21
I0
sg22
I0
sg23
I0
sg24
I0
sbssg25
S'\xb3\x10S\x8a\x9b\xecw\xaa\xd3\x81\x1b\xf2\xab\xb2QG'
p496
ssS'create_views_questions_question_template_view'
p497
(dp498
g6
(dp499
g8
S'create_views_questions_question_template_view.html'
p500
sg10
S'create/views/questions/question_template_view'
p501
sg12
g13
(g14
g15
NtRp502
(dp503
g18
I1
sg19
I40
sg20
I116
sg21
I0
sg22
I0
sg23
I86
sg24
I40
sbssg25
S'w\xa9\xc2U|\xff\xfdz/\x01\x02\xd6P<\x16('
p504
ssS'user_system_views_logins_email_login_view'
p505
(dp506
g6
(dp507
g8
S'user_system_views_logins_email_login_view.html'
p508
sg10
S'user_system/views/logins/email_login_view'
p509
sg12
g13
(g14
g15
NtRp510
(dp511
g18
I1
sg19
I8
sg20
I35
sg21
I0
sg22
I0
sg23
I0
sg24
I0
sbssg25
S'\x9e\xe3\x8e\xf9o\x8aYC\xa2\xcb\xe7\xbd\x94\xe1O\x1a'
p512
ssS'user_system_views_signups_tests_test_facebook_signup_view'
p513
(dp514
g6
(dp515
g8
S'user_system_views_signups_tests_test_facebook_signup_view.html'
p516
sg10
S'user_system/views/signups/tests/test_facebook_signup_view'
p517
sg12
g13
(g14
g15
NtRp518
(dp519
g18
I1
sg19
I0
sg20
I60
sg21
I0
sg22
I0
sg23
I0
sg24
I0
sbssg25
S'\x93<\xc8]\x14\t\xa8/\xdd\xd1\xa4]\xfbp!\xbd'
p520
ssS'create_views_question_datasets_question_dataset_view'
p521
(dp522
g6
(dp523
g8
S'create_views_question_datasets_question_dataset_view.html'
p524
sg10
S'create/views/question_datasets/question_dataset_view'
p525
sg12
g13
(g14
g15
NtRp526
(dp527
g18
I1
sg19
I4
sg20
I20
sg21
I0
sg22
I0
sg23
I5
sg24
I4
sbssg25
S'\x01\xfb\xf2\x86m\xd4\xf9\xc3\xe6\xb6\x11\x96u;\x1ez'
p528
ssS'create_views_quests_tests_test_remove_question_template_view'
p529
(dp530
g6
(dp531
g8
S'create_views_quests_tests_test_remove_question_template_view.html'
p532
sg10
S'create/views/quests/tests/test_remove_question_template_view'
p533
sg12
g13
(g14
g15
NtRp534
(dp535
g18
I1
sg19
I0
sg20
I0
sg21
I0
sg22
I0
sg23
I0
sg24
I0
sbssg25
S'\x19g\xdfM\x1a\x019\xaf\x1baIeR\xe5u\xa7'
p536
ssS'create_views_summary_create_summary_view'
p537
(dp538
g6
(dp539
g8
S'create_views_summary_create_summary_view.html'
p540
sg10
S'create/views/summary/create_summary_view'
p541
sg12
g13
(g14
g15
NtRp542
(dp543
g18
I1
sg19
I0
sg20
I59
sg21
I0
sg22
I0
sg23
I48
sg24
I0
sbssg25
S"'\xfe\xf4\x8c\xed2\xc3\x18\xf6\x85\x1f\xb0\xf0G\xb7\x8f"
p544
ssS'user_system_views_batch_processing_tests___init__'
p545
(dp546
g134
(dp547
g97
S'user_system_views_batch_processing_tests___init__.html'
p548
sg99
S'user_system/views/batch_processing/tests/__init__'
p549
sg101
g13
(g14
g15
NtRp550
(dp551
g18
I1
sg19
I0
sg20
I1
sg21
I0
sg22
I0
sg23
I0
sg24
I0
sbssg143
S'\xbc\xd6\xeb\xb3\xba\xcaz\xf7{\xd4B\xb5}l\xdf\x96'
p552
ssS'create_views_books_tests_test_get_books_list_view'
p553
(dp554
g6
(dp555
g8
S'create_views_books_tests_test_get_books_list_view.html'
p556
sg10
S'create/views/books/tests/test_get_books_list_view'
p557
sg12
g13
(g14
g15
NtRp558
(dp559
g18
I1
sg19
I0
sg20
I21
sg21
I0
sg22
I0
sg23
I0
sg24
I0
sbssg25
S'\x16\x8f\xf1\x81>\x0f\xb4S\x19\xff\xcd\xc1Y\xe9;\x98'
p560
ssS'api_logging_views_summary_user_activity_summary_view'
p561
(dp562
g6
(dp563
g8
S'api_logging_views_summary_user_activity_summary_view.html'
p564
sg10
S'api_logging/views/summary/user_activity_summary_view'
p565
sg12
g13
(g14
g15
NtRp566
(dp567
g18
I1
sg19
I8
sg20
I27
sg21
I0
sg22
I0
sg23
I13
sg24
I8
sbssg25
S'\x99\xfc\\\x0e\x10\x840(\x94\xd3(k\x9f\xb4\xd9M'
p568
ssS'teach_views_summaries_tests_test_class_ranking_view'
p569
(dp570
g6
(dp571
g8
S'teach_views_summaries_tests_test_class_ranking_view.html'
p572
sg10
S'teach/views/summaries/tests/test_class_ranking_view'
p573
sg12
g13
(g14
g15
NtRp574
(dp575
g18
I1
sg19
I0
sg20
I9
sg21
I0
sg22
I0
sg23
I1
sg24
I0
sbssg25
S'(X\xecwo\x8e\xea\xcf\x80(J\x98&\xb8|\xdc'
p576
ssS'create_views_tags_tests_test_get_tags_list_view'
p577
(dp578
g6
(dp579
g8
S'create_views_tags_tests_test_get_tags_list_view.html'
p580
sg10
S'create/views/tags/tests/test_get_tags_list_view'
p581
sg12
g13
(g14
g15
NtRp582
(dp583
g18
I1
sg19
I0
sg20
I21
sg21
I0
sg22
I0
sg23
I0
sg24
I0
sbssg25
S'F\xf6yk?\xb2\xc12\x93\x8b\xe6Bx\xa09\x89'
p584
ssS'learn_views_daily_quests_daily_quest_view'
p585
(dp586
g6
(dp587
g116
S'learn_views_daily_quests_daily_quest_view.html'
p588
sg118
S'learn/views/daily_quests/daily_quest_view'
p589
sg120
g13
(g14
g15
NtRp590
(dp591
g18
I1
sg19
I20
sg20
I75
sg21
I0
sg22
I0
sg23
I51
sg24
I20
sbssg25
S'w\xa4\xc2\x94?\x89\x03\xe0g\xae\xea\x86\x880\xfb\xa8'
p592
ssS'privilege_views_privileges___init__'
p593
(dp594
g6
(dp595
g8
S'privilege_views_privileges___init__.html'
p596
sg10
S'privilege/views/privileges/__init__'
p597
sg12
g13
(g14
g15
NtRp598
(dp599
g18
I1
sg19
I0
sg20
I1
sg21
I0
sg22
I0
sg23
I0
sg24
I0
sbssg25
S']\x14S\xdf\xb4:Tx\xb9\x98\x89\xe7\x01%DZ'
p600
ssS'teach_views_summaries_class_ranking_view'
p601
(dp602
g6
(dp603
g116
S'teach_views_summaries_class_ranking_view.html'
p604
sg118
S'teach/views/summaries/class_ranking_view'
p605
sg120
g13
(g14
g15
NtRp606
(dp607
g18
I1
sg19
I2
sg20
I17
sg21
I0
sg22
I0
sg23
I8
sg24
I2
sbssg25
S'\xf7\xf8\x7f4\xf6\xe2`\x1d\xaf\xe4(/\xc61\x13\x83'
p608
ssS'teach_views_summaries_tests_test_leaderboard_view'
p609
(dp610
g6
(dp611
g8
S'teach_views_summaries_tests_test_leaderboard_view.html'
p612
sg10
S'teach/views/summaries/tests/test_leaderboard_view'
p613
sg12
g13
(g14
g15
NtRp614
(dp615
g18
I1
sg19
I0
sg20
I7
sg21
I0
sg22
I0
sg23
I1
sg24
I0
sbssg25
S'7\xbd _\xbf\xdc\xe7/\xf9\xdb\x16\xd9&v\xd6S'
p616
ssS'user_system_views_users_tests_test_get_user_by_id_view'
p617
(dp618
g6
(dp619
g8
S'user_system_views_users_tests_test_get_user_by_id_view.html'
p620
sg10
S'user_system/views/users/tests/test_get_user_by_id_view'
p621
sg12
g13
(g14
g15
NtRp622
(dp623
g18
I1
sg19
I0
sg20
I27
sg21
I0
sg22
I0
sg23
I0
sg24
I0
sbssg25
S'\xd7\x7f\x0c\xb9\xda.\xf1\x82\xb4\xdf*z\x10(o)'
p624
ssS'teach_views_daily_quest_templates___init__'
p625
(dp626
g6
(dp627
g8
S'teach_views_daily_quest_templates___init__.html'
p628
sg10
S'teach/views/daily_quest_templates/__init__'
p629
sg12
g13
(g14
g15
NtRp630
(dp631
g18
I1
sg19
I0
sg20
I1
sg21
I0
sg22
I0
sg23
I0
sg24
I0
sbssg25
S'\xc1b\x1f\x95\xabR`C\xe80\xb9tNC\r3'
p632
ssS'privilege_views___init__'
p633
(dp634
g6
(dp635
g8
S'privilege_views___init__.html'
p636
sg10
S'privilege/views/__init__'
p637
sg12
g13
(g14
g15
NtRp638
(dp639
g18
I1
sg19
I0
sg20
I0
sg21
I0
sg22
I0
sg23
I0
sg24
I0
sbssg25
S'\x19g\xdfM\x1a\x019\xaf\x1baIeR\xe5u\xa7'
p640
ssS'create_views_tags_tests___init__'
p641
(dp642
g6
(dp643
g8
S'create_views_tags_tests___init__.html'
p644
sg10
S'create/views/tags/tests/__init__'
p645
sg12
g13
(g14
g15
NtRp646
(dp647
g18
I1
sg19
I0
sg20
I0
sg21
I0
sg22
I0
sg23
I0
sg24
I0
sbssg25
S'\x19g\xdfM\x1a\x019\xaf\x1baIeR\xe5u\xa7'
p648
ssS'user_system_views_users___init__'
p649
(dp650
g6
(dp651
g8
S'user_system_views_users___init__.html'
p652
sg10
S'user_system/views/users/__init__'
p653
sg12
g13
(g14
g15
NtRp654
(dp655
g18
I1
sg19
I0
sg20
I7
sg21
I0
sg22
I0
sg23
I0
sg24
I0
sbssg25
S']\x15\xfe\xc7\xefw\x97\xcc\x87v\xa2Z\x9b\xb1\x91\xaf'
p656
ssS'user_system_views_apps_tests_test_get_app_by_id_view'
p657
(dp658
g6
(dp659
g8
S'user_system_views_apps_tests_test_get_app_by_id_view.html'
p660
sg10
S'user_system/views/apps/tests/test_get_app_by_id_view'
p661
sg12
g13
(g14
g15
NtRp662
(dp663
g18
I1
sg19
I0
sg20
I17
sg21
I0
sg22
I0
sg23
I0
sg24
I0
sbssg25
S"\xa2\x1eG%r{-~\xc5=\x8aj\x99X!'"
p664
ssS'create_views_tags_tests_test_create_tag_view'
p665
(dp666
g6
(dp667
g8
S'create_views_tags_tests_test_create_tag_view.html'
p668
sg10
S'create/views/tags/tests/test_create_tag_view'
p669
sg12
g13
(g14
g15
NtRp670
(dp671
g18
I1
sg19
I0
sg20
I33
sg21
I0
sg22
I0
sg23
I0
sg24
I0
sbssg25
S'\\\x91{\x1a ;Qg\xbd\x81\xe2\xaf\xa41\xac\x1b'
p672
ssS'teach_views_daily_quest_templates_daily_quest_template_view'
p673
(dp674
g6
(dp675
g8
S'teach_views_daily_quest_templates_daily_quest_template_view.html'
p676
sg10
S'teach/views/daily_quest_templates/daily_quest_template_view'
p677
sg12
g13
(g14
g15
NtRp678
(dp679
g18
I1
sg19
I18
sg20
I54
sg21
I0
sg22
I0
sg23
I33
sg24
I18
sbssg25
S'\x97J\xccM\x9b\xcd1\xaf\x95\xea\xd8\x8d\xdc(\x89['
p680
ssS'create_views_books_tests_test_get_book_by_id_view'
p681
(dp682
g6
(dp683
g8
S'create_views_books_tests_test_get_book_by_id_view.html'
p684
sg10
S'create/views/books/tests/test_get_book_by_id_view'
p685
sg12
g13
(g14
g15
NtRp686
(dp687
g18
I1
sg19
I0
sg20
I20
sg21
I0
sg22
I0
sg23
I0
sg24
I0
sbssg25
S'\xc88x\xaf\x84e\xaa6\x17\xdf\x0e\x8c`\xcaAO'
p688
ssS'user_system_views_apps_tests___init__'
p689
(dp690
g6
(dp691
g8
S'user_system_views_apps_tests___init__.html'
p692
sg10
S'user_system/views/apps/tests/__init__'
p693
sg12
g13
(g14
g15
NtRp694
(dp695
g18
I1
sg19
I0
sg20
I0
sg21
I0
sg22
I0
sg23
I0
sg24
I0
sbssg25
S'\x19g\xdfM\x1a\x019\xaf\x1baIeR\xe5u\xa7'
p696
ssS'create_views_quests_tests_test_add_question_view'
p697
(dp698
g6
(dp699
S'html_filename'
p700
S'create_views_quests_tests_test_add_question_view.html'
p701
sS'name'
p702
S'create/views/quests/tests/test_add_question_view'
p703
sS'nums'
p704
g13
(g14
g15
NtRp705
(dp706
g18
I1
sg19
I0
sg20
I35
sg21
I0
sg22
I0
sg23
I0
sg24
I0
sbssg25
S'!\xc5U\xa1\x17\x85\xb4\xfb\x1c\xc1\xb3h\xfa\x93\xb7\xf0'
p707
ssS'create_views_books___init__'
p708
(dp709
g6
(dp710
g8
S'create_views_books___init__.html'
p711
sg10
S'create/views/books/__init__'
p712
sg12
g13
(g14
g15
NtRp713
(dp714
g18
I1
sg19
I0
sg20
I3
sg21
I0
sg22
I0
sg23
I0
sg24
I0
sbssg25
S'\xce\x13\xc8S|wF\xe3\x148\xa0?ez,\xc4'
p715
ssS'teach_views___init__'
p716
(dp717
g6
(dp718
g8
S'teach_views___init__.html'
p719
sg10
S'teach/views/__init__'
p720
sg12
g13
(g14
g15
NtRp721
(dp722
g18
I1
sg19
I0
sg20
I4
sg21
I0
sg22
I0
sg23
I0
sg24
I0
sbssg25
S'\xbb\xd5\x19}\x18\xa2M\x81f\xac\xd2>+1\xda@'
p723
ssS'user_system_views_signups_map_demo_signup_view'
p724
(dp725
g6
(dp726
g8
S'user_system_views_signups_map_demo_signup_view.html'
p727
sg10
S'user_system/views/signups/map_demo_signup_view'
p728
sg12
g13
(g14
g15
NtRp729
(dp730
g18
I1
sg19
I18
sg20
I134
sg21
I0
sg22
I0
sg23
I115
sg24
I18
sbssg25
S"\xc8(\xb1Q\xfb\xb0\xdfc\x94\xe2\x99\r\xb4'G["
p731
ssS'learn_views_student_news_feed_student_news_feed_view'
p732
(dp733
g6
(dp734
g116
S'learn_views_student_news_feed_student_news_feed_view.html'
p735
sg118
S'learn/views/student_news_feed/student_news_feed_view'
p736
sg120
g13
(g14
g15
NtRp737
(dp738
g18
I1
sg19
I14
sg20
I63
sg21
I0
sg22
I0
sg23
I38
sg24
I12
sbssg25
S'\x00\x84\xc5\x94\x11Mo\xe9\x93\xda\xc5\xd7{\xbd@\x0c'
p739
ssS'create_views_quests_tests___init__'
p740
(dp741
g6
(dp742
g8
S'create_views_quests_tests___init__.html'
p743
sg10
S'create/views/quests/tests/__init__'
p744
sg12
g13
(g14
g15
NtRp745
(dp746
g18
I1
sg19
I0
sg20
I0
sg21
I0
sg22
I0
sg23
I0
sg24
I0
sbssg25
S'\x19g\xdfM\x1a\x019\xaf\x1baIeR\xe5u\xa7'
p747
ssS'user_system_views_schools_course_view'
p748
(dp749
g6
(dp750
g8
S'user_system_views_schools_course_view.html'
p751
sg10
S'user_system/views/schools/course_view'
p752
sg12
g13
(g14
g15
NtRp753
(dp754
g18
I1
sg19
I0
sg20
I17
sg21
I0
sg22
I0
sg23
I0
sg24
I0
sbssg25
S'\xd7\xc8\x06z,\xe1\xceN\xa2.OL]\xcd\xb1\x83'
p755
ssS'user_system_views_users_tests_test_delete_user_view'
p756
(dp757
g6
(dp758
g8
S'user_system_views_users_tests_test_delete_user_view.html'
p759
sg10
S'user_system/views/users/tests/test_delete_user_view'
p760
sg12
g13
(g14
g15
NtRp761
(dp762
g18
I1
sg19
I0
sg20
I22
sg21
I0
sg22
I0
sg23
I0
sg24
I0
sbssg25
S'\xe4S$\xa1t\xc6\xbe\xc7\xb9^Y\x05{\x92KQ'
p763
ssS'create_views_books_tests_test_hide_book_view'
p764
(dp765
g6
(dp766
g8
S'create_views_books_tests_test_hide_book_view.html'
p767
sg10
S'create/views/books/tests/test_hide_book_view'
p768
sg12
g13
(g14
g15
NtRp769
(dp770
g18
I1
sg19
I0
sg20
I25
sg21
I0
sg22
I0
sg23
I0
sg24
I0
sbssg25
S'\xe1\x17\x16\xca\x8a\xc5c\x1b\xce\xab\xb8\xf9G\x03\x9dQ'
p771
ssS'user_system_views_batch_processing_update_user_streak_view'
p772
(dp773
g6
(dp774
g97
S'user_system_views_batch_processing_update_user_streak_view.html'
p775
sg99
S'user_system/views/batch_processing/update_user_streak_view'
p776
sg101
g13
(g14
g15
NtRp777
(dp778
g18
I1
sg19
I4
sg20
I25
sg21
I0
sg22
I0
sg23
I0
sg24
I0
sbssg25
S'\xa6k\xedW\xa7\x11(\x87{\x15\x19{\xb8\xb4&\x98'
p779
ssS'create_views_books_tests_test_add_subchapter_view'
p780
(dp781
g6
(dp782
g8
S'create_views_books_tests_test_add_subchapter_view.html'
p783
sg10
S'create/views/books/tests/test_add_subchapter_view'
p784
sg12
g13
(g14
g15
NtRp785
(dp786
g18
I1
sg19
I0
sg20
I60
sg21
I0
sg22
I0
sg23
I0
sg24
I0
sbssg25
S"\xcc^2\xc4\xf2\xb1\xdc\xe8\xf0t\xb6\xcc\x1f\xce\xf1'"
p787
ssS'user_system_views_roles_user_role_view'
p788
(dp789
g6
(dp790
g8
S'user_system_views_roles_user_role_view.html'
p791
sg10
S'user_system/views/roles/user_role_view'
p792
sg12
g13
(g14
g15
NtRp793
(dp794
g18
I1
sg19
I8
sg20
I31
sg21
I0
sg22
I0
sg23
I0
sg24
I0
sbssg25
S'S@\xea\xb7\xd6\xe1\x1b\x1dU\x18a\x9d\x80\xe3A\xb9'
p795
ssS'create_views_questions_tests_test_get_question_list_view'
p796
(dp797
g6
(dp798
g8
S'create_views_questions_tests_test_get_question_list_view.html'
p799
sg10
S'create/views/questions/tests/test_get_question_list_view'
p800
sg12
g13
(g14
g15
NtRp801
(dp802
g18
I1
sg19
I0
sg20
I32
sg21
I0
sg22
I0
sg23
I0
sg24
I0
sbssg25
S'\xa2&\x88;1\\\xa2 \xb4&ejB\xd1%\x06'
p803
ssS'teach_views_teacher_news_feed___init__'
p804
(dp805
g6
(dp806
g8
S'teach_views_teacher_news_feed___init__.html'
p807
sg10
S'teach/views/teacher_news_feed/__init__'
p808
sg12
g13
(g14
g15
NtRp809
(dp810
g18
I1
sg19
I0
sg20
I1
sg21
I0
sg22
I0
sg23
I0
sg24
I0
sbssg25
S'\xe8\xcd\xf3\x9f\xa3=;`\xf0oZ\xcb!\x98\xac\x1c'
p811
ssS'user_system_views_logins___init__'
p812
(dp813
g6
(dp814
g8
S'user_system_views_logins___init__.html'
p815
sg10
S'user_system/views/logins/__init__'
p816
sg12
g13
(g14
g15
NtRp817
(dp818
g18
I1
sg19
I0
sg20
I2
sg21
I0
sg22
I0
sg23
I0
sg24
I0
sbssg25
S'\xa0\xd3\xaas\xc2\xb93+ED.\xe5\xfe\xf2\xad\x87'
p819
ssS'user_system_views_signups_hardcoded_tests_test_test_account_view'
p820
(dp821
g6
(dp822
g8
S'user_system_views_signups_hardcoded_tests_test_test_account_view.html'
p823
sg10
S'user_system/views/signups/hardcoded/tests/test_test_account_view'
p824
sg12
g13
(g14
g15
NtRp825
(dp826
g18
I1
sg19
I0
sg20
I24
sg21
I0
sg22
I0
sg23
I0
sg24
I0
sbssg25
S'@\xc3::\xf8h\x1aT\x9f\x83\xee1\xb7\x9a\xe0\xf9'
p827
ssS'create_views_daily_quest_copies___init__'
p828
(dp829
g6
(dp830
g8
S'create_views_daily_quest_copies___init__.html'
p831
sg10
S'create/views/daily_quest_copies/__init__'
p832
sg12
g13
(g14
g15
NtRp833
(dp834
g18
I1
sg19
I0
sg20
I1
sg21
I0
sg22
I0
sg23
I0
sg24
I0
sbssg25
S"'\xb6_z\x90s\x92\xdd\xc7\xb2\x87d\xba\xe24X"
p835
ssS'create_views_quests_tests_test_hide_quest_view'
p836
(dp837
g6
(dp838
g8
S'create_views_quests_tests_test_hide_quest_view.html'
p839
sg10
S'create/views/quests/tests/test_hide_quest_view'
p840
sg12
g13
(g14
g15
NtRp841
(dp842
g18
I1
sg19
I0
sg20
I26
sg21
I0
sg22
I0
sg23
I0
sg24
I0
sbssg25
S'G\xcb\xcf\xbb~*\xa2i\xd2\xff\x81\x81\xf0)G\xda'
p843
ssS'learn_views_student_news_feed_tests___init__'
p844
(dp845
g6
(dp846
g8
S'learn_views_student_news_feed_tests___init__.html'
p847
sg10
S'learn/views/student_news_feed/tests/__init__'
p848
sg12
g13
(g14
g15
NtRp849
(dp850
g18
I1
sg19
I0
sg20
I0
sg21
I0
sg22
I0
sg23
I0
sg24
I0
sbssg25
S'\x19g\xdfM\x1a\x019\xaf\x1baIeR\xe5u\xa7'
p851
ssS'create_views_books_tests_test_add_tag_to_subchapter_view'
p852
(dp853
g6
(dp854
g8
S'create_views_books_tests_test_add_tag_to_subchapter_view.html'
p855
sg10
S'create/views/books/tests/test_add_tag_to_subchapter_view'
p856
sg12
g13
(g14
g15
NtRp857
(dp858
g18
I1
sg19
I0
sg20
I40
sg21
I0
sg22
I0
sg23
I0
sg24
I0
sbssg25
S'\xb78\xf4p\xcd\xec\xca\xaa\x93\xb9\xda\xa8Yo37'
p859
ssS'create_views_questions_tests_test_get_question_by_id_view'
p860
(dp861
g6
(dp862
g8
S'create_views_questions_tests_test_get_question_by_id_view.html'
p863
sg10
S'create/views/questions/tests/test_get_question_by_id_view'
p864
sg12
g13
(g14
g15
NtRp865
(dp866
g18
I1
sg19
I0
sg20
I24
sg21
I0
sg22
I0
sg23
I0
sg24
I0
sbssg25
S'\xa7[\x91\xa9\xa6\xb4\xbd&n$O^O\xec\xf2X'
p867
ssS'user_system_views_schools_classroom_view'
p868
(dp869
g6
(dp870
g8
S'user_system_views_schools_classroom_view.html'
p871
sg10
S'user_system/views/schools/classroom_view'
p872
sg12
g13
(g14
g15
NtRp873
(dp874
g18
I1
sg19
I2
sg20
I25
sg21
I0
sg22
I0
sg23
I6
sg24
I2
sbssg25
S'\xc5\x9bb\xc9\x83\xc2\x88\xd8,\x01\xeb\x94.\x8b\xf7\xd6'
p875
ssS'user_system_views_signups_verify_email_view'
p876
(dp877
g6
(dp878
g8
S'user_system_views_signups_verify_email_view.html'
p879
sg10
S'user_system/views/signups/verify_email_view'
p880
sg12
g13
(g14
g15
NtRp881
(dp882
g18
I1
sg19
I6
sg20
I26
sg21
I0
sg22
I0
sg23
I0
sg24
I0
sbssg25
S"B+;\xbf\xb1A\x1f\n\x94\x0e\xeb\xd0\xf1Y'l"
p883
ssS'user_system_views_schools___init__'
p884
(dp885
g6
(dp886
g8
S'user_system_views_schools___init__.html'
p887
sg10
S'user_system/views/schools/__init__'
p888
sg12
g13
(g14
g15
NtRp889
(dp890
g18
I1
sg19
I0
sg20
I4
sg21
I0
sg22
I0
sg23
I0
sg24
I0
sbssg25
S'\xb7\x05\xb1\x95\xf1V\x04[\x0e\xa0\xf7\x96.@Iw'
p891
ssS'create_views_quests___init__'
p892
(dp893
g6
(dp894
g8
S'create_views_quests___init__.html'
p895
sg10
S'create/views/quests/__init__'
p896
sg12
g13
(g14
g15
NtRp897
(dp898
g18
I1
sg19
I0
sg20
I1
sg21
I0
sg22
I0
sg23
I0
sg24
I0
sbssg25
S'\x8d\x97\x8c^6\xf0o\xc3_\x8dRQ}\xd2]a'
p899
ssS'create_views_books_tests_test_remove_subchapter_view'
p900
(dp901
g6
(dp902
g8
S'create_views_books_tests_test_remove_subchapter_view.html'
p903
sg10
S'create/views/books/tests/test_remove_subchapter_view'
p904
sg12
g13
(g14
g15
NtRp905
(dp906
g18
I1
sg19
I0
sg20
I44
sg21
I0
sg22
I0
sg23
I0
sg24
I0
sbssg25
S'\x0b\xddi\xaa_d\x8c\xf3b\xa2\x12\xbc\xce\xa5\xbf\x8b'
p907
ssS'teach_views_campaigns_campaign_view'
p908
(dp909
g6
(dp910
g8
S'teach_views_campaigns_campaign_view.html'
p911
sg10
S'teach/views/campaigns/campaign_view'
p912
sg12
g13
(g14
g15
NtRp913
(dp914
g18
I1
sg19
I4
sg20
I32
sg21
I0
sg22
I0
sg23
I12
sg24
I4
sbssg25
S'\xb5\xbcP\n\xf1\xe8z\x0bC`h\xbf\x08\x16\x16\x17'
p915
ssS'create_views_daily_quest_copies_daily_quest_copy_view'
p916
(dp917
g6
(dp918
g8
S'create_views_daily_quest_copies_daily_quest_copy_view.html'
p919
sg10
S'create/views/daily_quest_copies/daily_quest_copy_view'
p920
sg12
g13
(g14
g15
NtRp921
(dp922
g18
I1
sg19
I0
sg20
I14
sg21
I0
sg22
I0
sg23
I0
sg24
I0
sbssg25
S'?\x95&\\\xae\xf0@\xfc\x96\xc15\xc9\x13\xf6_R'
p923
ssS'create_views_questions___init__'
p924
(dp925
g6
(dp926
g8
S'create_views_questions___init__.html'
p927
sg10
S'create/views/questions/__init__'
p928
sg12
g13
(g14
g15
NtRp929
(dp930
g18
I1
sg19
I0
sg20
I3
sg21
I0
sg22
I0
sg23
I0
sg24
I0
sbssg25
S'h\x154\xc5\xe58\xa8\xc8\xa9\xa6\xbea?\xcf?i'
p931
ssS'user_system_views_users_create_teacher_view'
p932
(dp933
g6
(dp934
g8
S'user_system_views_users_create_teacher_view.html'
p935
sg10
S'user_system/views/users/create_teacher_view'
p936
sg12
g13
(g14
g15
NtRp937
(dp938
g18
I1
sg19
I2
sg20
I34
sg21
I0
sg22
I0
sg23
I21
sg24
I2
sbssg25
S'=\xee\xed^jo\xc1\xebz\xedP\xf9\x91n\xec\x8d'
p939
ssS'learn_views_student_news_feed_tests_test_student_news_feed_view'
p940
(dp941
g6
(dp942
g8
S'learn_views_student_news_feed_tests_test_student_news_feed_view.html'
p943
sg10
S'learn/views/student_news_feed/tests/test_student_news_feed_view'
p944
sg12
g13
(g14
g15
NtRp945
(dp946
g18
I1
sg19
I2
sg20
I20
sg21
I0
sg22
I0
sg23
I0
sg24
I0
sbssg25
S'$\xe5\xe2\r\x17\x08S\x8f\xb4\xb4\xe6\x19\t\x1e\x7f\xfe'
p947
ssS'teach_views_summaries_daily_quest_daily_summary_view'
p948
(dp949
g6
(dp950
g8
S'teach_views_summaries_daily_quest_daily_summary_view.html'
p951
sg10
S'teach/views/summaries/daily_quest_daily_summary_view'
p952
sg12
g13
(g14
g15
NtRp953
(dp954
g18
I1
sg19
I12
sg20
I61
sg21
I0
sg22
I0
sg23
I39
sg24
I12
sbssg25
S'\x06\\F.\x8c\xd3M\x8e\xc5\xc9\xd5<\x13V\xd6C'
p955
ssS'create_views_summary___init__'
p956
(dp957
g6
(dp958
g8
S'create_views_summary___init__.html'
p959
sg10
S'create/views/summary/__init__'
p960
sg12
g13
(g14
g15
NtRp961
(dp962
g18
I1
sg19
I0
sg20
I1
sg21
I0
sg22
I0
sg23
I0
sg24
I0
sbssg25
S'#\xb7\xbd\xa1M\xe4\xa0\x05\xf5x\x057hU[\xca'
p963
ssS'learn_views___init__'
p964
(dp965
g6
(dp966
g8
S'learn_views___init__.html'
p967
sg10
S'learn/views/__init__'
p968
sg12
g13
(g14
g15
NtRp969
(dp970
g18
I1
sg19
I0
sg20
I2
sg21
I0
sg22
I0
sg23
I0
sg24
I0
sbssg25
S"?\xc0'\xcb\x1c\xf1\xaa\xf0\x9d\xc7\x0e\xf1\xda\x0eU\x17"
p971
ssS'user_system_views_signups_hardcoded_test_account_view'
p972
(dp973
g6
(dp974
g8
S'user_system_views_signups_hardcoded_test_account_view.html'
p975
sg10
S'user_system/views/signups/hardcoded/test_account_view'
p976
sg12
g13
(g14
g15
NtRp977
(dp978
g18
I1
sg19
I2
sg20
I18
sg21
I0
sg22
I0
sg23
I0
sg24
I0
sbssg25
S"\xb4\xf1\xfdH\x8f\xf1QX7'\\\xd3\xab.\xbc\x80"
p979
ssS'create_views_tags_tests_test_get_tag_by_id_view'
p980
(dp981
g6
(dp982
g8
S'create_views_tags_tests_test_get_tag_by_id_view.html'
p983
sg10
S'create/views/tags/tests/test_get_tag_by_id_view'
p984
sg12
g13
(g14
g15
NtRp985
(dp986
g18
I1
sg19
I0
sg20
I20
sg21
I0
sg22
I0
sg23
I0
sg24
I0
sbssg25
S'T\xd5\xd7\xd9\xb8\x12\x81xj\xca\x90\xa41\xcf\x02]'
p987
ssS'user_system_views_users_create_student_view'
p988
(dp989
g6
(dp990
g8
S'user_system_views_users_create_student_view.html'
p991
sg10
S'user_system/views/users/create_student_view'
p992
sg12
g13
(g14
g15
NtRp993
(dp994
g18
I1
sg19
I2
sg20
I37
sg21
I0
sg22
I0
sg23
I24
sg24
I2
sbssg25
S'\x8e\xce\xac\xe9\xe3J4\xbb\x88$\xefFS\x06Ow'
p995
ssS'create_views_question_datasets___init__'
p996
(dp997
g6
(dp998
g8
S'create_views_question_datasets___init__.html'
p999
sg10
S'create/views/question_datasets/__init__'
p1000
sg12
g13
(g14
g15
NtRp1001
(dp1002
g18
I1
sg19
I0
sg20
I1
sg21
I0
sg22
I0
sg23
I0
sg24
I0
sbssg25
S'\x87x\xd1\xbe\x15\xd3\xbc\x99\x86\x08\xf8\x06S\xcf\x00\x87'
p1003
ssS'user_system_views_users_user_streak_history_view'
p1004
(dp1005
g6
(dp1006
g8
S'user_system_views_users_user_streak_history_view.html'
p1007
sg10
S'user_system/views/users/user_streak_history_view'
p1008
sg12
g13
(g14
g15
NtRp1009
(dp1010
g18
I1
sg19
I0
sg20
I15
sg21
I0
sg22
I0
sg23
I0
sg24
I0
sbssg25
S'\x82\xa4:\x84\x8dJE7\xc0"\xbb\xceU\xa9\xd6\x07'
p1011
ssS'user_system_views_roles_tests_test_user_role_view'
p1012
(dp1013
g6
(dp1014
g8
S'user_system_views_roles_tests_test_user_role_view.html'
p1015
sg10
S'user_system/views/roles/tests/test_user_role_view'
p1016
sg12
g13
(g14
g15
NtRp1017
(dp1018
g18
I1
sg19
I0
sg20
I41
sg21
I0
sg22
I0
sg23
I0
sg24
I0
sbssg25
S'\xaf \x02-\xd3\xa9\xee\x1e7\x87\xa8[\xd9\xd8V\xd8'
p1019
ssS'user_system_views_signups_hardcoded_tests___init__'
p1020
(dp1021
g6
(dp1022
g8
S'user_system_views_signups_hardcoded_tests___init__.html'
p1023
sg10
S'user_system/views/signups/hardcoded/tests/__init__'
p1024
sg12
g13
(g14
g15
NtRp1025
(dp1026
g18
I1
sg19
I0
sg20
I0
sg21
I0
sg22
I0
sg23
I0
sg24
I0
sbssg25
S'\x19g\xdfM\x1a\x019\xaf\x1baIeR\xe5u\xa7'
p1027
ssS'user_system_views_signups___init__'
p1028
(dp1029
g6
(dp1030
g8
S'user_system_views_signups___init__.html'
p1031
sg10
S'user_system/views/signups/__init__'
p1032
sg12
g13
(g14
g15
NtRp1033
(dp1034
g18
I1
sg19
I0
sg20
I5
sg21
I0
sg22
I0
sg23
I0
sg24
I0
sbssg25
S'\xad\xb5\x1c"8P^k\xe3\xaa\x7fv\xbc\xc9\xc6\x01'
p1035
ssS'create_views_tags_tag_view'
p1036
(dp1037
g6
(dp1038
g97
S'create_views_tags_tag_view.html'
p1039
sg99
S'create/views/tags/tag_view'
p1040
sg101
g13
(g14
g15
NtRp1041
(dp1042
g18
I1
sg19
I32
sg20
I93
sg21
I0
sg22
I4
sg23
I9
sg24
I12
sbssg25
S'\xcfpO\\\xdb"\xc2Q\xb2D\xa7\x93x\xbd\x18a'
p1043
ssS'user_system_views_apps_tests_test_get_apps_list_view'
p1044
(dp1045
g6
(dp1046
g8
S'user_system_views_apps_tests_test_get_apps_list_view.html'
p1047
sg10
S'user_system/views/apps/tests/test_get_apps_list_view'
p1048
sg12
g13
(g14
g15
NtRp1049
(dp1050
g18
I1
sg19
I0
sg20
I18
sg21
I0
sg22
I0
sg23
I0
sg24
I0
sbssg25
S'\x87\xab;"\x01p\xf9\xe5\xa6\xb1\xaej\x8egl\x99'
p1051
ssS'user_system_views___init__'
p1052
(dp1053
g6
(dp1054
g8
S'user_system_views___init__.html'
p1055
sg10
S'user_system/views/__init__'
p1056
sg12
g13
(g14
g15
NtRp1057
(dp1058
g18
I1
sg19
I0
sg20
I6
sg21
I0
sg22
I0
sg23
I0
sg24
I0
sbssg25
S'F\xa0L<\x89\xf6\x17C\x98\xb9\xf9\x9c\x08\xff\x8d\x8a'
p1059
ssS'create_views_books_tests_test_update_book_view'
p1060
(dp1061
g134
(dp1062
g97
S'create_views_books_tests_test_update_book_view.html'
p1063
sg99
S'create/views/books/tests/test_update_book_view'
p1064
sg101
g13
(g14
g15
NtRp1065
(dp1066
g18
I1
sg19
I0
sg20
I25
sg21
I0
sg22
I0
sg23
I0
sg24
I0
sbssg143
S'\xafH\xe5\x82r\xb2\x17\x84b\xfb\x1c\x9a\xf0\x0f\xbd\xf2'
p1067
ssS'user_system_views_users_tests_test_add_role_view'
p1068
(dp1069
g6
(dp1070
g8
S'user_system_views_users_tests_test_add_role_view.html'
p1071
sg10
S'user_system/views/users/tests/test_add_role_view'
p1072
sg12
g13
(g14
g15
NtRp1073
(dp1074
g18
I1
sg19
I0
sg20
I36
sg21
I0
sg22
I0
sg23
I0
sg24
I0
sbssg25
S'\x0eh\xf7\xba\x08_N\xdeM\xdf\x03\xbd\x8c\x8a\x89\xd0'
p1075
ssS'user_system_views_users_user_profile_update_request_view'
p1076
(dp1077
g6
(dp1078
g8
S'user_system_views_users_user_profile_update_request_view.html'
p1079
sg10
S'user_system/views/users/user_profile_update_request_view'
p1080
sg12
g13
(g14
g15
NtRp1081
(dp1082
g18
I1
sg19
I24
sg20
I70
sg21
I0
sg22
I0
sg23
I51
sg24
I24
sbssg25
S"\x04\xfd\x81?\x1e<^\xb0%\xad\xa6'\xcf\xa1\xc3)"
p1083
ssS'learn_views_student_news_feed___init__'
p1084
(dp1085
g6
(dp1086
g8
S'learn_views_student_news_feed___init__.html'
p1087
sg10
S'learn/views/student_news_feed/__init__'
p1088
sg12
g13
(g14
g15
NtRp1089
(dp1090
g18
I1
sg19
I0
sg20
I1
sg21
I0
sg22
I0
sg23
I0
sg24
I0
sbssg25
S'\xc5\x87\xccQ|\xa2\xee\x11p\x84\xfe\xed\xe3W\xfa\x07'
p1091
ssS'create_views_books_tests_test_create_new_book'
p1092
(dp1093
g6
(dp1094
g8
S'create_views_books_tests_test_create_new_book.html'
p1095
sg10
S'create/views/books/tests/test_create_new_book'
p1096
sg12
g13
(g14
g15
NtRp1097
(dp1098
g18
I1
sg19
I0
sg20
I18
sg21
I0
sg22
I0
sg23
I0
sg24
I0
sbssg25
S'\xe3\xaew\xf8\xd7\x8f\xc5 \x85\xc1\xb6I\x82X(-'
p1099
ssS'user_system_views_users_tests_test_remove_role_view'
p1100
(dp1101
g6
(dp1102
g8
S'user_system_views_users_tests_test_remove_role_view.html'
p1103
sg10
S'user_system/views/users/tests/test_remove_role_view'
p1104
sg12
g13
(g14
g15
NtRp1105
(dp1106
g18
I1
sg19
I0
sg20
I42
sg21
I0
sg22
I0
sg23
I0
sg24
I0
sbssg25
S'\xfb\x9b\xa3\xe5\x90\xe7q99\x19\x10"<@L\x8c'
p1107
ssS'learn_views_daily_quests_daily_quest_submission_view'
p1108
(dp1109
g6
(dp1110
g8
S'learn_views_daily_quests_daily_quest_submission_view.html'
p1111
sg10
S'learn/views/daily_quests/daily_quest_submission_view'
p1112
sg12
g13
(g14
g15
NtRp1113
(dp1114
g18
I1
sg19
I30
sg20
I79
sg21
I0
sg22
I0
sg23
I61
sg24
I30
sbssg25
S'\t}\x01u\xd14"\x14\x84\x02\xe9\xc4\xcf(\x08\xa4'
p1115
ssS'teach_views_summaries_tests___init__'
p1116
(dp1117
g6
(dp1118
g8
S'teach_views_summaries_tests___init__.html'
p1119
sg10
S'teach/views/summaries/tests/__init__'
p1120
sg12
g13
(g14
g15
NtRp1121
(dp1122
g18
I1
sg19
I0
sg20
I0
sg21
I0
sg22
I0
sg23
I0
sg24
I0
sbssg25
S'\x19g\xdfM\x1a\x019\xaf\x1baIeR\xe5u\xa7'
p1123
ssS'api_logging_views_user_activities_user_agent_view'
p1124
(dp1125
g6
(dp1126
g8
S'api_logging_views_user_activities_user_agent_view.html'
p1127
sg10
S'api_logging/views/user_activities/user_agent_view'
p1128
sg12
g13
(g14
g15
NtRp1129
(dp1130
g18
I1
sg19
I26
sg20
I68
sg21
I0
sg22
I0
sg23
I50
sg24
I26
sbssg25
S'\xc4\xc5\xa3P\xc7\xa8\xdc\x1b#\x14\xe4\xe7o\x17\xba\x82'
p1131
ssS'teach_views_summaries_daily_quest_summary_view'
p1132
(dp1133
g6
(dp1134
g8
S'teach_views_summaries_daily_quest_summary_view.html'
p1135
sg10
S'teach/views/summaries/daily_quest_summary_view'
p1136
sg12
g13
(g14
g15
NtRp1137
(dp1138
g18
I1
sg19
I28
sg20
I80
sg21
I0
sg22
I0
sg23
I59
sg24
I28
sbssg25
S'\x9fe\xf9\x1c\x8a\xe2\xf4dr\xd6i\xd4\x89\xae\x1b\xf6'
p1139
ssS'user_system_views_users_student_profile_request_view'
p1140
(dp1141
g6
(dp1142
g8
S'user_system_views_users_student_profile_request_view.html'
p1143
sg10
S'user_system/views/users/student_profile_request_view'
p1144
sg12
g13
(g14
g15
NtRp1145
(dp1146
g18
I1
sg19
I0
sg20
I14
sg21
I0
sg22
I0
sg23
I0
sg24
I0
sbssg25
S'\x87:\xd0\xef\x04\xf3-q\r\xe7\xec \xceS\xee<'
p1147
ssS'teach_views_teacher_chapters_teacher_chapter_view'
p1148
(dp1149
g6
(dp1150
g8
S'teach_views_teacher_chapters_teacher_chapter_view.html'
p1151
sg10
S'teach/views/teacher_chapters/teacher_chapter_view'
p1152
sg12
g13
(g14
g15
NtRp1153
(dp1154
g18
I1
sg19
I12
sg20
I44
sg21
I0
sg22
I0
sg23
I25
sg24
I12
sbssg25
S'Z\xc5\n\xdb\xe5!2~7\xe3i\xa7j\xd4\x10\x8c'
p1155
ssS'user_system_views_logins_tests___init__'
p1156
(dp1157
g6
(dp1158
g8
S'user_system_views_logins_tests___init__.html'
p1159
sg10
S'user_system/views/logins/tests/__init__'
p1160
sg12
g13
(g14
g15
NtRp1161
(dp1162
g18
I1
sg19
I0
sg20
I1
sg21
I0
sg22
I0
sg23
I0
sg24
I0
sbssg25
S'\xbc\xd6\xeb\xb3\xba\xcaz\xf7{\xd4B\xb5}l\xdf\x96'
p1163
ssS'create_views_books_book_view'
p1164
(dp1165
g6
(dp1166
g97
S'create_views_books_book_view.html'
p1167
sg99
S'create/views/books/book_view'
p1168
sg101
g13
(g14
g15
NtRp1169
(dp1170
g18
I1
sg19
I34
sg20
I125
sg21
I0
sg22
I2
sg23
I0
sg24
I2
sbssg25
S'\x0e\x85v\xe8\xe85\r\x00\x94\xa2c/G\xdd\x9dE'
p1171
ssS'api_logging_views_modal_loggings___init__'
p1172
(dp1173
g6
(dp1174
g8
S'api_logging_views_modal_loggings___init__.html'
p1175
sg10
S'api_logging/views/modal_loggings/__init__'
p1176
sg12
g13
(g14
g15
NtRp1177
(dp1178
g18
I1
sg19
I0
sg20
I1
sg21
I0
sg22
I0
sg23
I0
sg24
I0
sbssg25
S'\xf1\x0fWK\x0c\x9eD\xe8\x12\xaf\x93\xfa\xd7q\xa8\x91'
p1179
ssS'user_system_views_users_tests_test_get_users_by_signup_type_view'
p1180
(dp1181
g6
(dp1182
g8
S'user_system_views_users_tests_test_get_users_by_signup_type_view.html'
p1183
sg10
S'user_system/views/users/tests/test_get_users_by_signup_type_view'
p1184
sg12
g13
(g14
g15
NtRp1185
(dp1186
g18
I1
sg19
I0
sg20
I44
sg21
I0
sg22
I0
sg23
I0
sg24
I0
sbssg25
S'T/\xf9\xf8\x94\xd6Lm\x89o\xb6\x99/Z\xc1]'
p1187
ssS'create_views_quests_tests_test_add_question_template_view'
p1188
(dp1189
g6
(dp1190
g8
S'create_views_quests_tests_test_add_question_template_view.html'
p1191
sg10
S'create/views/quests/tests/test_add_question_template_view'
p1192
sg12
g13
(g14
g15
NtRp1193
(dp1194
g18
I1
sg19
I0
sg20
I0
sg21
I0
sg22
I0
sg23
I0
sg24
I0
sbssg25
S'\x19g\xdfM\x1a\x019\xaf\x1baIeR\xe5u\xa7'
p1195
ssS'create_views_tags_tests_test_remove_prerequisite_view'
p1196
(dp1197
g6
(dp1198
g8
S'create_views_tags_tests_test_remove_prerequisite_view.html'
p1199
sg10
S'create/views/tags/tests/test_remove_prerequisite_view'
p1200
sg12
g13
(g14
g15
NtRp1201
(dp1202
g18
I1
sg19
I0
sg20
I38
sg21
I0
sg22
I0
sg23
I0
sg24
I0
sbssg25
S'\xb4-c8G7\x8c\x02p\xb3\xc2\x9d}nI\xc6'
p1203
ssS'create_views_tags_tests_test_hide_tag_view'
p1204
(dp1205
g6
(dp1206
g8
S'create_views_tags_tests_test_hide_tag_view.html'
p1207
sg10
S'create/views/tags/tests/test_hide_tag_view'
p1208
sg12
g13
(g14
g15
NtRp1209
(dp1210
g18
I1
sg19
I0
sg20
I25
sg21
I0
sg22
I0
sg23
I0
sg24
I0
sbssg25
S'\x8a\x07\xe0\xe1Q\x820\x05R\x14E\xd0\xdf\x8e\xc5\x8a'
p1211
ssS'learn_views_daily_quests___init__'
p1212
(dp1213
g6
(dp1214
g8
S'learn_views_daily_quests___init__.html'
p1215
sg10
S'learn/views/daily_quests/__init__'
p1216
sg12
g13
(g14
g15
NtRp1217
(dp1218
g18
I1
sg19
I0
sg20
I4
sg21
I0
sg22
I0
sg23
I0
sg24
I0
sbssg25
S'<\xb7\x9f\x967\xb6\x85\x96\x7frG\x80\x7f\xacB\xb0'
p1219
ssS'create_views_books_tests_test_chapters_view'
p1220
(dp1221
g6
(dp1222
g8
S'create_views_books_tests_test_chapters_view.html'
p1223
sg10
S'create/views/books/tests/test_chapters_view'
p1224
sg12
g13
(g14
g15
NtRp1225
(dp1226
g18
I1
sg19
I0
sg20
I24
sg21
I0
sg22
I0
sg23
I0
sg24
I0
sbssg25
S'\x00\xb1\x9d\xc1\x84\x85\x83\x03X\x7fF~y\xed\xe3\xd5'
p1227
ssS'api_logging_views_user_activities___init__'
p1228
(dp1229
g6
(dp1230
g8
S'api_logging_views_user_activities___init__.html'
p1231
sg10
S'api_logging/views/user_activities/__init__'
p1232
sg12
g13
(g14
g15
NtRp1233
(dp1234
g18
I1
sg19
I0
sg20
I1
sg21
I0
sg22
I0
sg23
I0
sg24
I0
sbssg25
S'\xbc\x87\xa7&\xe2B=>v\tt\x06,\x1d<['
p1235
ssS'user_system_views_signups_tests___init__'
p1236
(dp1237
g6
(dp1238
g8
S'user_system_views_signups_tests___init__.html'
p1239
sg10
S'user_system/views/signups/tests/__init__'
p1240
sg12
g13
(g14
g15
NtRp1241
(dp1242
g18
I1
sg19
I0
sg20
I1
sg21
I0
sg22
I0
sg23
I0
sg24
I0
sbssg25
S'\xbc\xd6\xeb\xb3\xba\xcaz\xf7{\xd4B\xb5}l\xdf\x96'
p1243
ssS'api_logging_views_LoggingView'
p1244
(dp1245
g6
(dp1246
g8
S'api_logging_views_LoggingView.html'
p1247
sg10
S'api_logging/views/LoggingView'
p1248
sg12
g13
(g14
g15
NtRp1249
(dp1250
g18
I1
sg19
I8
sg20
I41
sg21
I0
sg22
I0
sg23
I27
sg24
I8
sbssg25
S'\xe3\xefQ\x1e\x9e\xec\xea\xa7\xc5\x05\xb9\x90\xf6\xf3\x88\x9b'
p1251
ssS'create_views_books_tests___init__'
p1252
(dp1253
g6
(dp1254
g8
S'create_views_books_tests___init__.html'
p1255
sg10
S'create/views/books/tests/__init__'
p1256
sg12
g13
(g14
g15
NtRp1257
(dp1258
g18
I1
sg19
I0
sg20
I0
sg21
I0
sg22
I0
sg23
I0
sg24
I0
sbssg25
S'\x19g\xdfM\x1a\x019\xaf\x1baIeR\xe5u\xa7'
p1259
ssS'teach_views_summaries_migrations___init__'
p1260
(dp1261
g6
(dp1262
g116
S'teach_views_summaries_migrations___init__.html'
p1263
sg118
S'teach/views/summaries/migrations/__init__'
p1264
sg120
g13
(g14
g15
NtRp1265
(dp1266
g18
I1
sg19
I0
sg20
I1
sg21
I0
sg22
I0
sg23
I0
sg24
I0
sbssg25
S'\xc3\x93h\xecbZ\x11\xb6]\x83\\\xb8]L\xd2 '
p1267
sssS'version'
p1268
S'3.7.1'
p1269
sS'settings'
p1270
S'\x9bD*$\xc6\xbc\x8e\xef2h\xbe"\xdb\xe4\xa2\xe1'
p1271
sS'format'
p1272
I1
s.